ARM GAS  /var/folders/vd/czx34qs52cd_f3nb04sxmghc0000gn/T//cclTBkYZ.s 			page 1


   1              		.cpu cortex-m4
   2              		.eabi_attribute 20, 1
   3              		.eabi_attribute 21, 1
   4              		.eabi_attribute 23, 3
   5              		.eabi_attribute 24, 1
   6              		.eabi_attribute 25, 1
   7              		.eabi_attribute 26, 1
   8              		.eabi_attribute 30, 2
   9              		.eabi_attribute 34, 1
  10              		.eabi_attribute 18, 4
  11              		.file	"board.c"
  12              		.text
  13              	.Ltext0:
  14              		.cfi_sections	.debug_frame
  15              		.section	.text.__early_init,"ax",%progbits
  16              		.align	1
  17              		.p2align 4,,15
  18              		.global	__early_init
  19              		.syntax unified
  20              		.thumb
  21              		.thumb_func
  22              		.fpu softvfp
  23              		.type	__early_init, %function
  24              	__early_init:
  25              	.LFB315:
  26              		.file 1 "../dev/board/board.c"
  27              		.loc 1 210 0
  28              		.cfi_startproc
  29              		@ args = 0, pretend = 0, frame = 0
  30              		@ frame_needed = 0, uses_anonymous_args = 0
  31              	.LBB40:
  32              	.LBB41:
  33              		.loc 1 158 0
  34 0000 434A     		ldr	r2, .L4
  35              	.LBB42:
  36              	.LBB43:
  37              		.loc 1 145 0
  38 0002 4449     		ldr	r1, .L4+4
  39              	.LBE43:
  40              	.LBE42:
  41              	.LBB45:
  42              	.LBB46:
  43 0004 4448     		ldr	r0, .L4+8
  44              	.LBE46:
  45              	.LBE45:
  46              	.LBE41:
  47              	.LBE40:
  48              		.loc 1 210 0
  49 0006 F0B5     		push	{r4, r5, r6, r7, lr}
  50              		.cfi_def_cfa_offset 20
  51              		.cfi_offset 4, -20
  52              		.cfi_offset 5, -16
  53              		.cfi_offset 6, -12
  54              		.cfi_offset 7, -8
  55              		.cfi_offset 14, -4
  56              	.LBB88:
  57              	.LBB86:
ARM GAS  /var/folders/vd/czx34qs52cd_f3nb04sxmghc0000gn/T//cclTBkYZ.s 			page 2


  58              		.loc 1 158 0
  59 0008 1669     		ldr	r6, [r2, #16]
  60              	.LBB50:
  61              	.LBB51:
  62              		.loc 1 145 0
  63 000a 444D     		ldr	r5, .L4+12
  64              	.LBE51:
  65              	.LBE50:
  66              	.LBB53:
  67              	.LBB54:
  68 000c 444C     		ldr	r4, .L4+16
  69              	.LBE54:
  70              	.LBE53:
  71              	.LBB56:
  72              	.LBB57:
  73 000e 454F     		ldr	r7, .L4+20
  74              	.LBE57:
  75              	.LBE56:
  76              		.loc 1 158 0
  77 0010 40F2FF1C 		movw	ip, #511
  78 0014 0023     		movs	r3, #0
  79 0016 46EA0C06 		orr	r6, r6, ip
  80 001a 1661     		str	r6, [r2, #16]
  81 001c 1361     		str	r3, [r2, #16]
  82              		.loc 1 159 0
  83 001e 166B     		ldr	r6, [r2, #48]
  84 0020 46EA0C06 		orr	r6, r6, ip
  85 0024 1663     		str	r6, [r2, #48]
  86 0026 166D     		ldr	r6, [r2, #80]
  87 0028 46EA0C06 		orr	r6, r6, ip
  88 002c 1665     		str	r6, [r2, #80]
  89              	.LVL0:
  90              	.LBB60:
  91              	.LBB44:
  92              		.loc 1 146 0
  93 002e 6FF4A84E 		mvn	lr, #21504
  94              		.loc 1 147 0
  95 0032 3D4E     		ldr	r6, .L4+24
  96              		.loc 1 145 0
  97 0034 4B60     		str	r3, [r1, #4]
  98              		.loc 1 148 0
  99 0036 4FF6FF72 		movw	r2, #65535
 100              		.loc 1 146 0
 101 003a C1F808E0 		str	lr, [r1, #8]
 102              		.loc 1 149 0
 103 003e DFF810C1 		ldr	ip, .L4+64
 104              		.loc 1 147 0
 105 0042 CE60     		str	r6, [r1, #12]
 106              		.loc 1 150 0
 107 0044 394E     		ldr	r6, .L4+28
 108              		.loc 1 148 0
 109 0046 4A61     		str	r2, [r1, #20]
 110              		.loc 1 149 0
 111 0048 C1F820C0 		str	ip, [r1, #32]
 112              		.loc 1 150 0
 113 004c 4E62     		str	r6, [r1, #36]
 114              		.loc 1 151 0
ARM GAS  /var/folders/vd/czx34qs52cd_f3nb04sxmghc0000gn/T//cclTBkYZ.s 			page 3


 115 004e DFF804C1 		ldr	ip, .L4+68
 116 0052 C1F800C0 		str	ip, [r1]
 117              	.LVL1:
 118              	.LBE44:
 119              	.LBE60:
 120              	.LBB61:
 121              	.LBB52:
 122              		.loc 1 145 0
 123 0056 4FF41076 		mov	r6, #576
 124 005a 6E60     		str	r6, [r5, #4]
 125              		.loc 1 146 0
 126 005c 4FF0FF31 		mov	r1, #-1
 127              		.loc 1 147 0
 128 0060 DFF8F4C0 		ldr	ip, .L4+72
 129              		.loc 1 146 0
 130 0064 A960     		str	r1, [r5, #8]
 131              		.loc 1 149 0
 132 0066 4FF08066 		mov	r6, #67108864
 133              		.loc 1 147 0
 134 006a C5F80CC0 		str	ip, [r5, #12]
 135              		.loc 1 148 0
 136 006e 6A61     		str	r2, [r5, #20]
 137              		.loc 1 150 0
 138 0070 4FF0400C 		mov	ip, #64
 139              		.loc 1 149 0
 140 0074 2E62     		str	r6, [r5, #32]
 141              		.loc 1 151 0
 142 0076 2E4E     		ldr	r6, .L4+32
 143              		.loc 1 150 0
 144 0078 C5F824C0 		str	ip, [r5, #36]
 145              		.loc 1 151 0
 146 007c 2E60     		str	r6, [r5]
 147              	.LVL2:
 148              	.LBE52:
 149              	.LBE61:
 150              	.LBB62:
 151              	.LBB55:
 152              		.loc 1 147 0
 153 007e 05F1A255 		add	r5, r5, #339738624
 154 0082 05F54435 		add	r5, r5, #200704
 155 0086 05F5AA75 		add	r5, r5, #340
 156              		.loc 1 145 0
 157 008a 6360     		str	r3, [r4, #4]
 158              		.loc 1 146 0
 159 008c A160     		str	r1, [r4, #8]
 160              		.loc 1 147 0
 161 008e E560     		str	r5, [r4, #12]
 162              		.loc 1 149 0
 163 0090 4FF0C045 		mov	r5, #1610612736
 164              		.loc 1 148 0
 165 0094 6261     		str	r2, [r4, #20]
 166              		.loc 1 149 0
 167 0096 2562     		str	r5, [r4, #32]
 168              		.loc 1 150 0
 169 0098 264D     		ldr	r5, .L4+36
 170 009a 6562     		str	r5, [r4, #36]
 171              		.loc 1 151 0
ARM GAS  /var/folders/vd/czx34qs52cd_f3nb04sxmghc0000gn/T//cclTBkYZ.s 			page 4


 172 009c 264D     		ldr	r5, .L4+40
 173 009e 2560     		str	r5, [r4]
 174              	.LVL3:
 175              	.LBE55:
 176              	.LBE62:
 177              	.LBB63:
 178              	.LBB47:
 179              		.loc 1 147 0
 180 00a0 264C     		ldr	r4, .L4+44
 181              		.loc 1 145 0
 182 00a2 4360     		str	r3, [r0, #4]
 183              		.loc 1 146 0
 184 00a4 8160     		str	r1, [r0, #8]
 185              		.loc 1 147 0
 186 00a6 C460     		str	r4, [r0, #12]
 187              		.loc 1 148 0
 188 00a8 40F6FF74 		movw	r4, #4095
 189 00ac 4461     		str	r4, [r0, #20]
 190              		.loc 1 151 0
 191 00ae 244C     		ldr	r4, .L4+48
 192              		.loc 1 149 0
 193 00b0 0362     		str	r3, [r0, #32]
 194              	.LBE47:
 195              	.LBE63:
 196              	.LBB64:
 197              	.LBB65:
 198              		.loc 1 145 0
 199 00b2 244E     		ldr	r6, .L4+52
 200              	.LBE65:
 201              	.LBE64:
 202              	.LBB67:
 203              	.LBB48:
 204              		.loc 1 150 0
 205 00b4 4362     		str	r3, [r0, #36]
 206              	.LBE48:
 207              	.LBE67:
 208              	.LBB68:
 209              	.LBB69:
 210              		.loc 1 145 0
 211 00b6 244D     		ldr	r5, .L4+56
 212              	.LBE69:
 213              	.LBE68:
 214              	.LBB71:
 215              	.LBB49:
 216              		.loc 1 151 0
 217 00b8 0460     		str	r4, [r0]
 218              	.LVL4:
 219              	.LBE49:
 220              	.LBE71:
 221              	.LBB72:
 222              	.LBB73:
 223              		.loc 1 145 0
 224 00ba 244C     		ldr	r4, .L4+60
 225              	.LBE73:
 226              	.LBE72:
 227              	.LBB75:
 228              	.LBB58:
ARM GAS  /var/folders/vd/czx34qs52cd_f3nb04sxmghc0000gn/T//cclTBkYZ.s 			page 5


 229 00bc 7B60     		str	r3, [r7, #4]
 230              	.LBE58:
 231              	.LBE75:
 232              	.LBB76:
 233              	.LBB77:
 234 00be 00F5A050 		add	r0, r0, #5120
 235              	.LBE77:
 236              	.LBE76:
 237              	.LBB80:
 238              	.LBB59:
 239              		.loc 1 146 0
 240 00c2 B960     		str	r1, [r7, #8]
 241              		.loc 1 147 0
 242 00c4 FB60     		str	r3, [r7, #12]
 243              		.loc 1 148 0
 244 00c6 7A61     		str	r2, [r7, #20]
 245              		.loc 1 149 0
 246 00c8 3B62     		str	r3, [r7, #32]
 247              		.loc 1 150 0
 248 00ca 7B62     		str	r3, [r7, #36]
 249              		.loc 1 151 0
 250 00cc C7F800C0 		str	ip, [r7]
 251              	.LVL5:
 252              	.LBE59:
 253              	.LBE80:
 254              	.LBB81:
 255              	.LBB66:
 256              		.loc 1 145 0
 257 00d0 7360     		str	r3, [r6, #4]
 258              		.loc 1 146 0
 259 00d2 B160     		str	r1, [r6, #8]
 260              		.loc 1 147 0
 261 00d4 F360     		str	r3, [r6, #12]
 262              		.loc 1 148 0
 263 00d6 7261     		str	r2, [r6, #20]
 264              		.loc 1 149 0
 265 00d8 3362     		str	r3, [r6, #32]
 266              		.loc 1 150 0
 267 00da 7362     		str	r3, [r6, #36]
 268              		.loc 1 151 0
 269 00dc 3360     		str	r3, [r6]
 270              	.LVL6:
 271              	.LBE66:
 272              	.LBE81:
 273              	.LBB82:
 274              	.LBB70:
 275              		.loc 1 145 0
 276 00de 6B60     		str	r3, [r5, #4]
 277              		.loc 1 146 0
 278 00e0 A960     		str	r1, [r5, #8]
 279              		.loc 1 147 0
 280 00e2 EB60     		str	r3, [r5, #12]
 281              		.loc 1 148 0
 282 00e4 6A61     		str	r2, [r5, #20]
 283              		.loc 1 149 0
 284 00e6 2B62     		str	r3, [r5, #32]
 285              		.loc 1 150 0
ARM GAS  /var/folders/vd/czx34qs52cd_f3nb04sxmghc0000gn/T//cclTBkYZ.s 			page 6


 286 00e8 6B62     		str	r3, [r5, #36]
 287              		.loc 1 151 0
 288 00ea 2B60     		str	r3, [r5]
 289              	.LVL7:
 290              	.LBE70:
 291              	.LBE82:
 292              	.LBB83:
 293              	.LBB74:
 294              		.loc 1 145 0
 295 00ec 6360     		str	r3, [r4, #4]
 296              		.loc 1 146 0
 297 00ee A160     		str	r1, [r4, #8]
 298              		.loc 1 147 0
 299 00f0 E360     		str	r3, [r4, #12]
 300              		.loc 1 148 0
 301 00f2 6261     		str	r2, [r4, #20]
 302              		.loc 1 149 0
 303 00f4 2362     		str	r3, [r4, #32]
 304              		.loc 1 150 0
 305 00f6 6362     		str	r3, [r4, #36]
 306              		.loc 1 151 0
 307 00f8 2360     		str	r3, [r4]
 308              	.LVL8:
 309              	.LBE74:
 310              	.LBE83:
 311              	.LBB84:
 312              	.LBB78:
 313              		.loc 1 145 0
 314 00fa 4360     		str	r3, [r0, #4]
 315              		.loc 1 146 0
 316 00fc 8160     		str	r1, [r0, #8]
 317              		.loc 1 147 0
 318 00fe C360     		str	r3, [r0, #12]
 319              	.LBE78:
 320              	.LBE84:
 321              	.LBE86:
 322              	.LBE88:
 323              		.loc 1 214 0
 324 0100 BDE8F040 		pop	{r4, r5, r6, r7, lr}
 325              		.cfi_restore 14
 326              		.cfi_restore 7
 327              		.cfi_restore 6
 328              		.cfi_restore 5
 329              		.cfi_restore 4
 330              		.cfi_def_cfa_offset 0
 331              	.LBB89:
 332              	.LBB87:
 333              	.LBB85:
 334              	.LBB79:
 335              		.loc 1 148 0
 336 0104 4261     		str	r2, [r0, #20]
 337              		.loc 1 149 0
 338 0106 0362     		str	r3, [r0, #32]
 339              		.loc 1 150 0
 340 0108 4362     		str	r3, [r0, #36]
 341              		.loc 1 151 0
 342 010a 0360     		str	r3, [r0]
ARM GAS  /var/folders/vd/czx34qs52cd_f3nb04sxmghc0000gn/T//cclTBkYZ.s 			page 7


 343              	.LVL9:
 344              	.LBE79:
 345              	.LBE85:
 346              	.LBE87:
 347              	.LBE89:
 348              		.loc 1 213 0
 349 010c FFF7FEBF 		b	stm32_clock_init
 350              	.LVL10:
 351              	.L5:
 352              		.align	2
 353              	.L4:
 354 0110 00380240 		.word	1073887232
 355 0114 00000240 		.word	1073872896
 356 0118 000C0240 		.word	1073875968
 357 011c 00040240 		.word	1073873920
 358 0120 00080240 		.word	1073874944
 359 0124 00100240 		.word	1073876992
 360 0128 54000140 		.word	1073807444
 361 012c 00AA0A00 		.word	698880
 362 0130 80200800 		.word	532608
 363 0134 00060600 		.word	394752
 364 0138 01802002 		.word	35684353
 365 013c 55505500 		.word	5591125
 366 0140 00010055 		.word	1426063616
 367 0144 00140240 		.word	1073878016
 368 0148 00180240 		.word	1073879040
 369 014c 001C0240 		.word	1073880064
 370 0150 00005655 		.word	1431699456
 371 0154 00AAA02A 		.word	715172352
 372 0158 15455155 		.word	1431389461
 373              		.cfi_endproc
 374              	.LFE315:
 375              		.size	__early_init, .-__early_init
 376              		.section	.text.boardInit,"ax",%progbits
 377              		.align	1
 378              		.p2align 4,,15
 379              		.global	boardInit
 380              		.syntax unified
 381              		.thumb
 382              		.thumb_func
 383              		.fpu softvfp
 384              		.type	boardInit, %function
 385              	boardInit:
 386              	.LFB316:
 387              		.loc 1 264 0
 388              		.cfi_startproc
 389              		@ args = 0, pretend = 0, frame = 0
 390              		@ frame_needed = 0, uses_anonymous_args = 0
 391              		@ link register save eliminated.
 392              		.loc 1 266 0
 393 0000 7047     		bx	lr
 394              		.cfi_endproc
 395              	.LFE316:
 396              		.size	boardInit, .-boardInit
 397 0002 00BF     		.text
 398              	.Letext0:
 399              		.file 2 "/usr/local/Cellar/gcc-arm-none-eabi/20171218/lib/gcc/arm-none-eabi/7.2.1/include/stddef.h
ARM GAS  /var/folders/vd/czx34qs52cd_f3nb04sxmghc0000gn/T//cclTBkYZ.s 			page 8


 400              		.file 3 "/usr/local/Cellar/gcc-arm-none-eabi/20171218/arm-none-eabi/include/machine/_default_types
 401              		.file 4 "/usr/local/Cellar/gcc-arm-none-eabi/20171218/arm-none-eabi/include/sys/_stdint.h"
 402              		.file 5 "../os/common/ports/ARMCMx/compilers/GCC/chtypes.h"
 403              		.file 6 "../os/rt/include/chsystypes.h"
 404              		.file 7 "../os/rt/include/chschd.h"
 405              		.file 8 "../os/rt/include/chtime.h"
 406              		.file 9 "../os/common/ext/ARM/CMSIS/Core/Include/core_cm4.h"
 407              		.file 10 "../os/common/ext/ST/STM32F4xx/system_stm32f4xx.h"
 408              		.file 11 "../os/common/ext/ST/STM32F4xx/stm32f407xx.h"
 409              		.file 12 "../os/common/ports/ARMCMx/chcore.h"
 410              		.file 13 "../os/common/ports/ARMCMx/chcore_v7m.h"
 411              		.file 14 "../os/hal/ports/STM32/LLD/TIMv1/stm32_tim.h"
 412              		.file 15 "../os/rt/include/chtm.h"
 413              		.file 16 "../os/rt/include/chsem.h"
 414              		.file 17 "../os/rt/include/chmtx.h"
 415              		.file 18 "../os/rt/include/chsys.h"
 416              		.file 19 "../os/rt/include/chregistry.h"
 417              		.file 20 "../os/rt/include/chevents.h"
 418              		.file 21 "../os/common/oslib/include/chmemcore.h"
 419              		.file 22 "../os/common/oslib/include/chmempools.h"
 420              		.file 23 "../os/common/oslib/include/chfactory.h"
 421              		.file 24 "../os/hal/ports/STM32/LLD/DMAv2/stm32_dma.h"
 422              		.file 25 "../os/hal/include/hal_queues.h"
 423              		.file 26 "../os/hal/include/hal_pal.h"
 424              		.file 27 "../os/hal/ports/STM32/LLD/GPIOv2/stm32_gpio.h"
 425              		.file 28 "../os/hal/ports/STM32/LLD/GPIOv2/hal_pal_lld.h"
 426              		.file 29 "../os/hal/include/hal_pwm.h"
 427              		.file 30 "../os/hal/ports/STM32/LLD/TIMv1/hal_pwm_lld.h"
 428              		.file 31 "../os/hal/include/hal_serial.h"
 429              		.file 32 "../os/hal/ports/STM32/LLD/USARTv1/hal_serial_lld.h"
 430              		.file 33 "../os/hal/ports/STM32/STM32F4xx/hal_lld.h"