ARM GAS  /var/folders/vd/czx34qs52cd_f3nb04sxmghc0000gn/T//cc2V60sA.s 			page 1


   1              		.cpu cortex-m4
   2              		.eabi_attribute 20, 1
   3              		.eabi_attribute 21, 1
   4              		.eabi_attribute 23, 3
   5              		.eabi_attribute 24, 1
   6              		.eabi_attribute 25, 1
   7              		.eabi_attribute 26, 1
   8              		.eabi_attribute 30, 2
   9              		.eabi_attribute 34, 1
  10              		.eabi_attribute 18, 4
  11              		.file	"button_monitor.cpp"
  12              		.text
  13              	.Ltext0:
  14              		.cfi_sections	.debug_frame
  15              		.section	.text._ZN10chibios_rt16BaseStaticThreadILi256EE5startEm,"axG",%progbits,_ZN10chibios_rt16
  16              		.align	1
  17              		.p2align 4,,15
  18              		.weak	_ZN10chibios_rt16BaseStaticThreadILi256EE5startEm
  19              		.syntax unified
  20              		.thumb
  21              		.thumb_func
  22              		.fpu softvfp
  23              		.type	_ZN10chibios_rt16BaseStaticThreadILi256EE5startEm, %function
  24              	_ZN10chibios_rt16BaseStaticThreadILi256EE5startEm:
  25              	.LFB514:
  26              		.file 1 "../os/various/cpp_wrappers/ch.hpp"
  27              		.loc 1 1335 0
  28              		.cfi_startproc
  29              		@ args = 0, pretend = 0, frame = 0
  30              		@ frame_needed = 0, uses_anonymous_args = 0
  31              	.LVL0:
  32 0000 00B5     		push	{lr}
  33              		.cfi_def_cfa_offset 4
  34              		.cfi_offset 14, -4
  35 0002 83B0     		sub	sp, sp, #12
  36              		.cfi_def_cfa_offset 16
  37              		.loc 1 1339 0
  38 0004 0A46     		mov	r2, r1
  39 0006 0090     		str	r0, [sp]
  40 0008 044B     		ldr	r3, .L4
  41 000a 4FF4E471 		mov	r1, #456
  42              	.LVL1:
  43 000e 0830     		adds	r0, r0, #8
  44              	.LVL2:
  45 0010 FFF7FEFF 		bl	chThdCreateStatic
  46              	.LVL3:
  47              		.loc 1 1340 0
  48 0014 03B0     		add	sp, sp, #12
  49              		.cfi_def_cfa_offset 4
  50              		@ sp needed
  51 0016 5DF804FB 		ldr	pc, [sp], #4
  52              	.L5:
  53 001a 00BF     		.align	2
  54              	.L4:
  55 001c 00000000 		.word	_ZN10chibios_rt10_thd_startEPv
  56              		.cfi_endproc
  57              	.LFE514:
ARM GAS  /var/folders/vd/czx34qs52cd_f3nb04sxmghc0000gn/T//cc2V60sA.s 			page 2


  58              		.size	_ZN10chibios_rt16BaseStaticThreadILi256EE5startEm, .-_ZN10chibios_rt16BaseStaticThreadILi256
  59              		.section	.text.startup._ZN19ButtonMonitorThread4mainEv,"ax",%progbits
  60              		.align	1
  61              		.p2align 4,,15
  62              		.global	_ZN19ButtonMonitorThread4mainEv
  63              		.syntax unified
  64              		.thumb
  65              		.thumb_func
  66              		.fpu softvfp
  67              		.type	_ZN19ButtonMonitorThread4mainEv, %function
  68              	_ZN19ButtonMonitorThread4mainEv:
  69              	.LFB512:
  70              		.file 2 "../dev/debug/button_monitor.cpp"
  71              		.loc 2 11 0
  72              		.cfi_startproc
  73              		@ Volatile: function does not return.
  74              		@ args = 0, pretend = 0, frame = 16
  75              		@ frame_needed = 0, uses_anonymous_args = 0
  76              	.LVL4:
  77 0000 80B5     		push	{r7, lr}
  78              		.cfi_def_cfa_offset 8
  79              		.cfi_offset 7, -8
  80              		.cfi_offset 14, -4
  81              		.loc 2 12 0
  82 0002 D0F8D411 		ldr	r1, [r0, #468]
  83 0006 0125     		movs	r5, #1
  84              		.loc 2 11 0
  85 0008 84B0     		sub	sp, sp, #16
  86              		.cfi_def_cfa_offset 24
  87              		.loc 2 11 0
  88 000a 0446     		mov	r4, r0
  89              		.loc 2 12 0
  90 000c 05FA01F1 		lsl	r1, r5, r1
  91 0010 D0F8D001 		ldr	r0, [r0, #464]
  92              	.LVL5:
  93 0014 2022     		movs	r2, #32
  94 0016 FFF7FEFF 		bl	_pal_lld_setgroupmode
  95              	.LVL6:
  96              		.loc 2 13 0
  97 001a 224B     		ldr	r3, .L16
  98 001c 93E80700 		ldm	r3, {r0, r1, r2}
  99 0020 01AB     		add	r3, sp, #4
 100 0022 03C3     		stmia	r3!, {r0, r1}
 101              		.loc 2 14 0
 102 0024 D4F8D411 		ldr	r1, [r4, #468]
 103              		.loc 2 13 0
 104 0028 1A70     		strb	r2, [r3]
 105              		.loc 2 14 0
 106 002a D4F8D001 		ldr	r0, [r4, #464]
 107 002e 02AA     		add	r2, sp, #8
 108 0030 FFF7FEFF 		bl	_Z12portToStringP12stm32_gpio_tmPc
 109              	.LVL7:
 110              	.LBB49:
 111              	.LBB50:
 112              	.LBB51:
 113              		.file 3 "../os/rt/include/chregistry.h"
 114              		.loc 3 136 0
ARM GAS  /var/folders/vd/czx34qs52cd_f3nb04sxmghc0000gn/T//cc2V60sA.s 			page 3


 115 0034 1C4B     		ldr	r3, .L16+4
 116 0036 D4F8D411 		ldr	r1, [r4, #468]
 117 003a 9B69     		ldr	r3, [r3, #24]
 118 003c D4F8D021 		ldr	r2, [r4, #464]
 119              	.LBE51:
 120              	.LBE50:
 121              	.LBE49:
 122              		.loc 2 14 0
 123 0040 01A8     		add	r0, sp, #4
 124              	.LVL8:
 125              	.LBB54:
 126              	.LBB53:
 127              	.LBB52:
 128              		.loc 3 136 0
 129 0042 9861     		str	r0, [r3, #24]
 130              	.LVL9:
 131              	.LBE52:
 132              	.LBE53:
 133              	.LBE54:
 134              		.loc 2 30 0
 135 0044 0026     		movs	r6, #0
 136              	.LVL10:
 137              	.L7:
 138              		.loc 2 18 0
 139 0046 1369     		ldr	r3, [r2, #16]
 140 0048 CB40     		lsrs	r3, r3, r1
 141 004a DF07     		lsls	r7, r3, #31
 142 004c 0AD5     		bpl	.L8
 143              	.L15:
 144              	.LVL11:
 145              	.LBB55:
 146              	.LBB56:
 147              		.loc 1 1058 0
 148 004e 3220     		movs	r0, #50
 149 0050 FFF7FEFF 		bl	chThdSleep
 150              	.LVL12:
 151 0054 D4F8D021 		ldr	r2, [r4, #464]
 152 0058 D4F8D411 		ldr	r1, [r4, #468]
 153              	.LBE56:
 154              	.LBE55:
 155              		.loc 2 18 0
 156 005c 1369     		ldr	r3, [r2, #16]
 157 005e CB40     		lsrs	r3, r3, r1
 158 0060 DF07     		lsls	r7, r3, #31
 159 0062 F4D4     		bmi	.L15
 160              	.LVL13:
 161              	.L8:
 162              		.loc 2 26 0
 163 0064 1369     		ldr	r3, [r2, #16]
 164              		.loc 2 24 0
 165 0066 D4F8DC01 		ldr	r0, [r4, #476]
 166              		.loc 2 23 0
 167 006a 94F8D971 		ldrb	r7, [r4, #473]	@ zero_extendqisi2
 168              		.loc 2 22 0
 169 006e 84F8D851 		strb	r5, [r4, #472]
 170              		.loc 2 24 0
 171 0072 0130     		adds	r0, r0, #1
ARM GAS  /var/folders/vd/czx34qs52cd_f3nb04sxmghc0000gn/T//cc2V60sA.s 			page 4


 172              		.loc 2 26 0
 173 0074 CB40     		lsrs	r3, r3, r1
 174              		.loc 2 23 0
 175 0076 87F00107 		eor	r7, r7, #1
 176              		.loc 2 24 0
 177 007a C4F8DC01 		str	r0, [r4, #476]
 178              		.loc 2 26 0
 179 007e D807     		lsls	r0, r3, #31
 180              		.loc 2 23 0
 181 0080 84F8D971 		strb	r7, [r4, #473]
 182              		.loc 2 26 0
 183 0084 0AD4     		bmi	.L10
 184              	.L11:
 185              	.LVL14:
 186              	.LBB57:
 187              	.LBB58:
 188              		.loc 1 1058 0
 189 0086 3220     		movs	r0, #50
 190 0088 FFF7FEFF 		bl	chThdSleep
 191              	.LVL15:
 192              	.LBE58:
 193              	.LBE57:
 194              		.loc 2 26 0
 195 008c D4F8D021 		ldr	r2, [r4, #464]
 196 0090 D4F8D411 		ldr	r1, [r4, #468]
 197 0094 1369     		ldr	r3, [r2, #16]
 198 0096 CB40     		lsrs	r3, r3, r1
 199 0098 DB07     		lsls	r3, r3, #31
 200 009a F4D5     		bpl	.L11
 201              	.LVL16:
 202              	.L10:
 203              		.loc 2 30 0
 204 009c 84F8D861 		strb	r6, [r4, #472]
 205              		.loc 2 16 0
 206 00a0 D1E7     		b	.L7
 207              	.L17:
 208 00a2 00BF     		.align	2
 209              	.L16:
 210 00a4 00000000 		.word	.LC0
 211 00a8 00000000 		.word	ch
 212              		.cfi_endproc
 213              	.LFE512:
 214              		.size	_ZN19ButtonMonitorThread4mainEv, .-_ZN19ButtonMonitorThread4mainEv
 215              		.section	.text._ZN19ButtonMonitorThreadC2EP12stm32_gpio_tm,"ax",%progbits
 216              		.align	1
 217              		.p2align 4,,15
 218              		.global	_ZN19ButtonMonitorThreadC2EP12stm32_gpio_tm
 219              		.syntax unified
 220              		.thumb
 221              		.thumb_func
 222              		.fpu softvfp
 223              		.type	_ZN19ButtonMonitorThreadC2EP12stm32_gpio_tm, %function
 224              	_ZN19ButtonMonitorThreadC2EP12stm32_gpio_tm:
 225              	.LFB510:
 226              		.loc 2 5 0
 227              		.cfi_startproc
 228              		@ args = 0, pretend = 0, frame = 0
ARM GAS  /var/folders/vd/czx34qs52cd_f3nb04sxmghc0000gn/T//cc2V60sA.s 			page 5


 229              		@ frame_needed = 0, uses_anonymous_args = 0
 230              	.LVL17:
 231 0000 38B5     		push	{r3, r4, r5, lr}
 232              		.cfi_def_cfa_offset 16
 233              		.cfi_offset 3, -16
 234              		.cfi_offset 4, -12
 235              		.cfi_offset 5, -8
 236              		.cfi_offset 14, -4
 237              		.loc 2 5 0
 238 0002 0D46     		mov	r5, r1
 239 0004 1446     		mov	r4, r2
 240              	.LBB59:
 241              		.loc 2 6 0
 242 0006 0021     		movs	r1, #0
 243              	.LVL18:
 244 0008 4FF4E872 		mov	r2, #464
 245              	.LVL19:
 246 000c FFF7FEFF 		bl	memset
 247              	.LVL20:
 248 0010 0022     		movs	r2, #0
 249 0012 0649     		ldr	r1, .L20
 250              		.loc 2 7 0
 251 0014 C0F8D051 		str	r5, [r0, #464]
 252              		.loc 2 8 0
 253 0018 C0F8D441 		str	r4, [r0, #468]
 254              		.loc 2 6 0
 255 001c 0160     		str	r1, [r0]
 256 001e 80F8D821 		strb	r2, [r0, #472]
 257 0022 80F8D921 		strb	r2, [r0, #473]
 258 0026 C0F8DC21 		str	r2, [r0, #476]
 259              	.LBE59:
 260              		.loc 2 9 0
 261 002a 38BD     		pop	{r3, r4, r5, pc}
 262              	.LVL21:
 263              	.L21:
 264              		.align	2
 265              	.L20:
 266 002c 08000000 		.word	.LANCHOR0+8
 267              		.cfi_endproc
 268              	.LFE510:
 269              		.size	_ZN19ButtonMonitorThreadC2EP12stm32_gpio_tm, .-_ZN19ButtonMonitorThreadC2EP12stm32_gpio_tm
 270              		.global	_ZN19ButtonMonitorThreadC1EP12stm32_gpio_tm
 271              		.thumb_set _ZN19ButtonMonitorThreadC1EP12stm32_gpio_tm,_ZN19ButtonMonitorThreadC2EP12stm32_gpio_tm
 272              		.section	.text.startup._GLOBAL__sub_I__ZN19ButtonMonitorThreadC2EP12stm32_gpio_tm,"ax",%progbits
 273              		.align	1
 274              		.p2align 4,,15
 275              		.syntax unified
 276              		.thumb
 277              		.thumb_func
 278              		.fpu softvfp
 279              		.type	_GLOBAL__sub_I__ZN19ButtonMonitorThreadC2EP12stm32_gpio_tm, %function
 280              	_GLOBAL__sub_I__ZN19ButtonMonitorThreadC2EP12stm32_gpio_tm:
 281              	.LFB515:
 282              		.loc 2 32 0
 283              		.cfi_startproc
 284              		@ args = 0, pretend = 0, frame = 0
 285              		@ frame_needed = 0, uses_anonymous_args = 0
ARM GAS  /var/folders/vd/czx34qs52cd_f3nb04sxmghc0000gn/T//cc2V60sA.s 			page 6


 286              		@ link register save eliminated.
 287              	.LVL22:
 288              		.loc 2 32 0
 289 0000 7047     		bx	lr
 290              		.cfi_endproc
 291              	.LFE515:
 292              		.size	_GLOBAL__sub_I__ZN19ButtonMonitorThreadC2EP12stm32_gpio_tm, .-_GLOBAL__sub_I__ZN19ButtonMoni
 293              		.global	_ZTV19ButtonMonitorThread
 294 0002 00BF     		.section	.rodata._ZN19ButtonMonitorThread4mainEv.str1.4,"aMS",%progbits,1
 295              		.align	2
 296              	.LC0:
 297 0000 62746E5F 		.ascii	"btn_PXXX\000"
 297      50585858 
 297      00
 298              		.section	.rodata._ZTV19ButtonMonitorThread,"a",%progbits
 299              		.align	2
 300              		.set	.LANCHOR0,. + 0
 301              		.type	_ZTV19ButtonMonitorThread, %object
 302              		.size	_ZTV19ButtonMonitorThread, 16
 303              	_ZTV19ButtonMonitorThread:
 304 0000 00000000 		.word	0
 305 0004 00000000 		.word	0
 306 0008 00000000 		.word	_ZN19ButtonMonitorThread4mainEv
 307 000c 00000000 		.word	_ZN10chibios_rt16BaseStaticThreadILi256EE5startEm
 308              		.text
 309              	.Letext0:
 310              		.file 4 "/usr/local/Cellar/gcc-arm-none-eabi/20171218/lib/gcc/arm-none-eabi/7.2.1/include/stddef.h
 311              		.file 5 "/usr/local/Cellar/gcc-arm-none-eabi/20171218/arm-none-eabi/include/machine/_default_types
 312              		.file 6 "/usr/local/Cellar/gcc-arm-none-eabi/20171218/arm-none-eabi/include/sys/_stdint.h"
 313              		.file 7 "../os/common/ports/ARMCMx/compilers/GCC/chtypes.h"
 314              		.file 8 "../os/rt/include/chsystypes.h"
 315              		.file 9 "../os/rt/include/chschd.h"
 316              		.file 10 "../os/rt/include/chtime.h"
 317              		.file 11 "../os/common/ext/ARM/CMSIS/Core/Include/core_cm4.h"
 318              		.file 12 "../os/common/ext/ST/STM32F4xx/system_stm32f4xx.h"
 319              		.file 13 "../os/common/ext/ST/STM32F4xx/stm32f407xx.h"
 320              		.file 14 "../os/common/ext/ST/STM32F4xx/stm32f4xx.h"
 321              		.file 15 "../os/common/ports/ARMCMx/chcore.h"
 322              		.file 16 "../os/common/ports/ARMCMx/chcore_v7m.h"
 323              		.file 17 "../os/hal/ports/STM32/LLD/TIMv1/stm32_tim.h"
 324              		.file 18 "../os/rt/include/chtm.h"
 325              		.file 19 "../os/rt/include/chsem.h"
 326              		.file 20 "../os/rt/include/chmtx.h"
 327              		.file 21 "../os/rt/include/chsys.h"
 328              		.file 22 "../os/rt/include/chevents.h"
 329              		.file 23 "../os/common/oslib/include/chmemcore.h"
 330              		.file 24 "../os/common/oslib/include/chmempools.h"
 331              		.file 25 "../os/common/oslib/include/chfactory.h"
 332              		.file 26 "../os/hal/ports/STM32/LLD/DMAv2/stm32_dma.h"
 333              		.file 27 "../os/hal/include/hal_queues.h"
 334              		.file 28 "../os/hal/include/hal_pal.h"
 335              		.file 29 "../os/hal/ports/STM32/LLD/GPIOv2/stm32_gpio.h"
 336              		.file 30 "../os/hal/ports/STM32/LLD/GPIOv2/hal_pal_lld.h"
 337              		.file 31 "../os/hal/include/hal_pwm.h"
 338              		.file 32 "../os/hal/ports/STM32/LLD/TIMv1/hal_pwm_lld.h"
 339              		.file 33 "../os/hal/include/hal_serial.h"
 340              		.file 34 "../os/hal/ports/STM32/LLD/USARTv1/hal_serial_lld.h"
ARM GAS  /var/folders/vd/czx34qs52cd_f3nb04sxmghc0000gn/T//cc2V60sA.s 			page 7


 341              		.file 35 "../dev/debug/button_monitor.hpp"
 342              		.file 36 "../os/rt/include/chthreads.h"
 343              		.file 37 "../dev/common/port_to_string.hpp"