ARM GAS  /var/folders/vd/czx34qs52cd_f3nb04sxmghc0000gn/T//cc6O8NfS.s 			page 1


   1              		.cpu cortex-m4
   2              		.eabi_attribute 20, 1
   3              		.eabi_attribute 21, 1
   4              		.eabi_attribute 23, 3
   5              		.eabi_attribute 24, 1
   6              		.eabi_attribute 25, 1
   7              		.eabi_attribute 26, 1
   8              		.eabi_attribute 30, 2
   9              		.eabi_attribute 34, 1
  10              		.eabi_attribute 18, 4
  11              		.file	"chcond.c"
  12              		.text
  13              	.Ltext0:
  14              		.cfi_sections	.debug_frame
  15              		.section	.text.chCondObjectInit,"ax",%progbits
  16              		.align	1
  17              		.p2align 4,,15
  18              		.global	chCondObjectInit
  19              		.syntax unified
  20              		.thumb
  21              		.thumb_func
  22              		.fpu softvfp
  23              		.type	chCondObjectInit, %function
  24              	chCondObjectInit:
  25              	.LFB280:
  26              		.file 1 "../os/rt/src/chcond.c"
  27              		.loc 1 75 0
  28              		.cfi_startproc
  29              		@ args = 0, pretend = 0, frame = 0
  30              		@ frame_needed = 0, uses_anonymous_args = 0
  31              		@ link register save eliminated.
  32              	.LVL0:
  33              	.LBB89:
  34              	.LBB90:
  35              		.file 2 "../os/rt/include/chschd.h"
  36              		.loc 2 540 0
  37 0000 C0E90000 		strd	r0, r0, [r0]
  38              	.LVL1:
  39              	.LBE90:
  40              	.LBE89:
  41              		.loc 1 80 0
  42 0004 7047     		bx	lr
  43              		.cfi_endproc
  44              	.LFE280:
  45              		.size	chCondObjectInit, .-chCondObjectInit
  46 0006 00BF     		.section	.text.chCondSignal,"ax",%progbits
  47              		.align	1
  48              		.p2align 4,,15
  49              		.global	chCondSignal
  50              		.syntax unified
  51              		.thumb
  52              		.thumb_func
  53              		.fpu softvfp
  54              		.type	chCondSignal, %function
  55              	chCondSignal:
  56              	.LFB281:
  57              		.loc 1 89 0
ARM GAS  /var/folders/vd/czx34qs52cd_f3nb04sxmghc0000gn/T//cc6O8NfS.s 			page 2


  58              		.cfi_startproc
  59              		@ args = 0, pretend = 0, frame = 0
  60              		@ frame_needed = 0, uses_anonymous_args = 0
  61              	.LVL2:
  62 0000 08B5     		push	{r3, lr}
  63              		.cfi_def_cfa_offset 8
  64              		.cfi_offset 3, -8
  65              		.cfi_offset 14, -4
  66              	.LBB91:
  67              	.LBB92:
  68              	.LBB93:
  69              	.LBB94:
  70              		.file 3 "../os/common/ext/ARM/CMSIS/Core/Include/cmsis_gcc.h"
  71              		.loc 3 490 0
  72 0002 2023     		movs	r3, #32
  73              		.syntax unified
  74              	@ 490 "../os/common/ext/ARM/CMSIS/Core/Include/cmsis_gcc.h" 1
  75 0004 83F31188 		MSR basepri, r3
  76              	@ 0 "" 2
  77              	.LVL3:
  78              		.thumb
  79              		.syntax unified
  80              	.LBE94:
  81              	.LBE93:
  82              	.LBE92:
  83              	.LBE91:
  84              	.LBB95:
  85              	.LBB96:
  86              		.loc 2 566 0
  87 0008 0268     		ldr	r2, [r0]
  88              	.LVL4:
  89              	.LBE96:
  90              	.LBE95:
  91              		.loc 1 94 0
  92 000a 9042     		cmp	r0, r2
  93 000c 07D0     		beq	.L4
  94              	.LBB97:
  95              	.LBB98:
  96              		.loc 2 609 0
  97 000e 1168     		ldr	r1, [r2]
  98 0010 0160     		str	r1, [r0]
  99 0012 0346     		mov	r3, r0
 100              	.LVL5:
 101              		.loc 2 610 0
 102 0014 4B60     		str	r3, [r1, #4]
 103              	.LVL6:
 104              	.LBE98:
 105              	.LBE97:
 106              		.loc 1 95 0
 107 0016 1046     		mov	r0, r2
 108              	.LVL7:
 109 0018 0021     		movs	r1, #0
 110 001a FFF7FEFF 		bl	chSchWakeupS
 111              	.LVL8:
 112              	.L4:
 113              	.LBB99:
 114              	.LBB100:
ARM GAS  /var/folders/vd/czx34qs52cd_f3nb04sxmghc0000gn/T//cc6O8NfS.s 			page 3


 115              	.LBB101:
 116              	.LBB102:
 117              	.LBB103:
 118              		.loc 3 490 0
 119 001e 0023     		movs	r3, #0
 120              		.syntax unified
 121              	@ 490 "../os/common/ext/ARM/CMSIS/Core/Include/cmsis_gcc.h" 1
 122 0020 83F31188 		MSR basepri, r3
 123              	@ 0 "" 2
 124              	.LVL9:
 125              		.thumb
 126              		.syntax unified
 127              	.LBE103:
 128              	.LBE102:
 129              	.LBE101:
 130              	.LBE100:
 131              	.LBE99:
 132              		.loc 1 98 0
 133 0024 08BD     		pop	{r3, pc}
 134              		.cfi_endproc
 135              	.LFE281:
 136              		.size	chCondSignal, .-chCondSignal
 137 0026 00BF     		.section	.text.chCondSignalI,"ax",%progbits
 138              		.align	1
 139              		.p2align 4,,15
 140              		.global	chCondSignalI
 141              		.syntax unified
 142              		.thumb
 143              		.thumb_func
 144              		.fpu softvfp
 145              		.type	chCondSignalI, %function
 146              	chCondSignalI:
 147              	.LFB282:
 148              		.loc 1 111 0
 149              		.cfi_startproc
 150              		@ args = 0, pretend = 0, frame = 0
 151              		@ frame_needed = 0, uses_anonymous_args = 0
 152              		@ link register save eliminated.
 153              	.LVL10:
 154              	.LBB104:
 155              	.LBB105:
 156              		.loc 2 566 0
 157 0000 0368     		ldr	r3, [r0]
 158              	.LVL11:
 159              	.LBE105:
 160              	.LBE104:
 161              		.loc 1 116 0
 162 0002 9842     		cmp	r0, r3
 163 0004 07D0     		beq	.L6
 164              	.LVL12:
 165              	.LBB106:
 166              	.LBB107:
 167              	.LBB108:
 168              		.loc 2 609 0
 169 0006 1A68     		ldr	r2, [r3]
 170 0008 0260     		str	r2, [r0]
 171              	.LBE108:
ARM GAS  /var/folders/vd/czx34qs52cd_f3nb04sxmghc0000gn/T//cc6O8NfS.s 			page 4


 172              	.LBE107:
 173              		.loc 1 118 0
 174 000a 0021     		movs	r1, #0
 175              	.LBB110:
 176              	.LBB109:
 177              		.loc 2 610 0
 178 000c 5060     		str	r0, [r2, #4]
 179              	.LVL13:
 180              	.LBE109:
 181              	.LBE110:
 182              		.loc 1 119 0
 183 000e 1846     		mov	r0, r3
 184              	.LVL14:
 185              		.loc 1 118 0
 186 0010 5962     		str	r1, [r3, #36]
 187              		.loc 1 119 0
 188 0012 FFF7FEBF 		b	chSchReadyI
 189              	.LVL15:
 190              	.L6:
 191              	.LBE106:
 192              		.loc 1 121 0
 193 0016 7047     		bx	lr
 194              		.cfi_endproc
 195              	.LFE282:
 196              		.size	chCondSignalI, .-chCondSignalI
 197              		.section	.text.chCondBroadcast,"ax",%progbits
 198              		.align	1
 199              		.p2align 4,,15
 200              		.global	chCondBroadcast
 201              		.syntax unified
 202              		.thumb
 203              		.thumb_func
 204              		.fpu softvfp
 205              		.type	chCondBroadcast, %function
 206              	chCondBroadcast:
 207              	.LFB283:
 208              		.loc 1 130 0
 209              		.cfi_startproc
 210              		@ args = 0, pretend = 0, frame = 0
 211              		@ frame_needed = 0, uses_anonymous_args = 0
 212              	.LVL16:
 213 0000 38B5     		push	{r3, r4, r5, lr}
 214              		.cfi_def_cfa_offset 16
 215              		.cfi_offset 3, -16
 216              		.cfi_offset 4, -12
 217              		.cfi_offset 5, -8
 218              		.cfi_offset 14, -4
 219              	.LBB111:
 220              	.LBB112:
 221              	.LBB113:
 222              	.LBB114:
 223              		.loc 3 490 0
 224 0002 2023     		movs	r3, #32
 225              		.syntax unified
 226              	@ 490 "../os/common/ext/ARM/CMSIS/Core/Include/cmsis_gcc.h" 1
 227 0004 83F31188 		MSR basepri, r3
 228              	@ 0 "" 2
ARM GAS  /var/folders/vd/czx34qs52cd_f3nb04sxmghc0000gn/T//cc6O8NfS.s 			page 5


 229              	.LVL17:
 230              		.thumb
 231              		.syntax unified
 232              	.LBE114:
 233              	.LBE113:
 234              	.LBE112:
 235              	.LBE111:
 236              	.LBB115:
 237              	.LBB116:
 238              	.LBB117:
 239              	.LBB118:
 240              		.loc 2 566 0
 241 0008 0368     		ldr	r3, [r0]
 242              	.LVL18:
 243              	.LBE118:
 244              	.LBE117:
 245              		.loc 1 157 0
 246 000a 9842     		cmp	r0, r3
 247 000c 0CD0     		beq	.L9
 248 000e 0446     		mov	r4, r0
 249              		.loc 1 158 0
 250 0010 6FF00105 		mvn	r5, #1
 251              	.LVL19:
 252              	.L10:
 253              	.LBB120:
 254              	.LBB121:
 255              		.loc 2 609 0
 256 0014 1A68     		ldr	r2, [r3]
 257 0016 2260     		str	r2, [r4]
 258              	.LBE121:
 259              	.LBE120:
 260              		.loc 1 158 0
 261 0018 1846     		mov	r0, r3
 262              	.LBB123:
 263              	.LBB122:
 264              		.loc 2 610 0
 265 001a 5460     		str	r4, [r2, #4]
 266              	.LVL20:
 267              	.LBE122:
 268              	.LBE123:
 269              		.loc 1 158 0
 270 001c FFF7FEFF 		bl	chSchReadyI
 271              	.LVL21:
 272              	.LBB124:
 273              	.LBB119:
 274              		.loc 2 566 0
 275 0020 2368     		ldr	r3, [r4]
 276              	.LBE119:
 277              	.LBE124:
 278              		.loc 1 158 0
 279 0022 4562     		str	r5, [r0, #36]
 280              		.loc 1 157 0
 281 0024 A342     		cmp	r3, r4
 282 0026 F5D1     		bne	.L10
 283              	.LVL22:
 284              	.L9:
 285              	.LBE116:
ARM GAS  /var/folders/vd/czx34qs52cd_f3nb04sxmghc0000gn/T//cc6O8NfS.s 			page 6


 286              	.LBE115:
 287              		.loc 1 134 0
 288 0028 FFF7FEFF 		bl	chSchRescheduleS
 289              	.LVL23:
 290              	.LBB125:
 291              	.LBB126:
 292              	.LBB127:
 293              	.LBB128:
 294              	.LBB129:
 295              		.loc 3 490 0
 296 002c 0023     		movs	r3, #0
 297              		.syntax unified
 298              	@ 490 "../os/common/ext/ARM/CMSIS/Core/Include/cmsis_gcc.h" 1
 299 002e 83F31188 		MSR basepri, r3
 300              	@ 0 "" 2
 301              	.LVL24:
 302              		.thumb
 303              		.syntax unified
 304              	.LBE129:
 305              	.LBE128:
 306              	.LBE127:
 307              	.LBE126:
 308              	.LBE125:
 309              		.loc 1 136 0
 310 0032 38BD     		pop	{r3, r4, r5, pc}
 311              		.cfi_endproc
 312              	.LFE283:
 313              		.size	chCondBroadcast, .-chCondBroadcast
 314              		.section	.text.chCondBroadcastI,"ax",%progbits
 315              		.align	1
 316              		.p2align 4,,15
 317              		.global	chCondBroadcastI
 318              		.syntax unified
 319              		.thumb
 320              		.thumb_func
 321              		.fpu softvfp
 322              		.type	chCondBroadcastI, %function
 323              	chCondBroadcastI:
 324              	.LFB284:
 325              		.loc 1 149 0
 326              		.cfi_startproc
 327              		@ args = 0, pretend = 0, frame = 0
 328              		@ frame_needed = 0, uses_anonymous_args = 0
 329              	.LVL25:
 330 0000 38B5     		push	{r3, r4, r5, lr}
 331              		.cfi_def_cfa_offset 16
 332              		.cfi_offset 3, -16
 333              		.cfi_offset 4, -12
 334              		.cfi_offset 5, -8
 335              		.cfi_offset 14, -4
 336              	.LBB130:
 337              	.LBB131:
 338              		.loc 2 566 0
 339 0002 0368     		ldr	r3, [r0]
 340              	.LVL26:
 341              	.LBE131:
 342              	.LBE130:
ARM GAS  /var/folders/vd/czx34qs52cd_f3nb04sxmghc0000gn/T//cc6O8NfS.s 			page 7


 343              		.loc 1 157 0
 344 0004 8342     		cmp	r3, r0
 345 0006 0CD0     		beq	.L13
 346 0008 0446     		mov	r4, r0
 347              		.loc 1 158 0
 348 000a 6FF00105 		mvn	r5, #1
 349              	.LVL27:
 350              	.L15:
 351              	.LBB133:
 352              	.LBB134:
 353              		.loc 2 609 0
 354 000e 1A68     		ldr	r2, [r3]
 355 0010 2260     		str	r2, [r4]
 356              	.LBE134:
 357              	.LBE133:
 358              		.loc 1 158 0
 359 0012 1846     		mov	r0, r3
 360              	.LBB136:
 361              	.LBB135:
 362              		.loc 2 610 0
 363 0014 5460     		str	r4, [r2, #4]
 364              	.LVL28:
 365              	.LBE135:
 366              	.LBE136:
 367              		.loc 1 158 0
 368 0016 FFF7FEFF 		bl	chSchReadyI
 369              	.LVL29:
 370              	.LBB137:
 371              	.LBB132:
 372              		.loc 2 566 0
 373 001a 2368     		ldr	r3, [r4]
 374              	.LBE132:
 375              	.LBE137:
 376              		.loc 1 158 0
 377 001c 4562     		str	r5, [r0, #36]
 378              		.loc 1 157 0
 379 001e A342     		cmp	r3, r4
 380 0020 F5D1     		bne	.L15
 381              	.LVL30:
 382              	.L13:
 383              		.loc 1 160 0
 384 0022 38BD     		pop	{r3, r4, r5, pc}
 385              		.cfi_endproc
 386              	.LFE284:
 387              		.size	chCondBroadcastI, .-chCondBroadcastI
 388              		.section	.text.chCondWaitS,"ax",%progbits
 389              		.align	1
 390              		.p2align 4,,15
 391              		.global	chCondWaitS
 392              		.syntax unified
 393              		.thumb
 394              		.thumb_func
 395              		.fpu softvfp
 396              		.type	chCondWaitS, %function
 397              	chCondWaitS:
 398              	.LFB286:
 399              		.loc 1 205 0
ARM GAS  /var/folders/vd/czx34qs52cd_f3nb04sxmghc0000gn/T//cc6O8NfS.s 			page 8


 400              		.cfi_startproc
 401              		@ args = 0, pretend = 0, frame = 0
 402              		@ frame_needed = 0, uses_anonymous_args = 0
 403              	.LVL31:
 404 0000 F8B5     		push	{r3, r4, r5, r6, r7, lr}
 405              		.cfi_def_cfa_offset 24
 406              		.cfi_offset 3, -24
 407              		.cfi_offset 4, -20
 408              		.cfi_offset 5, -16
 409              		.cfi_offset 6, -12
 410              		.cfi_offset 7, -8
 411              		.cfi_offset 14, -4
 412              		.loc 1 206 0
 413 0002 114B     		ldr	r3, .L25
 414 0004 9C69     		ldr	r4, [r3, #24]
 415              	.LVL32:
 416              	.LBB138:
 417              	.LBB139:
 418              		.file 4 "../os/rt/include/chmtx.h"
 419              		.loc 4 146 0
 420 0006 A76B     		ldr	r7, [r4, #56]
 421              	.LBE139:
 422              	.LBE138:
 423              		.loc 1 205 0
 424 0008 0546     		mov	r5, r0
 425              		.loc 1 216 0
 426 000a 3846     		mov	r0, r7
 427              	.LVL33:
 428 000c FFF7FEFF 		bl	chMtxUnlockS
 429              	.LVL34:
 430              		.loc 1 221 0
 431 0010 2E46     		mov	r6, r5
 432              	.LVL35:
 433              		.loc 1 220 0
 434 0012 6562     		str	r5, [r4, #36]
 435              		.loc 1 221 0
 436 0014 2B46     		mov	r3, r5
 437 0016 03E0     		b	.L20
 438              	.LVL36:
 439              	.L24:
 440              	.LBB140:
 441              	.LBB141:
 442              		.loc 2 591 0
 443 0018 9968     		ldr	r1, [r3, #8]
 444 001a A268     		ldr	r2, [r4, #8]
 445 001c 9142     		cmp	r1, r2
 446 001e 10D3     		bcc	.L23
 447              	.LVL37:
 448              	.L20:
 449              		.loc 2 590 0
 450 0020 1B68     		ldr	r3, [r3]
 451              	.LVL38:
 452              		.loc 2 591 0
 453 0022 9D42     		cmp	r5, r3
 454 0024 F8D1     		bne	.L24
 455              	.L19:
 456              		.loc 2 593 0
ARM GAS  /var/folders/vd/czx34qs52cd_f3nb04sxmghc0000gn/T//cc6O8NfS.s 			page 9


 457 0026 7368     		ldr	r3, [r6, #4]
 458              	.LVL39:
 459              	.LBE141:
 460              	.LBE140:
 461              		.loc 1 222 0
 462 0028 0720     		movs	r0, #7
 463              	.LBB144:
 464              	.LBB142:
 465              		.loc 2 593 0
 466 002a C4E90063 		strd	r6, r3, [r4]
 467              		.loc 2 594 0
 468 002e 1C60     		str	r4, [r3]
 469              		.loc 2 595 0
 470 0030 7460     		str	r4, [r6, #4]
 471              	.LVL40:
 472              	.LBE142:
 473              	.LBE144:
 474              		.loc 1 222 0
 475 0032 FFF7FEFF 		bl	chSchGoSleepS
 476              	.LVL41:
 477              		.loc 1 223 0
 478 0036 646A     		ldr	r4, [r4, #36]
 479              	.LVL42:
 480              		.loc 1 224 0
 481 0038 3846     		mov	r0, r7
 482 003a FFF7FEFF 		bl	chMtxLockS
 483              	.LVL43:
 484              		.loc 1 227 0
 485 003e 2046     		mov	r0, r4
 486 0040 F8BD     		pop	{r3, r4, r5, r6, r7, pc}
 487              	.LVL44:
 488              	.L23:
 489              	.LBB145:
 490              	.LBB143:
 491              		.loc 2 590 0
 492 0042 1E46     		mov	r6, r3
 493 0044 EFE7     		b	.L19
 494              	.L26:
 495 0046 00BF     		.align	2
 496              	.L25:
 497 0048 00000000 		.word	ch
 498              	.LBE143:
 499              	.LBE145:
 500              		.cfi_endproc
 501              	.LFE286:
 502              		.size	chCondWaitS, .-chCondWaitS
 503              		.section	.text.chCondWait,"ax",%progbits
 504              		.align	1
 505              		.p2align 4,,15
 506              		.global	chCondWait
 507              		.syntax unified
 508              		.thumb
 509              		.thumb_func
 510              		.fpu softvfp
 511              		.type	chCondWait, %function
 512              	chCondWait:
 513              	.LFB285:
ARM GAS  /var/folders/vd/czx34qs52cd_f3nb04sxmghc0000gn/T//cc6O8NfS.s 			page 10


 514              		.loc 1 179 0
 515              		.cfi_startproc
 516              		@ args = 0, pretend = 0, frame = 0
 517              		@ frame_needed = 0, uses_anonymous_args = 0
 518              	.LVL45:
 519 0000 08B5     		push	{r3, lr}
 520              		.cfi_def_cfa_offset 8
 521              		.cfi_offset 3, -8
 522              		.cfi_offset 14, -4
 523              	.LBB146:
 524              	.LBB147:
 525              	.LBB148:
 526              	.LBB149:
 527              		.loc 3 490 0
 528 0002 2023     		movs	r3, #32
 529              		.syntax unified
 530              	@ 490 "../os/common/ext/ARM/CMSIS/Core/Include/cmsis_gcc.h" 1
 531 0004 83F31188 		MSR basepri, r3
 532              	@ 0 "" 2
 533              	.LVL46:
 534              		.thumb
 535              		.syntax unified
 536              	.LBE149:
 537              	.LBE148:
 538              	.LBE147:
 539              	.LBE146:
 540              		.loc 1 183 0
 541 0008 FFF7FEFF 		bl	chCondWaitS
 542              	.LVL47:
 543              	.LBB150:
 544              	.LBB151:
 545              	.LBB152:
 546              	.LBB153:
 547              	.LBB154:
 548              		.loc 3 490 0
 549 000c 0023     		movs	r3, #0
 550              		.syntax unified
 551              	@ 490 "../os/common/ext/ARM/CMSIS/Core/Include/cmsis_gcc.h" 1
 552 000e 83F31188 		MSR basepri, r3
 553              	@ 0 "" 2
 554              	.LVL48:
 555              		.thumb
 556              		.syntax unified
 557              	.LBE154:
 558              	.LBE153:
 559              	.LBE152:
 560              	.LBE151:
 561              	.LBE150:
 562              		.loc 1 186 0
 563 0012 08BD     		pop	{r3, pc}
 564              		.cfi_endproc
 565              	.LFE285:
 566              		.size	chCondWait, .-chCondWait
 567              		.section	.text.chCondWaitTimeoutS,"ax",%progbits
 568              		.align	1
 569              		.p2align 4,,15
 570              		.global	chCondWaitTimeoutS
ARM GAS  /var/folders/vd/czx34qs52cd_f3nb04sxmghc0000gn/T//cc6O8NfS.s 			page 11


 571              		.syntax unified
 572              		.thumb
 573              		.thumb_func
 574              		.fpu softvfp
 575              		.type	chCondWaitTimeoutS, %function
 576              	chCondWaitTimeoutS:
 577              	.LFB288:
 578              		.loc 1 296 0
 579              		.cfi_startproc
 580              		@ args = 0, pretend = 0, frame = 0
 581              		@ frame_needed = 0, uses_anonymous_args = 0
 582              	.LVL49:
 583 0000 2DE9F041 		push	{r4, r5, r6, r7, r8, lr}
 584              		.cfi_def_cfa_offset 24
 585              		.cfi_offset 4, -24
 586              		.cfi_offset 5, -20
 587              		.cfi_offset 6, -16
 588              		.cfi_offset 7, -12
 589              		.cfi_offset 8, -8
 590              		.cfi_offset 14, -4
 591              	.LBB155:
 592              	.LBB156:
 593              	.LBB157:
 594              	.LBB158:
 595              		.file 5 "../os/rt/include/chthreads.h"
 596              		.loc 5 274 0
 597 0004 134C     		ldr	r4, .L40
 598              	.LBE158:
 599              	.LBE157:
 600              		.loc 4 146 0
 601 0006 A369     		ldr	r3, [r4, #24]
 602 0008 9F6B     		ldr	r7, [r3, #56]
 603              	.LBE156:
 604              	.LBE155:
 605              		.loc 1 296 0
 606 000a 0546     		mov	r5, r0
 607              		.loc 1 306 0
 608 000c 3846     		mov	r0, r7
 609              	.LVL50:
 610              		.loc 1 296 0
 611 000e 8846     		mov	r8, r1
 612              		.loc 1 306 0
 613 0010 FFF7FEFF 		bl	chMtxUnlockS
 614              	.LVL51:
 615              		.loc 1 310 0
 616 0014 A469     		ldr	r4, [r4, #24]
 617              		.loc 1 311 0
 618 0016 2E46     		mov	r6, r5
 619              	.LVL52:
 620              		.loc 1 310 0
 621 0018 6562     		str	r5, [r4, #36]
 622              		.loc 1 311 0
 623 001a 2B46     		mov	r3, r5
 624 001c 03E0     		b	.L31
 625              	.LVL53:
 626              	.L39:
 627              	.LBB159:
ARM GAS  /var/folders/vd/czx34qs52cd_f3nb04sxmghc0000gn/T//cc6O8NfS.s 			page 12


 628              	.LBB160:
 629              		.loc 2 591 0
 630 001e 9868     		ldr	r0, [r3, #8]
 631 0020 A268     		ldr	r2, [r4, #8]
 632 0022 9042     		cmp	r0, r2
 633 0024 14D3     		bcc	.L38
 634              	.LVL54:
 635              	.L31:
 636              		.loc 2 590 0
 637 0026 1B68     		ldr	r3, [r3]
 638              	.LVL55:
 639              		.loc 2 591 0
 640 0028 9D42     		cmp	r5, r3
 641 002a F8D1     		bne	.L39
 642              	.L30:
 643              		.loc 2 593 0
 644 002c 7368     		ldr	r3, [r6, #4]
 645              	.LVL56:
 646 002e 6360     		str	r3, [r4, #4]
 647              		.loc 2 592 0
 648 0030 2660     		str	r6, [r4]
 649              	.LBE160:
 650              	.LBE159:
 651              		.loc 1 312 0
 652 0032 4146     		mov	r1, r8
 653              	.LBB164:
 654              	.LBB161:
 655              		.loc 2 594 0
 656 0034 1C60     		str	r4, [r3]
 657              	.LBE161:
 658              	.LBE164:
 659              		.loc 1 312 0
 660 0036 0720     		movs	r0, #7
 661              	.LBB165:
 662              	.LBB162:
 663              		.loc 2 595 0
 664 0038 7460     		str	r4, [r6, #4]
 665              	.LVL57:
 666              	.LBE162:
 667              	.LBE165:
 668              		.loc 1 312 0
 669 003a FFF7FEFF 		bl	chSchGoSleepTimeoutS
 670              	.LVL58:
 671              		.loc 1 313 0
 672 003e 431C     		adds	r3, r0, #1
 673              		.loc 1 312 0
 674 0040 0446     		mov	r4, r0
 675              	.LVL59:
 676              		.loc 1 313 0
 677 0042 02D0     		beq	.L29
 678              		.loc 1 314 0
 679 0044 3846     		mov	r0, r7
 680              	.LVL60:
 681 0046 FFF7FEFF 		bl	chMtxLockS
 682              	.LVL61:
 683              	.L29:
 684              		.loc 1 318 0
ARM GAS  /var/folders/vd/czx34qs52cd_f3nb04sxmghc0000gn/T//cc6O8NfS.s 			page 13


 685 004a 2046     		mov	r0, r4
 686 004c BDE8F081 		pop	{r4, r5, r6, r7, r8, pc}
 687              	.LVL62:
 688              	.L38:
 689              	.LBB166:
 690              	.LBB163:
 691              		.loc 2 590 0
 692 0050 1E46     		mov	r6, r3
 693 0052 EBE7     		b	.L30
 694              	.L41:
 695              		.align	2
 696              	.L40:
 697 0054 00000000 		.word	ch
 698              	.LBE163:
 699              	.LBE166:
 700              		.cfi_endproc
 701              	.LFE288:
 702              		.size	chCondWaitTimeoutS, .-chCondWaitTimeoutS
 703              		.section	.text.chCondWaitTimeout,"ax",%progbits
 704              		.align	1
 705              		.p2align 4,,15
 706              		.global	chCondWaitTimeout
 707              		.syntax unified
 708              		.thumb
 709              		.thumb_func
 710              		.fpu softvfp
 711              		.type	chCondWaitTimeout, %function
 712              	chCondWaitTimeout:
 713              	.LFB287:
 714              		.loc 1 258 0
 715              		.cfi_startproc
 716              		@ args = 0, pretend = 0, frame = 0
 717              		@ frame_needed = 0, uses_anonymous_args = 0
 718              	.LVL63:
 719 0000 08B5     		push	{r3, lr}
 720              		.cfi_def_cfa_offset 8
 721              		.cfi_offset 3, -8
 722              		.cfi_offset 14, -4
 723              	.LBB167:
 724              	.LBB168:
 725              	.LBB169:
 726              	.LBB170:
 727              		.loc 3 490 0
 728 0002 2023     		movs	r3, #32
 729              		.syntax unified
 730              	@ 490 "../os/common/ext/ARM/CMSIS/Core/Include/cmsis_gcc.h" 1
 731 0004 83F31188 		MSR basepri, r3
 732              	@ 0 "" 2
 733              	.LVL64:
 734              		.thumb
 735              		.syntax unified
 736              	.LBE170:
 737              	.LBE169:
 738              	.LBE168:
 739              	.LBE167:
 740              		.loc 1 262 0
 741 0008 FFF7FEFF 		bl	chCondWaitTimeoutS
ARM GAS  /var/folders/vd/czx34qs52cd_f3nb04sxmghc0000gn/T//cc6O8NfS.s 			page 14


 742              	.LVL65:
 743              	.LBB171:
 744              	.LBB172:
 745              	.LBB173:
 746              	.LBB174:
 747              	.LBB175:
 748              		.loc 3 490 0
 749 000c 0023     		movs	r3, #0
 750              		.syntax unified
 751              	@ 490 "../os/common/ext/ARM/CMSIS/Core/Include/cmsis_gcc.h" 1
 752 000e 83F31188 		MSR basepri, r3
 753              	@ 0 "" 2
 754              	.LVL66:
 755              		.thumb
 756              		.syntax unified
 757              	.LBE175:
 758              	.LBE174:
 759              	.LBE173:
 760              	.LBE172:
 761              	.LBE171:
 762              		.loc 1 266 0
 763 0012 08BD     		pop	{r3, pc}
 764              		.cfi_endproc
 765              	.LFE287:
 766              		.size	chCondWaitTimeout, .-chCondWaitTimeout
 767              		.text
 768              	.Letext0:
 769              		.file 6 "/usr/local/Cellar/gcc-arm-none-eabi/20171218/lib/gcc/arm-none-eabi/7.2.1/include/stddef.h
 770              		.file 7 "/usr/local/Cellar/gcc-arm-none-eabi/20171218/arm-none-eabi/include/machine/_default_types
 771              		.file 8 "/usr/local/Cellar/gcc-arm-none-eabi/20171218/arm-none-eabi/include/sys/_stdint.h"
 772              		.file 9 "../os/common/ports/ARMCMx/compilers/GCC/chtypes.h"
 773              		.file 10 "../os/rt/include/chsystypes.h"
 774              		.file 11 "../os/rt/include/chtime.h"
 775              		.file 12 "../os/common/ext/ARM/CMSIS/Core/Include/core_cm4.h"
 776              		.file 13 "../os/common/ext/ST/STM32F4xx/system_stm32f4xx.h"
 777              		.file 14 "../os/common/ports/ARMCMx/chcore.h"
 778              		.file 15 "../os/common/ports/ARMCMx/chcore_v7m.h"
 779              		.file 16 "../os/rt/include/chtm.h"
 780              		.file 17 "../os/rt/include/chsem.h"
 781              		.file 18 "../os/rt/include/chsys.h"
 782              		.file 19 "../os/rt/include/chregistry.h"
 783              		.file 20 "../os/rt/include/chcond.h"
 784              		.file 21 "../os/common/oslib/include/chmemcore.h"
 785              		.file 22 "../os/common/oslib/include/chmempools.h"
 786              		.file 23 "../os/common/oslib/include/chfactory.h"
 787              		.section	.debug_info,"",%progbits
 788              	.Ldebug_info0:
 789 0000 C1120000 		.4byte	0x12c1
 790 0004 0400     		.2byte	0x4
 791 0006 00000000 		.4byte	.Ldebug_abbrev0
 792 000a 04       		.byte	0x4
 793 000b 01       		.uleb128 0x1
 794 000c 2B010000 		.4byte	.LASF176
 795 0010 0C       		.byte	0xc
 796 0011 0B050000 		.4byte	.LASF177
 797 0015 89030000 		.4byte	.LASF178
 798 0019 C0000000 		.4byte	.Ldebug_ranges0+0xc0
ARM GAS  /var/folders/vd/czx34qs52cd_f3nb04sxmghc0000gn/T//cc6O8NfS.s 			page 15


 799 001d 00000000 		.4byte	0
 800 0021 00000000 		.4byte	.Ldebug_line0
 801 0025 02       		.uleb128 0x2
 802 0026 04       		.byte	0x4
 803 0027 05       		.byte	0x5
 804 0028 696E7400 		.ascii	"int\000"
 805 002c 03       		.uleb128 0x3
 806 002d 0D000000 		.4byte	.LASF4
 807 0031 06       		.byte	0x6
 808 0032 D8       		.byte	0xd8
 809 0033 37000000 		.4byte	0x37
 810 0037 04       		.uleb128 0x4
 811 0038 04       		.byte	0x4
 812 0039 07       		.byte	0x7
 813 003a 65030000 		.4byte	.LASF0
 814 003e 04       		.uleb128 0x4
 815 003f 08       		.byte	0x8
 816 0040 05       		.byte	0x5
 817 0041 05020000 		.4byte	.LASF1
 818 0045 04       		.uleb128 0x4
 819 0046 08       		.byte	0x8
 820 0047 04       		.byte	0x4
 821 0048 15070000 		.4byte	.LASF2
 822 004c 04       		.uleb128 0x4
 823 004d 01       		.byte	0x1
 824 004e 06       		.byte	0x6
 825 004f 13020000 		.4byte	.LASF3
 826 0053 03       		.uleb128 0x3
 827 0054 2A000000 		.4byte	.LASF5
 828 0058 07       		.byte	0x7
 829 0059 2B       		.byte	0x2b
 830 005a 5E000000 		.4byte	0x5e
 831 005e 04       		.uleb128 0x4
 832 005f 01       		.byte	0x1
 833 0060 08       		.byte	0x8
 834 0061 D6050000 		.4byte	.LASF6
 835 0065 04       		.uleb128 0x4
 836 0066 02       		.byte	0x2
 837 0067 05       		.byte	0x5
 838 0068 FA050000 		.4byte	.LASF7
 839 006c 03       		.uleb128 0x3
 840 006d F9060000 		.4byte	.LASF8
 841 0071 07       		.byte	0x7
 842 0072 39       		.byte	0x39
 843 0073 77000000 		.4byte	0x77
 844 0077 04       		.uleb128 0x4
 845 0078 02       		.byte	0x2
 846 0079 07       		.byte	0x7
 847 007a 78070000 		.4byte	.LASF9
 848 007e 03       		.uleb128 0x3
 849 007f 71040000 		.4byte	.LASF10
 850 0083 07       		.byte	0x7
 851 0084 4D       		.byte	0x4d
 852 0085 89000000 		.4byte	0x89
 853 0089 04       		.uleb128 0x4
 854 008a 04       		.byte	0x4
 855 008b 05       		.byte	0x5
ARM GAS  /var/folders/vd/czx34qs52cd_f3nb04sxmghc0000gn/T//cc6O8NfS.s 			page 16


 856 008c 69020000 		.4byte	.LASF11
 857 0090 03       		.uleb128 0x3
 858 0091 E1020000 		.4byte	.LASF12
 859 0095 07       		.byte	0x7
 860 0096 4F       		.byte	0x4f
 861 0097 9B000000 		.4byte	0x9b
 862 009b 04       		.uleb128 0x4
 863 009c 04       		.byte	0x4
 864 009d 07       		.byte	0x7
 865 009e CC060000 		.4byte	.LASF13
 866 00a2 03       		.uleb128 0x3
 867 00a3 58050000 		.4byte	.LASF14
 868 00a7 07       		.byte	0x7
 869 00a8 69       		.byte	0x69
 870 00a9 AD000000 		.4byte	0xad
 871 00ad 04       		.uleb128 0x4
 872 00ae 08       		.byte	0x8
 873 00af 07       		.byte	0x7
 874 00b0 B7000000 		.4byte	.LASF15
 875 00b4 03       		.uleb128 0x3
 876 00b5 06080000 		.4byte	.LASF16
 877 00b9 08       		.byte	0x8
 878 00ba 18       		.byte	0x18
 879 00bb 53000000 		.4byte	0x53
 880 00bf 05       		.uleb128 0x5
 881 00c0 B4000000 		.4byte	0xb4
 882 00c4 03       		.uleb128 0x3
 883 00c5 B1020000 		.4byte	.LASF17
 884 00c9 08       		.byte	0x8
 885 00ca 24       		.byte	0x24
 886 00cb 6C000000 		.4byte	0x6c
 887 00cf 03       		.uleb128 0x3
 888 00d0 CE050000 		.4byte	.LASF18
 889 00d4 08       		.byte	0x8
 890 00d5 2C       		.byte	0x2c
 891 00d6 7E000000 		.4byte	0x7e
 892 00da 06       		.uleb128 0x6
 893 00db CF000000 		.4byte	0xcf
 894 00df 03       		.uleb128 0x3
 895 00e0 9A060000 		.4byte	.LASF19
 896 00e4 08       		.byte	0x8
 897 00e5 30       		.byte	0x30
 898 00e6 90000000 		.4byte	0x90
 899 00ea 03       		.uleb128 0x3
 900 00eb 21000000 		.4byte	.LASF20
 901 00ef 08       		.byte	0x8
 902 00f0 3C       		.byte	0x3c
 903 00f1 A2000000 		.4byte	0xa2
 904 00f5 03       		.uleb128 0x3
 905 00f6 9D040000 		.4byte	.LASF21
 906 00fa 09       		.byte	0x9
 907 00fb 39       		.byte	0x39
 908 00fc DF000000 		.4byte	0xdf
 909 0100 03       		.uleb128 0x3
 910 0101 3A040000 		.4byte	.LASF22
 911 0105 09       		.byte	0x9
 912 0106 3C       		.byte	0x3c
ARM GAS  /var/folders/vd/czx34qs52cd_f3nb04sxmghc0000gn/T//cc6O8NfS.s 			page 17


 913 0107 B4000000 		.4byte	0xb4
 914 010b 03       		.uleb128 0x3
 915 010c 7E020000 		.4byte	.LASF23
 916 0110 09       		.byte	0x9
 917 0111 3D       		.byte	0x3d
 918 0112 B4000000 		.4byte	0xb4
 919 0116 03       		.uleb128 0x3
 920 0117 6D050000 		.4byte	.LASF24
 921 011b 09       		.byte	0x9
 922 011c 3E       		.byte	0x3e
 923 011d B4000000 		.4byte	0xb4
 924 0121 03       		.uleb128 0x3
 925 0122 A4050000 		.4byte	.LASF25
 926 0126 09       		.byte	0x9
 927 0127 40       		.byte	0x40
 928 0128 DF000000 		.4byte	0xdf
 929 012c 03       		.uleb128 0x3
 930 012d 05040000 		.4byte	.LASF26
 931 0131 09       		.byte	0x9
 932 0132 41       		.byte	0x41
 933 0133 CF000000 		.4byte	0xcf
 934 0137 03       		.uleb128 0x3
 935 0138 50040000 		.4byte	.LASF27
 936 013c 09       		.byte	0x9
 937 013d 43       		.byte	0x43
 938 013e DF000000 		.4byte	0xdf
 939 0142 03       		.uleb128 0x3
 940 0143 52030000 		.4byte	.LASF28
 941 0147 09       		.byte	0x9
 942 0148 45       		.byte	0x45
 943 0149 CF000000 		.4byte	0xcf
 944 014d 03       		.uleb128 0x3
 945 014e 0B040000 		.4byte	.LASF29
 946 0152 09       		.byte	0x9
 947 0153 46       		.byte	0x46
 948 0154 DF000000 		.4byte	0xdf
 949 0158 03       		.uleb128 0x3
 950 0159 E6070000 		.4byte	.LASF30
 951 015d 0A       		.byte	0xa
 952 015e 34       		.byte	0x34
 953 015f 63010000 		.4byte	0x163
 954 0163 07       		.uleb128 0x7
 955 0164 FB030000 		.4byte	.LASF48
 956 0168 44       		.byte	0x44
 957 0169 02       		.byte	0x2
 958 016a 8E       		.byte	0x8e
 959 016b 41020000 		.4byte	0x241
 960 016f 08       		.uleb128 0x8
 961 0170 DD030000 		.4byte	.LASF31
 962 0174 02       		.byte	0x2
 963 0175 8F       		.byte	0x8f
 964 0176 76020000 		.4byte	0x276
 965 017a 00       		.byte	0
 966 017b 08       		.uleb128 0x8
 967 017c 32050000 		.4byte	.LASF32
 968 0180 02       		.byte	0x2
 969 0181 90       		.byte	0x90
ARM GAS  /var/folders/vd/czx34qs52cd_f3nb04sxmghc0000gn/T//cc6O8NfS.s 			page 18


 970 0182 21010000 		.4byte	0x121
 971 0186 08       		.byte	0x8
 972 0187 09       		.uleb128 0x9
 973 0188 63747800 		.ascii	"ctx\000"
 974 018c 02       		.byte	0x2
 975 018d 91       		.byte	0x91
 976 018e D9040000 		.4byte	0x4d9
 977 0192 0C       		.byte	0xc
 978 0193 08       		.uleb128 0x8
 979 0194 86040000 		.4byte	.LASF33
 980 0198 02       		.byte	0x2
 981 0199 93       		.byte	0x93
 982 019a 4C020000 		.4byte	0x24c
 983 019e 10       		.byte	0x10
 984 019f 08       		.uleb128 0x8
 985 01a0 EA060000 		.4byte	.LASF34
 986 01a4 02       		.byte	0x2
 987 01a5 94       		.byte	0x94
 988 01a6 4C020000 		.4byte	0x24c
 989 01aa 14       		.byte	0x14
 990 01ab 08       		.uleb128 0x8
 991 01ac D8030000 		.4byte	.LASF35
 992 01b0 02       		.byte	0x2
 993 01b1 9B       		.byte	0x9b
 994 01b2 5D060000 		.4byte	0x65d
 995 01b6 18       		.byte	0x18
 996 01b7 08       		.uleb128 0x8
 997 01b8 DE060000 		.4byte	.LASF36
 998 01bc 02       		.byte	0x2
 999 01bd A4       		.byte	0xa4
 1000 01be 74060000 		.4byte	0x674
 1001 01c2 1C       		.byte	0x1c
 1002 01c3 08       		.uleb128 0x8
 1003 01c4 63020000 		.4byte	.LASF37
 1004 01c8 02       		.byte	0x2
 1005 01c9 A9       		.byte	0xa9
 1006 01ca 0B010000 		.4byte	0x10b
 1007 01ce 20       		.byte	0x20
 1008 01cf 08       		.uleb128 0x8
 1009 01d0 0E080000 		.4byte	.LASF38
 1010 01d4 02       		.byte	0x2
 1011 01d5 AD       		.byte	0xad
 1012 01d6 00010000 		.4byte	0x100
 1013 01da 21       		.byte	0x21
 1014 01db 08       		.uleb128 0x8
 1015 01dc 75050000 		.4byte	.LASF39
 1016 01e0 02       		.byte	0x2
 1017 01e1 B2       		.byte	0xb2
 1018 01e2 16010000 		.4byte	0x116
 1019 01e6 22       		.byte	0x22
 1020 01e7 0A       		.uleb128 0xa
 1021 01e8 7500     		.ascii	"u\000"
 1022 01ea 02       		.byte	0x2
 1023 01eb 0301     		.2byte	0x103
 1024 01ed 93050000 		.4byte	0x593
 1025 01f1 24       		.byte	0x24
 1026 01f2 0B       		.uleb128 0xb
ARM GAS  /var/folders/vd/czx34qs52cd_f3nb04sxmghc0000gn/T//cc6O8NfS.s 			page 19


 1027 01f3 0E030000 		.4byte	.LASF40
 1028 01f7 02       		.byte	0x2
 1029 01f8 0801     		.2byte	0x108
 1030 01fa 52020000 		.4byte	0x252
 1031 01fe 28       		.byte	0x28
 1032 01ff 0B       		.uleb128 0xb
 1033 0200 5A020000 		.4byte	.LASF41
 1034 0204 02       		.byte	0x2
 1035 0205 0E01     		.2byte	0x10e
 1036 0207 76020000 		.4byte	0x276
 1037 020b 2C       		.byte	0x2c
 1038 020c 0B       		.uleb128 0xb
 1039 020d 12040000 		.4byte	.LASF42
 1040 0211 02       		.byte	0x2
 1041 0212 1401     		.2byte	0x114
 1042 0214 37010000 		.4byte	0x137
 1043 0218 34       		.byte	0x34
 1044 0219 0B       		.uleb128 0xb
 1045 021a 9F080000 		.4byte	.LASF43
 1046 021e 02       		.byte	0x2
 1047 021f 1B01     		.2byte	0x11b
 1048 0221 57060000 		.4byte	0x657
 1049 0225 38       		.byte	0x38
 1050 0226 0B       		.uleb128 0xb
 1051 0227 8C040000 		.4byte	.LASF44
 1052 022b 02       		.byte	0x2
 1053 022c 1F01     		.2byte	0x11f
 1054 022e 21010000 		.4byte	0x121
 1055 0232 3C       		.byte	0x3c
 1056 0233 0B       		.uleb128 0xb
 1057 0234 E3030000 		.4byte	.LASF45
 1058 0238 02       		.byte	0x2
 1059 0239 2601     		.2byte	0x126
 1060 023b 2E030000 		.4byte	0x32e
 1061 023f 40       		.byte	0x40
 1062 0240 00       		.byte	0
 1063 0241 03       		.uleb128 0x3
 1064 0242 A5040000 		.4byte	.LASF46
 1065 0246 0A       		.byte	0xa
 1066 0247 39       		.byte	0x39
 1067 0248 4C020000 		.4byte	0x24c
 1068 024c 0C       		.uleb128 0xc
 1069 024d 04       		.byte	0x4
 1070 024e 58010000 		.4byte	0x158
 1071 0252 03       		.uleb128 0x3
 1072 0253 37080000 		.4byte	.LASF47
 1073 0257 0A       		.byte	0xa
 1074 0258 3E       		.byte	0x3e
 1075 0259 5D020000 		.4byte	0x25d
 1076 025d 07       		.uleb128 0x7
 1077 025e B6060000 		.4byte	.LASF49
 1078 0262 04       		.byte	0x4
 1079 0263 02       		.byte	0x2
 1080 0264 7C       		.byte	0x7c
 1081 0265 76020000 		.4byte	0x276
 1082 0269 08       		.uleb128 0x8
 1083 026a 1B010000 		.4byte	.LASF50
ARM GAS  /var/folders/vd/czx34qs52cd_f3nb04sxmghc0000gn/T//cc6O8NfS.s 			page 20


 1084 026e 02       		.byte	0x2
 1085 026f 7D       		.byte	0x7d
 1086 0270 4C020000 		.4byte	0x24c
 1087 0274 00       		.byte	0
 1088 0275 00       		.byte	0
 1089 0276 03       		.uleb128 0x3
 1090 0277 CA070000 		.4byte	.LASF51
 1091 027b 0A       		.byte	0xa
 1092 027c 45       		.byte	0x45
 1093 027d 86020000 		.4byte	0x286
 1094 0281 05       		.uleb128 0x5
 1095 0282 76020000 		.4byte	0x276
 1096 0286 07       		.uleb128 0x7
 1097 0287 45000000 		.4byte	.LASF52
 1098 028b 08       		.byte	0x8
 1099 028c 02       		.byte	0x2
 1100 028d 83       		.byte	0x83
 1101 028e AB020000 		.4byte	0x2ab
 1102 0292 08       		.uleb128 0x8
 1103 0293 1B010000 		.4byte	.LASF50
 1104 0297 02       		.byte	0x2
 1105 0298 84       		.byte	0x84
 1106 0299 4C020000 		.4byte	0x24c
 1107 029d 00       		.byte	0
 1108 029e 08       		.uleb128 0x8
 1109 029f 34000000 		.4byte	.LASF53
 1110 02a3 02       		.byte	0x2
 1111 02a4 85       		.byte	0x85
 1112 02a5 4C020000 		.4byte	0x24c
 1113 02a9 04       		.byte	0x4
 1114 02aa 00       		.byte	0
 1115 02ab 03       		.uleb128 0x3
 1116 02ac 00000000 		.4byte	.LASF54
 1117 02b0 0A       		.byte	0xa
 1118 02b1 4C       		.byte	0x4c
 1119 02b2 B6020000 		.4byte	0x2b6
 1120 02b6 0D       		.uleb128 0xd
 1121 02b7 42040000 		.4byte	.LASF55
 1122 02bb 1C       		.byte	0x1c
 1123 02bc 02       		.byte	0x2
 1124 02bd 5E01     		.2byte	0x15e
 1125 02bf 12030000 		.4byte	0x312
 1126 02c3 0B       		.uleb128 0xb
 1127 02c4 DD030000 		.4byte	.LASF31
 1128 02c8 02       		.byte	0x2
 1129 02c9 5F01     		.2byte	0x15f
 1130 02cb 76020000 		.4byte	0x276
 1131 02cf 00       		.byte	0
 1132 02d0 0B       		.uleb128 0xb
 1133 02d1 32050000 		.4byte	.LASF32
 1134 02d5 02       		.byte	0x2
 1135 02d6 6001     		.2byte	0x160
 1136 02d8 21010000 		.4byte	0x121
 1137 02dc 08       		.byte	0x8
 1138 02dd 0A       		.uleb128 0xa
 1139 02de 63747800 		.ascii	"ctx\000"
 1140 02e2 02       		.byte	0x2
ARM GAS  /var/folders/vd/czx34qs52cd_f3nb04sxmghc0000gn/T//cc6O8NfS.s 			page 21


 1141 02e3 6201     		.2byte	0x162
 1142 02e5 D9040000 		.4byte	0x4d9
 1143 02e9 0C       		.byte	0xc
 1144 02ea 0B       		.uleb128 0xb
 1145 02eb 86040000 		.4byte	.LASF33
 1146 02ef 02       		.byte	0x2
 1147 02f0 6501     		.2byte	0x165
 1148 02f2 4C020000 		.4byte	0x24c
 1149 02f6 10       		.byte	0x10
 1150 02f7 0B       		.uleb128 0xb
 1151 02f8 EA060000 		.4byte	.LASF34
 1152 02fc 02       		.byte	0x2
 1153 02fd 6601     		.2byte	0x166
 1154 02ff 4C020000 		.4byte	0x24c
 1155 0303 14       		.byte	0x14
 1156 0304 0B       		.uleb128 0xb
 1157 0305 50050000 		.4byte	.LASF56
 1158 0309 02       		.byte	0x2
 1159 030a 6901     		.2byte	0x169
 1160 030c 4C020000 		.4byte	0x24c
 1161 0310 18       		.byte	0x18
 1162 0311 00       		.byte	0
 1163 0312 03       		.uleb128 0x3
 1164 0313 3D070000 		.4byte	.LASF57
 1165 0317 0A       		.byte	0xa
 1166 0318 51       		.byte	0x51
 1167 0319 1D030000 		.4byte	0x31d
 1168 031d 0C       		.uleb128 0xc
 1169 031e 04       		.byte	0x4
 1170 031f 23030000 		.4byte	0x323
 1171 0323 0E       		.uleb128 0xe
 1172 0324 2E030000 		.4byte	0x32e
 1173 0328 0F       		.uleb128 0xf
 1174 0329 2E030000 		.4byte	0x32e
 1175 032d 00       		.byte	0
 1176 032e 10       		.uleb128 0x10
 1177 032f 04       		.byte	0x4
 1178 0330 03       		.uleb128 0x3
 1179 0331 7A050000 		.4byte	.LASF58
 1180 0335 0A       		.byte	0xa
 1181 0336 56       		.byte	0x56
 1182 0337 3B030000 		.4byte	0x33b
 1183 033b 0D       		.uleb128 0xd
 1184 033c 45060000 		.4byte	.LASF59
 1185 0340 14       		.byte	0x14
 1186 0341 02       		.byte	0x2
 1187 0342 3901     		.2byte	0x139
 1188 0344 8A030000 		.4byte	0x38a
 1189 0348 0B       		.uleb128 0xb
 1190 0349 1B010000 		.4byte	.LASF50
 1191 034d 02       		.byte	0x2
 1192 034e 3A01     		.2byte	0x13a
 1193 0350 7A060000 		.4byte	0x67a
 1194 0354 00       		.byte	0
 1195 0355 0B       		.uleb128 0xb
 1196 0356 34000000 		.4byte	.LASF53
 1197 035a 02       		.byte	0x2
ARM GAS  /var/folders/vd/czx34qs52cd_f3nb04sxmghc0000gn/T//cc6O8NfS.s 			page 22


 1198 035b 3B01     		.2byte	0x13b
 1199 035d 7A060000 		.4byte	0x67a
 1200 0361 04       		.byte	0x4
 1201 0362 0B       		.uleb128 0xb
 1202 0363 14000000 		.4byte	.LASF60
 1203 0367 02       		.byte	0x2
 1204 0368 3C01     		.2byte	0x13c
 1205 036a 61040000 		.4byte	0x461
 1206 036e 08       		.byte	0x8
 1207 036f 0B       		.uleb128 0xb
 1208 0370 96020000 		.4byte	.LASF61
 1209 0374 02       		.byte	0x2
 1210 0375 3D01     		.2byte	0x13d
 1211 0377 12030000 		.4byte	0x312
 1212 037b 0C       		.byte	0xc
 1213 037c 0A       		.uleb128 0xa
 1214 037d 70617200 		.ascii	"par\000"
 1215 0381 02       		.byte	0x2
 1216 0382 3F01     		.2byte	0x13f
 1217 0384 2E030000 		.4byte	0x32e
 1218 0388 10       		.byte	0x10
 1219 0389 00       		.byte	0
 1220 038a 03       		.uleb128 0x3
 1221 038b EA000000 		.4byte	.LASF62
 1222 038f 0A       		.byte	0xa
 1223 0390 5B       		.byte	0x5b
 1224 0391 95030000 		.4byte	0x395
 1225 0395 0D       		.uleb128 0xd
 1226 0396 B8040000 		.4byte	.LASF63
 1227 039a 10       		.byte	0x10
 1228 039b 02       		.byte	0x2
 1229 039c 4901     		.2byte	0x149
 1230 039e D7030000 		.4byte	0x3d7
 1231 03a2 0B       		.uleb128 0xb
 1232 03a3 1B010000 		.4byte	.LASF50
 1233 03a7 02       		.byte	0x2
 1234 03a8 4A01     		.2byte	0x14a
 1235 03aa 7A060000 		.4byte	0x67a
 1236 03ae 00       		.byte	0
 1237 03af 0B       		.uleb128 0xb
 1238 03b0 34000000 		.4byte	.LASF53
 1239 03b4 02       		.byte	0x2
 1240 03b5 4C01     		.2byte	0x14c
 1241 03b7 7A060000 		.4byte	0x67a
 1242 03bb 04       		.byte	0x4
 1243 03bc 0B       		.uleb128 0xb
 1244 03bd 14000000 		.4byte	.LASF60
 1245 03c1 02       		.byte	0x2
 1246 03c2 4E01     		.2byte	0x14e
 1247 03c4 61040000 		.4byte	0x461
 1248 03c8 08       		.byte	0x8
 1249 03c9 0B       		.uleb128 0xb
 1250 03ca 04060000 		.4byte	.LASF64
 1251 03ce 02       		.byte	0x2
 1252 03cf 5601     		.2byte	0x156
 1253 03d1 56040000 		.4byte	0x456
 1254 03d5 0C       		.byte	0xc
ARM GAS  /var/folders/vd/czx34qs52cd_f3nb04sxmghc0000gn/T//cc6O8NfS.s 			page 23


 1255 03d6 00       		.byte	0
 1256 03d7 03       		.uleb128 0x3
 1257 03d8 56000000 		.4byte	.LASF65
 1258 03dc 0A       		.byte	0xa
 1259 03dd 60       		.byte	0x60
 1260 03de E2030000 		.4byte	0x3e2
 1261 03e2 0D       		.uleb128 0xd
 1262 03e3 FE020000 		.4byte	.LASF66
 1263 03e7 04       		.byte	0x4
 1264 03e8 02       		.byte	0x2
 1265 03e9 7001     		.2byte	0x170
 1266 03eb FD030000 		.4byte	0x3fd
 1267 03ef 0B       		.uleb128 0xb
 1268 03f0 54070000 		.4byte	.LASF67
 1269 03f4 02       		.byte	0x2
 1270 03f5 7801     		.2byte	0x178
 1271 03f7 63060000 		.4byte	0x663
 1272 03fb 00       		.byte	0
 1273 03fc 00       		.byte	0
 1274 03fd 03       		.uleb128 0x3
 1275 03fe 26040000 		.4byte	.LASF68
 1276 0402 0A       		.byte	0xa
 1277 0403 65       		.byte	0x65
 1278 0404 08040000 		.4byte	0x408
 1279 0408 0D       		.uleb128 0xd
 1280 0409 14060000 		.4byte	.LASF69
 1281 040d 78       		.byte	0x78
 1282 040e 02       		.byte	0x2
 1283 040f 9001     		.2byte	0x190
 1284 0411 56040000 		.4byte	0x456
 1285 0415 0B       		.uleb128 0xb
 1286 0416 39020000 		.4byte	.LASF70
 1287 041a 02       		.byte	0x2
 1288 041b 9401     		.2byte	0x194
 1289 041d AB020000 		.4byte	0x2ab
 1290 0421 00       		.byte	0
 1291 0422 0B       		.uleb128 0xb
 1292 0423 47020000 		.4byte	.LASF71
 1293 0427 02       		.byte	0x2
 1294 0428 9801     		.2byte	0x198
 1295 042a 8A030000 		.4byte	0x38a
 1296 042e 1C       		.byte	0x1c
 1297 042f 0A       		.uleb128 0xa
 1298 0430 64626700 		.ascii	"dbg\000"
 1299 0434 02       		.byte	0x2
 1300 0435 9C01     		.2byte	0x19c
 1301 0437 D7030000 		.4byte	0x3d7
 1302 043b 2C       		.byte	0x2c
 1303 043c 0B       		.uleb128 0xb
 1304 043d D7000000 		.4byte	.LASF72
 1305 0441 02       		.byte	0x2
 1306 0442 A001     		.2byte	0x1a0
 1307 0444 58010000 		.4byte	0x158
 1308 0448 30       		.byte	0x30
 1309 0449 0A       		.uleb128 0xa
 1310 044a 746D00   		.ascii	"tm\000"
 1311 044d 02       		.byte	0x2
ARM GAS  /var/folders/vd/czx34qs52cd_f3nb04sxmghc0000gn/T//cc6O8NfS.s 			page 24


 1312 044e A501     		.2byte	0x1a5
 1313 0450 88050000 		.4byte	0x588
 1314 0454 74       		.byte	0x74
 1315 0455 00       		.byte	0
 1316 0456 03       		.uleb128 0x3
 1317 0457 33070000 		.4byte	.LASF73
 1318 045b 0B       		.byte	0xb
 1319 045c 8C       		.byte	0x8c
 1320 045d DF000000 		.4byte	0xdf
 1321 0461 03       		.uleb128 0x3
 1322 0462 44030000 		.4byte	.LASF74
 1323 0466 0B       		.byte	0xb
 1324 0467 98       		.byte	0x98
 1325 0468 DF000000 		.4byte	0xdf
 1326 046c 11       		.uleb128 0x11
 1327 046d 00010000 		.4byte	.LASF75
 1328 0471 0C       		.byte	0xc
 1329 0472 F407     		.2byte	0x7f4
 1330 0474 DA000000 		.4byte	0xda
 1331 0478 12       		.uleb128 0x12
 1332 0479 72030000 		.4byte	.LASF76
 1333 047d 0D       		.byte	0xd
 1334 047e 4C       		.byte	0x4c
 1335 047f DF000000 		.4byte	0xdf
 1336 0483 13       		.uleb128 0x13
 1337 0484 BF000000 		.4byte	0xbf
 1338 0488 93040000 		.4byte	0x493
 1339 048c 14       		.uleb128 0x14
 1340 048d 37000000 		.4byte	0x37
 1341 0491 0F       		.byte	0xf
 1342 0492 00       		.byte	0
 1343 0493 05       		.uleb128 0x5
 1344 0494 83040000 		.4byte	0x483
 1345 0498 12       		.uleb128 0x12
 1346 0499 5C040000 		.4byte	.LASF77
 1347 049d 0D       		.byte	0xd
 1348 049e 4E       		.byte	0x4e
 1349 049f 93040000 		.4byte	0x493
 1350 04a3 13       		.uleb128 0x13
 1351 04a4 BF000000 		.4byte	0xbf
 1352 04a8 B3040000 		.4byte	0x4b3
 1353 04ac 14       		.uleb128 0x14
 1354 04ad 37000000 		.4byte	0x37
 1355 04b1 07       		.byte	0x7
 1356 04b2 00       		.byte	0
 1357 04b3 05       		.uleb128 0x5
 1358 04b4 A3040000 		.4byte	0x4a3
 1359 04b8 12       		.uleb128 0x12
 1360 04b9 16030000 		.4byte	.LASF78
 1361 04bd 0D       		.byte	0xd
 1362 04be 4F       		.byte	0x4f
 1363 04bf B3040000 		.4byte	0x4b3
 1364 04c3 03       		.uleb128 0x3
 1365 04c4 EC020000 		.4byte	.LASF79
 1366 04c8 0E       		.byte	0xe
 1367 04c9 65       		.byte	0x65
 1368 04ca 2E030000 		.4byte	0x32e
ARM GAS  /var/folders/vd/czx34qs52cd_f3nb04sxmghc0000gn/T//cc6O8NfS.s 			page 25


 1369 04ce 03       		.uleb128 0x3
 1370 04cf 7B040000 		.4byte	.LASF80
 1371 04d3 0E       		.byte	0xe
 1372 04d4 6D       		.byte	0x6d
 1373 04d5 EA000000 		.4byte	0xea
 1374 04d9 07       		.uleb128 0x7
 1375 04da 8C000000 		.4byte	.LASF81
 1376 04de 04       		.byte	0x4
 1377 04df 0E       		.byte	0xe
 1378 04e0 89       		.byte	0x89
 1379 04e1 F1040000 		.4byte	0x4f1
 1380 04e5 09       		.uleb128 0x9
 1381 04e6 737000   		.ascii	"sp\000"
 1382 04e9 0E       		.byte	0xe
 1383 04ea 8A       		.byte	0x8a
 1384 04eb 6D050000 		.4byte	0x56d
 1385 04ef 00       		.byte	0
 1386 04f0 00       		.byte	0
 1387 04f1 0D       		.uleb128 0xd
 1388 04f2 39000000 		.4byte	.LASF82
 1389 04f6 24       		.byte	0x24
 1390 04f7 0F       		.byte	0xf
 1391 04f8 5901     		.2byte	0x159
 1392 04fa 6D050000 		.4byte	0x56d
 1393 04fe 0A       		.uleb128 0xa
 1394 04ff 723400   		.ascii	"r4\000"
 1395 0502 0F       		.byte	0xf
 1396 0503 6C01     		.2byte	0x16c
 1397 0505 C3040000 		.4byte	0x4c3
 1398 0509 00       		.byte	0
 1399 050a 0A       		.uleb128 0xa
 1400 050b 723500   		.ascii	"r5\000"
 1401 050e 0F       		.byte	0xf
 1402 050f 6D01     		.2byte	0x16d
 1403 0511 C3040000 		.4byte	0x4c3
 1404 0515 04       		.byte	0x4
 1405 0516 0A       		.uleb128 0xa
 1406 0517 723600   		.ascii	"r6\000"
 1407 051a 0F       		.byte	0xf
 1408 051b 6E01     		.2byte	0x16e
 1409 051d C3040000 		.4byte	0x4c3
 1410 0521 08       		.byte	0x8
 1411 0522 0A       		.uleb128 0xa
 1412 0523 723700   		.ascii	"r7\000"
 1413 0526 0F       		.byte	0xf
 1414 0527 6F01     		.2byte	0x16f
 1415 0529 C3040000 		.4byte	0x4c3
 1416 052d 0C       		.byte	0xc
 1417 052e 0A       		.uleb128 0xa
 1418 052f 723800   		.ascii	"r8\000"
 1419 0532 0F       		.byte	0xf
 1420 0533 7001     		.2byte	0x170
 1421 0535 C3040000 		.4byte	0x4c3
 1422 0539 10       		.byte	0x10
 1423 053a 0A       		.uleb128 0xa
 1424 053b 723900   		.ascii	"r9\000"
 1425 053e 0F       		.byte	0xf
ARM GAS  /var/folders/vd/czx34qs52cd_f3nb04sxmghc0000gn/T//cc6O8NfS.s 			page 26


 1426 053f 7101     		.2byte	0x171
 1427 0541 C3040000 		.4byte	0x4c3
 1428 0545 14       		.byte	0x14
 1429 0546 0A       		.uleb128 0xa
 1430 0547 72313000 		.ascii	"r10\000"
 1431 054b 0F       		.byte	0xf
 1432 054c 7201     		.2byte	0x172
 1433 054e C3040000 		.4byte	0x4c3
 1434 0552 18       		.byte	0x18
 1435 0553 0A       		.uleb128 0xa
 1436 0554 72313100 		.ascii	"r11\000"
 1437 0558 0F       		.byte	0xf
 1438 0559 7301     		.2byte	0x173
 1439 055b C3040000 		.4byte	0x4c3
 1440 055f 1C       		.byte	0x1c
 1441 0560 0A       		.uleb128 0xa
 1442 0561 6C7200   		.ascii	"lr\000"
 1443 0564 0F       		.byte	0xf
 1444 0565 7401     		.2byte	0x174
 1445 0567 C3040000 		.4byte	0x4c3
 1446 056b 20       		.byte	0x20
 1447 056c 00       		.byte	0
 1448 056d 0C       		.uleb128 0xc
 1449 056e 04       		.byte	0x4
 1450 056f F1040000 		.4byte	0x4f1
 1451 0573 15       		.uleb128 0x15
 1452 0574 04       		.byte	0x4
 1453 0575 10       		.byte	0x10
 1454 0576 38       		.byte	0x38
 1455 0577 88050000 		.4byte	0x588
 1456 057b 08       		.uleb128 0x8
 1457 057c 5E070000 		.4byte	.LASF83
 1458 0580 10       		.byte	0x10
 1459 0581 3C       		.byte	0x3c
 1460 0582 F5000000 		.4byte	0xf5
 1461 0586 00       		.byte	0
 1462 0587 00       		.byte	0
 1463 0588 03       		.uleb128 0x3
 1464 0589 21050000 		.4byte	.LASF84
 1465 058d 10       		.byte	0x10
 1466 058e 3D       		.byte	0x3d
 1467 058f 73050000 		.4byte	0x573
 1468 0593 16       		.uleb128 0x16
 1469 0594 04       		.byte	0x4
 1470 0595 02       		.byte	0x2
 1471 0596 C6       		.byte	0xc6
 1472 0597 F5050000 		.4byte	0x5f5
 1473 059b 17       		.uleb128 0x17
 1474 059c 1A000000 		.4byte	.LASF85
 1475 05a0 02       		.byte	0x2
 1476 05a1 CD       		.byte	0xcd
 1477 05a2 2C010000 		.4byte	0x12c
 1478 05a6 17       		.uleb128 0x17
 1479 05a7 CE000000 		.4byte	.LASF86
 1480 05ab 02       		.byte	0x2
 1481 05ac D4       		.byte	0xd4
 1482 05ad 2C010000 		.4byte	0x12c
ARM GAS  /var/folders/vd/czx34qs52cd_f3nb04sxmghc0000gn/T//cc6O8NfS.s 			page 27


 1483 05b1 17       		.uleb128 0x17
 1484 05b2 1E080000 		.4byte	.LASF87
 1485 05b6 02       		.byte	0x2
 1486 05b7 DB       		.byte	0xdb
 1487 05b8 2E030000 		.4byte	0x32e
 1488 05bc 17       		.uleb128 0x17
 1489 05bd B3030000 		.4byte	.LASF88
 1490 05c1 02       		.byte	0x2
 1491 05c2 E2       		.byte	0xe2
 1492 05c3 F5050000 		.4byte	0x5f5
 1493 05c7 17       		.uleb128 0x17
 1494 05c8 E2000000 		.4byte	.LASF89
 1495 05cc 02       		.byte	0x2
 1496 05cd E7       		.byte	0xe7
 1497 05ce 2C010000 		.4byte	0x12c
 1498 05d2 17       		.uleb128 0x17
 1499 05d3 82030000 		.4byte	.LASF90
 1500 05d7 02       		.byte	0x2
 1501 05d8 F0       		.byte	0xf0
 1502 05d9 20060000 		.4byte	0x620
 1503 05dd 17       		.uleb128 0x17
 1504 05de A3060000 		.4byte	.LASF91
 1505 05e2 02       		.byte	0x2
 1506 05e3 F9       		.byte	0xf9
 1507 05e4 57060000 		.4byte	0x657
 1508 05e8 18       		.uleb128 0x18
 1509 05e9 0D060000 		.4byte	.LASF92
 1510 05ed 02       		.byte	0x2
 1511 05ee 0101     		.2byte	0x101
 1512 05f0 37010000 		.4byte	0x137
 1513 05f4 00       		.byte	0
 1514 05f5 0C       		.uleb128 0xc
 1515 05f6 04       		.byte	0x4
 1516 05f7 41020000 		.4byte	0x241
 1517 05fb 07       		.uleb128 0x7
 1518 05fc 56060000 		.4byte	.LASF93
 1519 0600 0C       		.byte	0xc
 1520 0601 11       		.byte	0x11
 1521 0602 34       		.byte	0x34
 1522 0603 20060000 		.4byte	0x620
 1523 0607 08       		.uleb128 0x8
 1524 0608 DD030000 		.4byte	.LASF31
 1525 060c 11       		.byte	0x11
 1526 060d 35       		.byte	0x35
 1527 060e 76020000 		.4byte	0x276
 1528 0612 00       		.byte	0
 1529 0613 09       		.uleb128 0x9
 1530 0614 636E7400 		.ascii	"cnt\000"
 1531 0618 11       		.byte	0x11
 1532 0619 37       		.byte	0x37
 1533 061a 42010000 		.4byte	0x142
 1534 061e 08       		.byte	0x8
 1535 061f 00       		.byte	0
 1536 0620 0C       		.uleb128 0xc
 1537 0621 04       		.byte	0x4
 1538 0622 FB050000 		.4byte	0x5fb
 1539 0626 07       		.uleb128 0x7
ARM GAS  /var/folders/vd/czx34qs52cd_f3nb04sxmghc0000gn/T//cc6O8NfS.s 			page 28


 1540 0627 65070000 		.4byte	.LASF94
 1541 062b 10       		.byte	0x10
 1542 062c 04       		.byte	0x4
 1543 062d 39       		.byte	0x39
 1544 062e 57060000 		.4byte	0x657
 1545 0632 08       		.uleb128 0x8
 1546 0633 DD030000 		.4byte	.LASF31
 1547 0637 04       		.byte	0x4
 1548 0638 3A       		.byte	0x3a
 1549 0639 76020000 		.4byte	0x276
 1550 063d 00       		.byte	0
 1551 063e 08       		.uleb128 0x8
 1552 063f C6060000 		.4byte	.LASF95
 1553 0643 04       		.byte	0x4
 1554 0644 3C       		.byte	0x3c
 1555 0645 4C020000 		.4byte	0x24c
 1556 0649 08       		.byte	0x8
 1557 064a 08       		.uleb128 0x8
 1558 064b 1B010000 		.4byte	.LASF50
 1559 064f 04       		.byte	0x4
 1560 0650 3E       		.byte	0x3e
 1561 0651 B9070000 		.4byte	0x7b9
 1562 0655 0C       		.byte	0xc
 1563 0656 00       		.byte	0
 1564 0657 0C       		.uleb128 0xc
 1565 0658 04       		.byte	0x4
 1566 0659 26060000 		.4byte	0x626
 1567 065d 0C       		.uleb128 0xc
 1568 065e 04       		.byte	0x4
 1569 065f 6F060000 		.4byte	0x66f
 1570 0663 06       		.uleb128 0x6
 1571 0664 5D060000 		.4byte	0x65d
 1572 0668 04       		.uleb128 0x4
 1573 0669 01       		.byte	0x1
 1574 066a 08       		.byte	0x8
 1575 066b E5060000 		.4byte	.LASF96
 1576 066f 05       		.uleb128 0x5
 1577 0670 68060000 		.4byte	0x668
 1578 0674 0C       		.uleb128 0xc
 1579 0675 04       		.byte	0x4
 1580 0676 CE040000 		.4byte	0x4ce
 1581 067a 0C       		.uleb128 0xc
 1582 067b 04       		.byte	0x4
 1583 067c 30030000 		.4byte	0x330
 1584 0680 19       		.uleb128 0x19
 1585 0681 636800   		.ascii	"ch\000"
 1586 0684 02       		.byte	0x2
 1587 0685 C701     		.2byte	0x1c7
 1588 0687 FD030000 		.4byte	0x3fd
 1589 068b 13       		.uleb128 0x13
 1590 068c CE040000 		.4byte	0x4ce
 1591 0690 96060000 		.4byte	0x696
 1592 0694 1A       		.uleb128 0x1a
 1593 0695 00       		.byte	0
 1594 0696 11       		.uleb128 0x11
 1595 0697 6C060000 		.4byte	.LASF97
 1596 069b 12       		.byte	0x12
ARM GAS  /var/folders/vd/czx34qs52cd_f3nb04sxmghc0000gn/T//cc6O8NfS.s 			page 29


 1597 069c 1701     		.2byte	0x117
 1598 069e 8B060000 		.4byte	0x68b
 1599 06a2 15       		.uleb128 0x15
 1600 06a3 16       		.byte	0x16
 1601 06a4 13       		.byte	0x13
 1602 06a5 34       		.byte	0x34
 1603 06a6 83070000 		.4byte	0x783
 1604 06aa 08       		.uleb128 0x8
 1605 06ab 9B020000 		.4byte	.LASF98
 1606 06af 13       		.byte	0x13
 1607 06b0 35       		.byte	0x35
 1608 06b1 83070000 		.4byte	0x783
 1609 06b5 00       		.byte	0
 1610 06b6 08       		.uleb128 0x8
 1611 06b7 24030000 		.4byte	.LASF99
 1612 06bb 13       		.byte	0x13
 1613 06bc 36       		.byte	0x36
 1614 06bd B4000000 		.4byte	0xb4
 1615 06c1 04       		.byte	0x4
 1616 06c2 08       		.uleb128 0x8
 1617 06c3 34020000 		.4byte	.LASF100
 1618 06c7 13       		.byte	0x13
 1619 06c8 37       		.byte	0x37
 1620 06c9 B4000000 		.4byte	0xb4
 1621 06cd 05       		.byte	0x5
 1622 06ce 08       		.uleb128 0x8
 1623 06cf 95040000 		.4byte	.LASF101
 1624 06d3 13       		.byte	0x13
 1625 06d4 38       		.byte	0x38
 1626 06d5 C4000000 		.4byte	0xc4
 1627 06d9 06       		.byte	0x6
 1628 06da 08       		.uleb128 0x8
 1629 06db AF070000 		.4byte	.LASF102
 1630 06df 13       		.byte	0x13
 1631 06e0 39       		.byte	0x39
 1632 06e1 B4000000 		.4byte	0xb4
 1633 06e5 08       		.byte	0x8
 1634 06e6 08       		.uleb128 0x8
 1635 06e7 7E060000 		.4byte	.LASF103
 1636 06eb 13       		.byte	0x13
 1637 06ec 3A       		.byte	0x3a
 1638 06ed B4000000 		.4byte	0xb4
 1639 06f1 09       		.byte	0x9
 1640 06f2 08       		.uleb128 0x8
 1641 06f3 20010000 		.4byte	.LASF104
 1642 06f7 13       		.byte	0x13
 1643 06f8 3B       		.byte	0x3b
 1644 06f9 B4000000 		.4byte	0xb4
 1645 06fd 0A       		.byte	0xa
 1646 06fe 08       		.uleb128 0x8
 1647 06ff E4050000 		.4byte	.LASF105
 1648 0703 13       		.byte	0x13
 1649 0704 3C       		.byte	0x3c
 1650 0705 B4000000 		.4byte	0xb4
 1651 0709 0B       		.byte	0xb
 1652 070a 08       		.uleb128 0x8
 1653 070b 32040000 		.4byte	.LASF106
ARM GAS  /var/folders/vd/czx34qs52cd_f3nb04sxmghc0000gn/T//cc6O8NfS.s 			page 30


 1654 070f 13       		.byte	0x13
 1655 0710 3D       		.byte	0x3d
 1656 0711 B4000000 		.4byte	0xb4
 1657 0715 0C       		.byte	0xc
 1658 0716 08       		.uleb128 0x8
 1659 0717 01050000 		.4byte	.LASF107
 1660 071b 13       		.byte	0x13
 1661 071c 3E       		.byte	0x3e
 1662 071d B4000000 		.4byte	0xb4
 1663 0721 0D       		.byte	0xd
 1664 0722 08       		.uleb128 0x8
 1665 0723 6E070000 		.4byte	.LASF108
 1666 0727 13       		.byte	0x13
 1667 0728 3F       		.byte	0x3f
 1668 0729 B4000000 		.4byte	0xb4
 1669 072d 0E       		.byte	0xe
 1670 072e 08       		.uleb128 0x8
 1671 072f EF070000 		.4byte	.LASF109
 1672 0733 13       		.byte	0x13
 1673 0734 40       		.byte	0x40
 1674 0735 B4000000 		.4byte	0xb4
 1675 0739 0F       		.byte	0xf
 1676 073a 08       		.uleb128 0x8
 1677 073b ED050000 		.4byte	.LASF110
 1678 073f 13       		.byte	0x13
 1679 0740 41       		.byte	0x41
 1680 0741 B4000000 		.4byte	0xb4
 1681 0745 10       		.byte	0x10
 1682 0746 08       		.uleb128 0x8
 1683 0747 46080000 		.4byte	.LASF111
 1684 074b 13       		.byte	0x13
 1685 074c 42       		.byte	0x42
 1686 074d B4000000 		.4byte	0xb4
 1687 0751 11       		.byte	0x11
 1688 0752 08       		.uleb128 0x8
 1689 0753 95080000 		.4byte	.LASF112
 1690 0757 13       		.byte	0x13
 1691 0758 43       		.byte	0x43
 1692 0759 B4000000 		.4byte	0xb4
 1693 075d 12       		.byte	0x12
 1694 075e 08       		.uleb128 0x8
 1695 075f E9030000 		.4byte	.LASF113
 1696 0763 13       		.byte	0x13
 1697 0764 44       		.byte	0x44
 1698 0765 B4000000 		.4byte	0xb4
 1699 0769 13       		.byte	0x13
 1700 076a 08       		.uleb128 0x8
 1701 076b C4020000 		.4byte	.LASF114
 1702 076f 13       		.byte	0x13
 1703 0770 45       		.byte	0x45
 1704 0771 B4000000 		.4byte	0xb4
 1705 0775 14       		.byte	0x14
 1706 0776 08       		.uleb128 0x8
 1707 0777 63060000 		.4byte	.LASF115
 1708 077b 13       		.byte	0x13
 1709 077c 46       		.byte	0x46
 1710 077d B4000000 		.4byte	0xb4
ARM GAS  /var/folders/vd/czx34qs52cd_f3nb04sxmghc0000gn/T//cc6O8NfS.s 			page 31


 1711 0781 15       		.byte	0x15
 1712 0782 00       		.byte	0
 1713 0783 13       		.uleb128 0x13
 1714 0784 68060000 		.4byte	0x668
 1715 0788 93070000 		.4byte	0x793
 1716 078c 14       		.uleb128 0x14
 1717 078d 37000000 		.4byte	0x37
 1718 0791 03       		.byte	0x3
 1719 0792 00       		.byte	0
 1720 0793 03       		.uleb128 0x3
 1721 0794 BA020000 		.4byte	.LASF116
 1722 0798 13       		.byte	0x13
 1723 0799 47       		.byte	0x47
 1724 079a A2060000 		.4byte	0x6a2
 1725 079e 05       		.uleb128 0x5
 1726 079f 93070000 		.4byte	0x793
 1727 07a3 12       		.uleb128 0x12
 1728 07a4 B9030000 		.4byte	.LASF117
 1729 07a8 13       		.byte	0x13
 1730 07a9 6C       		.byte	0x6c
 1731 07aa 9E070000 		.4byte	0x79e
 1732 07ae 03       		.uleb128 0x3
 1733 07af 29030000 		.4byte	.LASF118
 1734 07b3 04       		.byte	0x4
 1735 07b4 34       		.byte	0x34
 1736 07b5 26060000 		.4byte	0x626
 1737 07b9 0C       		.uleb128 0xc
 1738 07ba 04       		.byte	0x4
 1739 07bb AE070000 		.4byte	0x7ae
 1740 07bf 07       		.uleb128 0x7
 1741 07c0 CF040000 		.4byte	.LASF119
 1742 07c4 08       		.byte	0x8
 1743 07c5 14       		.byte	0x14
 1744 07c6 3B       		.byte	0x3b
 1745 07c7 D8070000 		.4byte	0x7d8
 1746 07cb 08       		.uleb128 0x8
 1747 07cc DD030000 		.4byte	.LASF31
 1748 07d0 14       		.byte	0x14
 1749 07d1 3C       		.byte	0x3c
 1750 07d2 76020000 		.4byte	0x276
 1751 07d6 00       		.byte	0
 1752 07d7 00       		.byte	0
 1753 07d8 03       		.uleb128 0x3
 1754 07d9 1F020000 		.4byte	.LASF120
 1755 07dd 14       		.byte	0x14
 1756 07de 3E       		.byte	0x3e
 1757 07df BF070000 		.4byte	0x7bf
 1758 07e3 04       		.uleb128 0x4
 1759 07e4 01       		.byte	0x1
 1760 07e5 02       		.byte	0x2
 1761 07e6 C8050000 		.4byte	.LASF121
 1762 07ea 03       		.uleb128 0x3
 1763 07eb 99000000 		.4byte	.LASF122
 1764 07ef 15       		.byte	0x15
 1765 07f0 4B       		.byte	0x4b
 1766 07f1 F5070000 		.4byte	0x7f5
 1767 07f5 0C       		.uleb128 0xc
ARM GAS  /var/folders/vd/czx34qs52cd_f3nb04sxmghc0000gn/T//cc6O8NfS.s 			page 32


 1768 07f6 04       		.byte	0x4
 1769 07f7 FB070000 		.4byte	0x7fb
 1770 07fb 1B       		.uleb128 0x1b
 1771 07fc 2E030000 		.4byte	0x32e
 1772 0800 0F080000 		.4byte	0x80f
 1773 0804 0F       		.uleb128 0xf
 1774 0805 2C000000 		.4byte	0x2c
 1775 0809 0F       		.uleb128 0xf
 1776 080a 37000000 		.4byte	0x37
 1777 080e 00       		.byte	0
 1778 080f 15       		.uleb128 0x15
 1779 0810 08       		.byte	0x8
 1780 0811 15       		.byte	0x15
 1781 0812 55       		.byte	0x55
 1782 0813 30080000 		.4byte	0x830
 1783 0817 08       		.uleb128 0x8
 1784 0818 A7080000 		.4byte	.LASF123
 1785 081c 15       		.byte	0x15
 1786 081d 59       		.byte	0x59
 1787 081e 30080000 		.4byte	0x830
 1788 0822 00       		.byte	0
 1789 0823 08       		.uleb128 0x8
 1790 0824 6A040000 		.4byte	.LASF124
 1791 0828 15       		.byte	0x15
 1792 0829 5D       		.byte	0x5d
 1793 082a 30080000 		.4byte	0x830
 1794 082e 04       		.byte	0x4
 1795 082f 00       		.byte	0
 1796 0830 0C       		.uleb128 0xc
 1797 0831 04       		.byte	0x4
 1798 0832 B4000000 		.4byte	0xb4
 1799 0836 03       		.uleb128 0x3
 1800 0837 63050000 		.4byte	.LASF125
 1801 083b 15       		.byte	0x15
 1802 083c 5E       		.byte	0x5e
 1803 083d 0F080000 		.4byte	0x80f
 1804 0841 12       		.uleb128 0x12
 1805 0842 99050000 		.4byte	.LASF126
 1806 0846 15       		.byte	0x15
 1807 0847 69       		.byte	0x69
 1808 0848 36080000 		.4byte	0x836
 1809 084c 07       		.uleb128 0x7
 1810 084d DA070000 		.4byte	.LASF127
 1811 0851 04       		.byte	0x4
 1812 0852 16       		.byte	0x16
 1813 0853 3C       		.byte	0x3c
 1814 0854 65080000 		.4byte	0x865
 1815 0858 08       		.uleb128 0x8
 1816 0859 1B010000 		.4byte	.LASF50
 1817 085d 16       		.byte	0x16
 1818 085e 3D       		.byte	0x3d
 1819 085f 65080000 		.4byte	0x865
 1820 0863 00       		.byte	0
 1821 0864 00       		.byte	0
 1822 0865 0C       		.uleb128 0xc
 1823 0866 04       		.byte	0x4
 1824 0867 4C080000 		.4byte	0x84c
ARM GAS  /var/folders/vd/czx34qs52cd_f3nb04sxmghc0000gn/T//cc6O8NfS.s 			page 33


 1825 086b 15       		.uleb128 0x15
 1826 086c 10       		.byte	0x10
 1827 086d 16       		.byte	0x16
 1828 086e 44       		.byte	0x44
 1829 086f A4080000 		.4byte	0x8a4
 1830 0873 08       		.uleb128 0x8
 1831 0874 1B010000 		.4byte	.LASF50
 1832 0878 16       		.byte	0x16
 1833 0879 45       		.byte	0x45
 1834 087a 65080000 		.4byte	0x865
 1835 087e 00       		.byte	0
 1836 087f 08       		.uleb128 0x8
 1837 0880 A3070000 		.4byte	.LASF128
 1838 0884 16       		.byte	0x16
 1839 0885 46       		.byte	0x46
 1840 0886 2C000000 		.4byte	0x2c
 1841 088a 04       		.byte	0x4
 1842 088b 08       		.uleb128 0x8
 1843 088c 31030000 		.4byte	.LASF129
 1844 0890 16       		.byte	0x16
 1845 0891 48       		.byte	0x48
 1846 0892 37000000 		.4byte	0x37
 1847 0896 08       		.byte	0x8
 1848 0897 08       		.uleb128 0x8
 1849 0898 65000000 		.4byte	.LASF130
 1850 089c 16       		.byte	0x16
 1851 089d 49       		.byte	0x49
 1852 089e EA070000 		.4byte	0x7ea
 1853 08a2 0C       		.byte	0xc
 1854 08a3 00       		.byte	0
 1855 08a4 03       		.uleb128 0x3
 1856 08a5 CA030000 		.4byte	.LASF131
 1857 08a9 16       		.byte	0x16
 1858 08aa 4B       		.byte	0x4b
 1859 08ab 6B080000 		.4byte	0x86b
 1860 08af 07       		.uleb128 0x7
 1861 08b0 8A050000 		.4byte	.LASF132
 1862 08b4 10       		.byte	0x10
 1863 08b5 17       		.byte	0x17
 1864 08b6 97       		.byte	0x97
 1865 08b7 E0080000 		.4byte	0x8e0
 1866 08bb 08       		.uleb128 0x8
 1867 08bc 1B010000 		.4byte	.LASF50
 1868 08c0 17       		.byte	0x17
 1869 08c1 9B       		.byte	0x9b
 1870 08c2 E0080000 		.4byte	0x8e0
 1871 08c6 00       		.byte	0
 1872 08c7 08       		.uleb128 0x8
 1873 08c8 75050000 		.4byte	.LASF39
 1874 08cc 17       		.byte	0x17
 1875 08cd 9F       		.byte	0x9f
 1876 08ce 4D010000 		.4byte	0x14d
 1877 08d2 04       		.byte	0x4
 1878 08d3 08       		.uleb128 0x8
 1879 08d4 D8030000 		.4byte	.LASF35
 1880 08d8 17       		.byte	0x17
 1881 08d9 A1       		.byte	0xa1
ARM GAS  /var/folders/vd/czx34qs52cd_f3nb04sxmghc0000gn/T//cc6O8NfS.s 			page 34


 1882 08da E6080000 		.4byte	0x8e6
 1883 08de 08       		.byte	0x8
 1884 08df 00       		.byte	0
 1885 08e0 0C       		.uleb128 0xc
 1886 08e1 04       		.byte	0x4
 1887 08e2 AF080000 		.4byte	0x8af
 1888 08e6 13       		.uleb128 0x13
 1889 08e7 68060000 		.4byte	0x668
 1890 08eb F6080000 		.4byte	0x8f6
 1891 08ef 14       		.uleb128 0x14
 1892 08f0 37000000 		.4byte	0x37
 1893 08f4 07       		.byte	0x7
 1894 08f5 00       		.byte	0
 1895 08f6 03       		.uleb128 0x3
 1896 08f7 0D010000 		.4byte	.LASF133
 1897 08fb 17       		.byte	0x17
 1898 08fc A5       		.byte	0xa5
 1899 08fd AF080000 		.4byte	0x8af
 1900 0901 07       		.uleb128 0x7
 1901 0902 F5040000 		.4byte	.LASF134
 1902 0906 04       		.byte	0x4
 1903 0907 17       		.byte	0x17
 1904 0908 AA       		.byte	0xaa
 1905 0909 1A090000 		.4byte	0x91a
 1906 090d 08       		.uleb128 0x8
 1907 090e 1B010000 		.4byte	.LASF50
 1908 0912 17       		.byte	0x17
 1909 0913 AB       		.byte	0xab
 1910 0914 1A090000 		.4byte	0x91a
 1911 0918 00       		.byte	0
 1912 0919 00       		.byte	0
 1913 091a 0C       		.uleb128 0xc
 1914 091b 04       		.byte	0x4
 1915 091c F6080000 		.4byte	0x8f6
 1916 0920 03       		.uleb128 0x3
 1917 0921 1B040000 		.4byte	.LASF135
 1918 0925 17       		.byte	0x17
 1919 0926 AC       		.byte	0xac
 1920 0927 01090000 		.4byte	0x901
 1921 092b 0D       		.uleb128 0xd
 1922 092c B7070000 		.4byte	.LASF136
 1923 0930 44       		.byte	0x44
 1924 0931 17       		.byte	0x17
 1925 0932 1501     		.2byte	0x115
 1926 0934 A1090000 		.4byte	0x9a1
 1927 0938 0A       		.uleb128 0xa
 1928 0939 6D747800 		.ascii	"mtx\000"
 1929 093d 17       		.byte	0x17
 1930 093e 1A01     		.2byte	0x11a
 1931 0940 AE070000 		.4byte	0x7ae
 1932 0944 00       		.byte	0
 1933 0945 0B       		.uleb128 0xb
 1934 0946 F0060000 		.4byte	.LASF137
 1935 094a 17       		.byte	0x17
 1936 094b 2101     		.2byte	0x121
 1937 094d 20090000 		.4byte	0x920
 1938 0951 10       		.byte	0x10
ARM GAS  /var/folders/vd/czx34qs52cd_f3nb04sxmghc0000gn/T//cc6O8NfS.s 			page 35


 1939 0952 0B       		.uleb128 0xb
 1940 0953 3C060000 		.4byte	.LASF138
 1941 0957 17       		.byte	0x17
 1942 0958 2501     		.2byte	0x125
 1943 095a A4080000 		.4byte	0x8a4
 1944 095e 14       		.byte	0x14
 1945 095f 0B       		.uleb128 0xb
 1946 0960 F2030000 		.4byte	.LASF139
 1947 0964 17       		.byte	0x17
 1948 0965 2A01     		.2byte	0x12a
 1949 0967 20090000 		.4byte	0x920
 1950 096b 24       		.byte	0x24
 1951 096c 0B       		.uleb128 0xb
 1952 096d 79000000 		.4byte	.LASF140
 1953 0971 17       		.byte	0x17
 1954 0972 3001     		.2byte	0x130
 1955 0974 20090000 		.4byte	0x920
 1956 0978 28       		.byte	0x28
 1957 0979 0B       		.uleb128 0xb
 1958 097a 47050000 		.4byte	.LASF141
 1959 097e 17       		.byte	0x17
 1960 097f 3401     		.2byte	0x134
 1961 0981 A4080000 		.4byte	0x8a4
 1962 0985 2C       		.byte	0x2c
 1963 0986 0B       		.uleb128 0xb
 1964 0987 F5020000 		.4byte	.LASF142
 1965 098b 17       		.byte	0x17
 1966 098c 3A01     		.2byte	0x13a
 1967 098e 20090000 		.4byte	0x920
 1968 0992 3C       		.byte	0x3c
 1969 0993 0B       		.uleb128 0xb
 1970 0994 14080000 		.4byte	.LASF143
 1971 0998 17       		.byte	0x17
 1972 0999 4001     		.2byte	0x140
 1973 099b 20090000 		.4byte	0x920
 1974 099f 40       		.byte	0x40
 1975 09a0 00       		.byte	0
 1976 09a1 1C       		.uleb128 0x1c
 1977 09a2 71080000 		.4byte	.LASF144
 1978 09a6 17       		.byte	0x17
 1979 09a7 4201     		.2byte	0x142
 1980 09a9 2B090000 		.4byte	0x92b
 1981 09ad 11       		.uleb128 0x11
 1982 09ae 27060000 		.4byte	.LASF145
 1983 09b2 17       		.byte	0x17
 1984 09b3 4D01     		.2byte	0x14d
 1985 09b5 A1090000 		.4byte	0x9a1
 1986 09b9 1D       		.uleb128 0x1d
 1987 09ba E2040000 		.4byte	.LASF147
 1988 09be 01       		.byte	0x1
 1989 09bf 2801     		.2byte	0x128
 1990 09c1 2C010000 		.4byte	0x12c
 1991 09c5 00000000 		.4byte	.LFB288
 1992 09c9 58000000 		.4byte	.LFE288-.LFB288
 1993 09cd 01       		.uleb128 0x1
 1994 09ce 9C       		.byte	0x9c
 1995 09cf AE0A0000 		.4byte	0xaae
ARM GAS  /var/folders/vd/czx34qs52cd_f3nb04sxmghc0000gn/T//cc6O8NfS.s 			page 36


 1996 09d3 1E       		.uleb128 0x1e
 1997 09d4 637000   		.ascii	"cp\000"
 1998 09d7 01       		.byte	0x1
 1999 09d8 2801     		.2byte	0x128
 2000 09da AE0A0000 		.4byte	0xaae
 2001 09de 00000000 		.4byte	.LLST30
 2002 09e2 1F       		.uleb128 0x1f
 2003 09e3 C2030000 		.4byte	.LASF146
 2004 09e7 01       		.byte	0x1
 2005 09e8 2801     		.2byte	0x128
 2006 09ea 61040000 		.4byte	0x461
 2007 09ee 1E000000 		.4byte	.LLST31
 2008 09f2 20       		.uleb128 0x20
 2009 09f3 6D7000   		.ascii	"mp\000"
 2010 09f6 01       		.byte	0x1
 2011 09f7 2901     		.2byte	0x129
 2012 09f9 B9070000 		.4byte	0x7b9
 2013 09fd 21       		.uleb128 0x21
 2014 09fe 6D736700 		.ascii	"msg\000"
 2015 0a02 01       		.byte	0x1
 2016 0a03 2A01     		.2byte	0x12a
 2017 0a05 2C010000 		.4byte	0x12c
 2018 0a09 3C000000 		.4byte	.LLST32
 2019 0a0d 22       		.uleb128 0x22
 2020 0a0e 1E060000 		.4byte	.LASF150
 2021 0a12 C40A0000 		.4byte	0xac4
 2022 0a16 23       		.uleb128 0x23
 2023 0a17 F8100000 		.4byte	0x10f8
 2024 0a1b 04000000 		.4byte	.LBB155
 2025 0a1f 06000000 		.4byte	.LBE155-.LBB155
 2026 0a23 01       		.byte	0x1
 2027 0a24 3101     		.2byte	0x131
 2028 0a26 3A0A0000 		.4byte	0xa3a
 2029 0a2a 24       		.uleb128 0x24
 2030 0a2b 04110000 		.4byte	0x1104
 2031 0a2f 04000000 		.4byte	.LBB157
 2032 0a33 02000000 		.4byte	.LBE157-.LBB157
 2033 0a37 04       		.byte	0x4
 2034 0a38 92       		.byte	0x92
 2035 0a39 00       		.byte	0
 2036 0a3a 25       		.uleb128 0x25
 2037 0a3b 64110000 		.4byte	0x1164
 2038 0a3f 1E000000 		.4byte	.LBB159
 2039 0a43 98000000 		.4byte	.Ldebug_ranges0+0x98
 2040 0a47 01       		.byte	0x1
 2041 0a48 3701     		.2byte	0x137
 2042 0a4a 700A0000 		.4byte	0xa70
 2043 0a4e 26       		.uleb128 0x26
 2044 0a4f 7C110000 		.4byte	0x117c
 2045 0a53 5A000000 		.4byte	.LLST33
 2046 0a57 26       		.uleb128 0x26
 2047 0a58 71110000 		.4byte	0x1171
 2048 0a5c 78000000 		.4byte	.LLST34
 2049 0a60 27       		.uleb128 0x27
 2050 0a61 98000000 		.4byte	.Ldebug_ranges0+0x98
 2051 0a65 28       		.uleb128 0x28
 2052 0a66 88110000 		.4byte	0x1188
ARM GAS  /var/folders/vd/czx34qs52cd_f3nb04sxmghc0000gn/T//cc6O8NfS.s 			page 37


 2053 0a6a 96000000 		.4byte	.LLST35
 2054 0a6e 00       		.byte	0
 2055 0a6f 00       		.byte	0
 2056 0a70 29       		.uleb128 0x29
 2057 0a71 14000000 		.4byte	.LVL51
 2058 0a75 72120000 		.4byte	0x1272
 2059 0a79 840A0000 		.4byte	0xa84
 2060 0a7d 2A       		.uleb128 0x2a
 2061 0a7e 01       		.uleb128 0x1
 2062 0a7f 50       		.byte	0x50
 2063 0a80 02       		.uleb128 0x2
 2064 0a81 77       		.byte	0x77
 2065 0a82 00       		.sleb128 0
 2066 0a83 00       		.byte	0
 2067 0a84 29       		.uleb128 0x29
 2068 0a85 3E000000 		.4byte	.LVL58
 2069 0a89 7D120000 		.4byte	0x127d
 2070 0a8d 9D0A0000 		.4byte	0xa9d
 2071 0a91 2A       		.uleb128 0x2a
 2072 0a92 01       		.uleb128 0x1
 2073 0a93 50       		.byte	0x50
 2074 0a94 01       		.uleb128 0x1
 2075 0a95 37       		.byte	0x37
 2076 0a96 2A       		.uleb128 0x2a
 2077 0a97 01       		.uleb128 0x1
 2078 0a98 51       		.byte	0x51
 2079 0a99 02       		.uleb128 0x2
 2080 0a9a 78       		.byte	0x78
 2081 0a9b 00       		.sleb128 0
 2082 0a9c 00       		.byte	0
 2083 0a9d 2B       		.uleb128 0x2b
 2084 0a9e 4A000000 		.4byte	.LVL61
 2085 0aa2 89120000 		.4byte	0x1289
 2086 0aa6 2A       		.uleb128 0x2a
 2087 0aa7 01       		.uleb128 0x1
 2088 0aa8 50       		.byte	0x50
 2089 0aa9 02       		.uleb128 0x2
 2090 0aaa 77       		.byte	0x77
 2091 0aab 00       		.sleb128 0
 2092 0aac 00       		.byte	0
 2093 0aad 00       		.byte	0
 2094 0aae 0C       		.uleb128 0xc
 2095 0aaf 04       		.byte	0x4
 2096 0ab0 D8070000 		.4byte	0x7d8
 2097 0ab4 13       		.uleb128 0x13
 2098 0ab5 6F060000 		.4byte	0x66f
 2099 0ab9 C40A0000 		.4byte	0xac4
 2100 0abd 14       		.uleb128 0x14
 2101 0abe 37000000 		.4byte	0x37
 2102 0ac2 12       		.byte	0x12
 2103 0ac3 00       		.byte	0
 2104 0ac4 05       		.uleb128 0x5
 2105 0ac5 B40A0000 		.4byte	0xab4
 2106 0ac9 1D       		.uleb128 0x1d
 2107 0aca 25080000 		.4byte	.LASF148
 2108 0ace 01       		.byte	0x1
 2109 0acf 0201     		.2byte	0x102
ARM GAS  /var/folders/vd/czx34qs52cd_f3nb04sxmghc0000gn/T//cc6O8NfS.s 			page 38


 2110 0ad1 2C010000 		.4byte	0x12c
 2111 0ad5 00000000 		.4byte	.LFB287
 2112 0ad9 14000000 		.4byte	.LFE287-.LFB287
 2113 0add 01       		.uleb128 0x1
 2114 0ade 9C       		.byte	0x9c
 2115 0adf B80B0000 		.4byte	0xbb8
 2116 0ae3 1E       		.uleb128 0x1e
 2117 0ae4 637000   		.ascii	"cp\000"
 2118 0ae7 01       		.byte	0x1
 2119 0ae8 0201     		.2byte	0x102
 2120 0aea AE0A0000 		.4byte	0xaae
 2121 0aee B4000000 		.4byte	.LLST36
 2122 0af2 1F       		.uleb128 0x1f
 2123 0af3 C2030000 		.4byte	.LASF146
 2124 0af7 01       		.byte	0x1
 2125 0af8 0201     		.2byte	0x102
 2126 0afa 61040000 		.4byte	0x461
 2127 0afe D5000000 		.4byte	.LLST37
 2128 0b02 2C       		.uleb128 0x2c
 2129 0b03 6D736700 		.ascii	"msg\000"
 2130 0b07 01       		.byte	0x1
 2131 0b08 0301     		.2byte	0x103
 2132 0b0a 2C010000 		.4byte	0x12c
 2133 0b0e 01       		.uleb128 0x1
 2134 0b0f 50       		.byte	0x50
 2135 0b10 23       		.uleb128 0x23
 2136 0b11 2C110000 		.4byte	0x112c
 2137 0b15 02000000 		.4byte	.LBB167
 2138 0b19 06000000 		.4byte	.LBE167-.LBB167
 2139 0b1d 01       		.byte	0x1
 2140 0b1e 0501     		.2byte	0x105
 2141 0b20 500B0000 		.4byte	0xb50
 2142 0b24 2D       		.uleb128 0x2d
 2143 0b25 DB110000 		.4byte	0x11db
 2144 0b29 02000000 		.4byte	.LBB168
 2145 0b2d 06000000 		.4byte	.LBE168-.LBB168
 2146 0b31 12       		.byte	0x12
 2147 0b32 6301     		.2byte	0x163
 2148 0b34 2D       		.uleb128 0x2d
 2149 0b35 E4110000 		.4byte	0x11e4
 2150 0b39 02000000 		.4byte	.LBB169
 2151 0b3d 06000000 		.4byte	.LBE169-.LBB169
 2152 0b41 0F       		.byte	0xf
 2153 0b42 5A02     		.2byte	0x25a
 2154 0b44 26       		.uleb128 0x26
 2155 0b45 F1110000 		.4byte	0x11f1
 2156 0b49 F6000000 		.4byte	.LLST38
 2157 0b4d 00       		.byte	0
 2158 0b4e 00       		.byte	0
 2159 0b4f 00       		.byte	0
 2160 0b50 23       		.uleb128 0x23
 2161 0b51 11110000 		.4byte	0x1111
 2162 0b55 0C000000 		.4byte	.LBB171
 2163 0b59 06000000 		.4byte	.LBE171-.LBB171
 2164 0b5d 01       		.byte	0x1
 2165 0b5e 0701     		.2byte	0x107
 2166 0b60 9F0B0000 		.4byte	0xb9f
ARM GAS  /var/folders/vd/czx34qs52cd_f3nb04sxmghc0000gn/T//cc6O8NfS.s 			page 39


 2167 0b64 2E       		.uleb128 0x2e
 2168 0b65 0C000000 		.4byte	.LBB172
 2169 0b69 06000000 		.4byte	.LBE172-.LBB172
 2170 0b6d 2F       		.uleb128 0x2f
 2171 0b6e 1E110000 		.4byte	0x111e
 2172 0b72 2D       		.uleb128 0x2d
 2173 0b73 D2110000 		.4byte	0x11d2
 2174 0b77 0C000000 		.4byte	.LBB173
 2175 0b7b 06000000 		.4byte	.LBE173-.LBB173
 2176 0b7f 12       		.byte	0x12
 2177 0b80 7A01     		.2byte	0x17a
 2178 0b82 2D       		.uleb128 0x2d
 2179 0b83 E4110000 		.4byte	0x11e4
 2180 0b87 0C000000 		.4byte	.LBB174
 2181 0b8b 06000000 		.4byte	.LBE174-.LBB174
 2182 0b8f 0F       		.byte	0xf
 2183 0b90 6D02     		.2byte	0x26d
 2184 0b92 26       		.uleb128 0x26
 2185 0b93 F1110000 		.4byte	0x11f1
 2186 0b97 0B010000 		.4byte	.LLST39
 2187 0b9b 00       		.byte	0
 2188 0b9c 00       		.byte	0
 2189 0b9d 00       		.byte	0
 2190 0b9e 00       		.byte	0
 2191 0b9f 2B       		.uleb128 0x2b
 2192 0ba0 0C000000 		.4byte	.LVL65
 2193 0ba4 B9090000 		.4byte	0x9b9
 2194 0ba8 2A       		.uleb128 0x2a
 2195 0ba9 01       		.uleb128 0x1
 2196 0baa 50       		.byte	0x50
 2197 0bab 03       		.uleb128 0x3
 2198 0bac F3       		.byte	0xf3
 2199 0bad 01       		.uleb128 0x1
 2200 0bae 50       		.byte	0x50
 2201 0baf 2A       		.uleb128 0x2a
 2202 0bb0 01       		.uleb128 0x1
 2203 0bb1 51       		.byte	0x51
 2204 0bb2 03       		.uleb128 0x3
 2205 0bb3 F3       		.byte	0xf3
 2206 0bb4 01       		.uleb128 0x1
 2207 0bb5 51       		.byte	0x51
 2208 0bb6 00       		.byte	0
 2209 0bb7 00       		.byte	0
 2210 0bb8 30       		.uleb128 0x30
 2211 0bb9 72020000 		.4byte	.LASF149
 2212 0bbd 01       		.byte	0x1
 2213 0bbe CD       		.byte	0xcd
 2214 0bbf 2C010000 		.4byte	0x12c
 2215 0bc3 00000000 		.4byte	.LFB286
 2216 0bc7 4C000000 		.4byte	.LFE286-.LFB286
 2217 0bcb 01       		.uleb128 0x1
 2218 0bcc 9C       		.byte	0x9c
 2219 0bcd 8C0C0000 		.4byte	0xc8c
 2220 0bd1 31       		.uleb128 0x31
 2221 0bd2 637000   		.ascii	"cp\000"
 2222 0bd5 01       		.byte	0x1
 2223 0bd6 CD       		.byte	0xcd
ARM GAS  /var/folders/vd/czx34qs52cd_f3nb04sxmghc0000gn/T//cc6O8NfS.s 			page 40


 2224 0bd7 AE0A0000 		.4byte	0xaae
 2225 0bdb 1F010000 		.4byte	.LLST21
 2226 0bdf 32       		.uleb128 0x32
 2227 0be0 63747000 		.ascii	"ctp\000"
 2228 0be4 01       		.byte	0x1
 2229 0be5 CE       		.byte	0xce
 2230 0be6 4C020000 		.4byte	0x24c
 2231 0bea 3D010000 		.4byte	.LLST22
 2232 0bee 33       		.uleb128 0x33
 2233 0bef 6D7000   		.ascii	"mp\000"
 2234 0bf2 01       		.byte	0x1
 2235 0bf3 CF       		.byte	0xcf
 2236 0bf4 B9070000 		.4byte	0x7b9
 2237 0bf8 32       		.uleb128 0x32
 2238 0bf9 6D736700 		.ascii	"msg\000"
 2239 0bfd 01       		.byte	0x1
 2240 0bfe D0       		.byte	0xd0
 2241 0bff 2C010000 		.4byte	0x12c
 2242 0c03 5B010000 		.4byte	.LLST23
 2243 0c07 22       		.uleb128 0x22
 2244 0c08 1E060000 		.4byte	.LASF150
 2245 0c0c 9C0C0000 		.4byte	0xc9c
 2246 0c10 24       		.uleb128 0x24
 2247 0c11 F8100000 		.4byte	0x10f8
 2248 0c15 06000000 		.4byte	.LBB138
 2249 0c19 02000000 		.4byte	.LBE138-.LBB138
 2250 0c1d 01       		.byte	0x1
 2251 0c1e D7       		.byte	0xd7
 2252 0c1f 34       		.uleb128 0x34
 2253 0c20 64110000 		.4byte	0x1164
 2254 0c24 18000000 		.4byte	.LBB140
 2255 0c28 78000000 		.4byte	.Ldebug_ranges0+0x78
 2256 0c2c 01       		.byte	0x1
 2257 0c2d DD       		.byte	0xdd
 2258 0c2e 540C0000 		.4byte	0xc54
 2259 0c32 26       		.uleb128 0x26
 2260 0c33 7C110000 		.4byte	0x117c
 2261 0c37 6E010000 		.4byte	.LLST24
 2262 0c3b 26       		.uleb128 0x26
 2263 0c3c 71110000 		.4byte	0x1171
 2264 0c40 8C010000 		.4byte	.LLST25
 2265 0c44 27       		.uleb128 0x27
 2266 0c45 78000000 		.4byte	.Ldebug_ranges0+0x78
 2267 0c49 28       		.uleb128 0x28
 2268 0c4a 88110000 		.4byte	0x1188
 2269 0c4e AA010000 		.4byte	.LLST26
 2270 0c52 00       		.byte	0
 2271 0c53 00       		.byte	0
 2272 0c54 29       		.uleb128 0x29
 2273 0c55 10000000 		.4byte	.LVL34
 2274 0c59 72120000 		.4byte	0x1272
 2275 0c5d 680C0000 		.4byte	0xc68
 2276 0c61 2A       		.uleb128 0x2a
 2277 0c62 01       		.uleb128 0x1
 2278 0c63 50       		.byte	0x50
 2279 0c64 02       		.uleb128 0x2
 2280 0c65 77       		.byte	0x77
ARM GAS  /var/folders/vd/czx34qs52cd_f3nb04sxmghc0000gn/T//cc6O8NfS.s 			page 41


 2281 0c66 00       		.sleb128 0
 2282 0c67 00       		.byte	0
 2283 0c68 29       		.uleb128 0x29
 2284 0c69 36000000 		.4byte	.LVL41
 2285 0c6d 94120000 		.4byte	0x1294
 2286 0c71 7B0C0000 		.4byte	0xc7b
 2287 0c75 2A       		.uleb128 0x2a
 2288 0c76 01       		.uleb128 0x1
 2289 0c77 50       		.byte	0x50
 2290 0c78 01       		.uleb128 0x1
 2291 0c79 37       		.byte	0x37
 2292 0c7a 00       		.byte	0
 2293 0c7b 2B       		.uleb128 0x2b
 2294 0c7c 3E000000 		.4byte	.LVL43
 2295 0c80 89120000 		.4byte	0x1289
 2296 0c84 2A       		.uleb128 0x2a
 2297 0c85 01       		.uleb128 0x1
 2298 0c86 50       		.byte	0x50
 2299 0c87 02       		.uleb128 0x2
 2300 0c88 77       		.byte	0x77
 2301 0c89 00       		.sleb128 0
 2302 0c8a 00       		.byte	0
 2303 0c8b 00       		.byte	0
 2304 0c8c 13       		.uleb128 0x13
 2305 0c8d 6F060000 		.4byte	0x66f
 2306 0c91 9C0C0000 		.4byte	0xc9c
 2307 0c95 14       		.uleb128 0x14
 2308 0c96 37000000 		.4byte	0x37
 2309 0c9a 0B       		.byte	0xb
 2310 0c9b 00       		.byte	0
 2311 0c9c 05       		.uleb128 0x5
 2312 0c9d 8C0C0000 		.4byte	0xc8c
 2313 0ca1 30       		.uleb128 0x30
 2314 0ca2 8B070000 		.4byte	.LASF151
 2315 0ca6 01       		.byte	0x1
 2316 0ca7 B3       		.byte	0xb3
 2317 0ca8 2C010000 		.4byte	0x12c
 2318 0cac 00000000 		.4byte	.LFB285
 2319 0cb0 14000000 		.4byte	.LFE285-.LFB285
 2320 0cb4 01       		.uleb128 0x1
 2321 0cb5 9C       		.byte	0x9c
 2322 0cb6 740D0000 		.4byte	0xd74
 2323 0cba 31       		.uleb128 0x31
 2324 0cbb 637000   		.ascii	"cp\000"
 2325 0cbe 01       		.byte	0x1
 2326 0cbf B3       		.byte	0xb3
 2327 0cc0 AE0A0000 		.4byte	0xaae
 2328 0cc4 C8010000 		.4byte	.LLST27
 2329 0cc8 35       		.uleb128 0x35
 2330 0cc9 6D736700 		.ascii	"msg\000"
 2331 0ccd 01       		.byte	0x1
 2332 0cce B4       		.byte	0xb4
 2333 0ccf 2C010000 		.4byte	0x12c
 2334 0cd3 01       		.uleb128 0x1
 2335 0cd4 50       		.byte	0x50
 2336 0cd5 36       		.uleb128 0x36
 2337 0cd6 2C110000 		.4byte	0x112c
ARM GAS  /var/folders/vd/czx34qs52cd_f3nb04sxmghc0000gn/T//cc6O8NfS.s 			page 42


 2338 0cda 02000000 		.4byte	.LBB146
 2339 0cde 06000000 		.4byte	.LBE146-.LBB146
 2340 0ce2 01       		.byte	0x1
 2341 0ce3 B6       		.byte	0xb6
 2342 0ce4 140D0000 		.4byte	0xd14
 2343 0ce8 2D       		.uleb128 0x2d
 2344 0ce9 DB110000 		.4byte	0x11db
 2345 0ced 02000000 		.4byte	.LBB147
 2346 0cf1 06000000 		.4byte	.LBE147-.LBB147
 2347 0cf5 12       		.byte	0x12
 2348 0cf6 6301     		.2byte	0x163
 2349 0cf8 2D       		.uleb128 0x2d
 2350 0cf9 E4110000 		.4byte	0x11e4
 2351 0cfd 02000000 		.4byte	.LBB148
 2352 0d01 06000000 		.4byte	.LBE148-.LBB148
 2353 0d05 0F       		.byte	0xf
 2354 0d06 5A02     		.2byte	0x25a
 2355 0d08 26       		.uleb128 0x26
 2356 0d09 F1110000 		.4byte	0x11f1
 2357 0d0d E9010000 		.4byte	.LLST28
 2358 0d11 00       		.byte	0
 2359 0d12 00       		.byte	0
 2360 0d13 00       		.byte	0
 2361 0d14 36       		.uleb128 0x36
 2362 0d15 11110000 		.4byte	0x1111
 2363 0d19 0C000000 		.4byte	.LBB150
 2364 0d1d 06000000 		.4byte	.LBE150-.LBB150
 2365 0d21 01       		.byte	0x1
 2366 0d22 B8       		.byte	0xb8
 2367 0d23 620D0000 		.4byte	0xd62
 2368 0d27 2E       		.uleb128 0x2e
 2369 0d28 0C000000 		.4byte	.LBB151
 2370 0d2c 06000000 		.4byte	.LBE151-.LBB151
 2371 0d30 2F       		.uleb128 0x2f
 2372 0d31 1E110000 		.4byte	0x111e
 2373 0d35 2D       		.uleb128 0x2d
 2374 0d36 D2110000 		.4byte	0x11d2
 2375 0d3a 0C000000 		.4byte	.LBB152
 2376 0d3e 06000000 		.4byte	.LBE152-.LBB152
 2377 0d42 12       		.byte	0x12
 2378 0d43 7A01     		.2byte	0x17a
 2379 0d45 2D       		.uleb128 0x2d
 2380 0d46 E4110000 		.4byte	0x11e4
 2381 0d4a 0C000000 		.4byte	.LBB153
 2382 0d4e 06000000 		.4byte	.LBE153-.LBB153
 2383 0d52 0F       		.byte	0xf
 2384 0d53 6D02     		.2byte	0x26d
 2385 0d55 26       		.uleb128 0x26
 2386 0d56 F1110000 		.4byte	0x11f1
 2387 0d5a FE010000 		.4byte	.LLST29
 2388 0d5e 00       		.byte	0
 2389 0d5f 00       		.byte	0
 2390 0d60 00       		.byte	0
 2391 0d61 00       		.byte	0
 2392 0d62 2B       		.uleb128 0x2b
 2393 0d63 0C000000 		.4byte	.LVL47
 2394 0d67 B80B0000 		.4byte	0xbb8
ARM GAS  /var/folders/vd/czx34qs52cd_f3nb04sxmghc0000gn/T//cc6O8NfS.s 			page 43


 2395 0d6b 2A       		.uleb128 0x2a
 2396 0d6c 01       		.uleb128 0x1
 2397 0d6d 50       		.byte	0x50
 2398 0d6e 03       		.uleb128 0x3
 2399 0d6f F3       		.byte	0xf3
 2400 0d70 01       		.uleb128 0x1
 2401 0d71 50       		.byte	0x50
 2402 0d72 00       		.byte	0
 2403 0d73 00       		.byte	0
 2404 0d74 37       		.uleb128 0x37
 2405 0d75 A6000000 		.4byte	.LASF158
 2406 0d79 01       		.byte	0x1
 2407 0d7a 95       		.byte	0x95
 2408 0d7b 01       		.byte	0x1
 2409 0d7c 980D0000 		.4byte	0xd98
 2410 0d80 38       		.uleb128 0x38
 2411 0d81 637000   		.ascii	"cp\000"
 2412 0d84 01       		.byte	0x1
 2413 0d85 95       		.byte	0x95
 2414 0d86 AE0A0000 		.4byte	0xaae
 2415 0d8a 39       		.uleb128 0x39
 2416 0d8b 1E060000 		.4byte	.LASF150
 2417 0d8f A80D0000 		.4byte	0xda8
 2418 0d93 A6000000 		.4byte	.LASF158
 2419 0d97 00       		.byte	0
 2420 0d98 13       		.uleb128 0x13
 2421 0d99 6F060000 		.4byte	0x66f
 2422 0d9d A80D0000 		.4byte	0xda8
 2423 0da1 14       		.uleb128 0x14
 2424 0da2 37000000 		.4byte	0x37
 2425 0da6 10       		.byte	0x10
 2426 0da7 00       		.byte	0
 2427 0da8 05       		.uleb128 0x5
 2428 0da9 980D0000 		.4byte	0xd98
 2429 0dad 3A       		.uleb128 0x3a
 2430 0dae 37050000 		.4byte	.LASF152
 2431 0db2 01       		.byte	0x1
 2432 0db3 82       		.byte	0x82
 2433 0db4 00000000 		.4byte	.LFB283
 2434 0db8 34000000 		.4byte	.LFE283-.LFB283
 2435 0dbc 01       		.uleb128 0x1
 2436 0dbd 9C       		.byte	0x9c
 2437 0dbe E10E0000 		.4byte	0xee1
 2438 0dc2 31       		.uleb128 0x31
 2439 0dc3 637000   		.ascii	"cp\000"
 2440 0dc6 01       		.byte	0x1
 2441 0dc7 82       		.byte	0x82
 2442 0dc8 AE0A0000 		.4byte	0xaae
 2443 0dcc 12020000 		.4byte	.LLST11
 2444 0dd0 36       		.uleb128 0x36
 2445 0dd1 2C110000 		.4byte	0x112c
 2446 0dd5 02000000 		.4byte	.LBB111
 2447 0dd9 06000000 		.4byte	.LBE111-.LBB111
 2448 0ddd 01       		.byte	0x1
 2449 0dde 84       		.byte	0x84
 2450 0ddf 0F0E0000 		.4byte	0xe0f
 2451 0de3 2D       		.uleb128 0x2d
ARM GAS  /var/folders/vd/czx34qs52cd_f3nb04sxmghc0000gn/T//cc6O8NfS.s 			page 44


 2452 0de4 DB110000 		.4byte	0x11db
 2453 0de8 02000000 		.4byte	.LBB112
 2454 0dec 06000000 		.4byte	.LBE112-.LBB112
 2455 0df0 12       		.byte	0x12
 2456 0df1 6301     		.2byte	0x163
 2457 0df3 2D       		.uleb128 0x2d
 2458 0df4 E4110000 		.4byte	0x11e4
 2459 0df8 02000000 		.4byte	.LBB113
 2460 0dfc 06000000 		.4byte	.LBE113-.LBB113
 2461 0e00 0F       		.byte	0xf
 2462 0e01 5A02     		.2byte	0x25a
 2463 0e03 26       		.uleb128 0x26
 2464 0e04 F1110000 		.4byte	0x11f1
 2465 0e08 3E020000 		.4byte	.LLST12
 2466 0e0c 00       		.byte	0
 2467 0e0d 00       		.byte	0
 2468 0e0e 00       		.byte	0
 2469 0e0f 36       		.uleb128 0x36
 2470 0e10 740D0000 		.4byte	0xd74
 2471 0e14 08000000 		.4byte	.LBB115
 2472 0e18 20000000 		.4byte	.LBE115-.LBB115
 2473 0e1c 01       		.byte	0x1
 2474 0e1d 85       		.byte	0x85
 2475 0e1e 890E0000 		.4byte	0xe89
 2476 0e22 3B       		.uleb128 0x3b
 2477 0e23 800D0000 		.4byte	0xd80
 2478 0e27 2E       		.uleb128 0x2e
 2479 0e28 08000000 		.4byte	.LBB116
 2480 0e2c 20000000 		.4byte	.LBE116-.LBB116
 2481 0e30 2F       		.uleb128 0x2f
 2482 0e31 8A0D0000 		.4byte	0xd8a
 2483 0e35 34       		.uleb128 0x34
 2484 0e36 94110000 		.4byte	0x1194
 2485 0e3a 08000000 		.4byte	.LBB117
 2486 0e3e 18000000 		.4byte	.Ldebug_ranges0+0x18
 2487 0e42 01       		.byte	0x1
 2488 0e43 9D       		.byte	0x9d
 2489 0e44 520E0000 		.4byte	0xe52
 2490 0e48 26       		.uleb128 0x26
 2491 0e49 A5110000 		.4byte	0x11a5
 2492 0e4d 53020000 		.4byte	.LLST13
 2493 0e51 00       		.byte	0
 2494 0e52 34       		.uleb128 0x34
 2495 0e53 35110000 		.4byte	0x1135
 2496 0e57 14000000 		.4byte	.LBB120
 2497 0e5b 30000000 		.4byte	.Ldebug_ranges0+0x30
 2498 0e5f 01       		.byte	0x1
 2499 0e60 9E       		.byte	0x9e
 2500 0e61 7E0E0000 		.4byte	0xe7e
 2501 0e65 26       		.uleb128 0x26
 2502 0e66 46110000 		.4byte	0x1146
 2503 0e6a 66020000 		.4byte	.LLST14
 2504 0e6e 27       		.uleb128 0x27
 2505 0e6f 30000000 		.4byte	.Ldebug_ranges0+0x30
 2506 0e73 28       		.uleb128 0x28
 2507 0e74 52110000 		.4byte	0x1152
 2508 0e78 79020000 		.4byte	.LLST15
ARM GAS  /var/folders/vd/czx34qs52cd_f3nb04sxmghc0000gn/T//cc6O8NfS.s 			page 45


 2509 0e7c 00       		.byte	0
 2510 0e7d 00       		.byte	0
 2511 0e7e 3C       		.uleb128 0x3c
 2512 0e7f 20000000 		.4byte	.LVL21
 2513 0e83 A0120000 		.4byte	0x12a0
 2514 0e87 00       		.byte	0
 2515 0e88 00       		.byte	0
 2516 0e89 36       		.uleb128 0x36
 2517 0e8a 11110000 		.4byte	0x1111
 2518 0e8e 2C000000 		.4byte	.LBB125
 2519 0e92 06000000 		.4byte	.LBE125-.LBB125
 2520 0e96 01       		.byte	0x1
 2521 0e97 87       		.byte	0x87
 2522 0e98 D70E0000 		.4byte	0xed7
 2523 0e9c 2E       		.uleb128 0x2e
 2524 0e9d 2C000000 		.4byte	.LBB126
 2525 0ea1 06000000 		.4byte	.LBE126-.LBB126
 2526 0ea5 2F       		.uleb128 0x2f
 2527 0ea6 1E110000 		.4byte	0x111e
 2528 0eaa 2D       		.uleb128 0x2d
 2529 0eab D2110000 		.4byte	0x11d2
 2530 0eaf 2C000000 		.4byte	.LBB127
 2531 0eb3 06000000 		.4byte	.LBE127-.LBB127
 2532 0eb7 12       		.byte	0x12
 2533 0eb8 7A01     		.2byte	0x17a
 2534 0eba 2D       		.uleb128 0x2d
 2535 0ebb E4110000 		.4byte	0x11e4
 2536 0ebf 2C000000 		.4byte	.LBB128
 2537 0ec3 06000000 		.4byte	.LBE128-.LBB128
 2538 0ec7 0F       		.byte	0xf
 2539 0ec8 6D02     		.2byte	0x26d
 2540 0eca 26       		.uleb128 0x26
 2541 0ecb F1110000 		.4byte	0x11f1
 2542 0ecf 8C020000 		.4byte	.LLST16
 2543 0ed3 00       		.byte	0
 2544 0ed4 00       		.byte	0
 2545 0ed5 00       		.byte	0
 2546 0ed6 00       		.byte	0
 2547 0ed7 3C       		.uleb128 0x3c
 2548 0ed8 2C000000 		.4byte	.LVL23
 2549 0edc AC120000 		.4byte	0x12ac
 2550 0ee0 00       		.byte	0
 2551 0ee1 3A       		.uleb128 0x3a
 2552 0ee2 BA050000 		.4byte	.LASF153
 2553 0ee6 01       		.byte	0x1
 2554 0ee7 6F       		.byte	0x6f
 2555 0ee8 00000000 		.4byte	.LFB282
 2556 0eec 18000000 		.4byte	.LFE282-.LFB282
 2557 0ef0 01       		.uleb128 0x1
 2558 0ef1 9C       		.byte	0x9c
 2559 0ef2 740F0000 		.4byte	0xf74
 2560 0ef6 31       		.uleb128 0x31
 2561 0ef7 637000   		.ascii	"cp\000"
 2562 0efa 01       		.byte	0x1
 2563 0efb 6F       		.byte	0x6f
 2564 0efc AE0A0000 		.4byte	0xaae
 2565 0f00 A0020000 		.4byte	.LLST7
ARM GAS  /var/folders/vd/czx34qs52cd_f3nb04sxmghc0000gn/T//cc6O8NfS.s 			page 46


 2566 0f04 22       		.uleb128 0x22
 2567 0f05 1E060000 		.4byte	.LASF150
 2568 0f09 840F0000 		.4byte	0xf84
 2569 0f0d 3D       		.uleb128 0x3d
 2570 0f0e 06000000 		.4byte	.LBB106
 2571 0f12 10000000 		.4byte	.LBE106-.LBB106
 2572 0f16 5A0F0000 		.4byte	0xf5a
 2573 0f1a 33       		.uleb128 0x33
 2574 0f1b 747000   		.ascii	"tp\000"
 2575 0f1e 01       		.byte	0x1
 2576 0f1f 75       		.byte	0x75
 2577 0f20 4C020000 		.4byte	0x24c
 2578 0f24 34       		.uleb128 0x34
 2579 0f25 35110000 		.4byte	0x1135
 2580 0f29 06000000 		.4byte	.LBB107
 2581 0f2d 00000000 		.4byte	.Ldebug_ranges0+0
 2582 0f31 01       		.byte	0x1
 2583 0f32 75       		.byte	0x75
 2584 0f33 500F0000 		.4byte	0xf50
 2585 0f37 26       		.uleb128 0x26
 2586 0f38 46110000 		.4byte	0x1146
 2587 0f3c D8020000 		.4byte	.LLST9
 2588 0f40 27       		.uleb128 0x27
 2589 0f41 00000000 		.4byte	.Ldebug_ranges0+0
 2590 0f45 28       		.uleb128 0x28
 2591 0f46 52110000 		.4byte	0x1152
 2592 0f4a EB020000 		.4byte	.LLST10
 2593 0f4e 00       		.byte	0
 2594 0f4f 00       		.byte	0
 2595 0f50 3E       		.uleb128 0x3e
 2596 0f51 16000000 		.4byte	.LVL15
 2597 0f55 A0120000 		.4byte	0x12a0
 2598 0f59 00       		.byte	0
 2599 0f5a 3F       		.uleb128 0x3f
 2600 0f5b 94110000 		.4byte	0x1194
 2601 0f5f 00000000 		.4byte	.LBB104
 2602 0f63 02000000 		.4byte	.LBE104-.LBB104
 2603 0f67 01       		.byte	0x1
 2604 0f68 74       		.byte	0x74
 2605 0f69 26       		.uleb128 0x26
 2606 0f6a A5110000 		.4byte	0x11a5
 2607 0f6e FE020000 		.4byte	.LLST8
 2608 0f72 00       		.byte	0
 2609 0f73 00       		.byte	0
 2610 0f74 13       		.uleb128 0x13
 2611 0f75 6F060000 		.4byte	0x66f
 2612 0f79 840F0000 		.4byte	0xf84
 2613 0f7d 14       		.uleb128 0x14
 2614 0f7e 37000000 		.4byte	0x37
 2615 0f82 0D       		.byte	0xd
 2616 0f83 00       		.byte	0
 2617 0f84 05       		.uleb128 0x5
 2618 0f85 740F0000 		.4byte	0xf74
 2619 0f89 3A       		.uleb128 0x3a
 2620 0f8a 37030000 		.4byte	.LASF154
 2621 0f8e 01       		.byte	0x1
 2622 0f8f 59       		.byte	0x59
ARM GAS  /var/folders/vd/czx34qs52cd_f3nb04sxmghc0000gn/T//cc6O8NfS.s 			page 47


 2623 0f90 00000000 		.4byte	.LFB281
 2624 0f94 26000000 		.4byte	.LFE281-.LFB281
 2625 0f98 01       		.uleb128 0x1
 2626 0f99 9C       		.byte	0x9c
 2627 0f9a 9F100000 		.4byte	0x109f
 2628 0f9e 31       		.uleb128 0x31
 2629 0f9f 637000   		.ascii	"cp\000"
 2630 0fa2 01       		.byte	0x1
 2631 0fa3 59       		.byte	0x59
 2632 0fa4 AE0A0000 		.4byte	0xaae
 2633 0fa8 11030000 		.4byte	.LLST1
 2634 0fac 22       		.uleb128 0x22
 2635 0fad 1E060000 		.4byte	.LASF150
 2636 0fb1 AF100000 		.4byte	0x10af
 2637 0fb5 36       		.uleb128 0x36
 2638 0fb6 2C110000 		.4byte	0x112c
 2639 0fba 02000000 		.4byte	.LBB91
 2640 0fbe 06000000 		.4byte	.LBE91-.LBB91
 2641 0fc2 01       		.byte	0x1
 2642 0fc3 5D       		.byte	0x5d
 2643 0fc4 F40F0000 		.4byte	0xff4
 2644 0fc8 2D       		.uleb128 0x2d
 2645 0fc9 DB110000 		.4byte	0x11db
 2646 0fcd 02000000 		.4byte	.LBB92
 2647 0fd1 06000000 		.4byte	.LBE92-.LBB92
 2648 0fd5 12       		.byte	0x12
 2649 0fd6 6301     		.2byte	0x163
 2650 0fd8 2D       		.uleb128 0x2d
 2651 0fd9 E4110000 		.4byte	0x11e4
 2652 0fdd 02000000 		.4byte	.LBB93
 2653 0fe1 06000000 		.4byte	.LBE93-.LBB93
 2654 0fe5 0F       		.byte	0xf
 2655 0fe6 5A02     		.2byte	0x25a
 2656 0fe8 26       		.uleb128 0x26
 2657 0fe9 F1110000 		.4byte	0x11f1
 2658 0fed 3D030000 		.4byte	.LLST2
 2659 0ff1 00       		.byte	0
 2660 0ff2 00       		.byte	0
 2661 0ff3 00       		.byte	0
 2662 0ff4 36       		.uleb128 0x36
 2663 0ff5 94110000 		.4byte	0x1194
 2664 0ff9 08000000 		.4byte	.LBB95
 2665 0ffd 02000000 		.4byte	.LBE95-.LBB95
 2666 1001 01       		.byte	0x1
 2667 1002 5E       		.byte	0x5e
 2668 1003 11100000 		.4byte	0x1011
 2669 1007 26       		.uleb128 0x26
 2670 1008 A5110000 		.4byte	0x11a5
 2671 100c 52030000 		.4byte	.LLST3
 2672 1010 00       		.byte	0
 2673 1011 36       		.uleb128 0x36
 2674 1012 35110000 		.4byte	0x1135
 2675 1016 0E000000 		.4byte	.LBB97
 2676 101a 08000000 		.4byte	.LBE97-.LBB97
 2677 101e 01       		.byte	0x1
 2678 101f 5F       		.byte	0x5f
 2679 1020 41100000 		.4byte	0x1041
ARM GAS  /var/folders/vd/czx34qs52cd_f3nb04sxmghc0000gn/T//cc6O8NfS.s 			page 48


 2680 1024 26       		.uleb128 0x26
 2681 1025 46110000 		.4byte	0x1146
 2682 1029 65030000 		.4byte	.LLST4
 2683 102d 2E       		.uleb128 0x2e
 2684 102e 0E000000 		.4byte	.LBB98
 2685 1032 08000000 		.4byte	.LBE98-.LBB98
 2686 1036 28       		.uleb128 0x28
 2687 1037 52110000 		.4byte	0x1152
 2688 103b 78030000 		.4byte	.LLST5
 2689 103f 00       		.byte	0
 2690 1040 00       		.byte	0
 2691 1041 36       		.uleb128 0x36
 2692 1042 11110000 		.4byte	0x1111
 2693 1046 1E000000 		.4byte	.LBB99
 2694 104a 06000000 		.4byte	.LBE99-.LBB99
 2695 104e 01       		.byte	0x1
 2696 104f 61       		.byte	0x61
 2697 1050 8F100000 		.4byte	0x108f
 2698 1054 2E       		.uleb128 0x2e
 2699 1055 1E000000 		.4byte	.LBB100
 2700 1059 06000000 		.4byte	.LBE100-.LBB100
 2701 105d 2F       		.uleb128 0x2f
 2702 105e 1E110000 		.4byte	0x111e
 2703 1062 2D       		.uleb128 0x2d
 2704 1063 D2110000 		.4byte	0x11d2
 2705 1067 1E000000 		.4byte	.LBB101
 2706 106b 06000000 		.4byte	.LBE101-.LBB101
 2707 106f 12       		.byte	0x12
 2708 1070 7A01     		.2byte	0x17a
 2709 1072 2D       		.uleb128 0x2d
 2710 1073 E4110000 		.4byte	0x11e4
 2711 1077 1E000000 		.4byte	.LBB102
 2712 107b 06000000 		.4byte	.LBE102-.LBB102
 2713 107f 0F       		.byte	0xf
 2714 1080 6D02     		.2byte	0x26d
 2715 1082 26       		.uleb128 0x26
 2716 1083 F1110000 		.4byte	0x11f1
 2717 1087 8B030000 		.4byte	.LLST6
 2718 108b 00       		.byte	0
 2719 108c 00       		.byte	0
 2720 108d 00       		.byte	0
 2721 108e 00       		.byte	0
 2722 108f 2B       		.uleb128 0x2b
 2723 1090 1E000000 		.4byte	.LVL8
 2724 1094 B8120000 		.4byte	0x12b8
 2725 1098 2A       		.uleb128 0x2a
 2726 1099 01       		.uleb128 0x1
 2727 109a 51       		.byte	0x51
 2728 109b 01       		.uleb128 0x1
 2729 109c 30       		.byte	0x30
 2730 109d 00       		.byte	0
 2731 109e 00       		.byte	0
 2732 109f 13       		.uleb128 0x13
 2733 10a0 6F060000 		.4byte	0x66f
 2734 10a4 AF100000 		.4byte	0x10af
 2735 10a8 14       		.uleb128 0x14
 2736 10a9 37000000 		.4byte	0x37
ARM GAS  /var/folders/vd/czx34qs52cd_f3nb04sxmghc0000gn/T//cc6O8NfS.s 			page 49


 2737 10ad 0C       		.byte	0xc
 2738 10ae 00       		.byte	0
 2739 10af 05       		.uleb128 0x5
 2740 10b0 9F100000 		.4byte	0x109f
 2741 10b4 3A       		.uleb128 0x3a
 2742 10b5 04070000 		.4byte	.LASF155
 2743 10b9 01       		.byte	0x1
 2744 10ba 4B       		.byte	0x4b
 2745 10bb 00000000 		.4byte	.LFB280
 2746 10bf 06000000 		.4byte	.LFE280-.LFB280
 2747 10c3 01       		.uleb128 0x1
 2748 10c4 9C       		.byte	0x9c
 2749 10c5 F8100000 		.4byte	0x10f8
 2750 10c9 40       		.uleb128 0x40
 2751 10ca 637000   		.ascii	"cp\000"
 2752 10cd 01       		.byte	0x1
 2753 10ce 4B       		.byte	0x4b
 2754 10cf AE0A0000 		.4byte	0xaae
 2755 10d3 01       		.uleb128 0x1
 2756 10d4 50       		.byte	0x50
 2757 10d5 22       		.uleb128 0x22
 2758 10d6 1E060000 		.4byte	.LASF150
 2759 10da A80D0000 		.4byte	0xda8
 2760 10de 3F       		.uleb128 0x3f
 2761 10df B8110000 		.4byte	0x11b8
 2762 10e3 00000000 		.4byte	.LBB89
 2763 10e7 04000000 		.4byte	.LBE89-.LBB89
 2764 10eb 01       		.byte	0x1
 2765 10ec 4F       		.byte	0x4f
 2766 10ed 26       		.uleb128 0x26
 2767 10ee C5110000 		.4byte	0x11c5
 2768 10f2 9F030000 		.4byte	.LLST0
 2769 10f6 00       		.byte	0
 2770 10f7 00       		.byte	0
 2771 10f8 41       		.uleb128 0x41
 2772 10f9 87060000 		.4byte	.LASF156
 2773 10fd 04       		.byte	0x4
 2774 10fe 90       		.byte	0x90
 2775 10ff B9070000 		.4byte	0x7b9
 2776 1103 03       		.byte	0x3
 2777 1104 42       		.uleb128 0x42
 2778 1105 F8070000 		.4byte	.LASF157
 2779 1109 05       		.byte	0x5
 2780 110a 1001     		.2byte	0x110
 2781 110c 4C020000 		.4byte	0x24c
 2782 1110 03       		.byte	0x3
 2783 1111 43       		.uleb128 0x43
 2784 1112 65080000 		.4byte	.LASF159
 2785 1116 12       		.byte	0x12
 2786 1117 6D01     		.2byte	0x16d
 2787 1119 03       		.byte	0x3
 2788 111a 2C110000 		.4byte	0x112c
 2789 111e 39       		.uleb128 0x39
 2790 111f 1E060000 		.4byte	.LASF150
 2791 1123 9C0C0000 		.4byte	0xc9c
 2792 1127 65080000 		.4byte	.LASF159
 2793 112b 00       		.byte	0
ARM GAS  /var/folders/vd/czx34qs52cd_f3nb04sxmghc0000gn/T//cc6O8NfS.s 			page 50


 2794 112c 44       		.uleb128 0x44
 2795 112d 32060000 		.4byte	.LASF164
 2796 1131 12       		.byte	0x12
 2797 1132 6101     		.2byte	0x161
 2798 1134 03       		.byte	0x3
 2799 1135 45       		.uleb128 0x45
 2800 1136 21070000 		.4byte	.LASF161
 2801 113a 02       		.byte	0x2
 2802 113b 5E02     		.2byte	0x25e
 2803 113d 4C020000 		.4byte	0x24c
 2804 1141 03       		.byte	0x3
 2805 1142 5E110000 		.4byte	0x115e
 2806 1146 46       		.uleb128 0x46
 2807 1147 74717000 		.ascii	"tqp\000"
 2808 114b 02       		.byte	0x2
 2809 114c 5E02     		.2byte	0x25e
 2810 114e 5E110000 		.4byte	0x115e
 2811 1152 20       		.uleb128 0x20
 2812 1153 747000   		.ascii	"tp\000"
 2813 1156 02       		.byte	0x2
 2814 1157 5F02     		.2byte	0x25f
 2815 1159 4C020000 		.4byte	0x24c
 2816 115d 00       		.byte	0
 2817 115e 0C       		.uleb128 0xc
 2818 115f 04       		.byte	0x4
 2819 1160 76020000 		.4byte	0x276
 2820 1164 43       		.uleb128 0x43
 2821 1165 83080000 		.4byte	.LASF160
 2822 1169 02       		.byte	0x2
 2823 116a 4A02     		.2byte	0x24a
 2824 116c 03       		.byte	0x3
 2825 116d 94110000 		.4byte	0x1194
 2826 1171 46       		.uleb128 0x46
 2827 1172 747000   		.ascii	"tp\000"
 2828 1175 02       		.byte	0x2
 2829 1176 4A02     		.2byte	0x24a
 2830 1178 4C020000 		.4byte	0x24c
 2831 117c 46       		.uleb128 0x46
 2832 117d 74717000 		.ascii	"tqp\000"
 2833 1181 02       		.byte	0x2
 2834 1182 4A02     		.2byte	0x24a
 2835 1184 5E110000 		.4byte	0x115e
 2836 1188 20       		.uleb128 0x20
 2837 1189 637000   		.ascii	"cp\000"
 2838 118c 02       		.byte	0x2
 2839 118d 4C02     		.2byte	0x24c
 2840 118f 4C020000 		.4byte	0x24c
 2841 1193 00       		.byte	0
 2842 1194 45       		.uleb128 0x45
 2843 1195 87020000 		.4byte	.LASF162
 2844 1199 02       		.byte	0x2
 2845 119a 3402     		.2byte	0x234
 2846 119c E3070000 		.4byte	0x7e3
 2847 11a0 03       		.byte	0x3
 2848 11a1 B2110000 		.4byte	0x11b2
 2849 11a5 46       		.uleb128 0x46
 2850 11a6 74717000 		.ascii	"tqp\000"
ARM GAS  /var/folders/vd/czx34qs52cd_f3nb04sxmghc0000gn/T//cc6O8NfS.s 			page 51


 2851 11aa 02       		.byte	0x2
 2852 11ab 3402     		.2byte	0x234
 2853 11ad B2110000 		.4byte	0x11b2
 2854 11b1 00       		.byte	0
 2855 11b2 0C       		.uleb128 0xc
 2856 11b3 04       		.byte	0x4
 2857 11b4 81020000 		.4byte	0x281
 2858 11b8 43       		.uleb128 0x43
 2859 11b9 6E000000 		.4byte	.LASF163
 2860 11bd 02       		.byte	0x2
 2861 11be 1902     		.2byte	0x219
 2862 11c0 03       		.byte	0x3
 2863 11c1 D2110000 		.4byte	0x11d2
 2864 11c5 46       		.uleb128 0x46
 2865 11c6 74717000 		.ascii	"tqp\000"
 2866 11ca 02       		.byte	0x2
 2867 11cb 1902     		.2byte	0x219
 2868 11cd 5E110000 		.4byte	0x115e
 2869 11d1 00       		.byte	0
 2870 11d2 44       		.uleb128 0x44
 2871 11d3 4E020000 		.4byte	.LASF165
 2872 11d7 0F       		.byte	0xf
 2873 11d8 6A02     		.2byte	0x26a
 2874 11da 03       		.byte	0x3
 2875 11db 44       		.uleb128 0x44
 2876 11dc 82000000 		.4byte	.LASF166
 2877 11e0 0F       		.byte	0xf
 2878 11e1 5202     		.2byte	0x252
 2879 11e3 03       		.byte	0x3
 2880 11e4 43       		.uleb128 0x43
 2881 11e5 46070000 		.4byte	.LASF167
 2882 11e9 03       		.byte	0x3
 2883 11ea E801     		.2byte	0x1e8
 2884 11ec 03       		.byte	0x3
 2885 11ed FE110000 		.4byte	0x11fe
 2886 11f1 47       		.uleb128 0x47
 2887 11f2 3F020000 		.4byte	.LASF168
 2888 11f6 03       		.byte	0x3
 2889 11f7 E801     		.2byte	0x1e8
 2890 11f9 DF000000 		.4byte	0xdf
 2891 11fd 00       		.byte	0
 2892 11fe 48       		.uleb128 0x48
 2893 11ff 740D0000 		.4byte	0xd74
 2894 1203 00000000 		.4byte	.LFB284
 2895 1207 24000000 		.4byte	.LFE284-.LFB284
 2896 120b 01       		.uleb128 0x1
 2897 120c 9C       		.byte	0x9c
 2898 120d 72120000 		.4byte	0x1272
 2899 1211 26       		.uleb128 0x26
 2900 1212 800D0000 		.4byte	0xd80
 2901 1216 B2030000 		.4byte	.LLST17
 2902 121a 2F       		.uleb128 0x2f
 2903 121b 8A0D0000 		.4byte	0xd8a
 2904 121f 34       		.uleb128 0x34
 2905 1220 94110000 		.4byte	0x1194
 2906 1224 02000000 		.4byte	.LBB130
 2907 1228 48000000 		.4byte	.Ldebug_ranges0+0x48
ARM GAS  /var/folders/vd/czx34qs52cd_f3nb04sxmghc0000gn/T//cc6O8NfS.s 			page 52


 2908 122c 01       		.byte	0x1
 2909 122d 9D       		.byte	0x9d
 2910 122e 3C120000 		.4byte	0x123c
 2911 1232 26       		.uleb128 0x26
 2912 1233 A5110000 		.4byte	0x11a5
 2913 1237 DE030000 		.4byte	.LLST18
 2914 123b 00       		.byte	0
 2915 123c 34       		.uleb128 0x34
 2916 123d 35110000 		.4byte	0x1135
 2917 1241 0E000000 		.4byte	.LBB133
 2918 1245 60000000 		.4byte	.Ldebug_ranges0+0x60
 2919 1249 01       		.byte	0x1
 2920 124a 9E       		.byte	0x9e
 2921 124b 68120000 		.4byte	0x1268
 2922 124f 26       		.uleb128 0x26
 2923 1250 46110000 		.4byte	0x1146
 2924 1254 F1030000 		.4byte	.LLST19
 2925 1258 27       		.uleb128 0x27
 2926 1259 60000000 		.4byte	.Ldebug_ranges0+0x60
 2927 125d 28       		.uleb128 0x28
 2928 125e 52110000 		.4byte	0x1152
 2929 1262 04040000 		.4byte	.LLST20
 2930 1266 00       		.byte	0
 2931 1267 00       		.byte	0
 2932 1268 3C       		.uleb128 0x3c
 2933 1269 1A000000 		.4byte	.LVL29
 2934 126d A0120000 		.4byte	0x12a0
 2935 1271 00       		.byte	0
 2936 1272 49       		.uleb128 0x49
 2937 1273 58030000 		.4byte	.LASF169
 2938 1277 58030000 		.4byte	.LASF169
 2939 127b 04       		.byte	0x4
 2940 127c 6C       		.byte	0x6c
 2941 127d 4A       		.uleb128 0x4a
 2942 127e 50080000 		.4byte	.LASF170
 2943 1282 50080000 		.4byte	.LASF170
 2944 1286 02       		.byte	0x2
 2945 1287 D401     		.2byte	0x1d4
 2946 1289 49       		.uleb128 0x49
 2947 128a A6020000 		.4byte	.LASF171
 2948 128e A6020000 		.4byte	.LASF171
 2949 1292 04       		.byte	0x4
 2950 1293 68       		.byte	0x68
 2951 1294 4A       		.uleb128 0x4a
 2952 1295 AC050000 		.4byte	.LASF172
 2953 1299 AC050000 		.4byte	.LASF172
 2954 129d 02       		.byte	0x2
 2955 129e D301     		.2byte	0x1d3
 2956 12a0 4A       		.uleb128 0x4a
 2957 12a1 AA060000 		.4byte	.LASF173
 2958 12a5 AA060000 		.4byte	.LASF173
 2959 12a9 02       		.byte	0x2
 2960 12aa D101     		.2byte	0x1d1
 2961 12ac 4A       		.uleb128 0x4a
 2962 12ad D0020000 		.4byte	.LASF174
 2963 12b1 D0020000 		.4byte	.LASF174
 2964 12b5 02       		.byte	0x2
ARM GAS  /var/folders/vd/czx34qs52cd_f3nb04sxmghc0000gn/T//cc6O8NfS.s 			page 53


 2965 12b6 D601     		.2byte	0x1d6
 2966 12b8 4A       		.uleb128 0x4a
 2967 12b9 96070000 		.4byte	.LASF175
 2968 12bd 96070000 		.4byte	.LASF175
 2969 12c1 02       		.byte	0x2
 2970 12c2 D501     		.2byte	0x1d5
 2971 12c4 00       		.byte	0
 2972              		.section	.debug_abbrev,"",%progbits
 2973              	.Ldebug_abbrev0:
 2974 0000 01       		.uleb128 0x1
 2975 0001 11       		.uleb128 0x11
 2976 0002 01       		.byte	0x1
 2977 0003 25       		.uleb128 0x25
 2978 0004 0E       		.uleb128 0xe
 2979 0005 13       		.uleb128 0x13
 2980 0006 0B       		.uleb128 0xb
 2981 0007 03       		.uleb128 0x3
 2982 0008 0E       		.uleb128 0xe
 2983 0009 1B       		.uleb128 0x1b
 2984 000a 0E       		.uleb128 0xe
 2985 000b 55       		.uleb128 0x55
 2986 000c 17       		.uleb128 0x17
 2987 000d 11       		.uleb128 0x11
 2988 000e 01       		.uleb128 0x1
 2989 000f 10       		.uleb128 0x10
 2990 0010 17       		.uleb128 0x17
 2991 0011 00       		.byte	0
 2992 0012 00       		.byte	0
 2993 0013 02       		.uleb128 0x2
 2994 0014 24       		.uleb128 0x24
 2995 0015 00       		.byte	0
 2996 0016 0B       		.uleb128 0xb
 2997 0017 0B       		.uleb128 0xb
 2998 0018 3E       		.uleb128 0x3e
 2999 0019 0B       		.uleb128 0xb
 3000 001a 03       		.uleb128 0x3
 3001 001b 08       		.uleb128 0x8
 3002 001c 00       		.byte	0
 3003 001d 00       		.byte	0
 3004 001e 03       		.uleb128 0x3
 3005 001f 16       		.uleb128 0x16
 3006 0020 00       		.byte	0
 3007 0021 03       		.uleb128 0x3
 3008 0022 0E       		.uleb128 0xe
 3009 0023 3A       		.uleb128 0x3a
 3010 0024 0B       		.uleb128 0xb
 3011 0025 3B       		.uleb128 0x3b
 3012 0026 0B       		.uleb128 0xb
 3013 0027 49       		.uleb128 0x49
 3014 0028 13       		.uleb128 0x13
 3015 0029 00       		.byte	0
 3016 002a 00       		.byte	0
 3017 002b 04       		.uleb128 0x4
 3018 002c 24       		.uleb128 0x24
 3019 002d 00       		.byte	0
 3020 002e 0B       		.uleb128 0xb
 3021 002f 0B       		.uleb128 0xb
ARM GAS  /var/folders/vd/czx34qs52cd_f3nb04sxmghc0000gn/T//cc6O8NfS.s 			page 54


 3022 0030 3E       		.uleb128 0x3e
 3023 0031 0B       		.uleb128 0xb
 3024 0032 03       		.uleb128 0x3
 3025 0033 0E       		.uleb128 0xe
 3026 0034 00       		.byte	0
 3027 0035 00       		.byte	0
 3028 0036 05       		.uleb128 0x5
 3029 0037 26       		.uleb128 0x26
 3030 0038 00       		.byte	0
 3031 0039 49       		.uleb128 0x49
 3032 003a 13       		.uleb128 0x13
 3033 003b 00       		.byte	0
 3034 003c 00       		.byte	0
 3035 003d 06       		.uleb128 0x6
 3036 003e 35       		.uleb128 0x35
 3037 003f 00       		.byte	0
 3038 0040 49       		.uleb128 0x49
 3039 0041 13       		.uleb128 0x13
 3040 0042 00       		.byte	0
 3041 0043 00       		.byte	0
 3042 0044 07       		.uleb128 0x7
 3043 0045 13       		.uleb128 0x13
 3044 0046 01       		.byte	0x1
 3045 0047 03       		.uleb128 0x3
 3046 0048 0E       		.uleb128 0xe
 3047 0049 0B       		.uleb128 0xb
 3048 004a 0B       		.uleb128 0xb
 3049 004b 3A       		.uleb128 0x3a
 3050 004c 0B       		.uleb128 0xb
 3051 004d 3B       		.uleb128 0x3b
 3052 004e 0B       		.uleb128 0xb
 3053 004f 01       		.uleb128 0x1
 3054 0050 13       		.uleb128 0x13
 3055 0051 00       		.byte	0
 3056 0052 00       		.byte	0
 3057 0053 08       		.uleb128 0x8
 3058 0054 0D       		.uleb128 0xd
 3059 0055 00       		.byte	0
 3060 0056 03       		.uleb128 0x3
 3061 0057 0E       		.uleb128 0xe
 3062 0058 3A       		.uleb128 0x3a
 3063 0059 0B       		.uleb128 0xb
 3064 005a 3B       		.uleb128 0x3b
 3065 005b 0B       		.uleb128 0xb
 3066 005c 49       		.uleb128 0x49
 3067 005d 13       		.uleb128 0x13
 3068 005e 38       		.uleb128 0x38
 3069 005f 0B       		.uleb128 0xb
 3070 0060 00       		.byte	0
 3071 0061 00       		.byte	0
 3072 0062 09       		.uleb128 0x9
 3073 0063 0D       		.uleb128 0xd
 3074 0064 00       		.byte	0
 3075 0065 03       		.uleb128 0x3
 3076 0066 08       		.uleb128 0x8
 3077 0067 3A       		.uleb128 0x3a
 3078 0068 0B       		.uleb128 0xb
ARM GAS  /var/folders/vd/czx34qs52cd_f3nb04sxmghc0000gn/T//cc6O8NfS.s 			page 55


 3079 0069 3B       		.uleb128 0x3b
 3080 006a 0B       		.uleb128 0xb
 3081 006b 49       		.uleb128 0x49
 3082 006c 13       		.uleb128 0x13
 3083 006d 38       		.uleb128 0x38
 3084 006e 0B       		.uleb128 0xb
 3085 006f 00       		.byte	0
 3086 0070 00       		.byte	0
 3087 0071 0A       		.uleb128 0xa
 3088 0072 0D       		.uleb128 0xd
 3089 0073 00       		.byte	0
 3090 0074 03       		.uleb128 0x3
 3091 0075 08       		.uleb128 0x8
 3092 0076 3A       		.uleb128 0x3a
 3093 0077 0B       		.uleb128 0xb
 3094 0078 3B       		.uleb128 0x3b
 3095 0079 05       		.uleb128 0x5
 3096 007a 49       		.uleb128 0x49
 3097 007b 13       		.uleb128 0x13
 3098 007c 38       		.uleb128 0x38
 3099 007d 0B       		.uleb128 0xb
 3100 007e 00       		.byte	0
 3101 007f 00       		.byte	0
 3102 0080 0B       		.uleb128 0xb
 3103 0081 0D       		.uleb128 0xd
 3104 0082 00       		.byte	0
 3105 0083 03       		.uleb128 0x3
 3106 0084 0E       		.uleb128 0xe
 3107 0085 3A       		.uleb128 0x3a
 3108 0086 0B       		.uleb128 0xb
 3109 0087 3B       		.uleb128 0x3b
 3110 0088 05       		.uleb128 0x5
 3111 0089 49       		.uleb128 0x49
 3112 008a 13       		.uleb128 0x13
 3113 008b 38       		.uleb128 0x38
 3114 008c 0B       		.uleb128 0xb
 3115 008d 00       		.byte	0
 3116 008e 00       		.byte	0
 3117 008f 0C       		.uleb128 0xc
 3118 0090 0F       		.uleb128 0xf
 3119 0091 00       		.byte	0
 3120 0092 0B       		.uleb128 0xb
 3121 0093 0B       		.uleb128 0xb
 3122 0094 49       		.uleb128 0x49
 3123 0095 13       		.uleb128 0x13
 3124 0096 00       		.byte	0
 3125 0097 00       		.byte	0
 3126 0098 0D       		.uleb128 0xd
 3127 0099 13       		.uleb128 0x13
 3128 009a 01       		.byte	0x1
 3129 009b 03       		.uleb128 0x3
 3130 009c 0E       		.uleb128 0xe
 3131 009d 0B       		.uleb128 0xb
 3132 009e 0B       		.uleb128 0xb
 3133 009f 3A       		.uleb128 0x3a
 3134 00a0 0B       		.uleb128 0xb
 3135 00a1 3B       		.uleb128 0x3b
ARM GAS  /var/folders/vd/czx34qs52cd_f3nb04sxmghc0000gn/T//cc6O8NfS.s 			page 56


 3136 00a2 05       		.uleb128 0x5
 3137 00a3 01       		.uleb128 0x1
 3138 00a4 13       		.uleb128 0x13
 3139 00a5 00       		.byte	0
 3140 00a6 00       		.byte	0
 3141 00a7 0E       		.uleb128 0xe
 3142 00a8 15       		.uleb128 0x15
 3143 00a9 01       		.byte	0x1
 3144 00aa 27       		.uleb128 0x27
 3145 00ab 19       		.uleb128 0x19
 3146 00ac 01       		.uleb128 0x1
 3147 00ad 13       		.uleb128 0x13
 3148 00ae 00       		.byte	0
 3149 00af 00       		.byte	0
 3150 00b0 0F       		.uleb128 0xf
 3151 00b1 05       		.uleb128 0x5
 3152 00b2 00       		.byte	0
 3153 00b3 49       		.uleb128 0x49
 3154 00b4 13       		.uleb128 0x13
 3155 00b5 00       		.byte	0
 3156 00b6 00       		.byte	0
 3157 00b7 10       		.uleb128 0x10
 3158 00b8 0F       		.uleb128 0xf
 3159 00b9 00       		.byte	0
 3160 00ba 0B       		.uleb128 0xb
 3161 00bb 0B       		.uleb128 0xb
 3162 00bc 00       		.byte	0
 3163 00bd 00       		.byte	0
 3164 00be 11       		.uleb128 0x11
 3165 00bf 34       		.uleb128 0x34
 3166 00c0 00       		.byte	0
 3167 00c1 03       		.uleb128 0x3
 3168 00c2 0E       		.uleb128 0xe
 3169 00c3 3A       		.uleb128 0x3a
 3170 00c4 0B       		.uleb128 0xb
 3171 00c5 3B       		.uleb128 0x3b
 3172 00c6 05       		.uleb128 0x5
 3173 00c7 49       		.uleb128 0x49
 3174 00c8 13       		.uleb128 0x13
 3175 00c9 3F       		.uleb128 0x3f
 3176 00ca 19       		.uleb128 0x19
 3177 00cb 3C       		.uleb128 0x3c
 3178 00cc 19       		.uleb128 0x19
 3179 00cd 00       		.byte	0
 3180 00ce 00       		.byte	0
 3181 00cf 12       		.uleb128 0x12
 3182 00d0 34       		.uleb128 0x34
 3183 00d1 00       		.byte	0
 3184 00d2 03       		.uleb128 0x3
 3185 00d3 0E       		.uleb128 0xe
 3186 00d4 3A       		.uleb128 0x3a
 3187 00d5 0B       		.uleb128 0xb
 3188 00d6 3B       		.uleb128 0x3b
 3189 00d7 0B       		.uleb128 0xb
 3190 00d8 49       		.uleb128 0x49
 3191 00d9 13       		.uleb128 0x13
 3192 00da 3F       		.uleb128 0x3f
ARM GAS  /var/folders/vd/czx34qs52cd_f3nb04sxmghc0000gn/T//cc6O8NfS.s 			page 57


 3193 00db 19       		.uleb128 0x19
 3194 00dc 3C       		.uleb128 0x3c
 3195 00dd 19       		.uleb128 0x19
 3196 00de 00       		.byte	0
 3197 00df 00       		.byte	0
 3198 00e0 13       		.uleb128 0x13
 3199 00e1 01       		.uleb128 0x1
 3200 00e2 01       		.byte	0x1
 3201 00e3 49       		.uleb128 0x49
 3202 00e4 13       		.uleb128 0x13
 3203 00e5 01       		.uleb128 0x1
 3204 00e6 13       		.uleb128 0x13
 3205 00e7 00       		.byte	0
 3206 00e8 00       		.byte	0
 3207 00e9 14       		.uleb128 0x14
 3208 00ea 21       		.uleb128 0x21
 3209 00eb 00       		.byte	0
 3210 00ec 49       		.uleb128 0x49
 3211 00ed 13       		.uleb128 0x13
 3212 00ee 2F       		.uleb128 0x2f
 3213 00ef 0B       		.uleb128 0xb
 3214 00f0 00       		.byte	0
 3215 00f1 00       		.byte	0
 3216 00f2 15       		.uleb128 0x15
 3217 00f3 13       		.uleb128 0x13
 3218 00f4 01       		.byte	0x1
 3219 00f5 0B       		.uleb128 0xb
 3220 00f6 0B       		.uleb128 0xb
 3221 00f7 3A       		.uleb128 0x3a
 3222 00f8 0B       		.uleb128 0xb
 3223 00f9 3B       		.uleb128 0x3b
 3224 00fa 0B       		.uleb128 0xb
 3225 00fb 01       		.uleb128 0x1
 3226 00fc 13       		.uleb128 0x13
 3227 00fd 00       		.byte	0
 3228 00fe 00       		.byte	0
 3229 00ff 16       		.uleb128 0x16
 3230 0100 17       		.uleb128 0x17
 3231 0101 01       		.byte	0x1
 3232 0102 0B       		.uleb128 0xb
 3233 0103 0B       		.uleb128 0xb
 3234 0104 3A       		.uleb128 0x3a
 3235 0105 0B       		.uleb128 0xb
 3236 0106 3B       		.uleb128 0x3b
 3237 0107 0B       		.uleb128 0xb
 3238 0108 01       		.uleb128 0x1
 3239 0109 13       		.uleb128 0x13
 3240 010a 00       		.byte	0
 3241 010b 00       		.byte	0
 3242 010c 17       		.uleb128 0x17
 3243 010d 0D       		.uleb128 0xd
 3244 010e 00       		.byte	0
 3245 010f 03       		.uleb128 0x3
 3246 0110 0E       		.uleb128 0xe
 3247 0111 3A       		.uleb128 0x3a
 3248 0112 0B       		.uleb128 0xb
 3249 0113 3B       		.uleb128 0x3b
ARM GAS  /var/folders/vd/czx34qs52cd_f3nb04sxmghc0000gn/T//cc6O8NfS.s 			page 58


 3250 0114 0B       		.uleb128 0xb
 3251 0115 49       		.uleb128 0x49
 3252 0116 13       		.uleb128 0x13
 3253 0117 00       		.byte	0
 3254 0118 00       		.byte	0
 3255 0119 18       		.uleb128 0x18
 3256 011a 0D       		.uleb128 0xd
 3257 011b 00       		.byte	0
 3258 011c 03       		.uleb128 0x3
 3259 011d 0E       		.uleb128 0xe
 3260 011e 3A       		.uleb128 0x3a
 3261 011f 0B       		.uleb128 0xb
 3262 0120 3B       		.uleb128 0x3b
 3263 0121 05       		.uleb128 0x5
 3264 0122 49       		.uleb128 0x49
 3265 0123 13       		.uleb128 0x13
 3266 0124 00       		.byte	0
 3267 0125 00       		.byte	0
 3268 0126 19       		.uleb128 0x19
 3269 0127 34       		.uleb128 0x34
 3270 0128 00       		.byte	0
 3271 0129 03       		.uleb128 0x3
 3272 012a 08       		.uleb128 0x8
 3273 012b 3A       		.uleb128 0x3a
 3274 012c 0B       		.uleb128 0xb
 3275 012d 3B       		.uleb128 0x3b
 3276 012e 05       		.uleb128 0x5
 3277 012f 49       		.uleb128 0x49
 3278 0130 13       		.uleb128 0x13
 3279 0131 3F       		.uleb128 0x3f
 3280 0132 19       		.uleb128 0x19
 3281 0133 3C       		.uleb128 0x3c
 3282 0134 19       		.uleb128 0x19
 3283 0135 00       		.byte	0
 3284 0136 00       		.byte	0
 3285 0137 1A       		.uleb128 0x1a
 3286 0138 21       		.uleb128 0x21
 3287 0139 00       		.byte	0
 3288 013a 00       		.byte	0
 3289 013b 00       		.byte	0
 3290 013c 1B       		.uleb128 0x1b
 3291 013d 15       		.uleb128 0x15
 3292 013e 01       		.byte	0x1
 3293 013f 27       		.uleb128 0x27
 3294 0140 19       		.uleb128 0x19
 3295 0141 49       		.uleb128 0x49
 3296 0142 13       		.uleb128 0x13
 3297 0143 01       		.uleb128 0x1
 3298 0144 13       		.uleb128 0x13
 3299 0145 00       		.byte	0
 3300 0146 00       		.byte	0
 3301 0147 1C       		.uleb128 0x1c
 3302 0148 16       		.uleb128 0x16
 3303 0149 00       		.byte	0
 3304 014a 03       		.uleb128 0x3
 3305 014b 0E       		.uleb128 0xe
 3306 014c 3A       		.uleb128 0x3a
ARM GAS  /var/folders/vd/czx34qs52cd_f3nb04sxmghc0000gn/T//cc6O8NfS.s 			page 59


 3307 014d 0B       		.uleb128 0xb
 3308 014e 3B       		.uleb128 0x3b
 3309 014f 05       		.uleb128 0x5
 3310 0150 49       		.uleb128 0x49
 3311 0151 13       		.uleb128 0x13
 3312 0152 00       		.byte	0
 3313 0153 00       		.byte	0
 3314 0154 1D       		.uleb128 0x1d
 3315 0155 2E       		.uleb128 0x2e
 3316 0156 01       		.byte	0x1
 3317 0157 3F       		.uleb128 0x3f
 3318 0158 19       		.uleb128 0x19
 3319 0159 03       		.uleb128 0x3
 3320 015a 0E       		.uleb128 0xe
 3321 015b 3A       		.uleb128 0x3a
 3322 015c 0B       		.uleb128 0xb
 3323 015d 3B       		.uleb128 0x3b
 3324 015e 05       		.uleb128 0x5
 3325 015f 27       		.uleb128 0x27
 3326 0160 19       		.uleb128 0x19
 3327 0161 49       		.uleb128 0x49
 3328 0162 13       		.uleb128 0x13
 3329 0163 11       		.uleb128 0x11
 3330 0164 01       		.uleb128 0x1
 3331 0165 12       		.uleb128 0x12
 3332 0166 06       		.uleb128 0x6
 3333 0167 40       		.uleb128 0x40
 3334 0168 18       		.uleb128 0x18
 3335 0169 9742     		.uleb128 0x2117
 3336 016b 19       		.uleb128 0x19
 3337 016c 01       		.uleb128 0x1
 3338 016d 13       		.uleb128 0x13
 3339 016e 00       		.byte	0
 3340 016f 00       		.byte	0
 3341 0170 1E       		.uleb128 0x1e
 3342 0171 05       		.uleb128 0x5
 3343 0172 00       		.byte	0
 3344 0173 03       		.uleb128 0x3
 3345 0174 08       		.uleb128 0x8
 3346 0175 3A       		.uleb128 0x3a
 3347 0176 0B       		.uleb128 0xb
 3348 0177 3B       		.uleb128 0x3b
 3349 0178 05       		.uleb128 0x5
 3350 0179 49       		.uleb128 0x49
 3351 017a 13       		.uleb128 0x13
 3352 017b 02       		.uleb128 0x2
 3353 017c 17       		.uleb128 0x17
 3354 017d 00       		.byte	0
 3355 017e 00       		.byte	0
 3356 017f 1F       		.uleb128 0x1f
 3357 0180 05       		.uleb128 0x5
 3358 0181 00       		.byte	0
 3359 0182 03       		.uleb128 0x3
 3360 0183 0E       		.uleb128 0xe
 3361 0184 3A       		.uleb128 0x3a
 3362 0185 0B       		.uleb128 0xb
 3363 0186 3B       		.uleb128 0x3b
ARM GAS  /var/folders/vd/czx34qs52cd_f3nb04sxmghc0000gn/T//cc6O8NfS.s 			page 60


 3364 0187 05       		.uleb128 0x5
 3365 0188 49       		.uleb128 0x49
 3366 0189 13       		.uleb128 0x13
 3367 018a 02       		.uleb128 0x2
 3368 018b 17       		.uleb128 0x17
 3369 018c 00       		.byte	0
 3370 018d 00       		.byte	0
 3371 018e 20       		.uleb128 0x20
 3372 018f 34       		.uleb128 0x34
 3373 0190 00       		.byte	0
 3374 0191 03       		.uleb128 0x3
 3375 0192 08       		.uleb128 0x8
 3376 0193 3A       		.uleb128 0x3a
 3377 0194 0B       		.uleb128 0xb
 3378 0195 3B       		.uleb128 0x3b
 3379 0196 05       		.uleb128 0x5
 3380 0197 49       		.uleb128 0x49
 3381 0198 13       		.uleb128 0x13
 3382 0199 00       		.byte	0
 3383 019a 00       		.byte	0
 3384 019b 21       		.uleb128 0x21
 3385 019c 34       		.uleb128 0x34
 3386 019d 00       		.byte	0
 3387 019e 03       		.uleb128 0x3
 3388 019f 08       		.uleb128 0x8
 3389 01a0 3A       		.uleb128 0x3a
 3390 01a1 0B       		.uleb128 0xb
 3391 01a2 3B       		.uleb128 0x3b
 3392 01a3 05       		.uleb128 0x5
 3393 01a4 49       		.uleb128 0x49
 3394 01a5 13       		.uleb128 0x13
 3395 01a6 02       		.uleb128 0x2
 3396 01a7 17       		.uleb128 0x17
 3397 01a8 00       		.byte	0
 3398 01a9 00       		.byte	0
 3399 01aa 22       		.uleb128 0x22
 3400 01ab 34       		.uleb128 0x34
 3401 01ac 00       		.byte	0
 3402 01ad 03       		.uleb128 0x3
 3403 01ae 0E       		.uleb128 0xe
 3404 01af 49       		.uleb128 0x49
 3405 01b0 13       		.uleb128 0x13
 3406 01b1 34       		.uleb128 0x34
 3407 01b2 19       		.uleb128 0x19
 3408 01b3 00       		.byte	0
 3409 01b4 00       		.byte	0
 3410 01b5 23       		.uleb128 0x23
 3411 01b6 1D       		.uleb128 0x1d
 3412 01b7 01       		.byte	0x1
 3413 01b8 31       		.uleb128 0x31
 3414 01b9 13       		.uleb128 0x13
 3415 01ba 11       		.uleb128 0x11
 3416 01bb 01       		.uleb128 0x1
 3417 01bc 12       		.uleb128 0x12
 3418 01bd 06       		.uleb128 0x6
 3419 01be 58       		.uleb128 0x58
 3420 01bf 0B       		.uleb128 0xb
ARM GAS  /var/folders/vd/czx34qs52cd_f3nb04sxmghc0000gn/T//cc6O8NfS.s 			page 61


 3421 01c0 59       		.uleb128 0x59
 3422 01c1 05       		.uleb128 0x5
 3423 01c2 01       		.uleb128 0x1
 3424 01c3 13       		.uleb128 0x13
 3425 01c4 00       		.byte	0
 3426 01c5 00       		.byte	0
 3427 01c6 24       		.uleb128 0x24
 3428 01c7 1D       		.uleb128 0x1d
 3429 01c8 00       		.byte	0
 3430 01c9 31       		.uleb128 0x31
 3431 01ca 13       		.uleb128 0x13
 3432 01cb 11       		.uleb128 0x11
 3433 01cc 01       		.uleb128 0x1
 3434 01cd 12       		.uleb128 0x12
 3435 01ce 06       		.uleb128 0x6
 3436 01cf 58       		.uleb128 0x58
 3437 01d0 0B       		.uleb128 0xb
 3438 01d1 59       		.uleb128 0x59
 3439 01d2 0B       		.uleb128 0xb
 3440 01d3 00       		.byte	0
 3441 01d4 00       		.byte	0
 3442 01d5 25       		.uleb128 0x25
 3443 01d6 1D       		.uleb128 0x1d
 3444 01d7 01       		.byte	0x1
 3445 01d8 31       		.uleb128 0x31
 3446 01d9 13       		.uleb128 0x13
 3447 01da 52       		.uleb128 0x52
 3448 01db 01       		.uleb128 0x1
 3449 01dc 55       		.uleb128 0x55
 3450 01dd 17       		.uleb128 0x17
 3451 01de 58       		.uleb128 0x58
 3452 01df 0B       		.uleb128 0xb
 3453 01e0 59       		.uleb128 0x59
 3454 01e1 05       		.uleb128 0x5
 3455 01e2 01       		.uleb128 0x1
 3456 01e3 13       		.uleb128 0x13
 3457 01e4 00       		.byte	0
 3458 01e5 00       		.byte	0
 3459 01e6 26       		.uleb128 0x26
 3460 01e7 05       		.uleb128 0x5
 3461 01e8 00       		.byte	0
 3462 01e9 31       		.uleb128 0x31
 3463 01ea 13       		.uleb128 0x13
 3464 01eb 02       		.uleb128 0x2
 3465 01ec 17       		.uleb128 0x17
 3466 01ed 00       		.byte	0
 3467 01ee 00       		.byte	0
 3468 01ef 27       		.uleb128 0x27
 3469 01f0 0B       		.uleb128 0xb
 3470 01f1 01       		.byte	0x1
 3471 01f2 55       		.uleb128 0x55
 3472 01f3 17       		.uleb128 0x17
 3473 01f4 00       		.byte	0
 3474 01f5 00       		.byte	0
 3475 01f6 28       		.uleb128 0x28
 3476 01f7 34       		.uleb128 0x34
 3477 01f8 00       		.byte	0
ARM GAS  /var/folders/vd/czx34qs52cd_f3nb04sxmghc0000gn/T//cc6O8NfS.s 			page 62


 3478 01f9 31       		.uleb128 0x31
 3479 01fa 13       		.uleb128 0x13
 3480 01fb 02       		.uleb128 0x2
 3481 01fc 17       		.uleb128 0x17
 3482 01fd 00       		.byte	0
 3483 01fe 00       		.byte	0
 3484 01ff 29       		.uleb128 0x29
 3485 0200 898201   		.uleb128 0x4109
 3486 0203 01       		.byte	0x1
 3487 0204 11       		.uleb128 0x11
 3488 0205 01       		.uleb128 0x1
 3489 0206 31       		.uleb128 0x31
 3490 0207 13       		.uleb128 0x13
 3491 0208 01       		.uleb128 0x1
 3492 0209 13       		.uleb128 0x13
 3493 020a 00       		.byte	0
 3494 020b 00       		.byte	0
 3495 020c 2A       		.uleb128 0x2a
 3496 020d 8A8201   		.uleb128 0x410a
 3497 0210 00       		.byte	0
 3498 0211 02       		.uleb128 0x2
 3499 0212 18       		.uleb128 0x18
 3500 0213 9142     		.uleb128 0x2111
 3501 0215 18       		.uleb128 0x18
 3502 0216 00       		.byte	0
 3503 0217 00       		.byte	0
 3504 0218 2B       		.uleb128 0x2b
 3505 0219 898201   		.uleb128 0x4109
 3506 021c 01       		.byte	0x1
 3507 021d 11       		.uleb128 0x11
 3508 021e 01       		.uleb128 0x1
 3509 021f 31       		.uleb128 0x31
 3510 0220 13       		.uleb128 0x13
 3511 0221 00       		.byte	0
 3512 0222 00       		.byte	0
 3513 0223 2C       		.uleb128 0x2c
 3514 0224 34       		.uleb128 0x34
 3515 0225 00       		.byte	0
 3516 0226 03       		.uleb128 0x3
 3517 0227 08       		.uleb128 0x8
 3518 0228 3A       		.uleb128 0x3a
 3519 0229 0B       		.uleb128 0xb
 3520 022a 3B       		.uleb128 0x3b
 3521 022b 05       		.uleb128 0x5
 3522 022c 49       		.uleb128 0x49
 3523 022d 13       		.uleb128 0x13
 3524 022e 02       		.uleb128 0x2
 3525 022f 18       		.uleb128 0x18
 3526 0230 00       		.byte	0
 3527 0231 00       		.byte	0
 3528 0232 2D       		.uleb128 0x2d
 3529 0233 1D       		.uleb128 0x1d
 3530 0234 01       		.byte	0x1
 3531 0235 31       		.uleb128 0x31
 3532 0236 13       		.uleb128 0x13
 3533 0237 11       		.uleb128 0x11
 3534 0238 01       		.uleb128 0x1
ARM GAS  /var/folders/vd/czx34qs52cd_f3nb04sxmghc0000gn/T//cc6O8NfS.s 			page 63


 3535 0239 12       		.uleb128 0x12
 3536 023a 06       		.uleb128 0x6
 3537 023b 58       		.uleb128 0x58
 3538 023c 0B       		.uleb128 0xb
 3539 023d 59       		.uleb128 0x59
 3540 023e 05       		.uleb128 0x5
 3541 023f 00       		.byte	0
 3542 0240 00       		.byte	0
 3543 0241 2E       		.uleb128 0x2e
 3544 0242 0B       		.uleb128 0xb
 3545 0243 01       		.byte	0x1
 3546 0244 11       		.uleb128 0x11
 3547 0245 01       		.uleb128 0x1
 3548 0246 12       		.uleb128 0x12
 3549 0247 06       		.uleb128 0x6
 3550 0248 00       		.byte	0
 3551 0249 00       		.byte	0
 3552 024a 2F       		.uleb128 0x2f
 3553 024b 34       		.uleb128 0x34
 3554 024c 00       		.byte	0
 3555 024d 31       		.uleb128 0x31
 3556 024e 13       		.uleb128 0x13
 3557 024f 00       		.byte	0
 3558 0250 00       		.byte	0
 3559 0251 30       		.uleb128 0x30
 3560 0252 2E       		.uleb128 0x2e
 3561 0253 01       		.byte	0x1
 3562 0254 3F       		.uleb128 0x3f
 3563 0255 19       		.uleb128 0x19
 3564 0256 03       		.uleb128 0x3
 3565 0257 0E       		.uleb128 0xe
 3566 0258 3A       		.uleb128 0x3a
 3567 0259 0B       		.uleb128 0xb
 3568 025a 3B       		.uleb128 0x3b
 3569 025b 0B       		.uleb128 0xb
 3570 025c 27       		.uleb128 0x27
 3571 025d 19       		.uleb128 0x19
 3572 025e 49       		.uleb128 0x49
 3573 025f 13       		.uleb128 0x13
 3574 0260 11       		.uleb128 0x11
 3575 0261 01       		.uleb128 0x1
 3576 0262 12       		.uleb128 0x12
 3577 0263 06       		.uleb128 0x6
 3578 0264 40       		.uleb128 0x40
 3579 0265 18       		.uleb128 0x18
 3580 0266 9742     		.uleb128 0x2117
 3581 0268 19       		.uleb128 0x19
 3582 0269 01       		.uleb128 0x1
 3583 026a 13       		.uleb128 0x13
 3584 026b 00       		.byte	0
 3585 026c 00       		.byte	0
 3586 026d 31       		.uleb128 0x31
 3587 026e 05       		.uleb128 0x5
 3588 026f 00       		.byte	0
 3589 0270 03       		.uleb128 0x3
 3590 0271 08       		.uleb128 0x8
 3591 0272 3A       		.uleb128 0x3a
ARM GAS  /var/folders/vd/czx34qs52cd_f3nb04sxmghc0000gn/T//cc6O8NfS.s 			page 64


 3592 0273 0B       		.uleb128 0xb
 3593 0274 3B       		.uleb128 0x3b
 3594 0275 0B       		.uleb128 0xb
 3595 0276 49       		.uleb128 0x49
 3596 0277 13       		.uleb128 0x13
 3597 0278 02       		.uleb128 0x2
 3598 0279 17       		.uleb128 0x17
 3599 027a 00       		.byte	0
 3600 027b 00       		.byte	0
 3601 027c 32       		.uleb128 0x32
 3602 027d 34       		.uleb128 0x34
 3603 027e 00       		.byte	0
 3604 027f 03       		.uleb128 0x3
 3605 0280 08       		.uleb128 0x8
 3606 0281 3A       		.uleb128 0x3a
 3607 0282 0B       		.uleb128 0xb
 3608 0283 3B       		.uleb128 0x3b
 3609 0284 0B       		.uleb128 0xb
 3610 0285 49       		.uleb128 0x49
 3611 0286 13       		.uleb128 0x13
 3612 0287 02       		.uleb128 0x2
 3613 0288 17       		.uleb128 0x17
 3614 0289 00       		.byte	0
 3615 028a 00       		.byte	0
 3616 028b 33       		.uleb128 0x33
 3617 028c 34       		.uleb128 0x34
 3618 028d 00       		.byte	0
 3619 028e 03       		.uleb128 0x3
 3620 028f 08       		.uleb128 0x8
 3621 0290 3A       		.uleb128 0x3a
 3622 0291 0B       		.uleb128 0xb
 3623 0292 3B       		.uleb128 0x3b
 3624 0293 0B       		.uleb128 0xb
 3625 0294 49       		.uleb128 0x49
 3626 0295 13       		.uleb128 0x13
 3627 0296 00       		.byte	0
 3628 0297 00       		.byte	0
 3629 0298 34       		.uleb128 0x34
 3630 0299 1D       		.uleb128 0x1d
 3631 029a 01       		.byte	0x1
 3632 029b 31       		.uleb128 0x31
 3633 029c 13       		.uleb128 0x13
 3634 029d 52       		.uleb128 0x52
 3635 029e 01       		.uleb128 0x1
 3636 029f 55       		.uleb128 0x55
 3637 02a0 17       		.uleb128 0x17
 3638 02a1 58       		.uleb128 0x58
 3639 02a2 0B       		.uleb128 0xb
 3640 02a3 59       		.uleb128 0x59
 3641 02a4 0B       		.uleb128 0xb
 3642 02a5 01       		.uleb128 0x1
 3643 02a6 13       		.uleb128 0x13
 3644 02a7 00       		.byte	0
 3645 02a8 00       		.byte	0
 3646 02a9 35       		.uleb128 0x35
 3647 02aa 34       		.uleb128 0x34
 3648 02ab 00       		.byte	0
ARM GAS  /var/folders/vd/czx34qs52cd_f3nb04sxmghc0000gn/T//cc6O8NfS.s 			page 65


 3649 02ac 03       		.uleb128 0x3
 3650 02ad 08       		.uleb128 0x8
 3651 02ae 3A       		.uleb128 0x3a
 3652 02af 0B       		.uleb128 0xb
 3653 02b0 3B       		.uleb128 0x3b
 3654 02b1 0B       		.uleb128 0xb
 3655 02b2 49       		.uleb128 0x49
 3656 02b3 13       		.uleb128 0x13
 3657 02b4 02       		.uleb128 0x2
 3658 02b5 18       		.uleb128 0x18
 3659 02b6 00       		.byte	0
 3660 02b7 00       		.byte	0
 3661 02b8 36       		.uleb128 0x36
 3662 02b9 1D       		.uleb128 0x1d
 3663 02ba 01       		.byte	0x1
 3664 02bb 31       		.uleb128 0x31
 3665 02bc 13       		.uleb128 0x13
 3666 02bd 11       		.uleb128 0x11
 3667 02be 01       		.uleb128 0x1
 3668 02bf 12       		.uleb128 0x12
 3669 02c0 06       		.uleb128 0x6
 3670 02c1 58       		.uleb128 0x58
 3671 02c2 0B       		.uleb128 0xb
 3672 02c3 59       		.uleb128 0x59
 3673 02c4 0B       		.uleb128 0xb
 3674 02c5 01       		.uleb128 0x1
 3675 02c6 13       		.uleb128 0x13
 3676 02c7 00       		.byte	0
 3677 02c8 00       		.byte	0
 3678 02c9 37       		.uleb128 0x37
 3679 02ca 2E       		.uleb128 0x2e
 3680 02cb 01       		.byte	0x1
 3681 02cc 3F       		.uleb128 0x3f
 3682 02cd 19       		.uleb128 0x19
 3683 02ce 03       		.uleb128 0x3
 3684 02cf 0E       		.uleb128 0xe
 3685 02d0 3A       		.uleb128 0x3a
 3686 02d1 0B       		.uleb128 0xb
 3687 02d2 3B       		.uleb128 0x3b
 3688 02d3 0B       		.uleb128 0xb
 3689 02d4 27       		.uleb128 0x27
 3690 02d5 19       		.uleb128 0x19
 3691 02d6 20       		.uleb128 0x20
 3692 02d7 0B       		.uleb128 0xb
 3693 02d8 01       		.uleb128 0x1
 3694 02d9 13       		.uleb128 0x13
 3695 02da 00       		.byte	0
 3696 02db 00       		.byte	0
 3697 02dc 38       		.uleb128 0x38
 3698 02dd 05       		.uleb128 0x5
 3699 02de 00       		.byte	0
 3700 02df 03       		.uleb128 0x3
 3701 02e0 08       		.uleb128 0x8
 3702 02e1 3A       		.uleb128 0x3a
 3703 02e2 0B       		.uleb128 0xb
 3704 02e3 3B       		.uleb128 0x3b
 3705 02e4 0B       		.uleb128 0xb
ARM GAS  /var/folders/vd/czx34qs52cd_f3nb04sxmghc0000gn/T//cc6O8NfS.s 			page 66


 3706 02e5 49       		.uleb128 0x49
 3707 02e6 13       		.uleb128 0x13
 3708 02e7 00       		.byte	0
 3709 02e8 00       		.byte	0
 3710 02e9 39       		.uleb128 0x39
 3711 02ea 34       		.uleb128 0x34
 3712 02eb 00       		.byte	0
 3713 02ec 03       		.uleb128 0x3
 3714 02ed 0E       		.uleb128 0xe
 3715 02ee 49       		.uleb128 0x49
 3716 02ef 13       		.uleb128 0x13
 3717 02f0 34       		.uleb128 0x34
 3718 02f1 19       		.uleb128 0x19
 3719 02f2 1C       		.uleb128 0x1c
 3720 02f3 0E       		.uleb128 0xe
 3721 02f4 00       		.byte	0
 3722 02f5 00       		.byte	0
 3723 02f6 3A       		.uleb128 0x3a
 3724 02f7 2E       		.uleb128 0x2e
 3725 02f8 01       		.byte	0x1
 3726 02f9 3F       		.uleb128 0x3f
 3727 02fa 19       		.uleb128 0x19
 3728 02fb 03       		.uleb128 0x3
 3729 02fc 0E       		.uleb128 0xe
 3730 02fd 3A       		.uleb128 0x3a
 3731 02fe 0B       		.uleb128 0xb
 3732 02ff 3B       		.uleb128 0x3b
 3733 0300 0B       		.uleb128 0xb
 3734 0301 27       		.uleb128 0x27
 3735 0302 19       		.uleb128 0x19
 3736 0303 11       		.uleb128 0x11
 3737 0304 01       		.uleb128 0x1
 3738 0305 12       		.uleb128 0x12
 3739 0306 06       		.uleb128 0x6
 3740 0307 40       		.uleb128 0x40
 3741 0308 18       		.uleb128 0x18
 3742 0309 9742     		.uleb128 0x2117
 3743 030b 19       		.uleb128 0x19
 3744 030c 01       		.uleb128 0x1
 3745 030d 13       		.uleb128 0x13
 3746 030e 00       		.byte	0
 3747 030f 00       		.byte	0
 3748 0310 3B       		.uleb128 0x3b
 3749 0311 05       		.uleb128 0x5
 3750 0312 00       		.byte	0
 3751 0313 31       		.uleb128 0x31
 3752 0314 13       		.uleb128 0x13
 3753 0315 00       		.byte	0
 3754 0316 00       		.byte	0
 3755 0317 3C       		.uleb128 0x3c
 3756 0318 898201   		.uleb128 0x4109
 3757 031b 00       		.byte	0
 3758 031c 11       		.uleb128 0x11
 3759 031d 01       		.uleb128 0x1
 3760 031e 31       		.uleb128 0x31
 3761 031f 13       		.uleb128 0x13
 3762 0320 00       		.byte	0
ARM GAS  /var/folders/vd/czx34qs52cd_f3nb04sxmghc0000gn/T//cc6O8NfS.s 			page 67


 3763 0321 00       		.byte	0
 3764 0322 3D       		.uleb128 0x3d
 3765 0323 0B       		.uleb128 0xb
 3766 0324 01       		.byte	0x1
 3767 0325 11       		.uleb128 0x11
 3768 0326 01       		.uleb128 0x1
 3769 0327 12       		.uleb128 0x12
 3770 0328 06       		.uleb128 0x6
 3771 0329 01       		.uleb128 0x1
 3772 032a 13       		.uleb128 0x13
 3773 032b 00       		.byte	0
 3774 032c 00       		.byte	0
 3775 032d 3E       		.uleb128 0x3e
 3776 032e 898201   		.uleb128 0x4109
 3777 0331 00       		.byte	0
 3778 0332 11       		.uleb128 0x11
 3779 0333 01       		.uleb128 0x1
 3780 0334 9542     		.uleb128 0x2115
 3781 0336 19       		.uleb128 0x19
 3782 0337 31       		.uleb128 0x31
 3783 0338 13       		.uleb128 0x13
 3784 0339 00       		.byte	0
 3785 033a 00       		.byte	0
 3786 033b 3F       		.uleb128 0x3f
 3787 033c 1D       		.uleb128 0x1d
 3788 033d 01       		.byte	0x1
 3789 033e 31       		.uleb128 0x31
 3790 033f 13       		.uleb128 0x13
 3791 0340 11       		.uleb128 0x11
 3792 0341 01       		.uleb128 0x1
 3793 0342 12       		.uleb128 0x12
 3794 0343 06       		.uleb128 0x6
 3795 0344 58       		.uleb128 0x58
 3796 0345 0B       		.uleb128 0xb
 3797 0346 59       		.uleb128 0x59
 3798 0347 0B       		.uleb128 0xb
 3799 0348 00       		.byte	0
 3800 0349 00       		.byte	0
 3801 034a 40       		.uleb128 0x40
 3802 034b 05       		.uleb128 0x5
 3803 034c 00       		.byte	0
 3804 034d 03       		.uleb128 0x3
 3805 034e 08       		.uleb128 0x8
 3806 034f 3A       		.uleb128 0x3a
 3807 0350 0B       		.uleb128 0xb
 3808 0351 3B       		.uleb128 0x3b
 3809 0352 0B       		.uleb128 0xb
 3810 0353 49       		.uleb128 0x49
 3811 0354 13       		.uleb128 0x13
 3812 0355 02       		.uleb128 0x2
 3813 0356 18       		.uleb128 0x18
 3814 0357 00       		.byte	0
 3815 0358 00       		.byte	0
 3816 0359 41       		.uleb128 0x41
 3817 035a 2E       		.uleb128 0x2e
 3818 035b 00       		.byte	0
 3819 035c 03       		.uleb128 0x3
ARM GAS  /var/folders/vd/czx34qs52cd_f3nb04sxmghc0000gn/T//cc6O8NfS.s 			page 68


 3820 035d 0E       		.uleb128 0xe
 3821 035e 3A       		.uleb128 0x3a
 3822 035f 0B       		.uleb128 0xb
 3823 0360 3B       		.uleb128 0x3b
 3824 0361 0B       		.uleb128 0xb
 3825 0362 27       		.uleb128 0x27
 3826 0363 19       		.uleb128 0x19
 3827 0364 49       		.uleb128 0x49
 3828 0365 13       		.uleb128 0x13
 3829 0366 20       		.uleb128 0x20
 3830 0367 0B       		.uleb128 0xb
 3831 0368 00       		.byte	0
 3832 0369 00       		.byte	0
 3833 036a 42       		.uleb128 0x42
 3834 036b 2E       		.uleb128 0x2e
 3835 036c 00       		.byte	0
 3836 036d 03       		.uleb128 0x3
 3837 036e 0E       		.uleb128 0xe
 3838 036f 3A       		.uleb128 0x3a
 3839 0370 0B       		.uleb128 0xb
 3840 0371 3B       		.uleb128 0x3b
 3841 0372 05       		.uleb128 0x5
 3842 0373 27       		.uleb128 0x27
 3843 0374 19       		.uleb128 0x19
 3844 0375 49       		.uleb128 0x49
 3845 0376 13       		.uleb128 0x13
 3846 0377 20       		.uleb128 0x20
 3847 0378 0B       		.uleb128 0xb
 3848 0379 00       		.byte	0
 3849 037a 00       		.byte	0
 3850 037b 43       		.uleb128 0x43
 3851 037c 2E       		.uleb128 0x2e
 3852 037d 01       		.byte	0x1
 3853 037e 03       		.uleb128 0x3
 3854 037f 0E       		.uleb128 0xe
 3855 0380 3A       		.uleb128 0x3a
 3856 0381 0B       		.uleb128 0xb
 3857 0382 3B       		.uleb128 0x3b
 3858 0383 05       		.uleb128 0x5
 3859 0384 27       		.uleb128 0x27
 3860 0385 19       		.uleb128 0x19
 3861 0386 20       		.uleb128 0x20
 3862 0387 0B       		.uleb128 0xb
 3863 0388 01       		.uleb128 0x1
 3864 0389 13       		.uleb128 0x13
 3865 038a 00       		.byte	0
 3866 038b 00       		.byte	0
 3867 038c 44       		.uleb128 0x44
 3868 038d 2E       		.uleb128 0x2e
 3869 038e 00       		.byte	0
 3870 038f 03       		.uleb128 0x3
 3871 0390 0E       		.uleb128 0xe
 3872 0391 3A       		.uleb128 0x3a
 3873 0392 0B       		.uleb128 0xb
 3874 0393 3B       		.uleb128 0x3b
 3875 0394 05       		.uleb128 0x5
 3876 0395 27       		.uleb128 0x27
ARM GAS  /var/folders/vd/czx34qs52cd_f3nb04sxmghc0000gn/T//cc6O8NfS.s 			page 69


 3877 0396 19       		.uleb128 0x19
 3878 0397 20       		.uleb128 0x20
 3879 0398 0B       		.uleb128 0xb
 3880 0399 00       		.byte	0
 3881 039a 00       		.byte	0
 3882 039b 45       		.uleb128 0x45
 3883 039c 2E       		.uleb128 0x2e
 3884 039d 01       		.byte	0x1
 3885 039e 03       		.uleb128 0x3
 3886 039f 0E       		.uleb128 0xe
 3887 03a0 3A       		.uleb128 0x3a
 3888 03a1 0B       		.uleb128 0xb
 3889 03a2 3B       		.uleb128 0x3b
 3890 03a3 05       		.uleb128 0x5
 3891 03a4 27       		.uleb128 0x27
 3892 03a5 19       		.uleb128 0x19
 3893 03a6 49       		.uleb128 0x49
 3894 03a7 13       		.uleb128 0x13
 3895 03a8 20       		.uleb128 0x20
 3896 03a9 0B       		.uleb128 0xb
 3897 03aa 01       		.uleb128 0x1
 3898 03ab 13       		.uleb128 0x13
 3899 03ac 00       		.byte	0
 3900 03ad 00       		.byte	0
 3901 03ae 46       		.uleb128 0x46
 3902 03af 05       		.uleb128 0x5
 3903 03b0 00       		.byte	0
 3904 03b1 03       		.uleb128 0x3
 3905 03b2 08       		.uleb128 0x8
 3906 03b3 3A       		.uleb128 0x3a
 3907 03b4 0B       		.uleb128 0xb
 3908 03b5 3B       		.uleb128 0x3b
 3909 03b6 05       		.uleb128 0x5
 3910 03b7 49       		.uleb128 0x49
 3911 03b8 13       		.uleb128 0x13
 3912 03b9 00       		.byte	0
 3913 03ba 00       		.byte	0
 3914 03bb 47       		.uleb128 0x47
 3915 03bc 05       		.uleb128 0x5
 3916 03bd 00       		.byte	0
 3917 03be 03       		.uleb128 0x3
 3918 03bf 0E       		.uleb128 0xe
 3919 03c0 3A       		.uleb128 0x3a
 3920 03c1 0B       		.uleb128 0xb
 3921 03c2 3B       		.uleb128 0x3b
 3922 03c3 05       		.uleb128 0x5
 3923 03c4 49       		.uleb128 0x49
 3924 03c5 13       		.uleb128 0x13
 3925 03c6 00       		.byte	0
 3926 03c7 00       		.byte	0
 3927 03c8 48       		.uleb128 0x48
 3928 03c9 2E       		.uleb128 0x2e
 3929 03ca 01       		.byte	0x1
 3930 03cb 31       		.uleb128 0x31
 3931 03cc 13       		.uleb128 0x13
 3932 03cd 11       		.uleb128 0x11
 3933 03ce 01       		.uleb128 0x1
ARM GAS  /var/folders/vd/czx34qs52cd_f3nb04sxmghc0000gn/T//cc6O8NfS.s 			page 70


 3934 03cf 12       		.uleb128 0x12
 3935 03d0 06       		.uleb128 0x6
 3936 03d1 40       		.uleb128 0x40
 3937 03d2 18       		.uleb128 0x18
 3938 03d3 9742     		.uleb128 0x2117
 3939 03d5 19       		.uleb128 0x19
 3940 03d6 01       		.uleb128 0x1
 3941 03d7 13       		.uleb128 0x13
 3942 03d8 00       		.byte	0
 3943 03d9 00       		.byte	0
 3944 03da 49       		.uleb128 0x49
 3945 03db 2E       		.uleb128 0x2e
 3946 03dc 00       		.byte	0
 3947 03dd 3F       		.uleb128 0x3f
 3948 03de 19       		.uleb128 0x19
 3949 03df 3C       		.uleb128 0x3c
 3950 03e0 19       		.uleb128 0x19
 3951 03e1 6E       		.uleb128 0x6e
 3952 03e2 0E       		.uleb128 0xe
 3953 03e3 03       		.uleb128 0x3
 3954 03e4 0E       		.uleb128 0xe
 3955 03e5 3A       		.uleb128 0x3a
 3956 03e6 0B       		.uleb128 0xb
 3957 03e7 3B       		.uleb128 0x3b
 3958 03e8 0B       		.uleb128 0xb
 3959 03e9 00       		.byte	0
 3960 03ea 00       		.byte	0
 3961 03eb 4A       		.uleb128 0x4a
 3962 03ec 2E       		.uleb128 0x2e
 3963 03ed 00       		.byte	0
 3964 03ee 3F       		.uleb128 0x3f
 3965 03ef 19       		.uleb128 0x19
 3966 03f0 3C       		.uleb128 0x3c
 3967 03f1 19       		.uleb128 0x19
 3968 03f2 6E       		.uleb128 0x6e
 3969 03f3 0E       		.uleb128 0xe
 3970 03f4 03       		.uleb128 0x3
 3971 03f5 0E       		.uleb128 0xe
 3972 03f6 3A       		.uleb128 0x3a
 3973 03f7 0B       		.uleb128 0xb
 3974 03f8 3B       		.uleb128 0x3b
 3975 03f9 05       		.uleb128 0x5
 3976 03fa 00       		.byte	0
 3977 03fb 00       		.byte	0
 3978 03fc 00       		.byte	0
 3979              		.section	.debug_loc,"",%progbits
 3980              	.Ldebug_loc0:
 3981              	.LLST30:
 3982 0000 00000000 		.4byte	.LVL49
 3983 0004 0E000000 		.4byte	.LVL50
 3984 0008 0100     		.2byte	0x1
 3985 000a 50       		.byte	0x50
 3986 000b 0E000000 		.4byte	.LVL50
 3987 000f 58000000 		.4byte	.LFE288
 3988 0013 0100     		.2byte	0x1
 3989 0015 55       		.byte	0x55
 3990 0016 00000000 		.4byte	0
ARM GAS  /var/folders/vd/czx34qs52cd_f3nb04sxmghc0000gn/T//cc6O8NfS.s 			page 71


 3991 001a 00000000 		.4byte	0
 3992              	.LLST31:
 3993 001e 00000000 		.4byte	.LVL49
 3994 0022 13000000 		.4byte	.LVL51-1
 3995 0026 0100     		.2byte	0x1
 3996 0028 51       		.byte	0x51
 3997 0029 13000000 		.4byte	.LVL51-1
 3998 002d 58000000 		.4byte	.LFE288
 3999 0031 0100     		.2byte	0x1
 4000 0033 58       		.byte	0x58
 4001 0034 00000000 		.4byte	0
 4002 0038 00000000 		.4byte	0
 4003              	.LLST32:
 4004 003c 42000000 		.4byte	.LVL59
 4005 0040 46000000 		.4byte	.LVL60
 4006 0044 0100     		.2byte	0x1
 4007 0046 50       		.byte	0x50
 4008 0047 46000000 		.4byte	.LVL60
 4009 004b 50000000 		.4byte	.LVL62
 4010 004f 0100     		.2byte	0x1
 4011 0051 54       		.byte	0x54
 4012 0052 00000000 		.4byte	0
 4013 0056 00000000 		.4byte	0
 4014              	.LLST33:
 4015 005a 18000000 		.4byte	.LVL52
 4016 005e 3A000000 		.4byte	.LVL57
 4017 0062 0100     		.2byte	0x1
 4018 0064 55       		.byte	0x55
 4019 0065 50000000 		.4byte	.LVL62
 4020 0069 58000000 		.4byte	.LFE288
 4021 006d 0100     		.2byte	0x1
 4022 006f 55       		.byte	0x55
 4023 0070 00000000 		.4byte	0
 4024 0074 00000000 		.4byte	0
 4025              	.LLST34:
 4026 0078 18000000 		.4byte	.LVL52
 4027 007c 3A000000 		.4byte	.LVL57
 4028 0080 0100     		.2byte	0x1
 4029 0082 54       		.byte	0x54
 4030 0083 50000000 		.4byte	.LVL62
 4031 0087 58000000 		.4byte	.LFE288
 4032 008b 0100     		.2byte	0x1
 4033 008d 54       		.byte	0x54
 4034 008e 00000000 		.4byte	0
 4035 0092 00000000 		.4byte	0
 4036              	.LLST35:
 4037 0096 1E000000 		.4byte	.LVL53
 4038 009a 2E000000 		.4byte	.LVL56
 4039 009e 0100     		.2byte	0x1
 4040 00a0 53       		.byte	0x53
 4041 00a1 50000000 		.4byte	.LVL62
 4042 00a5 58000000 		.4byte	.LFE288
 4043 00a9 0100     		.2byte	0x1
 4044 00ab 53       		.byte	0x53
 4045 00ac 00000000 		.4byte	0
 4046 00b0 00000000 		.4byte	0
 4047              	.LLST36:
ARM GAS  /var/folders/vd/czx34qs52cd_f3nb04sxmghc0000gn/T//cc6O8NfS.s 			page 72


 4048 00b4 00000000 		.4byte	.LVL63
 4049 00b8 0B000000 		.4byte	.LVL65-1
 4050 00bc 0100     		.2byte	0x1
 4051 00be 50       		.byte	0x50
 4052 00bf 0B000000 		.4byte	.LVL65-1
 4053 00c3 14000000 		.4byte	.LFE287
 4054 00c7 0400     		.2byte	0x4
 4055 00c9 F3       		.byte	0xf3
 4056 00ca 01       		.uleb128 0x1
 4057 00cb 50       		.byte	0x50
 4058 00cc 9F       		.byte	0x9f
 4059 00cd 00000000 		.4byte	0
 4060 00d1 00000000 		.4byte	0
 4061              	.LLST37:
 4062 00d5 00000000 		.4byte	.LVL63
 4063 00d9 0B000000 		.4byte	.LVL65-1
 4064 00dd 0100     		.2byte	0x1
 4065 00df 51       		.byte	0x51
 4066 00e0 0B000000 		.4byte	.LVL65-1
 4067 00e4 14000000 		.4byte	.LFE287
 4068 00e8 0400     		.2byte	0x4
 4069 00ea F3       		.byte	0xf3
 4070 00eb 01       		.uleb128 0x1
 4071 00ec 51       		.byte	0x51
 4072 00ed 9F       		.byte	0x9f
 4073 00ee 00000000 		.4byte	0
 4074 00f2 00000000 		.4byte	0
 4075              	.LLST38:
 4076 00f6 00000000 		.4byte	.LVL63
 4077 00fa 08000000 		.4byte	.LVL64
 4078 00fe 0300     		.2byte	0x3
 4079 0100 08       		.byte	0x8
 4080 0101 20       		.byte	0x20
 4081 0102 9F       		.byte	0x9f
 4082 0103 00000000 		.4byte	0
 4083 0107 00000000 		.4byte	0
 4084              	.LLST39:
 4085 010b 0C000000 		.4byte	.LVL65
 4086 010f 12000000 		.4byte	.LVL66
 4087 0113 0200     		.2byte	0x2
 4088 0115 30       		.byte	0x30
 4089 0116 9F       		.byte	0x9f
 4090 0117 00000000 		.4byte	0
 4091 011b 00000000 		.4byte	0
 4092              	.LLST21:
 4093 011f 00000000 		.4byte	.LVL31
 4094 0123 0C000000 		.4byte	.LVL33
 4095 0127 0100     		.2byte	0x1
 4096 0129 50       		.byte	0x50
 4097 012a 0C000000 		.4byte	.LVL33
 4098 012e 4C000000 		.4byte	.LFE286
 4099 0132 0100     		.2byte	0x1
 4100 0134 55       		.byte	0x55
 4101 0135 00000000 		.4byte	0
 4102 0139 00000000 		.4byte	0
 4103              	.LLST22:
 4104 013d 06000000 		.4byte	.LVL32
ARM GAS  /var/folders/vd/czx34qs52cd_f3nb04sxmghc0000gn/T//cc6O8NfS.s 			page 73


 4105 0141 38000000 		.4byte	.LVL42
 4106 0145 0100     		.2byte	0x1
 4107 0147 54       		.byte	0x54
 4108 0148 42000000 		.4byte	.LVL44
 4109 014c 4C000000 		.4byte	.LFE286
 4110 0150 0100     		.2byte	0x1
 4111 0152 54       		.byte	0x54
 4112 0153 00000000 		.4byte	0
 4113 0157 00000000 		.4byte	0
 4114              	.LLST23:
 4115 015b 38000000 		.4byte	.LVL42
 4116 015f 42000000 		.4byte	.LVL44
 4117 0163 0100     		.2byte	0x1
 4118 0165 54       		.byte	0x54
 4119 0166 00000000 		.4byte	0
 4120 016a 00000000 		.4byte	0
 4121              	.LLST24:
 4122 016e 12000000 		.4byte	.LVL35
 4123 0172 32000000 		.4byte	.LVL40
 4124 0176 0100     		.2byte	0x1
 4125 0178 55       		.byte	0x55
 4126 0179 42000000 		.4byte	.LVL44
 4127 017d 4C000000 		.4byte	.LFE286
 4128 0181 0100     		.2byte	0x1
 4129 0183 55       		.byte	0x55
 4130 0184 00000000 		.4byte	0
 4131 0188 00000000 		.4byte	0
 4132              	.LLST25:
 4133 018c 12000000 		.4byte	.LVL35
 4134 0190 32000000 		.4byte	.LVL40
 4135 0194 0100     		.2byte	0x1
 4136 0196 54       		.byte	0x54
 4137 0197 42000000 		.4byte	.LVL44
 4138 019b 4C000000 		.4byte	.LFE286
 4139 019f 0100     		.2byte	0x1
 4140 01a1 54       		.byte	0x54
 4141 01a2 00000000 		.4byte	0
 4142 01a6 00000000 		.4byte	0
 4143              	.LLST26:
 4144 01aa 18000000 		.4byte	.LVL36
 4145 01ae 28000000 		.4byte	.LVL39
 4146 01b2 0100     		.2byte	0x1
 4147 01b4 53       		.byte	0x53
 4148 01b5 42000000 		.4byte	.LVL44
 4149 01b9 4C000000 		.4byte	.LFE286
 4150 01bd 0100     		.2byte	0x1
 4151 01bf 53       		.byte	0x53
 4152 01c0 00000000 		.4byte	0
 4153 01c4 00000000 		.4byte	0
 4154              	.LLST27:
 4155 01c8 00000000 		.4byte	.LVL45
 4156 01cc 0B000000 		.4byte	.LVL47-1
 4157 01d0 0100     		.2byte	0x1
 4158 01d2 50       		.byte	0x50
 4159 01d3 0B000000 		.4byte	.LVL47-1
 4160 01d7 14000000 		.4byte	.LFE285
 4161 01db 0400     		.2byte	0x4
ARM GAS  /var/folders/vd/czx34qs52cd_f3nb04sxmghc0000gn/T//cc6O8NfS.s 			page 74


 4162 01dd F3       		.byte	0xf3
 4163 01de 01       		.uleb128 0x1
 4164 01df 50       		.byte	0x50
 4165 01e0 9F       		.byte	0x9f
 4166 01e1 00000000 		.4byte	0
 4167 01e5 00000000 		.4byte	0
 4168              	.LLST28:
 4169 01e9 00000000 		.4byte	.LVL45
 4170 01ed 08000000 		.4byte	.LVL46
 4171 01f1 0300     		.2byte	0x3
 4172 01f3 08       		.byte	0x8
 4173 01f4 20       		.byte	0x20
 4174 01f5 9F       		.byte	0x9f
 4175 01f6 00000000 		.4byte	0
 4176 01fa 00000000 		.4byte	0
 4177              	.LLST29:
 4178 01fe 0C000000 		.4byte	.LVL47
 4179 0202 12000000 		.4byte	.LVL48
 4180 0206 0200     		.2byte	0x2
 4181 0208 30       		.byte	0x30
 4182 0209 9F       		.byte	0x9f
 4183 020a 00000000 		.4byte	0
 4184 020e 00000000 		.4byte	0
 4185              	.LLST11:
 4186 0212 00000000 		.4byte	.LVL16
 4187 0216 14000000 		.4byte	.LVL19
 4188 021a 0100     		.2byte	0x1
 4189 021c 50       		.byte	0x50
 4190 021d 14000000 		.4byte	.LVL19
 4191 0221 28000000 		.4byte	.LVL22
 4192 0225 0100     		.2byte	0x1
 4193 0227 54       		.byte	0x54
 4194 0228 28000000 		.4byte	.LVL22
 4195 022c 34000000 		.4byte	.LFE283
 4196 0230 0400     		.2byte	0x4
 4197 0232 F3       		.byte	0xf3
 4198 0233 01       		.uleb128 0x1
 4199 0234 50       		.byte	0x50
 4200 0235 9F       		.byte	0x9f
 4201 0236 00000000 		.4byte	0
 4202 023a 00000000 		.4byte	0
 4203              	.LLST12:
 4204 023e 00000000 		.4byte	.LVL16
 4205 0242 08000000 		.4byte	.LVL17
 4206 0246 0300     		.2byte	0x3
 4207 0248 08       		.byte	0x8
 4208 0249 20       		.byte	0x20
 4209 024a 9F       		.byte	0x9f
 4210 024b 00000000 		.4byte	0
 4211 024f 00000000 		.4byte	0
 4212              	.LLST13:
 4213 0253 08000000 		.4byte	.LVL17
 4214 0257 0A000000 		.4byte	.LVL18
 4215 025b 0100     		.2byte	0x1
 4216 025d 50       		.byte	0x50
 4217 025e 00000000 		.4byte	0
 4218 0262 00000000 		.4byte	0
ARM GAS  /var/folders/vd/czx34qs52cd_f3nb04sxmghc0000gn/T//cc6O8NfS.s 			page 75


 4219              	.LLST14:
 4220 0266 14000000 		.4byte	.LVL19
 4221 026a 1C000000 		.4byte	.LVL20
 4222 026e 0100     		.2byte	0x1
 4223 0270 54       		.byte	0x54
 4224 0271 00000000 		.4byte	0
 4225 0275 00000000 		.4byte	0
 4226              	.LLST15:
 4227 0279 14000000 		.4byte	.LVL19
 4228 027d 1C000000 		.4byte	.LVL20
 4229 0281 0100     		.2byte	0x1
 4230 0283 53       		.byte	0x53
 4231 0284 00000000 		.4byte	0
 4232 0288 00000000 		.4byte	0
 4233              	.LLST16:
 4234 028c 2C000000 		.4byte	.LVL23
 4235 0290 32000000 		.4byte	.LVL24
 4236 0294 0200     		.2byte	0x2
 4237 0296 30       		.byte	0x30
 4238 0297 9F       		.byte	0x9f
 4239 0298 00000000 		.4byte	0
 4240 029c 00000000 		.4byte	0
 4241              	.LLST7:
 4242 02a0 00000000 		.4byte	.LVL10
 4243 02a4 10000000 		.4byte	.LVL14
 4244 02a8 0100     		.2byte	0x1
 4245 02aa 50       		.byte	0x50
 4246 02ab 10000000 		.4byte	.LVL14
 4247 02af 15000000 		.4byte	.LVL15-1
 4248 02b3 0200     		.2byte	0x2
 4249 02b5 72       		.byte	0x72
 4250 02b6 04       		.sleb128 4
 4251 02b7 15000000 		.4byte	.LVL15-1
 4252 02bb 16000000 		.4byte	.LVL15
 4253 02bf 0400     		.2byte	0x4
 4254 02c1 F3       		.byte	0xf3
 4255 02c2 01       		.uleb128 0x1
 4256 02c3 50       		.byte	0x50
 4257 02c4 9F       		.byte	0x9f
 4258 02c5 16000000 		.4byte	.LVL15
 4259 02c9 18000000 		.4byte	.LFE282
 4260 02cd 0100     		.2byte	0x1
 4261 02cf 50       		.byte	0x50
 4262 02d0 00000000 		.4byte	0
 4263 02d4 00000000 		.4byte	0
 4264              	.LLST9:
 4265 02d8 06000000 		.4byte	.LVL12
 4266 02dc 0E000000 		.4byte	.LVL13
 4267 02e0 0100     		.2byte	0x1
 4268 02e2 50       		.byte	0x50
 4269 02e3 00000000 		.4byte	0
 4270 02e7 00000000 		.4byte	0
 4271              	.LLST10:
 4272 02eb 06000000 		.4byte	.LVL12
 4273 02ef 0E000000 		.4byte	.LVL13
 4274 02f3 0100     		.2byte	0x1
 4275 02f5 53       		.byte	0x53
ARM GAS  /var/folders/vd/czx34qs52cd_f3nb04sxmghc0000gn/T//cc6O8NfS.s 			page 76


 4276 02f6 00000000 		.4byte	0
 4277 02fa 00000000 		.4byte	0
 4278              	.LLST8:
 4279 02fe 00000000 		.4byte	.LVL10
 4280 0302 02000000 		.4byte	.LVL11
 4281 0306 0100     		.2byte	0x1
 4282 0308 50       		.byte	0x50
 4283 0309 00000000 		.4byte	0
 4284 030d 00000000 		.4byte	0
 4285              	.LLST1:
 4286 0311 00000000 		.4byte	.LVL2
 4287 0315 18000000 		.4byte	.LVL7
 4288 0319 0100     		.2byte	0x1
 4289 031b 50       		.byte	0x50
 4290 031c 18000000 		.4byte	.LVL7
 4291 0320 1D000000 		.4byte	.LVL8-1
 4292 0324 0100     		.2byte	0x1
 4293 0326 53       		.byte	0x53
 4294 0327 1D000000 		.4byte	.LVL8-1
 4295 032b 26000000 		.4byte	.LFE281
 4296 032f 0400     		.2byte	0x4
 4297 0331 F3       		.byte	0xf3
 4298 0332 01       		.uleb128 0x1
 4299 0333 50       		.byte	0x50
 4300 0334 9F       		.byte	0x9f
 4301 0335 00000000 		.4byte	0
 4302 0339 00000000 		.4byte	0
 4303              	.LLST2:
 4304 033d 00000000 		.4byte	.LVL2
 4305 0341 08000000 		.4byte	.LVL3
 4306 0345 0300     		.2byte	0x3
 4307 0347 08       		.byte	0x8
 4308 0348 20       		.byte	0x20
 4309 0349 9F       		.byte	0x9f
 4310 034a 00000000 		.4byte	0
 4311 034e 00000000 		.4byte	0
 4312              	.LLST3:
 4313 0352 08000000 		.4byte	.LVL3
 4314 0356 0A000000 		.4byte	.LVL4
 4315 035a 0100     		.2byte	0x1
 4316 035c 50       		.byte	0x50
 4317 035d 00000000 		.4byte	0
 4318 0361 00000000 		.4byte	0
 4319              	.LLST4:
 4320 0365 14000000 		.4byte	.LVL5
 4321 0369 16000000 		.4byte	.LVL6
 4322 036d 0100     		.2byte	0x1
 4323 036f 50       		.byte	0x50
 4324 0370 00000000 		.4byte	0
 4325 0374 00000000 		.4byte	0
 4326              	.LLST5:
 4327 0378 14000000 		.4byte	.LVL5
 4328 037c 16000000 		.4byte	.LVL6
 4329 0380 0100     		.2byte	0x1
 4330 0382 52       		.byte	0x52
 4331 0383 00000000 		.4byte	0
 4332 0387 00000000 		.4byte	0
ARM GAS  /var/folders/vd/czx34qs52cd_f3nb04sxmghc0000gn/T//cc6O8NfS.s 			page 77


 4333              	.LLST6:
 4334 038b 1E000000 		.4byte	.LVL8
 4335 038f 24000000 		.4byte	.LVL9
 4336 0393 0200     		.2byte	0x2
 4337 0395 30       		.byte	0x30
 4338 0396 9F       		.byte	0x9f
 4339 0397 00000000 		.4byte	0
 4340 039b 00000000 		.4byte	0
 4341              	.LLST0:
 4342 039f 00000000 		.4byte	.LVL0
 4343 03a3 04000000 		.4byte	.LVL1
 4344 03a7 0100     		.2byte	0x1
 4345 03a9 50       		.byte	0x50
 4346 03aa 00000000 		.4byte	0
 4347 03ae 00000000 		.4byte	0
 4348              	.LLST17:
 4349 03b2 00000000 		.4byte	.LVL25
 4350 03b6 0E000000 		.4byte	.LVL27
 4351 03ba 0100     		.2byte	0x1
 4352 03bc 50       		.byte	0x50
 4353 03bd 0E000000 		.4byte	.LVL27
 4354 03c1 22000000 		.4byte	.LVL30
 4355 03c5 0100     		.2byte	0x1
 4356 03c7 54       		.byte	0x54
 4357 03c8 22000000 		.4byte	.LVL30
 4358 03cc 24000000 		.4byte	.LFE284
 4359 03d0 0400     		.2byte	0x4
 4360 03d2 F3       		.byte	0xf3
 4361 03d3 01       		.uleb128 0x1
 4362 03d4 50       		.byte	0x50
 4363 03d5 9F       		.byte	0x9f
 4364 03d6 00000000 		.4byte	0
 4365 03da 00000000 		.4byte	0
 4366              	.LLST18:
 4367 03de 00000000 		.4byte	.LVL25
 4368 03e2 04000000 		.4byte	.LVL26
 4369 03e6 0100     		.2byte	0x1
 4370 03e8 50       		.byte	0x50
 4371 03e9 00000000 		.4byte	0
 4372 03ed 00000000 		.4byte	0
 4373              	.LLST19:
 4374 03f1 0E000000 		.4byte	.LVL27
 4375 03f5 16000000 		.4byte	.LVL28
 4376 03f9 0100     		.2byte	0x1
 4377 03fb 54       		.byte	0x54
 4378 03fc 00000000 		.4byte	0
 4379 0400 00000000 		.4byte	0
 4380              	.LLST20:
 4381 0404 0E000000 		.4byte	.LVL27
 4382 0408 16000000 		.4byte	.LVL28
 4383 040c 0100     		.2byte	0x1
 4384 040e 53       		.byte	0x53
 4385 040f 00000000 		.4byte	0
 4386 0413 00000000 		.4byte	0
 4387              		.section	.debug_aranges,"",%progbits
 4388 0000 5C000000 		.4byte	0x5c
 4389 0004 0200     		.2byte	0x2
ARM GAS  /var/folders/vd/czx34qs52cd_f3nb04sxmghc0000gn/T//cc6O8NfS.s 			page 78


 4390 0006 00000000 		.4byte	.Ldebug_info0
 4391 000a 04       		.byte	0x4
 4392 000b 00       		.byte	0
 4393 000c 0000     		.2byte	0
 4394 000e 0000     		.2byte	0
 4395 0010 00000000 		.4byte	.LFB280
 4396 0014 06000000 		.4byte	.LFE280-.LFB280
 4397 0018 00000000 		.4byte	.LFB281
 4398 001c 26000000 		.4byte	.LFE281-.LFB281
 4399 0020 00000000 		.4byte	.LFB282
 4400 0024 18000000 		.4byte	.LFE282-.LFB282
 4401 0028 00000000 		.4byte	.LFB283
 4402 002c 34000000 		.4byte	.LFE283-.LFB283
 4403 0030 00000000 		.4byte	.LFB284
 4404 0034 24000000 		.4byte	.LFE284-.LFB284
 4405 0038 00000000 		.4byte	.LFB286
 4406 003c 4C000000 		.4byte	.LFE286-.LFB286
 4407 0040 00000000 		.4byte	.LFB285
 4408 0044 14000000 		.4byte	.LFE285-.LFB285
 4409 0048 00000000 		.4byte	.LFB288
 4410 004c 58000000 		.4byte	.LFE288-.LFB288
 4411 0050 00000000 		.4byte	.LFB287
 4412 0054 14000000 		.4byte	.LFE287-.LFB287
 4413 0058 00000000 		.4byte	0
 4414 005c 00000000 		.4byte	0
 4415              		.section	.debug_ranges,"",%progbits
 4416              	.Ldebug_ranges0:
 4417 0000 06000000 		.4byte	.LBB107
 4418 0004 0A000000 		.4byte	.LBE107
 4419 0008 0C000000 		.4byte	.LBB110
 4420 000c 0E000000 		.4byte	.LBE110
 4421 0010 00000000 		.4byte	0
 4422 0014 00000000 		.4byte	0
 4423 0018 08000000 		.4byte	.LBB117
 4424 001c 0A000000 		.4byte	.LBE117
 4425 0020 20000000 		.4byte	.LBB124
 4426 0024 22000000 		.4byte	.LBE124
 4427 0028 00000000 		.4byte	0
 4428 002c 00000000 		.4byte	0
 4429 0030 14000000 		.4byte	.LBB120
 4430 0034 18000000 		.4byte	.LBE120
 4431 0038 1A000000 		.4byte	.LBB123
 4432 003c 1C000000 		.4byte	.LBE123
 4433 0040 00000000 		.4byte	0
 4434 0044 00000000 		.4byte	0
 4435 0048 02000000 		.4byte	.LBB130
 4436 004c 04000000 		.4byte	.LBE130
 4437 0050 1A000000 		.4byte	.LBB137
 4438 0054 1C000000 		.4byte	.LBE137
 4439 0058 00000000 		.4byte	0
 4440 005c 00000000 		.4byte	0
 4441 0060 0E000000 		.4byte	.LBB133
 4442 0064 12000000 		.4byte	.LBE133
 4443 0068 14000000 		.4byte	.LBB136
 4444 006c 16000000 		.4byte	.LBE136
 4445 0070 00000000 		.4byte	0
 4446 0074 00000000 		.4byte	0
ARM GAS  /var/folders/vd/czx34qs52cd_f3nb04sxmghc0000gn/T//cc6O8NfS.s 			page 79


 4447 0078 18000000 		.4byte	.LBB140
 4448 007c 28000000 		.4byte	.LBE140
 4449 0080 2A000000 		.4byte	.LBB144
 4450 0084 32000000 		.4byte	.LBE144
 4451 0088 42000000 		.4byte	.LBB145
 4452 008c 4C000000 		.4byte	.LBE145
 4453 0090 00000000 		.4byte	0
 4454 0094 00000000 		.4byte	0
 4455 0098 1E000000 		.4byte	.LBB159
 4456 009c 32000000 		.4byte	.LBE159
 4457 00a0 34000000 		.4byte	.LBB164
 4458 00a4 36000000 		.4byte	.LBE164
 4459 00a8 38000000 		.4byte	.LBB165
 4460 00ac 3A000000 		.4byte	.LBE165
 4461 00b0 50000000 		.4byte	.LBB166
 4462 00b4 58000000 		.4byte	.LBE166
 4463 00b8 00000000 		.4byte	0
 4464 00bc 00000000 		.4byte	0
 4465 00c0 00000000 		.4byte	.LFB280
 4466 00c4 06000000 		.4byte	.LFE280
 4467 00c8 00000000 		.4byte	.LFB281
 4468 00cc 26000000 		.4byte	.LFE281
 4469 00d0 00000000 		.4byte	.LFB282
 4470 00d4 18000000 		.4byte	.LFE282
 4471 00d8 00000000 		.4byte	.LFB283
 4472 00dc 34000000 		.4byte	.LFE283
 4473 00e0 00000000 		.4byte	.LFB284
 4474 00e4 24000000 		.4byte	.LFE284
 4475 00e8 00000000 		.4byte	.LFB286
 4476 00ec 4C000000 		.4byte	.LFE286
 4477 00f0 00000000 		.4byte	.LFB285
 4478 00f4 14000000 		.4byte	.LFE285
 4479 00f8 00000000 		.4byte	.LFB288
 4480 00fc 58000000 		.4byte	.LFE288
 4481 0100 00000000 		.4byte	.LFB287
 4482 0104 14000000 		.4byte	.LFE287
 4483 0108 00000000 		.4byte	0
 4484 010c 00000000 		.4byte	0
 4485              		.section	.debug_line,"",%progbits
 4486              	.Ldebug_line0:
 4487 0000 1E050000 		.section	.debug_str,"MS",%progbits,1
 4487      0200F802 
 4487      00000201 
 4487      FB0E0D00 
 4487      01010101 
 4488              	.LASF54:
 4489 0000 72656164 		.ascii	"ready_list_t\000"
 4489      795F6C69 
 4489      73745F74 
 4489      00
 4490              	.LASF4:
 4491 000d 73697A65 		.ascii	"size_t\000"
 4491      5F7400
 4492              	.LASF60:
 4493 0014 64656C74 		.ascii	"delta\000"
 4493      6100
 4494              	.LASF85:
ARM GAS  /var/folders/vd/czx34qs52cd_f3nb04sxmghc0000gn/T//cc6O8NfS.s 			page 80


 4495 001a 7264796D 		.ascii	"rdymsg\000"
 4495      736700
 4496              	.LASF20:
 4497 0021 75696E74 		.ascii	"uint64_t\000"
 4497      36345F74 
 4497      00
 4498              	.LASF5:
 4499 002a 5F5F7569 		.ascii	"__uint8_t\000"
 4499      6E74385F 
 4499      7400
 4500              	.LASF53:
 4501 0034 70726576 		.ascii	"prev\000"
 4501      00
 4502              	.LASF82:
 4503 0039 706F7274 		.ascii	"port_intctx\000"
 4503      5F696E74 
 4503      63747800 
 4504              	.LASF52:
 4505 0045 63685F74 		.ascii	"ch_threads_queue\000"
 4505      68726561 
 4505      64735F71 
 4505      75657565 
 4505      00
 4506              	.LASF65:
 4507 0056 73797374 		.ascii	"system_debug_t\000"
 4507      656D5F64 
 4507      65627567 
 4507      5F7400
 4508              	.LASF130:
 4509 0065 70726F76 		.ascii	"provider\000"
 4509      69646572 
 4509      00
 4510              	.LASF163:
 4511 006e 71756575 		.ascii	"queue_init\000"
 4511      655F696E 
 4511      697400
 4512              	.LASF140:
 4513 0079 73656D5F 		.ascii	"sem_list\000"
 4513      6C697374 
 4513      00
 4514              	.LASF166:
 4515 0082 706F7274 		.ascii	"port_lock\000"
 4515      5F6C6F63 
 4515      6B00
 4516              	.LASF81:
 4517 008c 706F7274 		.ascii	"port_context\000"
 4517      5F636F6E 
 4517      74657874 
 4517      00
 4518              	.LASF122:
 4519 0099 6D656D67 		.ascii	"memgetfunc_t\000"
 4519      65746675 
 4519      6E635F74 
 4519      00
 4520              	.LASF158:
 4521 00a6 6368436F 		.ascii	"chCondBroadcastI\000"
 4521      6E644272 
ARM GAS  /var/folders/vd/czx34qs52cd_f3nb04sxmghc0000gn/T//cc6O8NfS.s 			page 81


 4521      6F616463 
 4521      61737449 
 4521      00
 4522              	.LASF15:
 4523 00b7 6C6F6E67 		.ascii	"long long unsigned int\000"
 4523      206C6F6E 
 4523      6720756E 
 4523      7369676E 
 4523      65642069 
 4524              	.LASF86:
 4525 00ce 65786974 		.ascii	"exitcode\000"
 4525      636F6465 
 4525      00
 4526              	.LASF72:
 4527 00d7 6D61696E 		.ascii	"mainthread\000"
 4527      74687265 
 4527      616400
 4528              	.LASF89:
 4529 00e2 73656E74 		.ascii	"sentmsg\000"
 4529      6D736700 
 4530              	.LASF62:
 4531 00ea 76697274 		.ascii	"virtual_timers_list_t\000"
 4531      75616C5F 
 4531      74696D65 
 4531      72735F6C 
 4531      6973745F 
 4532              	.LASF75:
 4533 0100 49544D5F 		.ascii	"ITM_RxBuffer\000"
 4533      52784275 
 4533      66666572 
 4533      00
 4534              	.LASF133:
 4535 010d 64796E5F 		.ascii	"dyn_element_t\000"
 4535      656C656D 
 4535      656E745F 
 4535      7400
 4536              	.LASF50:
 4537 011b 6E657874 		.ascii	"next\000"
 4537      00
 4538              	.LASF104:
 4539 0120 74687265 		.ascii	"threadsize\000"
 4539      61647369 
 4539      7A6500
 4540              	.LASF176:
 4541 012b 474E5520 		.ascii	"GNU C11 7.2.1 20170904 (release) [ARM/embedded-7-br"
 4541      43313120 
 4541      372E322E 
 4541      31203230 
 4541      31373039 
 4542 015e 616E6368 		.ascii	"anch revision 255204] -mcpu=cortex-m4 -mno-thumb-in"
 4542      20726576 
 4542      6973696F 
 4542      6E203235 
 4542      35323034 
 4543 0191 74657277 		.ascii	"terwork -mthumb -ggdb -O2 -fomit-frame-pointer -fal"
 4543      6F726B20 
 4543      2D6D7468 
ARM GAS  /var/folders/vd/czx34qs52cd_f3nb04sxmghc0000gn/T//cc6O8NfS.s 			page 82


 4543      756D6220 
 4543      2D676764 
 4544 01c4 69676E2D 		.ascii	"ign-functions=16 -ffunction-sections -fdata-section"
 4544      66756E63 
 4544      74696F6E 
 4544      733D3136 
 4544      202D6666 
 4545 01f7 73202D66 		.ascii	"s -fno-common\000"
 4545      6E6F2D63 
 4545      6F6D6D6F 
 4545      6E00
 4546              	.LASF1:
 4547 0205 6C6F6E67 		.ascii	"long long int\000"
 4547      206C6F6E 
 4547      6720696E 
 4547      7400
 4548              	.LASF3:
 4549 0213 7369676E 		.ascii	"signed char\000"
 4549      65642063 
 4549      68617200 
 4550              	.LASF120:
 4551 021f 636F6E64 		.ascii	"condition_variable_t\000"
 4551      6974696F 
 4551      6E5F7661 
 4551      72696162 
 4551      6C655F74 
 4552              	.LASF100:
 4553 0234 73697A65 		.ascii	"size\000"
 4553      00
 4554              	.LASF70:
 4555 0239 726C6973 		.ascii	"rlist\000"
 4555      7400
 4556              	.LASF168:
 4557 023f 62617365 		.ascii	"basePri\000"
 4557      50726900 
 4558              	.LASF71:
 4559 0247 76746C69 		.ascii	"vtlist\000"
 4559      737400
 4560              	.LASF165:
 4561 024e 706F7274 		.ascii	"port_unlock\000"
 4561      5F756E6C 
 4561      6F636B00 
 4562              	.LASF41:
 4563 025a 6D736771 		.ascii	"msgqueue\000"
 4563      75657565 
 4563      00
 4564              	.LASF37:
 4565 0263 73746174 		.ascii	"state\000"
 4565      6500
 4566              	.LASF11:
 4567 0269 6C6F6E67 		.ascii	"long int\000"
 4567      20696E74 
 4567      00
 4568              	.LASF149:
 4569 0272 6368436F 		.ascii	"chCondWaitS\000"
 4569      6E645761 
 4569      69745300 
ARM GAS  /var/folders/vd/czx34qs52cd_f3nb04sxmghc0000gn/T//cc6O8NfS.s 			page 83


 4570              	.LASF23:
 4571 027e 74737461 		.ascii	"tstate_t\000"
 4571      74655F74 
 4571      00
 4572              	.LASF162:
 4573 0287 71756575 		.ascii	"queue_notempty\000"
 4573      655F6E6F 
 4573      74656D70 
 4573      747900
 4574              	.LASF61:
 4575 0296 66756E63 		.ascii	"func\000"
 4575      00
 4576              	.LASF98:
 4577 029b 6964656E 		.ascii	"identifier\000"
 4577      74696669 
 4577      657200
 4578              	.LASF171:
 4579 02a6 63684D74 		.ascii	"chMtxLockS\000"
 4579      784C6F63 
 4579      6B5300
 4580              	.LASF17:
 4581 02b1 75696E74 		.ascii	"uint16_t\000"
 4581      31365F74 
 4581      00
 4582              	.LASF116:
 4583 02ba 63686465 		.ascii	"chdebug_t\000"
 4583      6275675F 
 4583      7400
 4584              	.LASF114:
 4585 02c4 6F66665F 		.ascii	"off_preempt\000"
 4585      70726565 
 4585      6D707400 
 4586              	.LASF174:
 4587 02d0 63685363 		.ascii	"chSchRescheduleS\000"
 4587      68526573 
 4587      63686564 
 4587      756C6553 
 4587      00
 4588              	.LASF12:
 4589 02e1 5F5F7569 		.ascii	"__uint32_t\000"
 4589      6E743332 
 4589      5F7400
 4590              	.LASF79:
 4591 02ec 72656761 		.ascii	"regarm_t\000"
 4591      726D5F74 
 4591      00
 4592              	.LASF142:
 4593 02f5 6D62785F 		.ascii	"mbx_list\000"
 4593      6C697374 
 4593      00
 4594              	.LASF66:
 4595 02fe 63685F73 		.ascii	"ch_system_debug\000"
 4595      79737465 
 4595      6D5F6465 
 4595      62756700 
 4596              	.LASF40:
 4597 030e 77616974 		.ascii	"waiting\000"
ARM GAS  /var/folders/vd/czx34qs52cd_f3nb04sxmghc0000gn/T//cc6O8NfS.s 			page 84


 4597      696E6700 
 4598              	.LASF78:
 4599 0316 41504250 		.ascii	"APBPrescTable\000"
 4599      72657363 
 4599      5461626C 
 4599      6500
 4600              	.LASF99:
 4601 0324 7A65726F 		.ascii	"zero\000"
 4601      00
 4602              	.LASF118:
 4603 0329 6D757465 		.ascii	"mutex_t\000"
 4603      785F7400 
 4604              	.LASF129:
 4605 0331 616C6967 		.ascii	"align\000"
 4605      6E00
 4606              	.LASF154:
 4607 0337 6368436F 		.ascii	"chCondSignal\000"
 4607      6E645369 
 4607      676E616C 
 4607      00
 4608              	.LASF74:
 4609 0344 73797369 		.ascii	"sysinterval_t\000"
 4609      6E746572 
 4609      76616C5F 
 4609      7400
 4610              	.LASF28:
 4611 0352 636E745F 		.ascii	"cnt_t\000"
 4611      7400
 4612              	.LASF169:
 4613 0358 63684D74 		.ascii	"chMtxUnlockS\000"
 4613      78556E6C 
 4613      6F636B53 
 4613      00
 4614              	.LASF0:
 4615 0365 756E7369 		.ascii	"unsigned int\000"
 4615      676E6564 
 4615      20696E74 
 4615      00
 4616              	.LASF76:
 4617 0372 53797374 		.ascii	"SystemCoreClock\000"
 4617      656D436F 
 4617      7265436C 
 4617      6F636B00 
 4618              	.LASF90:
 4619 0382 77747365 		.ascii	"wtsemp\000"
 4619      6D7000
 4620              	.LASF178:
 4621 0389 2F557365 		.ascii	"/Users/lantian/Projects/stm32f407vet6/dev\000"
 4621      72732F6C 
 4621      616E7469 
 4621      616E2F50 
 4621      726F6A65 
 4622              	.LASF88:
 4623 03b3 77747472 		.ascii	"wttrp\000"
 4623      7000
 4624              	.LASF117:
 4625 03b9 63685F64 		.ascii	"ch_debug\000"
ARM GAS  /var/folders/vd/czx34qs52cd_f3nb04sxmghc0000gn/T//cc6O8NfS.s 			page 85


 4625      65627567 
 4625      00
 4626              	.LASF146:
 4627 03c2 74696D65 		.ascii	"timeout\000"
 4627      6F757400 
 4628              	.LASF131:
 4629 03ca 6D656D6F 		.ascii	"memory_pool_t\000"
 4629      72795F70 
 4629      6F6F6C5F 
 4629      7400
 4630              	.LASF35:
 4631 03d8 6E616D65 		.ascii	"name\000"
 4631      00
 4632              	.LASF31:
 4633 03dd 71756575 		.ascii	"queue\000"
 4633      6500
 4634              	.LASF45:
 4635 03e3 6D706F6F 		.ascii	"mpool\000"
 4635      6C00
 4636              	.LASF113:
 4637 03e9 6F66665F 		.ascii	"off_refs\000"
 4637      72656673 
 4637      00
 4638              	.LASF139:
 4639 03f2 6275665F 		.ascii	"buf_list\000"
 4639      6C697374 
 4639      00
 4640              	.LASF48:
 4641 03fb 63685F74 		.ascii	"ch_thread\000"
 4641      68726561 
 4641      6400
 4642              	.LASF26:
 4643 0405 6D73675F 		.ascii	"msg_t\000"
 4643      7400
 4644              	.LASF29:
 4645 040b 75636E74 		.ascii	"ucnt_t\000"
 4645      5F7400
 4646              	.LASF42:
 4647 0412 6570656E 		.ascii	"epending\000"
 4647      64696E67 
 4647      00
 4648              	.LASF135:
 4649 041b 64796E5F 		.ascii	"dyn_list_t\000"
 4649      6C697374 
 4649      5F7400
 4650              	.LASF68:
 4651 0426 63685F73 		.ascii	"ch_system_t\000"
 4651      79737465 
 4651      6D5F7400 
 4652              	.LASF106:
 4653 0432 6F66665F 		.ascii	"off_ctx\000"
 4653      63747800 
 4654              	.LASF22:
 4655 043a 746D6F64 		.ascii	"tmode_t\000"
 4655      655F7400 
 4656              	.LASF55:
 4657 0442 63685F72 		.ascii	"ch_ready_list\000"
ARM GAS  /var/folders/vd/czx34qs52cd_f3nb04sxmghc0000gn/T//cc6O8NfS.s 			page 86


 4657      65616479 
 4657      5F6C6973 
 4657      7400
 4658              	.LASF27:
 4659 0450 6576656E 		.ascii	"eventmask_t\000"
 4659      746D6173 
 4659      6B5F7400 
 4660              	.LASF77:
 4661 045c 41484250 		.ascii	"AHBPrescTable\000"
 4661      72657363 
 4661      5461626C 
 4661      6500
 4662              	.LASF124:
 4663 046a 656E646D 		.ascii	"endmem\000"
 4663      656D00
 4664              	.LASF10:
 4665 0471 5F5F696E 		.ascii	"__int32_t\000"
 4665      7433325F 
 4665      7400
 4666              	.LASF80:
 4667 047b 73746B61 		.ascii	"stkalign_t\000"
 4667      6C69676E 
 4667      5F7400
 4668              	.LASF33:
 4669 0486 6E657765 		.ascii	"newer\000"
 4669      7200
 4670              	.LASF44:
 4671 048c 7265616C 		.ascii	"realprio\000"
 4671      7072696F 
 4671      00
 4672              	.LASF101:
 4673 0495 76657273 		.ascii	"version\000"
 4673      696F6E00 
 4674              	.LASF21:
 4675 049d 7274636E 		.ascii	"rtcnt_t\000"
 4675      745F7400 
 4676              	.LASF46:
 4677 04a5 74687265 		.ascii	"thread_reference_t\000"
 4677      61645F72 
 4677      65666572 
 4677      656E6365 
 4677      5F7400
 4678              	.LASF63:
 4679 04b8 63685F76 		.ascii	"ch_virtual_timers_list\000"
 4679      69727475 
 4679      616C5F74 
 4679      696D6572 
 4679      735F6C69 
 4680              	.LASF119:
 4681 04cf 636F6E64 		.ascii	"condition_variable\000"
 4681      6974696F 
 4681      6E5F7661 
 4681      72696162 
 4681      6C6500
 4682              	.LASF147:
 4683 04e2 6368436F 		.ascii	"chCondWaitTimeoutS\000"
 4683      6E645761 
ARM GAS  /var/folders/vd/czx34qs52cd_f3nb04sxmghc0000gn/T//cc6O8NfS.s 			page 87


 4683      69745469 
 4683      6D656F75 
 4683      745300
 4684              	.LASF134:
 4685 04f5 63685F64 		.ascii	"ch_dyn_list\000"
 4685      796E5F6C 
 4685      69737400 
 4686              	.LASF107:
 4687 0501 6F66665F 		.ascii	"off_newer\000"
 4687      6E657765 
 4687      7200
 4688              	.LASF177:
 4689 050b 2E2E2F6F 		.ascii	"../os/rt/src/chcond.c\000"
 4689      732F7274 
 4689      2F737263 
 4689      2F636863 
 4689      6F6E642E 
 4690              	.LASF84:
 4691 0521 746D5F63 		.ascii	"tm_calibration_t\000"
 4691      616C6962 
 4691      72617469 
 4691      6F6E5F74 
 4691      00
 4692              	.LASF32:
 4693 0532 7072696F 		.ascii	"prio\000"
 4693      00
 4694              	.LASF152:
 4695 0537 6368436F 		.ascii	"chCondBroadcast\000"
 4695      6E644272 
 4695      6F616463 
 4695      61737400 
 4696              	.LASF141:
 4697 0547 73656D5F 		.ascii	"sem_pool\000"
 4697      706F6F6C 
 4697      00
 4698              	.LASF56:
 4699 0550 63757272 		.ascii	"current\000"
 4699      656E7400 
 4700              	.LASF14:
 4701 0558 5F5F7569 		.ascii	"__uint64_t\000"
 4701      6E743634 
 4701      5F7400
 4702              	.LASF125:
 4703 0563 6D656D63 		.ascii	"memcore_t\000"
 4703      6F72655F 
 4703      7400
 4704              	.LASF24:
 4705 056d 74726566 		.ascii	"trefs_t\000"
 4705      735F7400 
 4706              	.LASF39:
 4707 0575 72656673 		.ascii	"refs\000"
 4707      00
 4708              	.LASF58:
 4709 057a 76697274 		.ascii	"virtual_timer_t\000"
 4709      75616C5F 
 4709      74696D65 
 4709      725F7400 
ARM GAS  /var/folders/vd/czx34qs52cd_f3nb04sxmghc0000gn/T//cc6O8NfS.s 			page 88


 4710              	.LASF132:
 4711 058a 63685F64 		.ascii	"ch_dyn_element\000"
 4711      796E5F65 
 4711      6C656D65 
 4711      6E7400
 4712              	.LASF126:
 4713 0599 63685F6D 		.ascii	"ch_memcore\000"
 4713      656D636F 
 4713      726500
 4714              	.LASF25:
 4715 05a4 74707269 		.ascii	"tprio_t\000"
 4715      6F5F7400 
 4716              	.LASF172:
 4717 05ac 63685363 		.ascii	"chSchGoSleepS\000"
 4717      68476F53 
 4717      6C656570 
 4717      5300
 4718              	.LASF153:
 4719 05ba 6368436F 		.ascii	"chCondSignalI\000"
 4719      6E645369 
 4719      676E616C 
 4719      4900
 4720              	.LASF121:
 4721 05c8 5F426F6F 		.ascii	"_Bool\000"
 4721      6C00
 4722              	.LASF18:
 4723 05ce 696E7433 		.ascii	"int32_t\000"
 4723      325F7400 
 4724              	.LASF6:
 4725 05d6 756E7369 		.ascii	"unsigned char\000"
 4725      676E6564 
 4725      20636861 
 4725      7200
 4726              	.LASF105:
 4727 05e4 6F66665F 		.ascii	"off_prio\000"
 4727      7072696F 
 4727      00
 4728              	.LASF110:
 4729 05ed 6F66665F 		.ascii	"off_stklimit\000"
 4729      73746B6C 
 4729      696D6974 
 4729      00
 4730              	.LASF7:
 4731 05fa 73686F72 		.ascii	"short int\000"
 4731      7420696E 
 4731      7400
 4732              	.LASF64:
 4733 0604 6C617374 		.ascii	"lasttime\000"
 4733      74696D65 
 4733      00
 4734              	.LASF92:
 4735 060d 65776D61 		.ascii	"ewmask\000"
 4735      736B00
 4736              	.LASF69:
 4737 0614 63685F73 		.ascii	"ch_system\000"
 4737      79737465 
 4737      6D00
ARM GAS  /var/folders/vd/czx34qs52cd_f3nb04sxmghc0000gn/T//cc6O8NfS.s 			page 89


 4738              	.LASF150:
 4739 061e 5F5F6675 		.ascii	"__func__\000"
 4739      6E635F5F 
 4739      00
 4740              	.LASF145:
 4741 0627 63685F66 		.ascii	"ch_factory\000"
 4741      6163746F 
 4741      727900
 4742              	.LASF164:
 4743 0632 63685379 		.ascii	"chSysLock\000"
 4743      734C6F63 
 4743      6B00
 4744              	.LASF138:
 4745 063c 6F626A5F 		.ascii	"obj_pool\000"
 4745      706F6F6C 
 4745      00
 4746              	.LASF59:
 4747 0645 63685F76 		.ascii	"ch_virtual_timer\000"
 4747      69727475 
 4747      616C5F74 
 4747      696D6572 
 4747      00
 4748              	.LASF93:
 4749 0656 63685F73 		.ascii	"ch_semaphore\000"
 4749      656D6170 
 4749      686F7265 
 4749      00
 4750              	.LASF115:
 4751 0663 6F66665F 		.ascii	"off_time\000"
 4751      74696D65 
 4751      00
 4752              	.LASF97:
 4753 066c 63685F69 		.ascii	"ch_idle_thread_wa\000"
 4753      646C655F 
 4753      74687265 
 4753      61645F77 
 4753      6100
 4754              	.LASF103:
 4755 067e 74696D65 		.ascii	"timesize\000"
 4755      73697A65 
 4755      00
 4756              	.LASF156:
 4757 0687 63684D74 		.ascii	"chMtxGetNextMutexS\000"
 4757      78476574 
 4757      4E657874 
 4757      4D757465 
 4757      785300
 4758              	.LASF19:
 4759 069a 75696E74 		.ascii	"uint32_t\000"
 4759      33325F74 
 4759      00
 4760              	.LASF91:
 4761 06a3 77746D74 		.ascii	"wtmtxp\000"
 4761      787000
 4762              	.LASF173:
 4763 06aa 63685363 		.ascii	"chSchReadyI\000"
 4763      68526561 
ARM GAS  /var/folders/vd/czx34qs52cd_f3nb04sxmghc0000gn/T//cc6O8NfS.s 			page 90


 4763      64794900 
 4764              	.LASF49:
 4765 06b6 63685F74 		.ascii	"ch_threads_list\000"
 4765      68726561 
 4765      64735F6C 
 4765      69737400 
 4766              	.LASF95:
 4767 06c6 6F776E65 		.ascii	"owner\000"
 4767      7200
 4768              	.LASF13:
 4769 06cc 6C6F6E67 		.ascii	"long unsigned int\000"
 4769      20756E73 
 4769      69676E65 
 4769      6420696E 
 4769      7400
 4770              	.LASF36:
 4771 06de 77616261 		.ascii	"wabase\000"
 4771      736500
 4772              	.LASF96:
 4773 06e5 63686172 		.ascii	"char\000"
 4773      00
 4774              	.LASF34:
 4775 06ea 6F6C6465 		.ascii	"older\000"
 4775      7200
 4776              	.LASF137:
 4777 06f0 6F626A5F 		.ascii	"obj_list\000"
 4777      6C697374 
 4777      00
 4778              	.LASF8:
 4779 06f9 5F5F7569 		.ascii	"__uint16_t\000"
 4779      6E743136 
 4779      5F7400
 4780              	.LASF155:
 4781 0704 6368436F 		.ascii	"chCondObjectInit\000"
 4781      6E644F62 
 4781      6A656374 
 4781      496E6974 
 4781      00
 4782              	.LASF2:
 4783 0715 6C6F6E67 		.ascii	"long double\000"
 4783      20646F75 
 4783      626C6500 
 4784              	.LASF161:
 4785 0721 71756575 		.ascii	"queue_fifo_remove\000"
 4785      655F6669 
 4785      666F5F72 
 4785      656D6F76 
 4785      6500
 4786              	.LASF73:
 4787 0733 73797374 		.ascii	"systime_t\000"
 4787      696D655F 
 4787      7400
 4788              	.LASF57:
 4789 073d 76746675 		.ascii	"vtfunc_t\000"
 4789      6E635F74 
 4789      00
 4790              	.LASF167:
ARM GAS  /var/folders/vd/czx34qs52cd_f3nb04sxmghc0000gn/T//cc6O8NfS.s 			page 91


 4791 0746 5F5F7365 		.ascii	"__set_BASEPRI\000"
 4791      745F4241 
 4791      53455052 
 4791      4900
 4792              	.LASF67:
 4793 0754 70616E69 		.ascii	"panic_msg\000"
 4793      635F6D73 
 4793      6700
 4794              	.LASF83:
 4795 075e 6F666673 		.ascii	"offset\000"
 4795      657400
 4796              	.LASF94:
 4797 0765 63685F6D 		.ascii	"ch_mutex\000"
 4797      75746578 
 4797      00
 4798              	.LASF108:
 4799 076e 6F66665F 		.ascii	"off_older\000"
 4799      6F6C6465 
 4799      7200
 4800              	.LASF9:
 4801 0778 73686F72 		.ascii	"short unsigned int\000"
 4801      7420756E 
 4801      7369676E 
 4801      65642069 
 4801      6E7400
 4802              	.LASF151:
 4803 078b 6368436F 		.ascii	"chCondWait\000"
 4803      6E645761 
 4803      697400
 4804              	.LASF175:
 4805 0796 63685363 		.ascii	"chSchWakeupS\000"
 4805      6857616B 
 4805      65757053 
 4805      00
 4806              	.LASF128:
 4807 07a3 6F626A65 		.ascii	"object_size\000"
 4807      63745F73 
 4807      697A6500 
 4808              	.LASF102:
 4809 07af 70747273 		.ascii	"ptrsize\000"
 4809      697A6500 
 4810              	.LASF136:
 4811 07b7 63685F6F 		.ascii	"ch_objects_factory\000"
 4811      626A6563 
 4811      74735F66 
 4811      6163746F 
 4811      727900
 4812              	.LASF51:
 4813 07ca 74687265 		.ascii	"threads_queue_t\000"
 4813      6164735F 
 4813      71756575 
 4813      655F7400 
 4814              	.LASF127:
 4815 07da 706F6F6C 		.ascii	"pool_header\000"
 4815      5F686561 
 4815      64657200 
 4816              	.LASF30:
ARM GAS  /var/folders/vd/czx34qs52cd_f3nb04sxmghc0000gn/T//cc6O8NfS.s 			page 92


 4817 07e6 74687265 		.ascii	"thread_t\000"
 4817      61645F74 
 4817      00
 4818              	.LASF109:
 4819 07ef 6F66665F 		.ascii	"off_name\000"
 4819      6E616D65 
 4819      00
 4820              	.LASF157:
 4821 07f8 63685468 		.ascii	"chThdGetSelfX\000"
 4821      64476574 
 4821      53656C66 
 4821      5800
 4822              	.LASF16:
 4823 0806 75696E74 		.ascii	"uint8_t\000"
 4823      385F7400 
 4824              	.LASF38:
 4825 080e 666C6167 		.ascii	"flags\000"
 4825      7300
 4826              	.LASF143:
 4827 0814 6669666F 		.ascii	"fifo_list\000"
 4827      5F6C6973 
 4827      7400
 4828              	.LASF87:
 4829 081e 77746F62 		.ascii	"wtobjp\000"
 4829      6A7000
 4830              	.LASF148:
 4831 0825 6368436F 		.ascii	"chCondWaitTimeout\000"
 4831      6E645761 
 4831      69745469 
 4831      6D656F75 
 4831      7400
 4832              	.LASF47:
 4833 0837 74687265 		.ascii	"threads_list_t\000"
 4833      6164735F 
 4833      6C697374 
 4833      5F7400
 4834              	.LASF111:
 4835 0846 6F66665F 		.ascii	"off_state\000"
 4835      73746174 
 4835      6500
 4836              	.LASF170:
 4837 0850 63685363 		.ascii	"chSchGoSleepTimeoutS\000"
 4837      68476F53 
 4837      6C656570 
 4837      54696D65 
 4837      6F757453 
 4838              	.LASF159:
 4839 0865 63685379 		.ascii	"chSysUnlock\000"
 4839      73556E6C 
 4839      6F636B00 
 4840              	.LASF144:
 4841 0871 6F626A65 		.ascii	"objects_factory_t\000"
 4841      6374735F 
 4841      66616374 
 4841      6F72795F 
 4841      7400
 4842              	.LASF160:
ARM GAS  /var/folders/vd/czx34qs52cd_f3nb04sxmghc0000gn/T//cc6O8NfS.s 			page 93


 4843 0883 71756575 		.ascii	"queue_prio_insert\000"
 4843      655F7072 
 4843      696F5F69 
 4843      6E736572 
 4843      7400
 4844              	.LASF112:
 4845 0895 6F66665F 		.ascii	"off_flags\000"
 4845      666C6167 
 4845      7300
 4846              	.LASF43:
 4847 089f 6D74786C 		.ascii	"mtxlist\000"
 4847      69737400 
 4848              	.LASF123:
 4849 08a7 6E657874 		.ascii	"nextmem\000"
 4849      6D656D00 
 4850              		.ident	"GCC: (GNU Tools for Arm Embedded Processors 7-2017-q4-major) 7.2.1 20170904 (release) [ARM
ARM GAS  /var/folders/vd/czx34qs52cd_f3nb04sxmghc0000gn/T//cc6O8NfS.s 			page 94


DEFINED SYMBOLS
                            *ABS*:0000000000000000 chcond.c
/var/folders/vd/czx34qs52cd_f3nb04sxmghc0000gn/T//cc6O8NfS.s:16     .text.chCondObjectInit:0000000000000000 $t
/var/folders/vd/czx34qs52cd_f3nb04sxmghc0000gn/T//cc6O8NfS.s:24     .text.chCondObjectInit:0000000000000000 chCondObjectInit
/var/folders/vd/czx34qs52cd_f3nb04sxmghc0000gn/T//cc6O8NfS.s:47     .text.chCondSignal:0000000000000000 $t
/var/folders/vd/czx34qs52cd_f3nb04sxmghc0000gn/T//cc6O8NfS.s:55     .text.chCondSignal:0000000000000000 chCondSignal
/var/folders/vd/czx34qs52cd_f3nb04sxmghc0000gn/T//cc6O8NfS.s:138    .text.chCondSignalI:0000000000000000 $t
/var/folders/vd/czx34qs52cd_f3nb04sxmghc0000gn/T//cc6O8NfS.s:146    .text.chCondSignalI:0000000000000000 chCondSignalI
/var/folders/vd/czx34qs52cd_f3nb04sxmghc0000gn/T//cc6O8NfS.s:198    .text.chCondBroadcast:0000000000000000 $t
/var/folders/vd/czx34qs52cd_f3nb04sxmghc0000gn/T//cc6O8NfS.s:206    .text.chCondBroadcast:0000000000000000 chCondBroadcast
/var/folders/vd/czx34qs52cd_f3nb04sxmghc0000gn/T//cc6O8NfS.s:315    .text.chCondBroadcastI:0000000000000000 $t
/var/folders/vd/czx34qs52cd_f3nb04sxmghc0000gn/T//cc6O8NfS.s:323    .text.chCondBroadcastI:0000000000000000 chCondBroadcastI
/var/folders/vd/czx34qs52cd_f3nb04sxmghc0000gn/T//cc6O8NfS.s:389    .text.chCondWaitS:0000000000000000 $t
/var/folders/vd/czx34qs52cd_f3nb04sxmghc0000gn/T//cc6O8NfS.s:397    .text.chCondWaitS:0000000000000000 chCondWaitS
/var/folders/vd/czx34qs52cd_f3nb04sxmghc0000gn/T//cc6O8NfS.s:497    .text.chCondWaitS:0000000000000048 $d
/var/folders/vd/czx34qs52cd_f3nb04sxmghc0000gn/T//cc6O8NfS.s:504    .text.chCondWait:0000000000000000 $t
/var/folders/vd/czx34qs52cd_f3nb04sxmghc0000gn/T//cc6O8NfS.s:512    .text.chCondWait:0000000000000000 chCondWait
/var/folders/vd/czx34qs52cd_f3nb04sxmghc0000gn/T//cc6O8NfS.s:568    .text.chCondWaitTimeoutS:0000000000000000 $t
/var/folders/vd/czx34qs52cd_f3nb04sxmghc0000gn/T//cc6O8NfS.s:576    .text.chCondWaitTimeoutS:0000000000000000 chCondWaitTimeoutS
/var/folders/vd/czx34qs52cd_f3nb04sxmghc0000gn/T//cc6O8NfS.s:697    .text.chCondWaitTimeoutS:0000000000000054 $d
/var/folders/vd/czx34qs52cd_f3nb04sxmghc0000gn/T//cc6O8NfS.s:704    .text.chCondWaitTimeout:0000000000000000 $t
/var/folders/vd/czx34qs52cd_f3nb04sxmghc0000gn/T//cc6O8NfS.s:712    .text.chCondWaitTimeout:0000000000000000 chCondWaitTimeout

UNDEFINED SYMBOLS
chSchWakeupS
chSchReadyI
chSchRescheduleS
chMtxUnlockS
chSchGoSleepS
chMtxLockS
ch
chSchGoSleepTimeoutS
