ARM GAS  /var/folders/vd/czx34qs52cd_f3nb04sxmghc0000gn/T//cc6O8NfS.s 			page 1


   1              		.cpu cortex-m4
   2              		.eabi_attribute 20, 1
   3              		.eabi_attribute 21, 1
   4              		.eabi_attribute 23, 3
   5              		.eabi_attribute 24, 1
   6              		.eabi_attribute 25, 1
   7              		.eabi_attribute 26, 1
   8              		.eabi_attribute 30, 2
   9              		.eabi_attribute 34, 1
  10              		.eabi_attribute 18, 4
  11              		.file	"chcond.c"
  12              		.text
  13              	.Ltext0:
  14              		.cfi_sections	.debug_frame
  15              		.section	.text.chCondObjectInit,"ax",%progbits
  16              		.align	1
  17              		.p2align 4,,15
  18              		.global	chCondObjectInit
  19              		.syntax unified
  20              		.thumb
  21              		.thumb_func
  22              		.fpu softvfp
  23              		.type	chCondObjectInit, %function
  24              	chCondObjectInit:
  25              	.LFB280:
  26              		.file 1 "../os/rt/src/chcond.c"
  27              		.loc 1 75 0
  28              		.cfi_startproc
  29              		@ args = 0, pretend = 0, frame = 0
  30              		@ frame_needed = 0, uses_anonymous_args = 0
  31              		@ link register save eliminated.
  32              	.LVL0:
  33              	.LBB89:
  34              	.LBB90:
  35              		.file 2 "../os/rt/include/chschd.h"
  36              		.loc 2 540 0
  37 0000 C0E90000 		strd	r0, r0, [r0]
  38              	.LVL1:
  39              	.LBE90:
  40              	.LBE89:
  41              		.loc 1 80 0
  42 0004 7047     		bx	lr
  43              		.cfi_endproc
  44              	.LFE280:
  45              		.size	chCondObjectInit, .-chCondObjectInit
  46 0006 00BF     		.section	.text.chCondSignal,"ax",%progbits
  47              		.align	1
  48              		.p2align 4,,15
  49              		.global	chCondSignal
  50              		.syntax unified
  51              		.thumb
  52              		.thumb_func
  53              		.fpu softvfp
  54              		.type	chCondSignal, %function
  55              	chCondSignal:
  56              	.LFB281:
  57              		.loc 1 89 0
ARM GAS  /var/folders/vd/czx34qs52cd_f3nb04sxmghc0000gn/T//cc6O8NfS.s 			page 2


  58              		.cfi_startproc
  59              		@ args = 0, pretend = 0, frame = 0
  60              		@ frame_needed = 0, uses_anonymous_args = 0
  61              	.LVL2:
  62 0000 08B5     		push	{r3, lr}
  63              		.cfi_def_cfa_offset 8
  64              		.cfi_offset 3, -8
  65              		.cfi_offset 14, -4
  66              	.LBB91:
  67              	.LBB92:
  68              	.LBB93:
  69              	.LBB94:
  70              		.file 3 "../os/common/ext/ARM/CMSIS/Core/Include/cmsis_gcc.h"
  71              		.loc 3 490 0
  72 0002 2023     		movs	r3, #32
  73              		.syntax unified
  74              	@ 490 "../os/common/ext/ARM/CMSIS/Core/Include/cmsis_gcc.h" 1
  75 0004 83F31188 		MSR basepri, r3
  76              	@ 0 "" 2
  77              	.LVL3:
  78              		.thumb
  79              		.syntax unified
  80              	.LBE94:
  81              	.LBE93:
  82              	.LBE92:
  83              	.LBE91:
  84              	.LBB95:
  85              	.LBB96:
  86              		.loc 2 566 0
  87 0008 0268     		ldr	r2, [r0]
  88              	.LVL4:
  89              	.LBE96:
  90              	.LBE95:
  91              		.loc 1 94 0
  92 000a 9042     		cmp	r0, r2
  93 000c 07D0     		beq	.L4
  94              	.LBB97:
  95              	.LBB98:
  96              		.loc 2 609 0
  97 000e 1168     		ldr	r1, [r2]
  98 0010 0160     		str	r1, [r0]
  99 0012 0346     		mov	r3, r0
 100              	.LVL5:
 101              		.loc 2 610 0
 102 0014 4B60     		str	r3, [r1, #4]
 103              	.LVL6:
 104              	.LBE98:
 105              	.LBE97:
 106              		.loc 1 95 0
 107 0016 1046     		mov	r0, r2
 108              	.LVL7:
 109 0018 0021     		movs	r1, #0
 110 001a FFF7FEFF 		bl	chSchWakeupS
 111              	.LVL8:
 112              	.L4:
 113              	.LBB99:
 114              	.LBB100:
ARM GAS  /var/folders/vd/czx34qs52cd_f3nb04sxmghc0000gn/T//cc6O8NfS.s 			page 3


 115              	.LBB101:
 116              	.LBB102:
 117              	.LBB103:
 118              		.loc 3 490 0
 119 001e 0023     		movs	r3, #0
 120              		.syntax unified
 121              	@ 490 "../os/common/ext/ARM/CMSIS/Core/Include/cmsis_gcc.h" 1
 122 0020 83F31188 		MSR basepri, r3
 123              	@ 0 "" 2
 124              	.LVL9:
 125              		.thumb
 126              		.syntax unified
 127              	.LBE103:
 128              	.LBE102:
 129              	.LBE101:
 130              	.LBE100:
 131              	.LBE99:
 132              		.loc 1 98 0
 133 0024 08BD     		pop	{r3, pc}
 134              		.cfi_endproc
 135              	.LFE281:
 136              		.size	chCondSignal, .-chCondSignal
 137 0026 00BF     		.section	.text.chCondSignalI,"ax",%progbits
 138              		.align	1
 139              		.p2align 4,,15
 140              		.global	chCondSignalI
 141              		.syntax unified
 142              		.thumb
 143              		.thumb_func
 144              		.fpu softvfp
 145              		.type	chCondSignalI, %function
 146              	chCondSignalI:
 147              	.LFB282:
 148              		.loc 1 111 0
 149              		.cfi_startproc
 150              		@ args = 0, pretend = 0, frame = 0
 151              		@ frame_needed = 0, uses_anonymous_args = 0
 152              		@ link register save eliminated.
 153              	.LVL10:
 154              	.LBB104:
 155              	.LBB105:
 156              		.loc 2 566 0
 157 0000 0368     		ldr	r3, [r0]
 158              	.LVL11:
 159              	.LBE105:
 160              	.LBE104:
 161              		.loc 1 116 0
 162 0002 9842     		cmp	r0, r3
 163 0004 07D0     		beq	.L6
 164              	.LVL12:
 165              	.LBB106:
 166              	.LBB107:
 167              	.LBB108:
 168              		.loc 2 609 0
 169 0006 1A68     		ldr	r2, [r3]
 170 0008 0260     		str	r2, [r0]
 171              	.LBE108:
ARM GAS  /var/folders/vd/czx34qs52cd_f3nb04sxmghc0000gn/T//cc6O8NfS.s 			page 4


 172              	.LBE107:
 173              		.loc 1 118 0
 174 000a 0021     		movs	r1, #0
 175              	.LBB110:
 176              	.LBB109:
 177              		.loc 2 610 0
 178 000c 5060     		str	r0, [r2, #4]
 179              	.LVL13:
 180              	.LBE109:
 181              	.LBE110:
 182              		.loc 1 119 0
 183 000e 1846     		mov	r0, r3
 184              	.LVL14:
 185              		.loc 1 118 0
 186 0010 5962     		str	r1, [r3, #36]
 187              		.loc 1 119 0
 188 0012 FFF7FEBF 		b	chSchReadyI
 189              	.LVL15:
 190              	.L6:
 191              	.LBE106:
 192              		.loc 1 121 0
 193 0016 7047     		bx	lr
 194              		.cfi_endproc
 195              	.LFE282:
 196              		.size	chCondSignalI, .-chCondSignalI
 197              		.section	.text.chCondBroadcast,"ax",%progbits
 198              		.align	1
 199              		.p2align 4,,15
 200              		.global	chCondBroadcast
 201              		.syntax unified
 202              		.thumb
 203              		.thumb_func
 204              		.fpu softvfp
 205              		.type	chCondBroadcast, %function
 206              	chCondBroadcast:
 207              	.LFB283:
 208              		.loc 1 130 0
 209              		.cfi_startproc
 210              		@ args = 0, pretend = 0, frame = 0
 211              		@ frame_needed = 0, uses_anonymous_args = 0
 212              	.LVL16:
 213 0000 38B5     		push	{r3, r4, r5, lr}
 214              		.cfi_def_cfa_offset 16
 215              		.cfi_offset 3, -16
 216              		.cfi_offset 4, -12
 217              		.cfi_offset 5, -8
 218              		.cfi_offset 14, -4
 219              	.LBB111:
 220              	.LBB112:
 221              	.LBB113:
 222              	.LBB114:
 223              		.loc 3 490 0
 224 0002 2023     		movs	r3, #32
 225              		.syntax unified
 226              	@ 490 "../os/common/ext/ARM/CMSIS/Core/Include/cmsis_gcc.h" 1
 227 0004 83F31188 		MSR basepri, r3
 228              	@ 0 "" 2
ARM GAS  /var/folders/vd/czx34qs52cd_f3nb04sxmghc0000gn/T//cc6O8NfS.s 			page 5


 229              	.LVL17:
 230              		.thumb
 231              		.syntax unified
 232              	.LBE114:
 233              	.LBE113:
 234              	.LBE112:
 235              	.LBE111:
 236              	.LBB115:
 237              	.LBB116:
 238              	.LBB117:
 239              	.LBB118:
 240              		.loc 2 566 0
 241 0008 0368     		ldr	r3, [r0]
 242              	.LVL18:
 243              	.LBE118:
 244              	.LBE117:
 245              		.loc 1 157 0
 246 000a 9842     		cmp	r0, r3
 247 000c 0CD0     		beq	.L9
 248 000e 0446     		mov	r4, r0
 249              		.loc 1 158 0
 250 0010 6FF00105 		mvn	r5, #1
 251              	.LVL19:
 252              	.L10:
 253              	.LBB120:
 254              	.LBB121:
 255              		.loc 2 609 0
 256 0014 1A68     		ldr	r2, [r3]
 257 0016 2260     		str	r2, [r4]
 258              	.LBE121:
 259              	.LBE120:
 260              		.loc 1 158 0
 261 0018 1846     		mov	r0, r3
 262              	.LBB123:
 263              	.LBB122:
 264              		.loc 2 610 0
 265 001a 5460     		str	r4, [r2, #4]
 266              	.LVL20:
 267              	.LBE122:
 268              	.LBE123:
 269              		.loc 1 158 0
 270 001c FFF7FEFF 		bl	chSchReadyI
 271              	.LVL21:
 272              	.LBB124:
 273              	.LBB119:
 274              		.loc 2 566 0
 275 0020 2368     		ldr	r3, [r4]
 276              	.LBE119:
 277              	.LBE124:
 278              		.loc 1 158 0
 279 0022 4562     		str	r5, [r0, #36]
 280              		.loc 1 157 0
 281 0024 A342     		cmp	r3, r4
 282 0026 F5D1     		bne	.L10
 283              	.LVL22:
 284              	.L9:
 285              	.LBE116:
ARM GAS  /var/folders/vd/czx34qs52cd_f3nb04sxmghc0000gn/T//cc6O8NfS.s 			page 6


 286              	.LBE115:
 287              		.loc 1 134 0
 288 0028 FFF7FEFF 		bl	chSchRescheduleS
 289              	.LVL23:
 290              	.LBB125:
 291              	.LBB126:
 292              	.LBB127:
 293              	.LBB128:
 294              	.LBB129:
 295              		.loc 3 490 0
 296 002c 0023     		movs	r3, #0
 297              		.syntax unified
 298              	@ 490 "../os/common/ext/ARM/CMSIS/Core/Include/cmsis_gcc.h" 1
 299 002e 83F31188 		MSR basepri, r3
 300              	@ 0 "" 2
 301              	.LVL24:
 302              		.thumb
 303              		.syntax unified
 304              	.LBE129:
 305              	.LBE128:
 306              	.LBE127:
 307              	.LBE126:
 308              	.LBE125:
 309              		.loc 1 136 0
 310 0032 38BD     		pop	{r3, r4, r5, pc}
 311              		.cfi_endproc
 312              	.LFE283:
 313              		.size	chCondBroadcast, .-chCondBroadcast
 314              		.section	.text.chCondBroadcastI,"ax",%progbits
 315              		.align	1
 316              		.p2align 4,,15
 317              		.global	chCondBroadcastI
 318              		.syntax unified
 319              		.thumb
 320              		.thumb_func
 321              		.fpu softvfp
 322              		.type	chCondBroadcastI, %function
 323              	chCondBroadcastI:
 324              	.LFB284:
 325              		.loc 1 149 0
 326              		.cfi_startproc
 327              		@ args = 0, pretend = 0, frame = 0
 328              		@ frame_needed = 0, uses_anonymous_args = 0
 329              	.LVL25:
 330 0000 38B5     		push	{r3, r4, r5, lr}
 331              		.cfi_def_cfa_offset 16
 332              		.cfi_offset 3, -16
 333              		.cfi_offset 4, -12
 334              		.cfi_offset 5, -8
 335              		.cfi_offset 14, -4
 336              	.LBB130:
 337              	.LBB131:
 338              		.loc 2 566 0
 339 0002 0368     		ldr	r3, [r0]
 340              	.LVL26:
 341              	.LBE131:
 342              	.LBE130:
ARM GAS  /var/folders/vd/czx34qs52cd_f3nb04sxmghc0000gn/T//cc6O8NfS.s 			page 7


 343              		.loc 1 157 0
 344 0004 8342     		cmp	r3, r0
 345 0006 0CD0     		beq	.L13
 346 0008 0446     		mov	r4, r0
 347              		.loc 1 158 0
 348 000a 6FF00105 		mvn	r5, #1
 349              	.LVL27:
 350              	.L15:
 351              	.LBB133:
 352              	.LBB134:
 353              		.loc 2 609 0
 354 000e 1A68     		ldr	r2, [r3]
 355 0010 2260     		str	r2, [r4]
 356              	.LBE134:
 357              	.LBE133:
 358              		.loc 1 158 0
 359 0012 1846     		mov	r0, r3
 360              	.LBB136:
 361              	.LBB135:
 362              		.loc 2 610 0
 363 0014 5460     		str	r4, [r2, #4]
 364              	.LVL28:
 365              	.LBE135:
 366              	.LBE136:
 367              		.loc 1 158 0
 368 0016 FFF7FEFF 		bl	chSchReadyI
 369              	.LVL29:
 370              	.LBB137:
 371              	.LBB132:
 372              		.loc 2 566 0
 373 001a 2368     		ldr	r3, [r4]
 374              	.LBE132:
 375              	.LBE137:
 376              		.loc 1 158 0
 377 001c 4562     		str	r5, [r0, #36]
 378              		.loc 1 157 0
 379 001e A342     		cmp	r3, r4
 380 0020 F5D1     		bne	.L15
 381              	.LVL30:
 382              	.L13:
 383              		.loc 1 160 0
 384 0022 38BD     		pop	{r3, r4, r5, pc}
 385              		.cfi_endproc
 386              	.LFE284:
 387              		.size	chCondBroadcastI, .-chCondBroadcastI
 388              		.section	.text.chCondWaitS,"ax",%progbits
 389              		.align	1
 390              		.p2align 4,,15
 391              		.global	chCondWaitS
 392              		.syntax unified
 393              		.thumb
 394              		.thumb_func
 395              		.fpu softvfp
 396              		.type	chCondWaitS, %function
 397              	chCondWaitS:
 398              	.LFB286:
 399              		.loc 1 205 0
ARM GAS  /var/folders/vd/czx34qs52cd_f3nb04sxmghc0000gn/T//cc6O8NfS.s 			page 8


 400              		.cfi_startproc
 401              		@ args = 0, pretend = 0, frame = 0
 402              		@ frame_needed = 0, uses_anonymous_args = 0
 403              	.LVL31:
 404 0000 F8B5     		push	{r3, r4, r5, r6, r7, lr}
 405              		.cfi_def_cfa_offset 24
 406              		.cfi_offset 3, -24
 407              		.cfi_offset 4, -20
 408              		.cfi_offset 5, -16
 409              		.cfi_offset 6, -12
 410              		.cfi_offset 7, -8
 411              		.cfi_offset 14, -4
 412              		.loc 1 206 0
 413 0002 114B     		ldr	r3, .L25
 414 0004 9C69     		ldr	r4, [r3, #24]
 415              	.LVL32:
 416              	.LBB138:
 417              	.LBB139:
 418              		.file 4 "../os/rt/include/chmtx.h"
 419              		.loc 4 146 0
 420 0006 A76B     		ldr	r7, [r4, #56]
 421              	.LBE139:
 422              	.LBE138:
 423              		.loc 1 205 0
 424 0008 0546     		mov	r5, r0
 425              		.loc 1 216 0
 426 000a 3846     		mov	r0, r7
 427              	.LVL33:
 428 000c FFF7FEFF 		bl	chMtxUnlockS
 429              	.LVL34:
 430              		.loc 1 221 0
 431 0010 2E46     		mov	r6, r5
 432              	.LVL35:
 433              		.loc 1 220 0
 434 0012 6562     		str	r5, [r4, #36]
 435              		.loc 1 221 0
 436 0014 2B46     		mov	r3, r5
 437 0016 03E0     		b	.L20
 438              	.LVL36:
 439              	.L24:
 440              	.LBB140:
 441              	.LBB141:
 442              		.loc 2 591 0
 443 0018 9968     		ldr	r1, [r3, #8]
 444 001a A268     		ldr	r2, [r4, #8]
 445 001c 9142     		cmp	r1, r2
 446 001e 10D3     		bcc	.L23
 447              	.LVL37:
 448              	.L20:
 449              		.loc 2 590 0
 450 0020 1B68     		ldr	r3, [r3]
 451              	.LVL38:
 452              		.loc 2 591 0
 453 0022 9D42     		cmp	r5, r3
 454 0024 F8D1     		bne	.L24
 455              	.L19:
 456              		.loc 2 593 0
ARM GAS  /var/folders/vd/czx34qs52cd_f3nb04sxmghc0000gn/T//cc6O8NfS.s 			page 9


 457 0026 7368     		ldr	r3, [r6, #4]
 458              	.LVL39:
 459              	.LBE141:
 460              	.LBE140:
 461              		.loc 1 222 0
 462 0028 0720     		movs	r0, #7
 463              	.LBB144:
 464              	.LBB142:
 465              		.loc 2 593 0
 466 002a C4E90063 		strd	r6, r3, [r4]
 467              		.loc 2 594 0
 468 002e 1C60     		str	r4, [r3]
 469              		.loc 2 595 0
 470 0030 7460     		str	r4, [r6, #4]
 471              	.LVL40:
 472              	.LBE142:
 473              	.LBE144:
 474              		.loc 1 222 0
 475 0032 FFF7FEFF 		bl	chSchGoSleepS
 476              	.LVL41:
 477              		.loc 1 223 0
 478 0036 646A     		ldr	r4, [r4, #36]
 479              	.LVL42:
 480              		.loc 1 224 0
 481 0038 3846     		mov	r0, r7
 482 003a FFF7FEFF 		bl	chMtxLockS
 483              	.LVL43:
 484              		.loc 1 227 0
 485 003e 2046     		mov	r0, r4
 486 0040 F8BD     		pop	{r3, r4, r5, r6, r7, pc}
 487              	.LVL44:
 488              	.L23:
 489              	.LBB145:
 490              	.LBB143:
 491              		.loc 2 590 0
 492 0042 1E46     		mov	r6, r3
 493 0044 EFE7     		b	.L19
 494              	.L26:
 495 0046 00BF     		.align	2
 496              	.L25:
 497 0048 00000000 		.word	ch
 498              	.LBE143:
 499              	.LBE145:
 500              		.cfi_endproc
 501              	.LFE286:
 502              		.size	chCondWaitS, .-chCondWaitS
 503              		.section	.text.chCondWait,"ax",%progbits
 504              		.align	1
 505              		.p2align 4,,15
 506              		.global	chCondWait
 507              		.syntax unified
 508              		.thumb
 509              		.thumb_func
 510              		.fpu softvfp
 511              		.type	chCondWait, %function
 512              	chCondWait:
 513              	.LFB285:
ARM GAS  /var/folders/vd/czx34qs52cd_f3nb04sxmghc0000gn/T//cc6O8NfS.s 			page 10


 514              		.loc 1 179 0
 515              		.cfi_startproc
 516              		@ args = 0, pretend = 0, frame = 0
 517              		@ frame_needed = 0, uses_anonymous_args = 0
 518              	.LVL45:
 519 0000 08B5     		push	{r3, lr}
 520              		.cfi_def_cfa_offset 8
 521              		.cfi_offset 3, -8
 522              		.cfi_offset 14, -4
 523              	.LBB146:
 524              	.LBB147:
 525              	.LBB148:
 526              	.LBB149:
 527              		.loc 3 490 0
 528 0002 2023     		movs	r3, #32
 529              		.syntax unified
 530              	@ 490 "../os/common/ext/ARM/CMSIS/Core/Include/cmsis_gcc.h" 1
 531 0004 83F31188 		MSR basepri, r3
 532              	@ 0 "" 2
 533              	.LVL46:
 534              		.thumb
 535              		.syntax unified
 536              	.LBE149:
 537              	.LBE148:
 538              	.LBE147:
 539              	.LBE146:
 540              		.loc 1 183 0
 541 0008 FFF7FEFF 		bl	chCondWaitS
 542              	.LVL47:
 543              	.LBB150:
 544              	.LBB151:
 545              	.LBB152:
 546              	.LBB153:
 547              	.LBB154:
 548              		.loc 3 490 0
 549 000c 0023     		movs	r3, #0
 550              		.syntax unified
 551              	@ 490 "../os/common/ext/ARM/CMSIS/Core/Include/cmsis_gcc.h" 1
 552 000e 83F31188 		MSR basepri, r3
 553              	@ 0 "" 2
 554              	.LVL48:
 555              		.thumb
 556              		.syntax unified
 557              	.LBE154:
 558              	.LBE153:
 559              	.LBE152:
 560              	.LBE151:
 561              	.LBE150:
 562              		.loc 1 186 0
 563 0012 08BD     		pop	{r3, pc}
 564              		.cfi_endproc
 565              	.LFE285:
 566              		.size	chCondWait, .-chCondWait
 567              		.section	.text.chCondWaitTimeoutS,"ax",%progbits
 568              		.align	1
 569              		.p2align 4,,15
 570              		.global	chCondWaitTimeoutS
ARM GAS  /var/folders/vd/czx34qs52cd_f3nb04sxmghc0000gn/T//cc6O8NfS.s 			page 11


 571              		.syntax unified
 572              		.thumb
 573              		.thumb_func
 574              		.fpu softvfp
 575              		.type	chCondWaitTimeoutS, %function
 576              	chCondWaitTimeoutS:
 577              	.LFB288:
 578              		.loc 1 296 0
 579              		.cfi_startproc
 580              		@ args = 0, pretend = 0, frame = 0
 581              		@ frame_needed = 0, uses_anonymous_args = 0
 582              	.LVL49:
 583 0000 2DE9F041 		push	{r4, r5, r6, r7, r8, lr}
 584              		.cfi_def_cfa_offset 24
 585              		.cfi_offset 4, -24
 586              		.cfi_offset 5, -20
 587              		.cfi_offset 6, -16
 588              		.cfi_offset 7, -12
 589              		.cfi_offset 8, -8
 590              		.cfi_offset 14, -4
 591              	.LBB155:
 592              	.LBB156:
 593              	.LBB157:
 594              	.LBB158:
 595              		.file 5 "../os/rt/include/chthreads.h"
 596              		.loc 5 274 0
 597 0004 134C     		ldr	r4, .L40
 598              	.LBE158:
 599              	.LBE157:
 600              		.loc 4 146 0
 601 0006 A369     		ldr	r3, [r4, #24]
 602 0008 9F6B     		ldr	r7, [r3, #56]
 603              	.LBE156:
 604              	.LBE155:
 605              		.loc 1 296 0
 606 000a 0546     		mov	r5, r0
 607              		.loc 1 306 0
 608 000c 3846     		mov	r0, r7
 609              	.LVL50:
 610              		.loc 1 296 0
 611 000e 8846     		mov	r8, r1
 612              		.loc 1 306 0
 613 0010 FFF7FEFF 		bl	chMtxUnlockS
 614              	.LVL51:
 615              		.loc 1 310 0
 616 0014 A469     		ldr	r4, [r4, #24]
 617              		.loc 1 311 0
 618 0016 2E46     		mov	r6, r5
 619              	.LVL52:
 620              		.loc 1 310 0
 621 0018 6562     		str	r5, [r4, #36]
 622              		.loc 1 311 0
 623 001a 2B46     		mov	r3, r5
 624 001c 03E0     		b	.L31
 625              	.LVL53:
 626              	.L39:
 627              	.LBB159:
ARM GAS  /var/folders/vd/czx34qs52cd_f3nb04sxmghc0000gn/T//cc6O8NfS.s 			page 12


 628              	.LBB160:
 629              		.loc 2 591 0
 630 001e 9868     		ldr	r0, [r3, #8]
 631 0020 A268     		ldr	r2, [r4, #8]
 632 0022 9042     		cmp	r0, r2
 633 0024 14D3     		bcc	.L38
 634              	.LVL54:
 635              	.L31:
 636              		.loc 2 590 0
 637 0026 1B68     		ldr	r3, [r3]
 638              	.LVL55:
 639              		.loc 2 591 0
 640 0028 9D42     		cmp	r5, r3
 641 002a F8D1     		bne	.L39
 642              	.L30:
 643              		.loc 2 593 0
 644 002c 7368     		ldr	r3, [r6, #4]
 645              	.LVL56:
 646 002e 6360     		str	r3, [r4, #4]
 647              		.loc 2 592 0
 648 0030 2660     		str	r6, [r4]
 649              	.LBE160:
 650              	.LBE159:
 651              		.loc 1 312 0
 652 0032 4146     		mov	r1, r8
 653              	.LBB164:
 654              	.LBB161:
 655              		.loc 2 594 0
 656 0034 1C60     		str	r4, [r3]
 657              	.LBE161:
 658              	.LBE164:
 659              		.loc 1 312 0
 660 0036 0720     		movs	r0, #7
 661              	.LBB165:
 662              	.LBB162:
 663              		.loc 2 595 0
 664 0038 7460     		str	r4, [r6, #4]
 665              	.LVL57:
 666              	.LBE162:
 667              	.LBE165:
 668              		.loc 1 312 0
 669 003a FFF7FEFF 		bl	chSchGoSleepTimeoutS
 670              	.LVL58:
 671              		.loc 1 313 0
 672 003e 431C     		adds	r3, r0, #1
 673              		.loc 1 312 0
 674 0040 0446     		mov	r4, r0
 675              	.LVL59:
 676              		.loc 1 313 0
 677 0042 02D0     		beq	.L29
 678              		.loc 1 314 0
 679 0044 3846     		mov	r0, r7
 680              	.LVL60:
 681 0046 FFF7FEFF 		bl	chMtxLockS
 682              	.LVL61:
 683              	.L29:
 684              		.loc 1 318 0
ARM GAS  /var/folders/vd/czx34qs52cd_f3nb04sxmghc0000gn/T//cc6O8NfS.s 			page 13


 685 004a 2046     		mov	r0, r4
 686 004c BDE8F081 		pop	{r4, r5, r6, r7, r8, pc}
 687              	.LVL62:
 688              	.L38:
 689              	.LBB166:
 690              	.LBB163:
 691              		.loc 2 590 0
 692 0050 1E46     		mov	r6, r3
 693 0052 EBE7     		b	.L30
 694              	.L41:
 695              		.align	2
 696              	.L40:
 697 0054 00000000 		.word	ch
 698              	.LBE163:
 699              	.LBE166:
 700              		.cfi_endproc
 701              	.LFE288:
 702              		.size	chCondWaitTimeoutS, .-chCondWaitTimeoutS
 703              		.section	.text.chCondWaitTimeout,"ax",%progbits
 704              		.align	1
 705              		.p2align 4,,15
 706              		.global	chCondWaitTimeout
 707              		.syntax unified
 708              		.thumb
 709              		.thumb_func
 710              		.fpu softvfp
 711              		.type	chCondWaitTimeout, %function
 712              	chCondWaitTimeout:
 713              	.LFB287:
 714              		.loc 1 258 0
 715              		.cfi_startproc
 716              		@ args = 0, pretend = 0, frame = 0
 717              		@ frame_needed = 0, uses_anonymous_args = 0
 718              	.LVL63:
 719 0000 08B5     		push	{r3, lr}
 720              		.cfi_def_cfa_offset 8
 721              		.cfi_offset 3, -8
 722              		.cfi_offset 14, -4
 723              	.LBB167:
 724              	.LBB168:
 725              	.LBB169:
 726              	.LBB170:
 727              		.loc 3 490 0
 728 0002 2023     		movs	r3, #32
 729              		.syntax unified
 730              	@ 490 "../os/common/ext/ARM/CMSIS/Core/Include/cmsis_gcc.h" 1
 731 0004 83F31188 		MSR basepri, r3
 732              	@ 0 "" 2
 733              	.LVL64:
 734              		.thumb
 735              		.syntax unified
 736              	.LBE170:
 737              	.LBE169:
 738              	.LBE168:
 739              	.LBE167:
 740              		.loc 1 262 0
 741 0008 FFF7FEFF 		bl	chCondWaitTimeoutS
ARM GAS  /var/folders/vd/czx34qs52cd_f3nb04sxmghc0000gn/T//cc6O8NfS.s 			page 14


 742              	.LVL65:
 743              	.LBB171:
 744              	.LBB172:
 745              	.LBB173:
 746              	.LBB174:
 747              	.LBB175:
 748              		.loc 3 490 0
 749 000c 0023     		movs	r3, #0
 750              		.syntax unified
 751              	@ 490 "../os/common/ext/ARM/CMSIS/Core/Include/cmsis_gcc.h" 1
 752 000e 83F31188 		MSR basepri, r3
 753              	@ 0 "" 2
 754              	.LVL66:
 755              		.thumb
 756              		.syntax unified
 757              	.LBE175:
 758              	.LBE174:
 759              	.LBE173:
 760              	.LBE172:
 761              	.LBE171:
 762              		.loc 1 266 0
 763 0012 08BD     		pop	{r3, pc}
 764              		.cfi_endproc
 765              	.LFE287:
 766              		.size	chCondWaitTimeout, .-chCondWaitTimeout
 767              		.text
 768              	.Letext0:
 769              		.file 6 "/usr/local/Cellar/gcc-arm-none-eabi/20171218/lib/gcc/arm-none-eabi/7.2.1/include/stddef.h
 770              		.file 7 "/usr/local/Cellar/gcc-arm-none-eabi/20171218/arm-none-eabi/include/machine/_default_types
 771              		.file 8 "/usr/local/Cellar/gcc-arm-none-eabi/20171218/arm-none-eabi/include/sys/_stdint.h"
 772              		.file 9 "../os/common/ports/ARMCMx/compilers/GCC/chtypes.h"
 773              		.file 10 "../os/rt/include/chsystypes.h"
 774              		.file 11 "../os/rt/include/chtime.h"
 775              		.file 12 "../os/common/ext/ARM/CMSIS/Core/Include/core_cm4.h"
 776              		.file 13 "../os/common/ext/ST/STM32F4xx/system_stm32f4xx.h"
 777              		.file 14 "../os/common/ports/ARMCMx/chcore.h"
 778              		.file 15 "../os/common/ports/ARMCMx/chcore_v7m.h"
 779              		.file 16 "../os/rt/include/chtm.h"
 780              		.file 17 "../os/rt/include/chsem.h"
 781              		.file 18 "../os/rt/include/chsys.h"
 782              		.file 19 "../os/rt/include/chregistry.h"
 783              		.file 20 "../os/rt/include/chcond.h"
 784              		.file 21 "../os/common/oslib/include/chmemcore.h"
 785              		.file 22 "../os/common/oslib/include/chmempools.h"
 786              		.file 23 "../os/common/oslib/include/chfactory.h"