ARM GAS  /var/folders/vd/czx34qs52cd_f3nb04sxmghc0000gn/T//ccrwAV4C.s 			page 1


   1              		.cpu cortex-m4
   2              		.eabi_attribute 20, 1
   3              		.eabi_attribute 21, 1
   4              		.eabi_attribute 23, 3
   5              		.eabi_attribute 24, 1
   6              		.eabi_attribute 25, 1
   7              		.eabi_attribute 26, 1
   8              		.eabi_attribute 30, 2
   9              		.eabi_attribute 34, 1
  10              		.eabi_attribute 18, 4
  11              		.file	"chcore_v7m.c"
  12              		.text
  13              	.Ltext0:
  14              		.cfi_sections	.debug_frame
  15              		.section	.text.SVC_Handler,"ax",%progbits
  16              		.align	1
  17              		.p2align 4,,15
  18              		.global	SVC_Handler
  19              		.syntax unified
  20              		.thumb
  21              		.thumb_func
  22              		.fpu softvfp
  23              		.type	SVC_Handler, %function
  24              	SVC_Handler:
  25              	.LFB280:
  26              		.file 1 "../os/common/ports/ARMCMx/chcore_v7m.c"
  27              		.loc 1 62 0
  28              		.cfi_startproc
  29              		@ args = 0, pretend = 0, frame = 0
  30              		@ frame_needed = 0, uses_anonymous_args = 0
  31              		@ link register save eliminated.
  32              	.LBB47:
  33              	.LBB48:
  34              		.file 2 "../os/common/ext/ARM/CMSIS/Core/Include/cmsis_gcc.h"
  35              		.loc 2 248 0
  36              		.syntax unified
  37              	@ 248 "../os/common/ext/ARM/CMSIS/Core/Include/cmsis_gcc.h" 1
  38 0000 EFF30983 		MRS r3, psp
  39              	@ 0 "" 2
  40              	.LVL0:
  41              		.thumb
  42              		.syntax unified
  43              	.LBE48:
  44              	.LBE47:
  45              		.loc 1 76 0
  46 0004 2033     		adds	r3, r3, #32
  47              	.LVL1:
  48              	.LBB49:
  49              	.LBB50:
  50              		.loc 2 276 0
  51              		.syntax unified
  52              	@ 276 "../os/common/ext/ARM/CMSIS/Core/Include/cmsis_gcc.h" 1
  53 0006 83F30988 		MSR psp, r3
  54              	@ 0 "" 2
  55              	.LVL2:
  56              		.thumb
  57              		.syntax unified
ARM GAS  /var/folders/vd/czx34qs52cd_f3nb04sxmghc0000gn/T//ccrwAV4C.s 			page 2


  58              	.LBE50:
  59              	.LBE49:
  60              	.LBB51:
  61              	.LBB52:
  62              	.LBB53:
  63              	.LBB54:
  64              		.loc 2 490 0
  65 000a 0023     		movs	r3, #0
  66              	.LVL3:
  67              		.syntax unified
  68              	@ 490 "../os/common/ext/ARM/CMSIS/Core/Include/cmsis_gcc.h" 1
  69 000c 83F31188 		MSR basepri, r3
  70              	@ 0 "" 2
  71              	.LVL4:
  72              		.thumb
  73              		.syntax unified
  74              	.LBE54:
  75              	.LBE53:
  76              	.LBE52:
  77              	.LBE51:
  78              		.loc 1 83 0
  79 0010 7047     		bx	lr
  80              		.cfi_endproc
  81              	.LFE280:
  82              		.size	SVC_Handler, .-SVC_Handler
  83 0012 00BF     		.section	.text._port_irq_epilogue,"ax",%progbits
  84              		.align	1
  85              		.p2align 4,,15
  86              		.global	_port_irq_epilogue
  87              		.syntax unified
  88              		.thumb
  89              		.thumb_func
  90              		.fpu softvfp
  91              		.type	_port_irq_epilogue, %function
  92              	_port_irq_epilogue:
  93              	.LFB281:
  94              		.loc 1 122 0
  95              		.cfi_startproc
  96              		@ args = 0, pretend = 0, frame = 0
  97              		@ frame_needed = 0, uses_anonymous_args = 0
  98              	.LVL5:
  99              	.LBB55:
 100              	.LBB56:
 101              	.LBB57:
 102              	.LBB58:
 103              		.loc 2 490 0
 104 0000 2023     		movs	r3, #32
 105              		.syntax unified
 106              	@ 490 "../os/common/ext/ARM/CMSIS/Core/Include/cmsis_gcc.h" 1
 107 0002 83F31188 		MSR basepri, r3
 108              	@ 0 "" 2
 109              	.LVL6:
 110              		.thumb
 111              		.syntax unified
 112              	.LBE58:
 113              	.LBE57:
 114              	.LBE56:
ARM GAS  /var/folders/vd/czx34qs52cd_f3nb04sxmghc0000gn/T//ccrwAV4C.s 			page 3


 115              	.LBE55:
 116              		.loc 1 125 0
 117 0006 0F4B     		ldr	r3, .L12
 118 0008 5B68     		ldr	r3, [r3, #4]
 119 000a 13F40063 		ands	r3, r3, #2048
 120 000e 02D1     		bne	.L11
 121              	.LVL7:
 122              	.LBB59:
 123              	.LBB60:
 124              	.LBB61:
 125              	.LBB62:
 126              		.loc 2 490 0
 127              		.syntax unified
 128              	@ 490 "../os/common/ext/ARM/CMSIS/Core/Include/cmsis_gcc.h" 1
 129 0010 83F31188 		MSR basepri, r3
 130              	@ 0 "" 2
 131              	.LVL8:
 132              		.thumb
 133              		.syntax unified
 134 0014 7047     		bx	lr
 135              	.L11:
 136              	.LBE62:
 137              	.LBE61:
 138              	.LBE60:
 139              	.LBE59:
 140              		.loc 1 122 0
 141 0016 10B5     		push	{r4, lr}
 142              		.cfi_def_cfa_offset 8
 143              		.cfi_offset 4, -8
 144              		.cfi_offset 14, -4
 145              	.LBB63:
 146              	.LBB64:
 147              	.LBB65:
 148              		.loc 2 248 0
 149              		.syntax unified
 150              	@ 248 "../os/common/ext/ARM/CMSIS/Core/Include/cmsis_gcc.h" 1
 151 0018 EFF30984 		MRS r4, psp
 152              	@ 0 "" 2
 153              	.LVL9:
 154              		.thumb
 155              		.syntax unified
 156              	.LBE65:
 157              	.LBE64:
 158              		.loc 1 141 0
 159 001c 4FF08073 		mov	r3, #16777216
 160 0020 44F8043C 		str	r3, [r4, #-4]
 161              	.LVL10:
 162              		.loc 1 138 0
 163 0024 A4F12003 		sub	r3, r4, #32
 164              	.LVL11:
 165              	.LBB66:
 166              	.LBB67:
 167              		.loc 2 276 0
 168              		.syntax unified
 169              	@ 276 "../os/common/ext/ARM/CMSIS/Core/Include/cmsis_gcc.h" 1
 170 0028 83F30988 		MSR psp, r3
 171              	@ 0 "" 2
ARM GAS  /var/folders/vd/czx34qs52cd_f3nb04sxmghc0000gn/T//ccrwAV4C.s 			page 4


 172              	.LVL12:
 173              		.thumb
 174              		.syntax unified
 175              	.LBE67:
 176              	.LBE66:
 177              		.loc 1 151 0
 178 002c FFF7FEFF 		bl	chSchIsPreemptionRequired
 179              	.LVL13:
 180 0030 18B1     		cbz	r0, .L5
 181              		.loc 1 153 0
 182 0032 054B     		ldr	r3, .L12+4
 183 0034 44F8083C 		str	r3, [r4, #-8]
 184              	.LBE63:
 185              		.loc 1 166 0
 186 0038 10BD     		pop	{r4, pc}
 187              	.LVL14:
 188              	.L5:
 189              	.LBB68:
 190              		.loc 1 158 0
 191 003a 044B     		ldr	r3, .L12+8
 192 003c 44F8083C 		str	r3, [r4, #-8]
 193              	.LBE68:
 194              		.loc 1 166 0
 195 0040 10BD     		pop	{r4, pc}
 196              	.LVL15:
 197              	.L13:
 198 0042 00BF     		.align	2
 199              	.L12:
 200 0044 00ED00E0 		.word	-536810240
 201 0048 00000000 		.word	_port_switch_from_isr
 202 004c 00000000 		.word	_port_exit_from_isr
 203              		.cfi_endproc
 204              	.LFE281:
 205              		.size	_port_irq_epilogue, .-_port_irq_epilogue
 206              		.text
 207              	.Letext0:
 208              		.file 3 "/usr/local/Cellar/gcc-arm-none-eabi/20171218/lib/gcc/arm-none-eabi/7.2.1/include/stddef.h
 209              		.file 4 "/usr/local/Cellar/gcc-arm-none-eabi/20171218/arm-none-eabi/include/machine/_default_types
 210              		.file 5 "/usr/local/Cellar/gcc-arm-none-eabi/20171218/arm-none-eabi/include/sys/_stdint.h"
 211              		.file 6 "../os/common/ports/ARMCMx/compilers/GCC/chtypes.h"
 212              		.file 7 "../os/rt/include/chsystypes.h"
 213              		.file 8 "../os/rt/include/chschd.h"
 214              		.file 9 "../os/rt/include/chtime.h"
 215              		.file 10 "../os/common/ext/ARM/CMSIS/Core/Include/core_cm4.h"
 216              		.file 11 "../os/common/ext/ST/STM32F4xx/system_stm32f4xx.h"
 217              		.file 12 "../os/common/ports/ARMCMx/chcore.h"
 218              		.file 13 "../os/common/ports/ARMCMx/chcore_v7m.h"
 219              		.file 14 "../os/rt/include/chtm.h"
 220              		.file 15 "../os/rt/include/chsem.h"
 221              		.file 16 "../os/rt/include/chmtx.h"
 222              		.file 17 "../os/rt/include/chsys.h"
 223              		.file 18 "../os/rt/include/chregistry.h"
 224              		.file 19 "../os/common/oslib/include/chmemcore.h"
 225              		.file 20 "../os/common/oslib/include/chmempools.h"
 226              		.file 21 "../os/common/oslib/include/chfactory.h"
 227              		.section	.debug_info,"",%progbits
 228              	.Ldebug_info0:
ARM GAS  /var/folders/vd/czx34qs52cd_f3nb04sxmghc0000gn/T//ccrwAV4C.s 			page 5


 229 0000 BF0D0000 		.4byte	0xdbf
 230 0004 0400     		.2byte	0x4
 231 0006 00000000 		.4byte	.Ldebug_abbrev0
 232 000a 04       		.byte	0x4
 233 000b 01       		.uleb128 0x1
 234 000c A1030000 		.4byte	.LASF174
 235 0010 0C       		.byte	0xc
 236 0011 7F020000 		.4byte	.LASF175
 237 0015 2E020000 		.4byte	.LASF176
 238 0019 18000000 		.4byte	.Ldebug_ranges0+0x18
 239 001d 00000000 		.4byte	0
 240 0021 00000000 		.4byte	.Ldebug_line0
 241 0025 02       		.uleb128 0x2
 242 0026 04       		.byte	0x4
 243 0027 05       		.byte	0x5
 244 0028 696E7400 		.ascii	"int\000"
 245 002c 03       		.uleb128 0x3
 246 002d 0D000000 		.4byte	.LASF4
 247 0031 03       		.byte	0x3
 248 0032 D8       		.byte	0xd8
 249 0033 37000000 		.4byte	0x37
 250 0037 04       		.uleb128 0x4
 251 0038 04       		.byte	0x4
 252 0039 07       		.byte	0x7
 253 003a 00020000 		.4byte	.LASF0
 254 003e 04       		.uleb128 0x4
 255 003f 08       		.byte	0x8
 256 0040 05       		.byte	0x5
 257 0041 EC000000 		.4byte	.LASF1
 258 0045 04       		.uleb128 0x4
 259 0046 08       		.byte	0x8
 260 0047 04       		.byte	0x4
 261 0048 92040000 		.4byte	.LASF2
 262 004c 04       		.uleb128 0x4
 263 004d 01       		.byte	0x1
 264 004e 06       		.byte	0x6
 265 004f FA000000 		.4byte	.LASF3
 266 0053 03       		.uleb128 0x3
 267 0054 2A000000 		.4byte	.LASF5
 268 0058 04       		.byte	0x4
 269 0059 2B       		.byte	0x2b
 270 005a 5E000000 		.4byte	0x5e
 271 005e 04       		.uleb128 0x4
 272 005f 01       		.byte	0x1
 273 0060 08       		.byte	0x8
 274 0061 6B050000 		.4byte	.LASF6
 275 0065 04       		.uleb128 0x4
 276 0066 02       		.byte	0x2
 277 0067 05       		.byte	0x5
 278 0068 A2050000 		.4byte	.LASF7
 279 006c 03       		.uleb128 0x3
 280 006d 95060000 		.4byte	.LASF8
 281 0071 04       		.byte	0x4
 282 0072 39       		.byte	0x39
 283 0073 77000000 		.4byte	0x77
 284 0077 04       		.uleb128 0x4
 285 0078 02       		.byte	0x2
ARM GAS  /var/folders/vd/czx34qs52cd_f3nb04sxmghc0000gn/T//ccrwAV4C.s 			page 6


 286 0079 07       		.byte	0x7
 287 007a 1D070000 		.4byte	.LASF9
 288 007e 03       		.uleb128 0x3
 289 007f 50030000 		.4byte	.LASF10
 290 0083 04       		.byte	0x4
 291 0084 4D       		.byte	0x4d
 292 0085 89000000 		.4byte	0x89
 293 0089 04       		.uleb128 0x4
 294 008a 04       		.byte	0x4
 295 008b 05       		.byte	0x5
 296 008c 3B010000 		.4byte	.LASF11
 297 0090 03       		.uleb128 0x3
 298 0091 96010000 		.4byte	.LASF12
 299 0095 04       		.byte	0x4
 300 0096 4F       		.byte	0x4f
 301 0097 9B000000 		.4byte	0x9b
 302 009b 04       		.uleb128 0x4
 303 009c 04       		.byte	0x4
 304 009d 07       		.byte	0x7
 305 009e 68060000 		.4byte	.LASF13
 306 00a2 03       		.uleb128 0x3
 307 00a3 FF040000 		.4byte	.LASF14
 308 00a7 04       		.byte	0x4
 309 00a8 69       		.byte	0x69
 310 00a9 AD000000 		.4byte	0xad
 311 00ad 04       		.uleb128 0x4
 312 00ae 08       		.byte	0x8
 313 00af 07       		.byte	0x7
 314 00b0 7D000000 		.4byte	.LASF15
 315 00b4 03       		.uleb128 0x3
 316 00b5 B0070000 		.4byte	.LASF16
 317 00b9 05       		.byte	0x5
 318 00ba 18       		.byte	0x18
 319 00bb 53000000 		.4byte	0x53
 320 00bf 05       		.uleb128 0x5
 321 00c0 B4000000 		.4byte	0xb4
 322 00c4 06       		.uleb128 0x6
 323 00c5 B4000000 		.4byte	0xb4
 324 00c9 03       		.uleb128 0x3
 325 00ca 5D010000 		.4byte	.LASF17
 326 00ce 05       		.byte	0x5
 327 00cf 24       		.byte	0x24
 328 00d0 6C000000 		.4byte	0x6c
 329 00d4 03       		.uleb128 0x3
 330 00d5 63050000 		.4byte	.LASF18
 331 00d9 05       		.byte	0x5
 332 00da 2C       		.byte	0x2c
 333 00db 7E000000 		.4byte	0x7e
 334 00df 05       		.uleb128 0x5
 335 00e0 D4000000 		.4byte	0xd4
 336 00e4 03       		.uleb128 0x3
 337 00e5 3D060000 		.4byte	.LASF19
 338 00e9 05       		.byte	0x5
 339 00ea 30       		.byte	0x30
 340 00eb 90000000 		.4byte	0x90
 341 00ef 05       		.uleb128 0x5
 342 00f0 E4000000 		.4byte	0xe4
ARM GAS  /var/folders/vd/czx34qs52cd_f3nb04sxmghc0000gn/T//ccrwAV4C.s 			page 7


 343 00f4 06       		.uleb128 0x6
 344 00f5 EF000000 		.4byte	0xef
 345 00f9 03       		.uleb128 0x3
 346 00fa 21000000 		.4byte	.LASF20
 347 00fe 05       		.byte	0x5
 348 00ff 3C       		.byte	0x3c
 349 0100 A2000000 		.4byte	0xa2
 350 0104 03       		.uleb128 0x3
 351 0105 8B030000 		.4byte	.LASF21
 352 0109 06       		.byte	0x6
 353 010a 39       		.byte	0x39
 354 010b E4000000 		.4byte	0xe4
 355 010f 03       		.uleb128 0x3
 356 0110 19030000 		.4byte	.LASF22
 357 0114 06       		.byte	0x6
 358 0115 3C       		.byte	0x3c
 359 0116 B4000000 		.4byte	0xb4
 360 011a 03       		.uleb128 0x3
 361 011b 44010000 		.4byte	.LASF23
 362 011f 06       		.byte	0x6
 363 0120 3D       		.byte	0x3d
 364 0121 B4000000 		.4byte	0xb4
 365 0125 03       		.uleb128 0x3
 366 0126 14050000 		.4byte	.LASF24
 367 012a 06       		.byte	0x6
 368 012b 3E       		.byte	0x3e
 369 012c B4000000 		.4byte	0xb4
 370 0130 03       		.uleb128 0x3
 371 0131 4A050000 		.4byte	.LASF25
 372 0135 06       		.byte	0x6
 373 0136 40       		.byte	0x40
 374 0137 E4000000 		.4byte	0xe4
 375 013b 03       		.uleb128 0x3
 376 013c CC020000 		.4byte	.LASF26
 377 0140 06       		.byte	0x6
 378 0141 41       		.byte	0x41
 379 0142 D4000000 		.4byte	0xd4
 380 0146 03       		.uleb128 0x3
 381 0147 2F030000 		.4byte	.LASF27
 382 014b 06       		.byte	0x6
 383 014c 43       		.byte	0x43
 384 014d E4000000 		.4byte	0xe4
 385 0151 03       		.uleb128 0x3
 386 0152 FA010000 		.4byte	.LASF28
 387 0156 06       		.byte	0x6
 388 0157 45       		.byte	0x45
 389 0158 D4000000 		.4byte	0xd4
 390 015c 03       		.uleb128 0x3
 391 015d DD020000 		.4byte	.LASF29
 392 0161 06       		.byte	0x6
 393 0162 46       		.byte	0x46
 394 0163 E4000000 		.4byte	0xe4
 395 0167 03       		.uleb128 0x3
 396 0168 B5060000 		.4byte	.LASF30
 397 016c 07       		.byte	0x7
 398 016d 34       		.byte	0x34
 399 016e 72010000 		.4byte	0x172
ARM GAS  /var/folders/vd/czx34qs52cd_f3nb04sxmghc0000gn/T//ccrwAV4C.s 			page 8


 400 0172 07       		.uleb128 0x7
 401 0173 B8020000 		.4byte	.LASF48
 402 0177 44       		.byte	0x44
 403 0178 08       		.byte	0x8
 404 0179 8E       		.byte	0x8e
 405 017a 50020000 		.4byte	0x250
 406 017e 08       		.uleb128 0x8
 407 017f 9E040000 		.4byte	.LASF31
 408 0183 08       		.byte	0x8
 409 0184 8F       		.byte	0x8f
 410 0185 85020000 		.4byte	0x285
 411 0189 00       		.byte	0
 412 018a 08       		.uleb128 0x8
 413 018b E9040000 		.4byte	.LASF32
 414 018f 08       		.byte	0x8
 415 0190 90       		.byte	0x90
 416 0191 30010000 		.4byte	0x130
 417 0195 08       		.byte	0x8
 418 0196 09       		.uleb128 0x9
 419 0197 63747800 		.ascii	"ctx\000"
 420 019b 08       		.byte	0x8
 421 019c 91       		.byte	0x91
 422 019d 7D060000 		.4byte	0x67d
 423 01a1 0C       		.byte	0xc
 424 01a2 08       		.uleb128 0x8
 425 01a3 65030000 		.4byte	.LASF33
 426 01a7 08       		.byte	0x8
 427 01a8 93       		.byte	0x93
 428 01a9 5B020000 		.4byte	0x25b
 429 01ad 10       		.byte	0x10
 430 01ae 08       		.uleb128 0x8
 431 01af 86060000 		.4byte	.LASF34
 432 01b3 08       		.byte	0x8
 433 01b4 94       		.byte	0x94
 434 01b5 5B020000 		.4byte	0x25b
 435 01b9 14       		.byte	0x14
 436 01ba 08       		.uleb128 0x8
 437 01bb 75020000 		.4byte	.LASF35
 438 01bf 08       		.byte	0x8
 439 01c0 9B       		.byte	0x9b
 440 01c1 72080000 		.4byte	0x872
 441 01c5 18       		.byte	0x18
 442 01c6 08       		.uleb128 0x8
 443 01c7 7A060000 		.4byte	.LASF36
 444 01cb 08       		.byte	0x8
 445 01cc A4       		.byte	0xa4
 446 01cd 89080000 		.4byte	0x889
 447 01d1 1C       		.byte	0x1c
 448 01d2 08       		.uleb128 0x8
 449 01d3 35010000 		.4byte	.LASF37
 450 01d7 08       		.byte	0x8
 451 01d8 A9       		.byte	0xa9
 452 01d9 1A010000 		.4byte	0x11a
 453 01dd 20       		.byte	0x20
 454 01de 08       		.uleb128 0x8
 455 01df B8070000 		.4byte	.LASF38
 456 01e3 08       		.byte	0x8
ARM GAS  /var/folders/vd/czx34qs52cd_f3nb04sxmghc0000gn/T//ccrwAV4C.s 			page 9


 457 01e4 AD       		.byte	0xad
 458 01e5 0F010000 		.4byte	0x10f
 459 01e9 21       		.byte	0x21
 460 01ea 08       		.uleb128 0x8
 461 01eb E2000000 		.4byte	.LASF39
 462 01ef 08       		.byte	0x8
 463 01f0 B2       		.byte	0xb2
 464 01f1 25010000 		.4byte	0x125
 465 01f5 22       		.byte	0x22
 466 01f6 0A       		.uleb128 0xa
 467 01f7 7500     		.ascii	"u\000"
 468 01f9 08       		.byte	0x8
 469 01fa 0301     		.2byte	0x103
 470 01fc A8070000 		.4byte	0x7a8
 471 0200 24       		.byte	0x24
 472 0201 0B       		.uleb128 0xb
 473 0202 C3010000 		.4byte	.LASF40
 474 0206 08       		.byte	0x8
 475 0207 0801     		.2byte	0x108
 476 0209 61020000 		.4byte	0x261
 477 020d 28       		.byte	0x28
 478 020e 0B       		.uleb128 0xb
 479 020f 2C010000 		.4byte	.LASF41
 480 0213 08       		.byte	0x8
 481 0214 0E01     		.2byte	0x10e
 482 0216 85020000 		.4byte	0x285
 483 021a 2C       		.byte	0x2c
 484 021b 0B       		.uleb128 0xb
 485 021c E4020000 		.4byte	.LASF42
 486 0220 08       		.byte	0x8
 487 0221 1401     		.2byte	0x114
 488 0223 46010000 		.4byte	0x146
 489 0227 34       		.byte	0x34
 490 0228 0B       		.uleb128 0xb
 491 0229 13080000 		.4byte	.LASF43
 492 022d 08       		.byte	0x8
 493 022e 1B01     		.2byte	0x11b
 494 0230 6C080000 		.4byte	0x86c
 495 0234 38       		.byte	0x38
 496 0235 0B       		.uleb128 0xb
 497 0236 7A030000 		.4byte	.LASF44
 498 023a 08       		.byte	0x8
 499 023b 1F01     		.2byte	0x11f
 500 023d 30010000 		.4byte	0x130
 501 0241 3C       		.byte	0x3c
 502 0242 0B       		.uleb128 0xb
 503 0243 65070000 		.4byte	.LASF45
 504 0247 08       		.byte	0x8
 505 0248 2601     		.2byte	0x126
 506 024a 38030000 		.4byte	0x338
 507 024e 40       		.byte	0x40
 508 024f 00       		.byte	0
 509 0250 03       		.uleb128 0x3
 510 0251 D2070000 		.4byte	.LASF46
 511 0255 07       		.byte	0x7
 512 0256 39       		.byte	0x39
 513 0257 5B020000 		.4byte	0x25b
ARM GAS  /var/folders/vd/czx34qs52cd_f3nb04sxmghc0000gn/T//ccrwAV4C.s 			page 10


 514 025b 0C       		.uleb128 0xc
 515 025c 04       		.byte	0x4
 516 025d 67010000 		.4byte	0x167
 517 0261 03       		.uleb128 0x3
 518 0262 6B030000 		.4byte	.LASF47
 519 0266 07       		.byte	0x7
 520 0267 3E       		.byte	0x3e
 521 0268 6C020000 		.4byte	0x26c
 522 026c 07       		.uleb128 0x7
 523 026d 52060000 		.4byte	.LASF49
 524 0271 04       		.byte	0x4
 525 0272 08       		.byte	0x8
 526 0273 7C       		.byte	0x7c
 527 0274 85020000 		.4byte	0x285
 528 0278 08       		.uleb128 0x8
 529 0279 CC000000 		.4byte	.LASF50
 530 027d 08       		.byte	0x8
 531 027e 7D       		.byte	0x7d
 532 027f 5B020000 		.4byte	0x25b
 533 0283 00       		.byte	0
 534 0284 00       		.byte	0
 535 0285 03       		.uleb128 0x3
 536 0286 86070000 		.4byte	.LASF51
 537 028a 07       		.byte	0x7
 538 028b 45       		.byte	0x45
 539 028c 90020000 		.4byte	0x290
 540 0290 07       		.uleb128 0x7
 541 0291 D1000000 		.4byte	.LASF52
 542 0295 08       		.byte	0x8
 543 0296 08       		.byte	0x8
 544 0297 83       		.byte	0x83
 545 0298 B5020000 		.4byte	0x2b5
 546 029c 08       		.uleb128 0x8
 547 029d CC000000 		.4byte	.LASF50
 548 02a1 08       		.byte	0x8
 549 02a2 84       		.byte	0x84
 550 02a3 5B020000 		.4byte	0x25b
 551 02a7 00       		.byte	0
 552 02a8 08       		.uleb128 0x8
 553 02a9 34000000 		.4byte	.LASF53
 554 02ad 08       		.byte	0x8
 555 02ae 85       		.byte	0x85
 556 02af 5B020000 		.4byte	0x25b
 557 02b3 04       		.byte	0x4
 558 02b4 00       		.byte	0
 559 02b5 03       		.uleb128 0x3
 560 02b6 00000000 		.4byte	.LASF54
 561 02ba 07       		.byte	0x7
 562 02bb 4C       		.byte	0x4c
 563 02bc C0020000 		.4byte	0x2c0
 564 02c0 0D       		.uleb128 0xd
 565 02c1 21030000 		.4byte	.LASF55
 566 02c5 1C       		.byte	0x1c
 567 02c6 08       		.byte	0x8
 568 02c7 5E01     		.2byte	0x15e
 569 02c9 1C030000 		.4byte	0x31c
 570 02cd 0B       		.uleb128 0xb
ARM GAS  /var/folders/vd/czx34qs52cd_f3nb04sxmghc0000gn/T//ccrwAV4C.s 			page 11


 571 02ce 9E040000 		.4byte	.LASF31
 572 02d2 08       		.byte	0x8
 573 02d3 5F01     		.2byte	0x15f
 574 02d5 85020000 		.4byte	0x285
 575 02d9 00       		.byte	0
 576 02da 0B       		.uleb128 0xb
 577 02db E9040000 		.4byte	.LASF32
 578 02df 08       		.byte	0x8
 579 02e0 6001     		.2byte	0x160
 580 02e2 30010000 		.4byte	0x130
 581 02e6 08       		.byte	0x8
 582 02e7 0A       		.uleb128 0xa
 583 02e8 63747800 		.ascii	"ctx\000"
 584 02ec 08       		.byte	0x8
 585 02ed 6201     		.2byte	0x162
 586 02ef 7D060000 		.4byte	0x67d
 587 02f3 0C       		.byte	0xc
 588 02f4 0B       		.uleb128 0xb
 589 02f5 65030000 		.4byte	.LASF33
 590 02f9 08       		.byte	0x8
 591 02fa 6501     		.2byte	0x165
 592 02fc 5B020000 		.4byte	0x25b
 593 0300 10       		.byte	0x10
 594 0301 0B       		.uleb128 0xb
 595 0302 86060000 		.4byte	.LASF34
 596 0306 08       		.byte	0x8
 597 0307 6601     		.2byte	0x166
 598 0309 5B020000 		.4byte	0x25b
 599 030d 14       		.byte	0x14
 600 030e 0B       		.uleb128 0xb
 601 030f F7040000 		.4byte	.LASF56
 602 0313 08       		.byte	0x8
 603 0314 6901     		.2byte	0x169
 604 0316 5B020000 		.4byte	0x25b
 605 031a 18       		.byte	0x18
 606 031b 00       		.byte	0
 607 031c 03       		.uleb128 0x3
 608 031d D3060000 		.4byte	.LASF57
 609 0321 07       		.byte	0x7
 610 0322 51       		.byte	0x51
 611 0323 27030000 		.4byte	0x327
 612 0327 0C       		.uleb128 0xc
 613 0328 04       		.byte	0x4
 614 0329 2D030000 		.4byte	0x32d
 615 032d 0E       		.uleb128 0xe
 616 032e 38030000 		.4byte	0x338
 617 0332 0F       		.uleb128 0xf
 618 0333 38030000 		.4byte	0x338
 619 0337 00       		.byte	0
 620 0338 10       		.uleb128 0x10
 621 0339 04       		.byte	0x4
 622 033a 03       		.uleb128 0x3
 623 033b 2B050000 		.4byte	.LASF58
 624 033f 07       		.byte	0x7
 625 0340 56       		.byte	0x56
 626 0341 45030000 		.4byte	0x345
 627 0345 0D       		.uleb128 0xd
ARM GAS  /var/folders/vd/czx34qs52cd_f3nb04sxmghc0000gn/T//ccrwAV4C.s 			page 12


 628 0346 FB050000 		.4byte	.LASF59
 629 034a 14       		.byte	0x14
 630 034b 08       		.byte	0x8
 631 034c 3901     		.2byte	0x139
 632 034e 94030000 		.4byte	0x394
 633 0352 0B       		.uleb128 0xb
 634 0353 CC000000 		.4byte	.LASF50
 635 0357 08       		.byte	0x8
 636 0358 3A01     		.2byte	0x13a
 637 035a 8F080000 		.4byte	0x88f
 638 035e 00       		.byte	0
 639 035f 0B       		.uleb128 0xb
 640 0360 34000000 		.4byte	.LASF53
 641 0364 08       		.byte	0x8
 642 0365 3B01     		.2byte	0x13b
 643 0367 8F080000 		.4byte	0x88f
 644 036b 04       		.byte	0x4
 645 036c 0B       		.uleb128 0xb
 646 036d 14000000 		.4byte	.LASF60
 647 0371 08       		.byte	0x8
 648 0372 3C01     		.2byte	0x13c
 649 0374 6B040000 		.4byte	0x46b
 650 0378 08       		.byte	0x8
 651 0379 0B       		.uleb128 0xb
 652 037a 4D010000 		.4byte	.LASF61
 653 037e 08       		.byte	0x8
 654 037f 3D01     		.2byte	0x13d
 655 0381 1C030000 		.4byte	0x31c
 656 0385 0C       		.byte	0xc
 657 0386 0A       		.uleb128 0xa
 658 0387 70617200 		.ascii	"par\000"
 659 038b 08       		.byte	0x8
 660 038c 3F01     		.2byte	0x13f
 661 038e 38030000 		.4byte	0x338
 662 0392 10       		.byte	0x10
 663 0393 00       		.byte	0
 664 0394 03       		.uleb128 0x3
 665 0395 B0000000 		.4byte	.LASF62
 666 0399 07       		.byte	0x7
 667 039a 5B       		.byte	0x5b
 668 039b 9F030000 		.4byte	0x39f
 669 039f 0D       		.uleb128 0xd
 670 03a0 7B040000 		.4byte	.LASF63
 671 03a4 10       		.byte	0x10
 672 03a5 08       		.byte	0x8
 673 03a6 4901     		.2byte	0x149
 674 03a8 E1030000 		.4byte	0x3e1
 675 03ac 0B       		.uleb128 0xb
 676 03ad CC000000 		.4byte	.LASF50
 677 03b1 08       		.byte	0x8
 678 03b2 4A01     		.2byte	0x14a
 679 03b4 8F080000 		.4byte	0x88f
 680 03b8 00       		.byte	0
 681 03b9 0B       		.uleb128 0xb
 682 03ba 34000000 		.4byte	.LASF53
 683 03be 08       		.byte	0x8
 684 03bf 4C01     		.2byte	0x14c
ARM GAS  /var/folders/vd/czx34qs52cd_f3nb04sxmghc0000gn/T//ccrwAV4C.s 			page 13


 685 03c1 8F080000 		.4byte	0x88f
 686 03c5 04       		.byte	0x4
 687 03c6 0B       		.uleb128 0xb
 688 03c7 14000000 		.4byte	.LASF60
 689 03cb 08       		.byte	0x8
 690 03cc 4E01     		.2byte	0x14e
 691 03ce 6B040000 		.4byte	0x46b
 692 03d2 08       		.byte	0x8
 693 03d3 0B       		.uleb128 0xb
 694 03d4 AC050000 		.4byte	.LASF64
 695 03d8 08       		.byte	0x8
 696 03d9 5601     		.2byte	0x156
 697 03db 60040000 		.4byte	0x460
 698 03df 0C       		.byte	0xc
 699 03e0 00       		.byte	0
 700 03e1 03       		.uleb128 0x3
 701 03e2 45000000 		.4byte	.LASF65
 702 03e6 07       		.byte	0x7
 703 03e7 60       		.byte	0x60
 704 03e8 EC030000 		.4byte	0x3ec
 705 03ec 0D       		.uleb128 0xd
 706 03ed B3010000 		.4byte	.LASF66
 707 03f1 04       		.byte	0x4
 708 03f2 08       		.byte	0x8
 709 03f3 7001     		.2byte	0x170
 710 03f5 07040000 		.4byte	0x407
 711 03f9 0B       		.uleb128 0xb
 712 03fa EA060000 		.4byte	.LASF67
 713 03fe 08       		.byte	0x8
 714 03ff 7801     		.2byte	0x178
 715 0401 78080000 		.4byte	0x878
 716 0405 00       		.byte	0
 717 0406 00       		.byte	0
 718 0407 03       		.uleb128 0x3
 719 0408 30070000 		.4byte	.LASF68
 720 040c 07       		.byte	0x7
 721 040d 65       		.byte	0x65
 722 040e 12040000 		.4byte	0x412
 723 0412 0D       		.uleb128 0xd
 724 0413 C1050000 		.4byte	.LASF69
 725 0417 78       		.byte	0x78
 726 0418 08       		.byte	0x8
 727 0419 9001     		.2byte	0x190
 728 041b 60040000 		.4byte	0x460
 729 041f 0B       		.uleb128 0xb
 730 0420 0B010000 		.4byte	.LASF70
 731 0424 08       		.byte	0x8
 732 0425 9401     		.2byte	0x194
 733 0427 B5020000 		.4byte	0x2b5
 734 042b 00       		.byte	0
 735 042c 0B       		.uleb128 0xb
 736 042d 19010000 		.4byte	.LASF71
 737 0431 08       		.byte	0x8
 738 0432 9801     		.2byte	0x198
 739 0434 94030000 		.4byte	0x394
 740 0438 1C       		.byte	0x1c
 741 0439 0A       		.uleb128 0xa
ARM GAS  /var/folders/vd/czx34qs52cd_f3nb04sxmghc0000gn/T//ccrwAV4C.s 			page 14


 742 043a 64626700 		.ascii	"dbg\000"
 743 043e 08       		.byte	0x8
 744 043f 9C01     		.2byte	0x19c
 745 0441 E1030000 		.4byte	0x3e1
 746 0445 2C       		.byte	0x2c
 747 0446 0B       		.uleb128 0xb
 748 0447 9D000000 		.4byte	.LASF72
 749 044b 08       		.byte	0x8
 750 044c A001     		.2byte	0x1a0
 751 044e 67010000 		.4byte	0x167
 752 0452 30       		.byte	0x30
 753 0453 0A       		.uleb128 0xa
 754 0454 746D00   		.ascii	"tm\000"
 755 0457 08       		.byte	0x8
 756 0458 A501     		.2byte	0x1a5
 757 045a 9D070000 		.4byte	0x79d
 758 045e 74       		.byte	0x74
 759 045f 00       		.byte	0
 760 0460 03       		.uleb128 0x3
 761 0461 C9060000 		.4byte	.LASF73
 762 0465 09       		.byte	0x9
 763 0466 8C       		.byte	0x8c
 764 0467 E4000000 		.4byte	0xe4
 765 046b 03       		.uleb128 0x3
 766 046c EC010000 		.4byte	.LASF74
 767 0470 09       		.byte	0x9
 768 0471 98       		.byte	0x98
 769 0472 E4000000 		.4byte	0xe4
 770 0476 11       		.uleb128 0x11
 771 0477 8C       		.byte	0x8c
 772 0478 0A       		.byte	0xa
 773 0479 B801     		.2byte	0x1b8
 774 047b 91050000 		.4byte	0x591
 775 047f 0B       		.uleb128 0xb
 776 0480 C6000000 		.4byte	.LASF75
 777 0484 0A       		.byte	0xa
 778 0485 BA01     		.2byte	0x1ba
 779 0487 F4000000 		.4byte	0xf4
 780 048b 00       		.byte	0
 781 048c 0B       		.uleb128 0xb
 782 048d C7020000 		.4byte	.LASF76
 783 0491 0A       		.byte	0xa
 784 0492 BB01     		.2byte	0x1bb
 785 0494 EF000000 		.4byte	0xef
 786 0498 04       		.byte	0x4
 787 0499 0B       		.uleb128 0xb
 788 049a 7A020000 		.4byte	.LASF77
 789 049e 0A       		.byte	0xa
 790 049f BC01     		.2byte	0x1bc
 791 04a1 EF000000 		.4byte	0xef
 792 04a5 08       		.byte	0x8
 793 04a6 0B       		.uleb128 0xb
 794 04a7 D2020000 		.4byte	.LASF78
 795 04ab 0A       		.byte	0xa
 796 04ac BD01     		.2byte	0x1bd
 797 04ae EF000000 		.4byte	0xef
 798 04b2 0C       		.byte	0xc
ARM GAS  /var/folders/vd/czx34qs52cd_f3nb04sxmghc0000gn/T//ccrwAV4C.s 			page 15


 799 04b3 0A       		.uleb128 0xa
 800 04b4 53435200 		.ascii	"SCR\000"
 801 04b8 0A       		.byte	0xa
 802 04b9 BE01     		.2byte	0x1be
 803 04bb EF000000 		.4byte	0xef
 804 04bf 10       		.byte	0x10
 805 04c0 0A       		.uleb128 0xa
 806 04c1 43435200 		.ascii	"CCR\000"
 807 04c5 0A       		.byte	0xa
 808 04c6 BF01     		.2byte	0x1bf
 809 04c8 EF000000 		.4byte	0xef
 810 04cc 14       		.byte	0x14
 811 04cd 0A       		.uleb128 0xa
 812 04ce 53485000 		.ascii	"SHP\000"
 813 04d2 0A       		.byte	0xa
 814 04d3 C001     		.2byte	0x1c0
 815 04d5 A1050000 		.4byte	0x5a1
 816 04d9 18       		.byte	0x18
 817 04da 0B       		.uleb128 0xb
 818 04db 8F050000 		.4byte	.LASF79
 819 04df 0A       		.byte	0xa
 820 04e0 C101     		.2byte	0x1c1
 821 04e2 EF000000 		.4byte	0xef
 822 04e6 24       		.byte	0x24
 823 04e7 0B       		.uleb128 0xb
 824 04e8 B0040000 		.4byte	.LASF80
 825 04ec 0A       		.byte	0xa
 826 04ed C201     		.2byte	0x1c2
 827 04ef EF000000 		.4byte	0xef
 828 04f3 28       		.byte	0x28
 829 04f4 0B       		.uleb128 0xb
 830 04f5 0E080000 		.4byte	.LASF81
 831 04f9 0A       		.byte	0xa
 832 04fa C301     		.2byte	0x1c3
 833 04fc EF000000 		.4byte	0xef
 834 0500 2C       		.byte	0x2c
 835 0501 0B       		.uleb128 0xb
 836 0502 D8020000 		.4byte	.LASF82
 837 0506 0A       		.byte	0xa
 838 0507 C401     		.2byte	0x1c4
 839 0509 EF000000 		.4byte	0xef
 840 050d 30       		.byte	0x30
 841 050e 0B       		.uleb128 0xb
 842 050f F8020000 		.4byte	.LASF83
 843 0513 0A       		.byte	0xa
 844 0514 C501     		.2byte	0x1c5
 845 0516 EF000000 		.4byte	0xef
 846 051a 34       		.byte	0x34
 847 051b 0B       		.uleb128 0xb
 848 051c C2020000 		.4byte	.LASF84
 849 0520 0A       		.byte	0xa
 850 0521 C601     		.2byte	0x1c6
 851 0523 EF000000 		.4byte	0xef
 852 0527 38       		.byte	0x38
 853 0528 0B       		.uleb128 0xb
 854 0529 4D060000 		.4byte	.LASF85
 855 052d 0A       		.byte	0xa
ARM GAS  /var/folders/vd/czx34qs52cd_f3nb04sxmghc0000gn/T//ccrwAV4C.s 			page 16


 856 052e C701     		.2byte	0x1c7
 857 0530 EF000000 		.4byte	0xef
 858 0534 3C       		.byte	0x3c
 859 0535 0A       		.uleb128 0xa
 860 0536 50465200 		.ascii	"PFR\000"
 861 053a 0A       		.byte	0xa
 862 053b C801     		.2byte	0x1c8
 863 053d BB050000 		.4byte	0x5bb
 864 0541 40       		.byte	0x40
 865 0542 0A       		.uleb128 0xa
 866 0543 44465200 		.ascii	"DFR\000"
 867 0547 0A       		.byte	0xa
 868 0548 C901     		.2byte	0x1c9
 869 054a F4000000 		.4byte	0xf4
 870 054e 48       		.byte	0x48
 871 054f 0A       		.uleb128 0xa
 872 0550 41445200 		.ascii	"ADR\000"
 873 0554 0A       		.byte	0xa
 874 0555 CA01     		.2byte	0x1ca
 875 0557 F4000000 		.4byte	0xf4
 876 055b 4C       		.byte	0x4c
 877 055c 0B       		.uleb128 0xb
 878 055d A2070000 		.4byte	.LASF86
 879 0561 0A       		.byte	0xa
 880 0562 CB01     		.2byte	0x1cb
 881 0564 D5050000 		.4byte	0x5d5
 882 0568 50       		.byte	0x50
 883 0569 0B       		.uleb128 0xb
 884 056a E7000000 		.4byte	.LASF87
 885 056e 0A       		.byte	0xa
 886 056f CC01     		.2byte	0x1cc
 887 0571 EF050000 		.4byte	0x5ef
 888 0575 60       		.byte	0x60
 889 0576 0B       		.uleb128 0xb
 890 0577 1C050000 		.4byte	.LASF88
 891 057b 0A       		.byte	0xa
 892 057c CD01     		.2byte	0x1cd
 893 057e F4050000 		.4byte	0x5f4
 894 0582 74       		.byte	0x74
 895 0583 0B       		.uleb128 0xb
 896 0584 08080000 		.4byte	.LASF89
 897 0588 0A       		.byte	0xa
 898 0589 CE01     		.2byte	0x1ce
 899 058b EF000000 		.4byte	0xef
 900 058f 88       		.byte	0x88
 901 0590 00       		.byte	0
 902 0591 12       		.uleb128 0x12
 903 0592 BF000000 		.4byte	0xbf
 904 0596 A1050000 		.4byte	0x5a1
 905 059a 13       		.uleb128 0x13
 906 059b 37000000 		.4byte	0x37
 907 059f 0B       		.byte	0xb
 908 05a0 00       		.byte	0
 909 05a1 05       		.uleb128 0x5
 910 05a2 91050000 		.4byte	0x591
 911 05a6 12       		.uleb128 0x12
 912 05a7 F4000000 		.4byte	0xf4
ARM GAS  /var/folders/vd/czx34qs52cd_f3nb04sxmghc0000gn/T//ccrwAV4C.s 			page 17


 913 05ab B6050000 		.4byte	0x5b6
 914 05af 13       		.uleb128 0x13
 915 05b0 37000000 		.4byte	0x37
 916 05b4 01       		.byte	0x1
 917 05b5 00       		.byte	0
 918 05b6 06       		.uleb128 0x6
 919 05b7 A6050000 		.4byte	0x5a6
 920 05bb 05       		.uleb128 0x5
 921 05bc B6050000 		.4byte	0x5b6
 922 05c0 12       		.uleb128 0x12
 923 05c1 F4000000 		.4byte	0xf4
 924 05c5 D0050000 		.4byte	0x5d0
 925 05c9 13       		.uleb128 0x13
 926 05ca 37000000 		.4byte	0x37
 927 05ce 03       		.byte	0x3
 928 05cf 00       		.byte	0
 929 05d0 06       		.uleb128 0x6
 930 05d1 C0050000 		.4byte	0x5c0
 931 05d5 05       		.uleb128 0x5
 932 05d6 D0050000 		.4byte	0x5d0
 933 05da 12       		.uleb128 0x12
 934 05db F4000000 		.4byte	0xf4
 935 05df EA050000 		.4byte	0x5ea
 936 05e3 13       		.uleb128 0x13
 937 05e4 37000000 		.4byte	0x37
 938 05e8 04       		.byte	0x4
 939 05e9 00       		.byte	0
 940 05ea 06       		.uleb128 0x6
 941 05eb DA050000 		.4byte	0x5da
 942 05ef 05       		.uleb128 0x5
 943 05f0 EA050000 		.4byte	0x5ea
 944 05f4 12       		.uleb128 0x12
 945 05f5 E4000000 		.4byte	0xe4
 946 05f9 04060000 		.4byte	0x604
 947 05fd 13       		.uleb128 0x13
 948 05fe 37000000 		.4byte	0x37
 949 0602 04       		.byte	0x4
 950 0603 00       		.byte	0
 951 0604 14       		.uleb128 0x14
 952 0605 AA010000 		.4byte	.LASF90
 953 0609 0A       		.byte	0xa
 954 060a CF01     		.2byte	0x1cf
 955 060c 76040000 		.4byte	0x476
 956 0610 15       		.uleb128 0x15
 957 0611 95050000 		.4byte	.LASF91
 958 0615 0A       		.byte	0xa
 959 0616 F407     		.2byte	0x7f4
 960 0618 DF000000 		.4byte	0xdf
 961 061c 16       		.uleb128 0x16
 962 061d 17020000 		.4byte	.LASF92
 963 0621 0B       		.byte	0xb
 964 0622 4C       		.byte	0x4c
 965 0623 E4000000 		.4byte	0xe4
 966 0627 12       		.uleb128 0x12
 967 0628 C4000000 		.4byte	0xc4
 968 062c 37060000 		.4byte	0x637
 969 0630 13       		.uleb128 0x13
ARM GAS  /var/folders/vd/czx34qs52cd_f3nb04sxmghc0000gn/T//ccrwAV4C.s 			page 18


 970 0631 37000000 		.4byte	0x37
 971 0635 0F       		.byte	0xf
 972 0636 00       		.byte	0
 973 0637 06       		.uleb128 0x6
 974 0638 27060000 		.4byte	0x627
 975 063c 16       		.uleb128 0x16
 976 063d 3B030000 		.4byte	.LASF93
 977 0641 0B       		.byte	0xb
 978 0642 4E       		.byte	0x4e
 979 0643 37060000 		.4byte	0x637
 980 0647 12       		.uleb128 0x12
 981 0648 C4000000 		.4byte	0xc4
 982 064c 57060000 		.4byte	0x657
 983 0650 13       		.uleb128 0x13
 984 0651 37000000 		.4byte	0x37
 985 0655 07       		.byte	0x7
 986 0656 00       		.byte	0
 987 0657 06       		.uleb128 0x6
 988 0658 47060000 		.4byte	0x647
 989 065c 16       		.uleb128 0x16
 990 065d CB010000 		.4byte	.LASF94
 991 0661 0B       		.byte	0xb
 992 0662 4F       		.byte	0x4f
 993 0663 57060000 		.4byte	0x657
 994 0667 03       		.uleb128 0x3
 995 0668 A1010000 		.4byte	.LASF95
 996 066c 0C       		.byte	0xc
 997 066d 65       		.byte	0x65
 998 066e 38030000 		.4byte	0x338
 999 0672 03       		.uleb128 0x3
 1000 0673 5A030000 		.4byte	.LASF96
 1001 0677 0C       		.byte	0xc
 1002 0678 6D       		.byte	0x6d
 1003 0679 F9000000 		.4byte	0xf9
 1004 067d 07       		.uleb128 0x7
 1005 067e BF040000 		.4byte	.LASF97
 1006 0682 04       		.byte	0x4
 1007 0683 0C       		.byte	0xc
 1008 0684 89       		.byte	0x89
 1009 0685 95060000 		.4byte	0x695
 1010 0689 09       		.uleb128 0x9
 1011 068a 737000   		.ascii	"sp\000"
 1012 068d 0C       		.byte	0xc
 1013 068e 8A       		.byte	0x8a
 1014 068f 11070000 		.4byte	0x711
 1015 0693 00       		.byte	0
 1016 0694 00       		.byte	0
 1017 0695 0D       		.uleb128 0xd
 1018 0696 39000000 		.4byte	.LASF98
 1019 069a 24       		.byte	0x24
 1020 069b 0D       		.byte	0xd
 1021 069c 5901     		.2byte	0x159
 1022 069e 11070000 		.4byte	0x711
 1023 06a2 0A       		.uleb128 0xa
 1024 06a3 723400   		.ascii	"r4\000"
 1025 06a6 0D       		.byte	0xd
 1026 06a7 6C01     		.2byte	0x16c
ARM GAS  /var/folders/vd/czx34qs52cd_f3nb04sxmghc0000gn/T//ccrwAV4C.s 			page 19


 1027 06a9 67060000 		.4byte	0x667
 1028 06ad 00       		.byte	0
 1029 06ae 0A       		.uleb128 0xa
 1030 06af 723500   		.ascii	"r5\000"
 1031 06b2 0D       		.byte	0xd
 1032 06b3 6D01     		.2byte	0x16d
 1033 06b5 67060000 		.4byte	0x667
 1034 06b9 04       		.byte	0x4
 1035 06ba 0A       		.uleb128 0xa
 1036 06bb 723600   		.ascii	"r6\000"
 1037 06be 0D       		.byte	0xd
 1038 06bf 6E01     		.2byte	0x16e
 1039 06c1 67060000 		.4byte	0x667
 1040 06c5 08       		.byte	0x8
 1041 06c6 0A       		.uleb128 0xa
 1042 06c7 723700   		.ascii	"r7\000"
 1043 06ca 0D       		.byte	0xd
 1044 06cb 6F01     		.2byte	0x16f
 1045 06cd 67060000 		.4byte	0x667
 1046 06d1 0C       		.byte	0xc
 1047 06d2 0A       		.uleb128 0xa
 1048 06d3 723800   		.ascii	"r8\000"
 1049 06d6 0D       		.byte	0xd
 1050 06d7 7001     		.2byte	0x170
 1051 06d9 67060000 		.4byte	0x667
 1052 06dd 10       		.byte	0x10
 1053 06de 0A       		.uleb128 0xa
 1054 06df 723900   		.ascii	"r9\000"
 1055 06e2 0D       		.byte	0xd
 1056 06e3 7101     		.2byte	0x171
 1057 06e5 67060000 		.4byte	0x667
 1058 06e9 14       		.byte	0x14
 1059 06ea 0A       		.uleb128 0xa
 1060 06eb 72313000 		.ascii	"r10\000"
 1061 06ef 0D       		.byte	0xd
 1062 06f0 7201     		.2byte	0x172
 1063 06f2 67060000 		.4byte	0x667
 1064 06f6 18       		.byte	0x18
 1065 06f7 0A       		.uleb128 0xa
 1066 06f8 72313100 		.ascii	"r11\000"
 1067 06fc 0D       		.byte	0xd
 1068 06fd 7301     		.2byte	0x173
 1069 06ff 67060000 		.4byte	0x667
 1070 0703 1C       		.byte	0x1c
 1071 0704 0A       		.uleb128 0xa
 1072 0705 6C7200   		.ascii	"lr\000"
 1073 0708 0D       		.byte	0xd
 1074 0709 7401     		.2byte	0x174
 1075 070b 67060000 		.4byte	0x667
 1076 070f 20       		.byte	0x20
 1077 0710 00       		.byte	0
 1078 0711 0C       		.uleb128 0xc
 1079 0712 04       		.byte	0x4
 1080 0713 95060000 		.4byte	0x695
 1081 0717 0D       		.uleb128 0xd
 1082 0718 CC040000 		.4byte	.LASF99
 1083 071c 20       		.byte	0x20
ARM GAS  /var/folders/vd/czx34qs52cd_f3nb04sxmghc0000gn/T//ccrwAV4C.s 			page 20


 1084 071d 0D       		.byte	0xd
 1085 071e 3A01     		.2byte	0x13a
 1086 0720 88070000 		.4byte	0x788
 1087 0724 0A       		.uleb128 0xa
 1088 0725 723000   		.ascii	"r0\000"
 1089 0728 0D       		.byte	0xd
 1090 0729 3B01     		.2byte	0x13b
 1091 072b 67060000 		.4byte	0x667
 1092 072f 00       		.byte	0
 1093 0730 0A       		.uleb128 0xa
 1094 0731 723100   		.ascii	"r1\000"
 1095 0734 0D       		.byte	0xd
 1096 0735 3C01     		.2byte	0x13c
 1097 0737 67060000 		.4byte	0x667
 1098 073b 04       		.byte	0x4
 1099 073c 0A       		.uleb128 0xa
 1100 073d 723200   		.ascii	"r2\000"
 1101 0740 0D       		.byte	0xd
 1102 0741 3D01     		.2byte	0x13d
 1103 0743 67060000 		.4byte	0x667
 1104 0747 08       		.byte	0x8
 1105 0748 0A       		.uleb128 0xa
 1106 0749 723300   		.ascii	"r3\000"
 1107 074c 0D       		.byte	0xd
 1108 074d 3E01     		.2byte	0x13e
 1109 074f 67060000 		.4byte	0x667
 1110 0753 0C       		.byte	0xc
 1111 0754 0A       		.uleb128 0xa
 1112 0755 72313200 		.ascii	"r12\000"
 1113 0759 0D       		.byte	0xd
 1114 075a 3F01     		.2byte	0x13f
 1115 075c 67060000 		.4byte	0x667
 1116 0760 10       		.byte	0x10
 1117 0761 0B       		.uleb128 0xb
 1118 0762 D6050000 		.4byte	.LASF100
 1119 0766 0D       		.byte	0xd
 1120 0767 4001     		.2byte	0x140
 1121 0769 67060000 		.4byte	0x667
 1122 076d 14       		.byte	0x14
 1123 076e 0A       		.uleb128 0xa
 1124 076f 706300   		.ascii	"pc\000"
 1125 0772 0D       		.byte	0xd
 1126 0773 4101     		.2byte	0x141
 1127 0775 67060000 		.4byte	0x667
 1128 0779 18       		.byte	0x18
 1129 077a 0B       		.uleb128 0xb
 1130 077b B5050000 		.4byte	.LASF101
 1131 077f 0D       		.byte	0xd
 1132 0780 4201     		.2byte	0x142
 1133 0782 67060000 		.4byte	0x667
 1134 0786 1C       		.byte	0x1c
 1135 0787 00       		.byte	0
 1136 0788 17       		.uleb128 0x17
 1137 0789 04       		.byte	0x4
 1138 078a 0E       		.byte	0xe
 1139 078b 38       		.byte	0x38
 1140 078c 9D070000 		.4byte	0x79d
ARM GAS  /var/folders/vd/czx34qs52cd_f3nb04sxmghc0000gn/T//ccrwAV4C.s 			page 21


 1141 0790 08       		.uleb128 0x8
 1142 0791 03070000 		.4byte	.LASF102
 1143 0795 0E       		.byte	0xe
 1144 0796 3C       		.byte	0x3c
 1145 0797 04010000 		.4byte	0x104
 1146 079b 00       		.byte	0
 1147 079c 00       		.byte	0
 1148 079d 03       		.uleb128 0x3
 1149 079e D8040000 		.4byte	.LASF103
 1150 07a2 0E       		.byte	0xe
 1151 07a3 3D       		.byte	0x3d
 1152 07a4 88070000 		.4byte	0x788
 1153 07a8 18       		.uleb128 0x18
 1154 07a9 04       		.byte	0x4
 1155 07aa 08       		.byte	0x8
 1156 07ab C6       		.byte	0xc6
 1157 07ac 0A080000 		.4byte	0x80a
 1158 07b0 19       		.uleb128 0x19
 1159 07b1 1A000000 		.4byte	.LASF104
 1160 07b5 08       		.byte	0x8
 1161 07b6 CD       		.byte	0xcd
 1162 07b7 3B010000 		.4byte	0x13b
 1163 07bb 19       		.uleb128 0x19
 1164 07bc 94000000 		.4byte	.LASF105
 1165 07c0 08       		.byte	0x8
 1166 07c1 D4       		.byte	0xd4
 1167 07c2 3B010000 		.4byte	0x13b
 1168 07c6 19       		.uleb128 0x19
 1169 07c7 E5070000 		.4byte	.LASF106
 1170 07cb 08       		.byte	0x8
 1171 07cc DB       		.byte	0xdb
 1172 07cd 38030000 		.4byte	0x338
 1173 07d1 19       		.uleb128 0x19
 1174 07d2 58020000 		.4byte	.LASF107
 1175 07d6 08       		.byte	0x8
 1176 07d7 E2       		.byte	0xe2
 1177 07d8 0A080000 		.4byte	0x80a
 1178 07dc 19       		.uleb128 0x19
 1179 07dd A8000000 		.4byte	.LASF108
 1180 07e1 08       		.byte	0x8
 1181 07e2 E7       		.byte	0xe7
 1182 07e3 3B010000 		.4byte	0x13b
 1183 07e7 19       		.uleb128 0x19
 1184 07e8 27020000 		.4byte	.LASF109
 1185 07ec 08       		.byte	0x8
 1186 07ed F0       		.byte	0xf0
 1187 07ee 35080000 		.4byte	0x835
 1188 07f2 19       		.uleb128 0x19
 1189 07f3 46060000 		.4byte	.LASF110
 1190 07f7 08       		.byte	0x8
 1191 07f8 F9       		.byte	0xf9
 1192 07f9 6C080000 		.4byte	0x86c
 1193 07fd 1A       		.uleb128 0x1a
 1194 07fe BA050000 		.4byte	.LASF111
 1195 0802 08       		.byte	0x8
 1196 0803 0101     		.2byte	0x101
 1197 0805 46010000 		.4byte	0x146
ARM GAS  /var/folders/vd/czx34qs52cd_f3nb04sxmghc0000gn/T//ccrwAV4C.s 			page 22


 1198 0809 00       		.byte	0
 1199 080a 0C       		.uleb128 0xc
 1200 080b 04       		.byte	0x4
 1201 080c 50020000 		.4byte	0x250
 1202 0810 07       		.uleb128 0x7
 1203 0811 0C060000 		.4byte	.LASF112
 1204 0815 0C       		.byte	0xc
 1205 0816 0F       		.byte	0xf
 1206 0817 34       		.byte	0x34
 1207 0818 35080000 		.4byte	0x835
 1208 081c 08       		.uleb128 0x8
 1209 081d 9E040000 		.4byte	.LASF31
 1210 0821 0F       		.byte	0xf
 1211 0822 35       		.byte	0x35
 1212 0823 85020000 		.4byte	0x285
 1213 0827 00       		.byte	0
 1214 0828 09       		.uleb128 0x9
 1215 0829 636E7400 		.ascii	"cnt\000"
 1216 082d 0F       		.byte	0xf
 1217 082e 37       		.byte	0x37
 1218 082f 51010000 		.4byte	0x151
 1219 0833 08       		.byte	0x8
 1220 0834 00       		.byte	0
 1221 0835 0C       		.uleb128 0xc
 1222 0836 04       		.byte	0x4
 1223 0837 10080000 		.4byte	0x810
 1224 083b 07       		.uleb128 0x7
 1225 083c 0A070000 		.4byte	.LASF113
 1226 0840 10       		.byte	0x10
 1227 0841 10       		.byte	0x10
 1228 0842 39       		.byte	0x39
 1229 0843 6C080000 		.4byte	0x86c
 1230 0847 08       		.uleb128 0x8
 1231 0848 9E040000 		.4byte	.LASF31
 1232 084c 10       		.byte	0x10
 1233 084d 3A       		.byte	0x3a
 1234 084e 85020000 		.4byte	0x285
 1235 0852 00       		.byte	0
 1236 0853 08       		.uleb128 0x8
 1237 0854 62060000 		.4byte	.LASF114
 1238 0858 10       		.byte	0x10
 1239 0859 3C       		.byte	0x3c
 1240 085a 5B020000 		.4byte	0x25b
 1241 085e 08       		.byte	0x8
 1242 085f 08       		.uleb128 0x8
 1243 0860 CC000000 		.4byte	.LASF50
 1244 0864 10       		.byte	0x10
 1245 0865 3E       		.byte	0x3e
 1246 0866 CE090000 		.4byte	0x9ce
 1247 086a 0C       		.byte	0xc
 1248 086b 00       		.byte	0
 1249 086c 0C       		.uleb128 0xc
 1250 086d 04       		.byte	0x4
 1251 086e 3B080000 		.4byte	0x83b
 1252 0872 0C       		.uleb128 0xc
 1253 0873 04       		.byte	0x4
 1254 0874 84080000 		.4byte	0x884
ARM GAS  /var/folders/vd/czx34qs52cd_f3nb04sxmghc0000gn/T//ccrwAV4C.s 			page 23


 1255 0878 05       		.uleb128 0x5
 1256 0879 72080000 		.4byte	0x872
 1257 087d 04       		.uleb128 0x4
 1258 087e 01       		.byte	0x1
 1259 087f 08       		.byte	0x8
 1260 0880 81060000 		.4byte	.LASF115
 1261 0884 06       		.uleb128 0x6
 1262 0885 7D080000 		.4byte	0x87d
 1263 0889 0C       		.uleb128 0xc
 1264 088a 04       		.byte	0x4
 1265 088b 72060000 		.4byte	0x672
 1266 088f 0C       		.uleb128 0xc
 1267 0890 04       		.byte	0x4
 1268 0891 3A030000 		.4byte	0x33a
 1269 0895 1B       		.uleb128 0x1b
 1270 0896 636800   		.ascii	"ch\000"
 1271 0899 08       		.byte	0x8
 1272 089a C701     		.2byte	0x1c7
 1273 089c 07040000 		.4byte	0x407
 1274 08a0 12       		.uleb128 0x12
 1275 08a1 72060000 		.4byte	0x672
 1276 08a5 AB080000 		.4byte	0x8ab
 1277 08a9 1C       		.uleb128 0x1c
 1278 08aa 00       		.byte	0
 1279 08ab 15       		.uleb128 0x15
 1280 08ac 22060000 		.4byte	.LASF116
 1281 08b0 11       		.byte	0x11
 1282 08b1 1701     		.2byte	0x117
 1283 08b3 A0080000 		.4byte	0x8a0
 1284 08b7 17       		.uleb128 0x17
 1285 08b8 16       		.byte	0x16
 1286 08b9 12       		.byte	0x12
 1287 08ba 34       		.byte	0x34
 1288 08bb 98090000 		.4byte	0x998
 1289 08bf 08       		.uleb128 0x8
 1290 08c0 52010000 		.4byte	.LASF117
 1291 08c4 12       		.byte	0x12
 1292 08c5 35       		.byte	0x35
 1293 08c6 98090000 		.4byte	0x998
 1294 08ca 00       		.byte	0
 1295 08cb 08       		.uleb128 0x8
 1296 08cc D9010000 		.4byte	.LASF118
 1297 08d0 12       		.byte	0x12
 1298 08d1 36       		.byte	0x36
 1299 08d2 B4000000 		.4byte	0xb4
 1300 08d6 04       		.byte	0x4
 1301 08d7 08       		.uleb128 0x8
 1302 08d8 06010000 		.4byte	.LASF119
 1303 08dc 12       		.byte	0x12
 1304 08dd 37       		.byte	0x37
 1305 08de B4000000 		.4byte	0xb4
 1306 08e2 05       		.byte	0x5
 1307 08e3 08       		.uleb128 0x8
 1308 08e4 83030000 		.4byte	.LASF120
 1309 08e8 12       		.byte	0x12
 1310 08e9 38       		.byte	0x38
 1311 08ea C9000000 		.4byte	0xc9
ARM GAS  /var/folders/vd/czx34qs52cd_f3nb04sxmghc0000gn/T//ccrwAV4C.s 			page 24


 1312 08ee 06       		.byte	0x6
 1313 08ef 08       		.uleb128 0x8
 1314 08f0 6B070000 		.4byte	.LASF121
 1315 08f4 12       		.byte	0x12
 1316 08f5 39       		.byte	0x39
 1317 08f6 B4000000 		.4byte	0xb4
 1318 08fa 08       		.byte	0x8
 1319 08fb 08       		.uleb128 0x8
 1320 08fc 34060000 		.4byte	.LASF122
 1321 0900 12       		.byte	0x12
 1322 0901 3A       		.byte	0x3a
 1323 0902 B4000000 		.4byte	0xb4
 1324 0906 09       		.byte	0x9
 1325 0907 08       		.uleb128 0x8
 1326 0908 52050000 		.4byte	.LASF123
 1327 090c 12       		.byte	0x12
 1328 090d 3B       		.byte	0x3b
 1329 090e B4000000 		.4byte	0xb4
 1330 0912 0A       		.byte	0xa
 1331 0913 08       		.uleb128 0x8
 1332 0914 79050000 		.4byte	.LASF124
 1333 0918 12       		.byte	0x12
 1334 0919 3C       		.byte	0x3c
 1335 091a B4000000 		.4byte	0xb4
 1336 091e 0B       		.byte	0xb
 1337 091f 08       		.uleb128 0x8
 1338 0920 11030000 		.4byte	.LASF125
 1339 0924 12       		.byte	0x12
 1340 0925 3D       		.byte	0x3d
 1341 0926 B4000000 		.4byte	0xb4
 1342 092a 0C       		.byte	0xc
 1343 092b 08       		.uleb128 0x8
 1344 092c B5040000 		.4byte	.LASF126
 1345 0930 12       		.byte	0x12
 1346 0931 3E       		.byte	0x3e
 1347 0932 B4000000 		.4byte	0xb4
 1348 0936 0D       		.byte	0xd
 1349 0937 08       		.uleb128 0x8
 1350 0938 13070000 		.4byte	.LASF127
 1351 093c 12       		.byte	0x12
 1352 093d 3F       		.byte	0x3f
 1353 093e B4000000 		.4byte	0xb4
 1354 0942 0E       		.byte	0xe
 1355 0943 08       		.uleb128 0x8
 1356 0944 A7070000 		.4byte	.LASF128
 1357 0948 12       		.byte	0x12
 1358 0949 40       		.byte	0x40
 1359 094a B4000000 		.4byte	0xb4
 1360 094e 0F       		.byte	0xf
 1361 094f 08       		.uleb128 0x8
 1362 0950 82050000 		.4byte	.LASF129
 1363 0954 12       		.byte	0x12
 1364 0955 41       		.byte	0x41
 1365 0956 B4000000 		.4byte	0xb4
 1366 095a 10       		.byte	0x10
 1367 095b 08       		.uleb128 0x8
 1368 095c EC070000 		.4byte	.LASF130
ARM GAS  /var/folders/vd/czx34qs52cd_f3nb04sxmghc0000gn/T//ccrwAV4C.s 			page 25


 1369 0960 12       		.byte	0x12
 1370 0961 42       		.byte	0x42
 1371 0962 B4000000 		.4byte	0xb4
 1372 0966 11       		.byte	0x11
 1373 0967 08       		.uleb128 0x8
 1374 0968 C8070000 		.4byte	.LASF131
 1375 096c 12       		.byte	0x12
 1376 096d 43       		.byte	0x43
 1377 096e B4000000 		.4byte	0xb4
 1378 0972 12       		.byte	0x12
 1379 0973 08       		.uleb128 0x8
 1380 0974 A6020000 		.4byte	.LASF132
 1381 0978 12       		.byte	0x12
 1382 0979 44       		.byte	0x44
 1383 097a B4000000 		.4byte	0xb4
 1384 097e 13       		.byte	0x13
 1385 097f 08       		.uleb128 0x8
 1386 0980 70010000 		.4byte	.LASF133
 1387 0984 12       		.byte	0x12
 1388 0985 45       		.byte	0x45
 1389 0986 B4000000 		.4byte	0xb4
 1390 098a 14       		.byte	0x14
 1391 098b 08       		.uleb128 0x8
 1392 098c 19060000 		.4byte	.LASF134
 1393 0990 12       		.byte	0x12
 1394 0991 46       		.byte	0x46
 1395 0992 B4000000 		.4byte	0xb4
 1396 0996 15       		.byte	0x15
 1397 0997 00       		.byte	0
 1398 0998 12       		.uleb128 0x12
 1399 0999 7D080000 		.4byte	0x87d
 1400 099d A8090000 		.4byte	0x9a8
 1401 09a1 13       		.uleb128 0x13
 1402 09a2 37000000 		.4byte	0x37
 1403 09a6 03       		.byte	0x3
 1404 09a7 00       		.byte	0
 1405 09a8 03       		.uleb128 0x3
 1406 09a9 66010000 		.4byte	.LASF135
 1407 09ad 12       		.byte	0x12
 1408 09ae 47       		.byte	0x47
 1409 09af B7080000 		.4byte	0x8b7
 1410 09b3 06       		.uleb128 0x6
 1411 09b4 A8090000 		.4byte	0x9a8
 1412 09b8 16       		.uleb128 0x16
 1413 09b9 5E020000 		.4byte	.LASF136
 1414 09bd 12       		.byte	0x12
 1415 09be 6C       		.byte	0x6c
 1416 09bf B3090000 		.4byte	0x9b3
 1417 09c3 03       		.uleb128 0x3
 1418 09c4 DE010000 		.4byte	.LASF137
 1419 09c8 10       		.byte	0x10
 1420 09c9 34       		.byte	0x34
 1421 09ca 3B080000 		.4byte	0x83b
 1422 09ce 0C       		.uleb128 0xc
 1423 09cf 04       		.byte	0x4
 1424 09d0 C3090000 		.4byte	0x9c3
 1425 09d4 04       		.uleb128 0x4
ARM GAS  /var/folders/vd/czx34qs52cd_f3nb04sxmghc0000gn/T//ccrwAV4C.s 			page 26


 1426 09d5 01       		.byte	0x1
 1427 09d6 02       		.byte	0x2
 1428 09d7 5D050000 		.4byte	.LASF138
 1429 09db 03       		.uleb128 0x3
 1430 09dc 70000000 		.4byte	.LASF139
 1431 09e0 13       		.byte	0x13
 1432 09e1 4B       		.byte	0x4b
 1433 09e2 E6090000 		.4byte	0x9e6
 1434 09e6 0C       		.uleb128 0xc
 1435 09e7 04       		.byte	0x4
 1436 09e8 EC090000 		.4byte	0x9ec
 1437 09ec 1D       		.uleb128 0x1d
 1438 09ed 38030000 		.4byte	0x338
 1439 09f1 000A0000 		.4byte	0xa00
 1440 09f5 0F       		.uleb128 0xf
 1441 09f6 2C000000 		.4byte	0x2c
 1442 09fa 0F       		.uleb128 0xf
 1443 09fb 37000000 		.4byte	0x37
 1444 09ff 00       		.byte	0
 1445 0a00 17       		.uleb128 0x17
 1446 0a01 08       		.byte	0x8
 1447 0a02 13       		.byte	0x13
 1448 0a03 55       		.byte	0x55
 1449 0a04 210A0000 		.4byte	0xa21
 1450 0a08 08       		.uleb128 0x8
 1451 0a09 22080000 		.4byte	.LASF140
 1452 0a0d 13       		.byte	0x13
 1453 0a0e 59       		.byte	0x59
 1454 0a0f 210A0000 		.4byte	0xa21
 1455 0a13 00       		.byte	0
 1456 0a14 08       		.uleb128 0x8
 1457 0a15 49030000 		.4byte	.LASF141
 1458 0a19 13       		.byte	0x13
 1459 0a1a 5D       		.byte	0x5d
 1460 0a1b 210A0000 		.4byte	0xa21
 1461 0a1f 04       		.byte	0x4
 1462 0a20 00       		.byte	0
 1463 0a21 0C       		.uleb128 0xc
 1464 0a22 04       		.byte	0x4
 1465 0a23 B4000000 		.4byte	0xb4
 1466 0a27 03       		.uleb128 0x3
 1467 0a28 0A050000 		.4byte	.LASF142
 1468 0a2c 13       		.byte	0x13
 1469 0a2d 5E       		.byte	0x5e
 1470 0a2e 000A0000 		.4byte	0xa00
 1471 0a32 16       		.uleb128 0x16
 1472 0a33 BE060000 		.4byte	.LASF143
 1473 0a37 13       		.byte	0x13
 1474 0a38 69       		.byte	0x69
 1475 0a39 270A0000 		.4byte	0xa27
 1476 0a3d 07       		.uleb128 0x7
 1477 0a3e 96070000 		.4byte	.LASF144
 1478 0a42 04       		.byte	0x4
 1479 0a43 14       		.byte	0x14
 1480 0a44 3C       		.byte	0x3c
 1481 0a45 560A0000 		.4byte	0xa56
 1482 0a49 08       		.uleb128 0x8
ARM GAS  /var/folders/vd/czx34qs52cd_f3nb04sxmghc0000gn/T//ccrwAV4C.s 			page 27


 1483 0a4a CC000000 		.4byte	.LASF50
 1484 0a4e 14       		.byte	0x14
 1485 0a4f 3D       		.byte	0x3d
 1486 0a50 560A0000 		.4byte	0xa56
 1487 0a54 00       		.byte	0
 1488 0a55 00       		.byte	0
 1489 0a56 0C       		.uleb128 0xc
 1490 0a57 04       		.byte	0x4
 1491 0a58 3D0A0000 		.4byte	0xa3d
 1492 0a5c 17       		.uleb128 0x17
 1493 0a5d 10       		.byte	0x10
 1494 0a5e 14       		.byte	0x14
 1495 0a5f 44       		.byte	0x44
 1496 0a60 950A0000 		.4byte	0xa95
 1497 0a64 08       		.uleb128 0x8
 1498 0a65 CC000000 		.4byte	.LASF50
 1499 0a69 14       		.byte	0x14
 1500 0a6a 45       		.byte	0x45
 1501 0a6b 560A0000 		.4byte	0xa56
 1502 0a6f 00       		.byte	0
 1503 0a70 08       		.uleb128 0x8
 1504 0a71 59070000 		.4byte	.LASF145
 1505 0a75 14       		.byte	0x14
 1506 0a76 46       		.byte	0x46
 1507 0a77 2C000000 		.4byte	0x2c
 1508 0a7b 04       		.byte	0x4
 1509 0a7c 08       		.uleb128 0x8
 1510 0a7d E6010000 		.4byte	.LASF146
 1511 0a81 14       		.byte	0x14
 1512 0a82 48       		.byte	0x48
 1513 0a83 37000000 		.4byte	0x37
 1514 0a87 08       		.byte	0x8
 1515 0a88 08       		.uleb128 0x8
 1516 0a89 54000000 		.4byte	.LASF147
 1517 0a8d 14       		.byte	0x14
 1518 0a8e 49       		.byte	0x49
 1519 0a8f DB090000 		.4byte	0x9db
 1520 0a93 0C       		.byte	0xc
 1521 0a94 00       		.byte	0
 1522 0a95 03       		.uleb128 0x3
 1523 0a96 67020000 		.4byte	.LASF148
 1524 0a9a 14       		.byte	0x14
 1525 0a9b 4B       		.byte	0x4b
 1526 0a9c 5C0A0000 		.4byte	0xa5c
 1527 0aa0 07       		.uleb128 0x7
 1528 0aa1 3B050000 		.4byte	.LASF149
 1529 0aa5 10       		.byte	0x10
 1530 0aa6 15       		.byte	0x15
 1531 0aa7 97       		.byte	0x97
 1532 0aa8 D10A0000 		.4byte	0xad1
 1533 0aac 08       		.uleb128 0x8
 1534 0aad CC000000 		.4byte	.LASF50
 1535 0ab1 15       		.byte	0x15
 1536 0ab2 9B       		.byte	0x9b
 1537 0ab3 D10A0000 		.4byte	0xad1
 1538 0ab7 00       		.byte	0
 1539 0ab8 08       		.uleb128 0x8
ARM GAS  /var/folders/vd/czx34qs52cd_f3nb04sxmghc0000gn/T//ccrwAV4C.s 			page 28


 1540 0ab9 E2000000 		.4byte	.LASF39
 1541 0abd 15       		.byte	0x15
 1542 0abe 9F       		.byte	0x9f
 1543 0abf 5C010000 		.4byte	0x15c
 1544 0ac3 04       		.byte	0x4
 1545 0ac4 08       		.uleb128 0x8
 1546 0ac5 75020000 		.4byte	.LASF35
 1547 0ac9 15       		.byte	0x15
 1548 0aca A1       		.byte	0xa1
 1549 0acb D70A0000 		.4byte	0xad7
 1550 0acf 08       		.byte	0x8
 1551 0ad0 00       		.byte	0
 1552 0ad1 0C       		.uleb128 0xc
 1553 0ad2 04       		.byte	0x4
 1554 0ad3 A00A0000 		.4byte	0xaa0
 1555 0ad7 12       		.uleb128 0x12
 1556 0ad8 7D080000 		.4byte	0x87d
 1557 0adc E70A0000 		.4byte	0xae7
 1558 0ae0 13       		.uleb128 0x13
 1559 0ae1 37000000 		.4byte	0x37
 1560 0ae5 07       		.byte	0x7
 1561 0ae6 00       		.byte	0
 1562 0ae7 03       		.uleb128 0x3
 1563 0ae8 93030000 		.4byte	.LASF150
 1564 0aec 15       		.byte	0x15
 1565 0aed A5       		.byte	0xa5
 1566 0aee A00A0000 		.4byte	0xaa0
 1567 0af2 07       		.uleb128 0x7
 1568 0af3 A4040000 		.4byte	.LASF151
 1569 0af7 04       		.byte	0x4
 1570 0af8 15       		.byte	0x15
 1571 0af9 AA       		.byte	0xaa
 1572 0afa 0B0B0000 		.4byte	0xb0b
 1573 0afe 08       		.uleb128 0x8
 1574 0aff CC000000 		.4byte	.LASF50
 1575 0b03 15       		.byte	0x15
 1576 0b04 AB       		.byte	0xab
 1577 0b05 0B0B0000 		.4byte	0xb0b
 1578 0b09 00       		.byte	0
 1579 0b0a 00       		.byte	0
 1580 0b0b 0C       		.uleb128 0xc
 1581 0b0c 04       		.byte	0x4
 1582 0b0d E70A0000 		.4byte	0xae7
 1583 0b11 03       		.uleb128 0x3
 1584 0b12 ED020000 		.4byte	.LASF152
 1585 0b16 15       		.byte	0x15
 1586 0b17 AC       		.byte	0xac
 1587 0b18 F20A0000 		.4byte	0xaf2
 1588 0b1c 0D       		.uleb128 0xd
 1589 0b1d 73070000 		.4byte	.LASF153
 1590 0b21 44       		.byte	0x44
 1591 0b22 15       		.byte	0x15
 1592 0b23 1501     		.2byte	0x115
 1593 0b25 920B0000 		.4byte	0xb92
 1594 0b29 0A       		.uleb128 0xa
 1595 0b2a 6D747800 		.ascii	"mtx\000"
 1596 0b2e 15       		.byte	0x15
ARM GAS  /var/folders/vd/czx34qs52cd_f3nb04sxmghc0000gn/T//ccrwAV4C.s 			page 29


 1597 0b2f 1A01     		.2byte	0x11a
 1598 0b31 C3090000 		.4byte	0x9c3
 1599 0b35 00       		.byte	0
 1600 0b36 0B       		.uleb128 0xb
 1601 0b37 8C060000 		.4byte	.LASF154
 1602 0b3b 15       		.byte	0x15
 1603 0b3c 2101     		.2byte	0x121
 1604 0b3e 110B0000 		.4byte	0xb11
 1605 0b42 10       		.byte	0x10
 1606 0b43 0B       		.uleb128 0xb
 1607 0b44 DD050000 		.4byte	.LASF155
 1608 0b48 15       		.byte	0x15
 1609 0b49 2501     		.2byte	0x125
 1610 0b4b 950A0000 		.4byte	0xa95
 1611 0b4f 14       		.byte	0x14
 1612 0b50 0B       		.uleb128 0xb
 1613 0b51 AF020000 		.4byte	.LASF156
 1614 0b55 15       		.byte	0x15
 1615 0b56 2A01     		.2byte	0x12a
 1616 0b58 110B0000 		.4byte	0xb11
 1617 0b5c 24       		.byte	0x24
 1618 0b5d 0B       		.uleb128 0xb
 1619 0b5e 5D000000 		.4byte	.LASF157
 1620 0b62 15       		.byte	0x15
 1621 0b63 3001     		.2byte	0x130
 1622 0b65 110B0000 		.4byte	0xb11
 1623 0b69 28       		.byte	0x28
 1624 0b6a 0B       		.uleb128 0xb
 1625 0b6b EE040000 		.4byte	.LASF158
 1626 0b6f 15       		.byte	0x15
 1627 0b70 3401     		.2byte	0x134
 1628 0b72 950A0000 		.4byte	0xa95
 1629 0b76 2C       		.byte	0x2c
 1630 0b77 0B       		.uleb128 0xb
 1631 0b78 F2050000 		.4byte	.LASF159
 1632 0b7c 15       		.byte	0x15
 1633 0b7d 3A01     		.2byte	0x13a
 1634 0b7f 110B0000 		.4byte	0xb11
 1635 0b83 3C       		.byte	0x3c
 1636 0b84 0B       		.uleb128 0xb
 1637 0b85 BE070000 		.4byte	.LASF160
 1638 0b89 15       		.byte	0x15
 1639 0b8a 4001     		.2byte	0x140
 1640 0b8c 110B0000 		.4byte	0xb11
 1641 0b90 40       		.byte	0x40
 1642 0b91 00       		.byte	0
 1643 0b92 14       		.uleb128 0x14
 1644 0b93 F6070000 		.4byte	.LASF161
 1645 0b97 15       		.byte	0x15
 1646 0b98 4201     		.2byte	0x142
 1647 0b9a 1C0B0000 		.4byte	0xb1c
 1648 0b9e 15       		.uleb128 0x15
 1649 0b9f CB050000 		.4byte	.LASF162
 1650 0ba3 15       		.byte	0x15
 1651 0ba4 4D01     		.2byte	0x14d
 1652 0ba6 920B0000 		.4byte	0xb92
 1653 0baa 1E       		.uleb128 0x1e
ARM GAS  /var/folders/vd/czx34qs52cd_f3nb04sxmghc0000gn/T//ccrwAV4C.s 			page 30


 1654 0bab FE020000 		.4byte	.LASF163
 1655 0baf 01       		.byte	0x1
 1656 0bb0 7A       		.byte	0x7a
 1657 0bb1 00000000 		.4byte	.LFB281
 1658 0bb5 50000000 		.4byte	.LFE281-.LFB281
 1659 0bb9 01       		.uleb128 0x1
 1660 0bba 9C       		.byte	0x9c
 1661 0bbb 9C0C0000 		.4byte	0xc9c
 1662 0bbf 1F       		.uleb128 0x1f
 1663 0bc0 00000000 		.4byte	.Ldebug_ranges0+0
 1664 0bc4 210C0000 		.4byte	0xc21
 1665 0bc8 20       		.uleb128 0x20
 1666 0bc9 26050000 		.4byte	.LASF165
 1667 0bcd 01       		.byte	0x1
 1668 0bce 7E       		.byte	0x7e
 1669 0bcf 9C0C0000 		.4byte	0xc9c
 1670 0bd3 00000000 		.4byte	.LLST5
 1671 0bd7 21       		.uleb128 0x21
 1672 0bd8 9A0D0000 		.4byte	0xd9a
 1673 0bdc 18000000 		.4byte	.LBB64
 1674 0be0 04000000 		.4byte	.LBE64-.LBB64
 1675 0be4 01       		.byte	0x1
 1676 0be5 86       		.byte	0x86
 1677 0be6 FA0B0000 		.4byte	0xbfa
 1678 0bea 22       		.uleb128 0x22
 1679 0beb 18000000 		.4byte	.LBB65
 1680 0bef 04000000 		.4byte	.LBE65-.LBB65
 1681 0bf3 23       		.uleb128 0x23
 1682 0bf4 AA0D0000 		.4byte	0xdaa
 1683 0bf8 00       		.byte	0
 1684 0bf9 00       		.byte	0
 1685 0bfa 21       		.uleb128 0x21
 1686 0bfb 800D0000 		.4byte	0xd80
 1687 0bff 28000000 		.4byte	.LBB66
 1688 0c03 04000000 		.4byte	.LBE66-.LBB66
 1689 0c07 01       		.byte	0x1
 1690 0c08 93       		.byte	0x93
 1691 0c09 170C0000 		.4byte	0xc17
 1692 0c0d 24       		.uleb128 0x24
 1693 0c0e 8D0D0000 		.4byte	0xd8d
 1694 0c12 2D000000 		.4byte	.LLST6
 1695 0c16 00       		.byte	0
 1696 0c17 25       		.uleb128 0x25
 1697 0c18 30000000 		.4byte	.LVL13
 1698 0c1c B60D0000 		.4byte	0xdb6
 1699 0c20 00       		.byte	0
 1700 0c21 21       		.uleb128 0x21
 1701 0c22 4B0D0000 		.4byte	0xd4b
 1702 0c26 00000000 		.4byte	.LBB55
 1703 0c2a 06000000 		.4byte	.LBE55-.LBB55
 1704 0c2e 01       		.byte	0x1
 1705 0c2f 7C       		.byte	0x7c
 1706 0c30 600C0000 		.4byte	0xc60
 1707 0c34 26       		.uleb128 0x26
 1708 0c35 5D0D0000 		.4byte	0xd5d
 1709 0c39 00000000 		.4byte	.LBB56
 1710 0c3d 06000000 		.4byte	.LBE56-.LBB56
ARM GAS  /var/folders/vd/czx34qs52cd_f3nb04sxmghc0000gn/T//ccrwAV4C.s 			page 31


 1711 0c41 0D       		.byte	0xd
 1712 0c42 7B02     		.2byte	0x27b
 1713 0c44 26       		.uleb128 0x26
 1714 0c45 660D0000 		.4byte	0xd66
 1715 0c49 00000000 		.4byte	.LBB57
 1716 0c4d 06000000 		.4byte	.LBE57-.LBB57
 1717 0c51 0D       		.byte	0xd
 1718 0c52 5A02     		.2byte	0x25a
 1719 0c54 24       		.uleb128 0x24
 1720 0c55 730D0000 		.4byte	0xd73
 1721 0c59 4D000000 		.4byte	.LLST3
 1722 0c5d 00       		.byte	0
 1723 0c5e 00       		.byte	0
 1724 0c5f 00       		.byte	0
 1725 0c60 27       		.uleb128 0x27
 1726 0c61 420D0000 		.4byte	0xd42
 1727 0c65 10000000 		.4byte	.LBB59
 1728 0c69 06000000 		.4byte	.LBE59-.LBB59
 1729 0c6d 01       		.byte	0x1
 1730 0c6e A5       		.byte	0xa5
 1731 0c6f 26       		.uleb128 0x26
 1732 0c70 540D0000 		.4byte	0xd54
 1733 0c74 10000000 		.4byte	.LBB60
 1734 0c78 06000000 		.4byte	.LBE60-.LBB60
 1735 0c7c 0D       		.byte	0xd
 1736 0c7d 8602     		.2byte	0x286
 1737 0c7f 26       		.uleb128 0x26
 1738 0c80 660D0000 		.4byte	0xd66
 1739 0c84 10000000 		.4byte	.LBB61
 1740 0c88 06000000 		.4byte	.LBE61-.LBB61
 1741 0c8c 0D       		.byte	0xd
 1742 0c8d 6D02     		.2byte	0x26d
 1743 0c8f 24       		.uleb128 0x24
 1744 0c90 730D0000 		.4byte	0xd73
 1745 0c94 62000000 		.4byte	.LLST4
 1746 0c98 00       		.byte	0
 1747 0c99 00       		.byte	0
 1748 0c9a 00       		.byte	0
 1749 0c9b 00       		.byte	0
 1750 0c9c 0C       		.uleb128 0xc
 1751 0c9d 04       		.byte	0x4
 1752 0c9e 17070000 		.4byte	0x717
 1753 0ca2 1E       		.uleb128 0x1e
 1754 0ca3 E6050000 		.4byte	.LASF164
 1755 0ca7 01       		.byte	0x1
 1756 0ca8 3E       		.byte	0x3e
 1757 0ca9 00000000 		.4byte	.LFB280
 1758 0cad 12000000 		.4byte	.LFE280-.LFB280
 1759 0cb1 01       		.uleb128 0x1
 1760 0cb2 9C       		.byte	0x9c
 1761 0cb3 420D0000 		.4byte	0xd42
 1762 0cb7 20       		.uleb128 0x20
 1763 0cb8 26050000 		.4byte	.LASF165
 1764 0cbc 01       		.byte	0x1
 1765 0cbd 40       		.byte	0x40
 1766 0cbe 9C0C0000 		.4byte	0xc9c
 1767 0cc2 76000000 		.4byte	.LLST0
ARM GAS  /var/folders/vd/czx34qs52cd_f3nb04sxmghc0000gn/T//ccrwAV4C.s 			page 32


 1768 0cc6 21       		.uleb128 0x21
 1769 0cc7 9A0D0000 		.4byte	0xd9a
 1770 0ccb 00000000 		.4byte	.LBB47
 1771 0ccf 04000000 		.4byte	.LBE47-.LBB47
 1772 0cd3 01       		.byte	0x1
 1773 0cd4 48       		.byte	0x48
 1774 0cd5 E90C0000 		.4byte	0xce9
 1775 0cd9 22       		.uleb128 0x22
 1776 0cda 00000000 		.4byte	.LBB48
 1777 0cde 04000000 		.4byte	.LBE48-.LBB48
 1778 0ce2 23       		.uleb128 0x23
 1779 0ce3 AA0D0000 		.4byte	0xdaa
 1780 0ce7 00       		.byte	0
 1781 0ce8 00       		.byte	0
 1782 0ce9 21       		.uleb128 0x21
 1783 0cea 800D0000 		.4byte	0xd80
 1784 0cee 06000000 		.4byte	.LBB49
 1785 0cf2 04000000 		.4byte	.LBE49-.LBB49
 1786 0cf6 01       		.byte	0x1
 1787 0cf7 4F       		.byte	0x4f
 1788 0cf8 060D0000 		.4byte	0xd06
 1789 0cfc 24       		.uleb128 0x24
 1790 0cfd 8D0D0000 		.4byte	0xd8d
 1791 0d01 96000000 		.4byte	.LLST1
 1792 0d05 00       		.byte	0
 1793 0d06 27       		.uleb128 0x27
 1794 0d07 420D0000 		.4byte	0xd42
 1795 0d0b 0A000000 		.4byte	.LBB51
 1796 0d0f 06000000 		.4byte	.LBE51-.LBB51
 1797 0d13 01       		.byte	0x1
 1798 0d14 52       		.byte	0x52
 1799 0d15 26       		.uleb128 0x26
 1800 0d16 540D0000 		.4byte	0xd54
 1801 0d1a 0A000000 		.4byte	.LBB52
 1802 0d1e 06000000 		.4byte	.LBE52-.LBB52
 1803 0d22 0D       		.byte	0xd
 1804 0d23 8602     		.2byte	0x286
 1805 0d25 26       		.uleb128 0x26
 1806 0d26 660D0000 		.4byte	0xd66
 1807 0d2a 0A000000 		.4byte	.LBB53
 1808 0d2e 06000000 		.4byte	.LBE53-.LBB53
 1809 0d32 0D       		.byte	0xd
 1810 0d33 6D02     		.2byte	0x26d
 1811 0d35 24       		.uleb128 0x24
 1812 0d36 730D0000 		.4byte	0xd73
 1813 0d3a B6000000 		.4byte	.LLST2
 1814 0d3e 00       		.byte	0
 1815 0d3f 00       		.byte	0
 1816 0d40 00       		.byte	0
 1817 0d41 00       		.byte	0
 1818 0d42 28       		.uleb128 0x28
 1819 0d43 A0060000 		.4byte	.LASF166
 1820 0d47 0D       		.byte	0xd
 1821 0d48 8402     		.2byte	0x284
 1822 0d4a 03       		.byte	0x3
 1823 0d4b 28       		.uleb128 0x28
 1824 0d4c 3C070000 		.4byte	.LASF167
ARM GAS  /var/folders/vd/czx34qs52cd_f3nb04sxmghc0000gn/T//ccrwAV4C.s 			page 33


 1825 0d50 0D       		.byte	0xd
 1826 0d51 7902     		.2byte	0x279
 1827 0d53 03       		.byte	0x3
 1828 0d54 28       		.uleb128 0x28
 1829 0d55 20010000 		.4byte	.LASF168
 1830 0d59 0D       		.byte	0xd
 1831 0d5a 6A02     		.2byte	0x26a
 1832 0d5c 03       		.byte	0x3
 1833 0d5d 28       		.uleb128 0x28
 1834 0d5e 66000000 		.4byte	.LASF169
 1835 0d62 0D       		.byte	0xd
 1836 0d63 5202     		.2byte	0x252
 1837 0d65 03       		.byte	0x3
 1838 0d66 29       		.uleb128 0x29
 1839 0d67 DC060000 		.4byte	.LASF170
 1840 0d6b 02       		.byte	0x2
 1841 0d6c E801     		.2byte	0x1e8
 1842 0d6e 03       		.byte	0x3
 1843 0d6f 800D0000 		.4byte	0xd80
 1844 0d73 2A       		.uleb128 0x2a
 1845 0d74 11010000 		.4byte	.LASF172
 1846 0d78 02       		.byte	0x2
 1847 0d79 E801     		.2byte	0x1e8
 1848 0d7b E4000000 		.4byte	0xe4
 1849 0d7f 00       		.byte	0
 1850 0d80 29       		.uleb128 0x29
 1851 0d81 0D020000 		.4byte	.LASF171
 1852 0d85 02       		.byte	0x2
 1853 0d86 1201     		.2byte	0x112
 1854 0d88 03       		.byte	0x3
 1855 0d89 9A0D0000 		.4byte	0xd9a
 1856 0d8d 2A       		.uleb128 0x2a
 1857 0d8e F4060000 		.4byte	.LASF173
 1858 0d92 02       		.byte	0x2
 1859 0d93 1201     		.2byte	0x112
 1860 0d95 E4000000 		.4byte	0xe4
 1861 0d99 00       		.byte	0
 1862 0d9a 2B       		.uleb128 0x2b
 1863 0d9b 4F070000 		.4byte	.LASF177
 1864 0d9f 02       		.byte	0x2
 1865 0da0 F4       		.byte	0xf4
 1866 0da1 E4000000 		.4byte	0xe4
 1867 0da5 03       		.byte	0x3
 1868 0da6 B60D0000 		.4byte	0xdb6
 1869 0daa 2C       		.uleb128 0x2c
 1870 0dab 1B080000 		.4byte	.LASF178
 1871 0daf 02       		.byte	0x2
 1872 0db0 F6       		.byte	0xf6
 1873 0db1 E4000000 		.4byte	0xe4
 1874 0db5 00       		.byte	0
 1875 0db6 2D       		.uleb128 0x2d
 1876 0db7 7C010000 		.4byte	.LASF179
 1877 0dbb 7C010000 		.4byte	.LASF179
 1878 0dbf 08       		.byte	0x8
 1879 0dc0 D701     		.2byte	0x1d7
 1880 0dc2 00       		.byte	0
 1881              		.section	.debug_abbrev,"",%progbits
ARM GAS  /var/folders/vd/czx34qs52cd_f3nb04sxmghc0000gn/T//ccrwAV4C.s 			page 34


 1882              	.Ldebug_abbrev0:
 1883 0000 01       		.uleb128 0x1
 1884 0001 11       		.uleb128 0x11
 1885 0002 01       		.byte	0x1
 1886 0003 25       		.uleb128 0x25
 1887 0004 0E       		.uleb128 0xe
 1888 0005 13       		.uleb128 0x13
 1889 0006 0B       		.uleb128 0xb
 1890 0007 03       		.uleb128 0x3
 1891 0008 0E       		.uleb128 0xe
 1892 0009 1B       		.uleb128 0x1b
 1893 000a 0E       		.uleb128 0xe
 1894 000b 55       		.uleb128 0x55
 1895 000c 17       		.uleb128 0x17
 1896 000d 11       		.uleb128 0x11
 1897 000e 01       		.uleb128 0x1
 1898 000f 10       		.uleb128 0x10
 1899 0010 17       		.uleb128 0x17
 1900 0011 00       		.byte	0
 1901 0012 00       		.byte	0
 1902 0013 02       		.uleb128 0x2
 1903 0014 24       		.uleb128 0x24
 1904 0015 00       		.byte	0
 1905 0016 0B       		.uleb128 0xb
 1906 0017 0B       		.uleb128 0xb
 1907 0018 3E       		.uleb128 0x3e
 1908 0019 0B       		.uleb128 0xb
 1909 001a 03       		.uleb128 0x3
 1910 001b 08       		.uleb128 0x8
 1911 001c 00       		.byte	0
 1912 001d 00       		.byte	0
 1913 001e 03       		.uleb128 0x3
 1914 001f 16       		.uleb128 0x16
 1915 0020 00       		.byte	0
 1916 0021 03       		.uleb128 0x3
 1917 0022 0E       		.uleb128 0xe
 1918 0023 3A       		.uleb128 0x3a
 1919 0024 0B       		.uleb128 0xb
 1920 0025 3B       		.uleb128 0x3b
 1921 0026 0B       		.uleb128 0xb
 1922 0027 49       		.uleb128 0x49
 1923 0028 13       		.uleb128 0x13
 1924 0029 00       		.byte	0
 1925 002a 00       		.byte	0
 1926 002b 04       		.uleb128 0x4
 1927 002c 24       		.uleb128 0x24
 1928 002d 00       		.byte	0
 1929 002e 0B       		.uleb128 0xb
 1930 002f 0B       		.uleb128 0xb
 1931 0030 3E       		.uleb128 0x3e
 1932 0031 0B       		.uleb128 0xb
 1933 0032 03       		.uleb128 0x3
 1934 0033 0E       		.uleb128 0xe
 1935 0034 00       		.byte	0
 1936 0035 00       		.byte	0
 1937 0036 05       		.uleb128 0x5
 1938 0037 35       		.uleb128 0x35
ARM GAS  /var/folders/vd/czx34qs52cd_f3nb04sxmghc0000gn/T//ccrwAV4C.s 			page 35


 1939 0038 00       		.byte	0
 1940 0039 49       		.uleb128 0x49
 1941 003a 13       		.uleb128 0x13
 1942 003b 00       		.byte	0
 1943 003c 00       		.byte	0
 1944 003d 06       		.uleb128 0x6
 1945 003e 26       		.uleb128 0x26
 1946 003f 00       		.byte	0
 1947 0040 49       		.uleb128 0x49
 1948 0041 13       		.uleb128 0x13
 1949 0042 00       		.byte	0
 1950 0043 00       		.byte	0
 1951 0044 07       		.uleb128 0x7
 1952 0045 13       		.uleb128 0x13
 1953 0046 01       		.byte	0x1
 1954 0047 03       		.uleb128 0x3
 1955 0048 0E       		.uleb128 0xe
 1956 0049 0B       		.uleb128 0xb
 1957 004a 0B       		.uleb128 0xb
 1958 004b 3A       		.uleb128 0x3a
 1959 004c 0B       		.uleb128 0xb
 1960 004d 3B       		.uleb128 0x3b
 1961 004e 0B       		.uleb128 0xb
 1962 004f 01       		.uleb128 0x1
 1963 0050 13       		.uleb128 0x13
 1964 0051 00       		.byte	0
 1965 0052 00       		.byte	0
 1966 0053 08       		.uleb128 0x8
 1967 0054 0D       		.uleb128 0xd
 1968 0055 00       		.byte	0
 1969 0056 03       		.uleb128 0x3
 1970 0057 0E       		.uleb128 0xe
 1971 0058 3A       		.uleb128 0x3a
 1972 0059 0B       		.uleb128 0xb
 1973 005a 3B       		.uleb128 0x3b
 1974 005b 0B       		.uleb128 0xb
 1975 005c 49       		.uleb128 0x49
 1976 005d 13       		.uleb128 0x13
 1977 005e 38       		.uleb128 0x38
 1978 005f 0B       		.uleb128 0xb
 1979 0060 00       		.byte	0
 1980 0061 00       		.byte	0
 1981 0062 09       		.uleb128 0x9
 1982 0063 0D       		.uleb128 0xd
 1983 0064 00       		.byte	0
 1984 0065 03       		.uleb128 0x3
 1985 0066 08       		.uleb128 0x8
 1986 0067 3A       		.uleb128 0x3a
 1987 0068 0B       		.uleb128 0xb
 1988 0069 3B       		.uleb128 0x3b
 1989 006a 0B       		.uleb128 0xb
 1990 006b 49       		.uleb128 0x49
 1991 006c 13       		.uleb128 0x13
 1992 006d 38       		.uleb128 0x38
 1993 006e 0B       		.uleb128 0xb
 1994 006f 00       		.byte	0
 1995 0070 00       		.byte	0
ARM GAS  /var/folders/vd/czx34qs52cd_f3nb04sxmghc0000gn/T//ccrwAV4C.s 			page 36


 1996 0071 0A       		.uleb128 0xa
 1997 0072 0D       		.uleb128 0xd
 1998 0073 00       		.byte	0
 1999 0074 03       		.uleb128 0x3
 2000 0075 08       		.uleb128 0x8
 2001 0076 3A       		.uleb128 0x3a
 2002 0077 0B       		.uleb128 0xb
 2003 0078 3B       		.uleb128 0x3b
 2004 0079 05       		.uleb128 0x5
 2005 007a 49       		.uleb128 0x49
 2006 007b 13       		.uleb128 0x13
 2007 007c 38       		.uleb128 0x38
 2008 007d 0B       		.uleb128 0xb
 2009 007e 00       		.byte	0
 2010 007f 00       		.byte	0
 2011 0080 0B       		.uleb128 0xb
 2012 0081 0D       		.uleb128 0xd
 2013 0082 00       		.byte	0
 2014 0083 03       		.uleb128 0x3
 2015 0084 0E       		.uleb128 0xe
 2016 0085 3A       		.uleb128 0x3a
 2017 0086 0B       		.uleb128 0xb
 2018 0087 3B       		.uleb128 0x3b
 2019 0088 05       		.uleb128 0x5
 2020 0089 49       		.uleb128 0x49
 2021 008a 13       		.uleb128 0x13
 2022 008b 38       		.uleb128 0x38
 2023 008c 0B       		.uleb128 0xb
 2024 008d 00       		.byte	0
 2025 008e 00       		.byte	0
 2026 008f 0C       		.uleb128 0xc
 2027 0090 0F       		.uleb128 0xf
 2028 0091 00       		.byte	0
 2029 0092 0B       		.uleb128 0xb
 2030 0093 0B       		.uleb128 0xb
 2031 0094 49       		.uleb128 0x49
 2032 0095 13       		.uleb128 0x13
 2033 0096 00       		.byte	0
 2034 0097 00       		.byte	0
 2035 0098 0D       		.uleb128 0xd
 2036 0099 13       		.uleb128 0x13
 2037 009a 01       		.byte	0x1
 2038 009b 03       		.uleb128 0x3
 2039 009c 0E       		.uleb128 0xe
 2040 009d 0B       		.uleb128 0xb
 2041 009e 0B       		.uleb128 0xb
 2042 009f 3A       		.uleb128 0x3a
 2043 00a0 0B       		.uleb128 0xb
 2044 00a1 3B       		.uleb128 0x3b
 2045 00a2 05       		.uleb128 0x5
 2046 00a3 01       		.uleb128 0x1
 2047 00a4 13       		.uleb128 0x13
 2048 00a5 00       		.byte	0
 2049 00a6 00       		.byte	0
 2050 00a7 0E       		.uleb128 0xe
 2051 00a8 15       		.uleb128 0x15
 2052 00a9 01       		.byte	0x1
ARM GAS  /var/folders/vd/czx34qs52cd_f3nb04sxmghc0000gn/T//ccrwAV4C.s 			page 37


 2053 00aa 27       		.uleb128 0x27
 2054 00ab 19       		.uleb128 0x19
 2055 00ac 01       		.uleb128 0x1
 2056 00ad 13       		.uleb128 0x13
 2057 00ae 00       		.byte	0
 2058 00af 00       		.byte	0
 2059 00b0 0F       		.uleb128 0xf
 2060 00b1 05       		.uleb128 0x5
 2061 00b2 00       		.byte	0
 2062 00b3 49       		.uleb128 0x49
 2063 00b4 13       		.uleb128 0x13
 2064 00b5 00       		.byte	0
 2065 00b6 00       		.byte	0
 2066 00b7 10       		.uleb128 0x10
 2067 00b8 0F       		.uleb128 0xf
 2068 00b9 00       		.byte	0
 2069 00ba 0B       		.uleb128 0xb
 2070 00bb 0B       		.uleb128 0xb
 2071 00bc 00       		.byte	0
 2072 00bd 00       		.byte	0
 2073 00be 11       		.uleb128 0x11
 2074 00bf 13       		.uleb128 0x13
 2075 00c0 01       		.byte	0x1
 2076 00c1 0B       		.uleb128 0xb
 2077 00c2 0B       		.uleb128 0xb
 2078 00c3 3A       		.uleb128 0x3a
 2079 00c4 0B       		.uleb128 0xb
 2080 00c5 3B       		.uleb128 0x3b
 2081 00c6 05       		.uleb128 0x5
 2082 00c7 01       		.uleb128 0x1
 2083 00c8 13       		.uleb128 0x13
 2084 00c9 00       		.byte	0
 2085 00ca 00       		.byte	0
 2086 00cb 12       		.uleb128 0x12
 2087 00cc 01       		.uleb128 0x1
 2088 00cd 01       		.byte	0x1
 2089 00ce 49       		.uleb128 0x49
 2090 00cf 13       		.uleb128 0x13
 2091 00d0 01       		.uleb128 0x1
 2092 00d1 13       		.uleb128 0x13
 2093 00d2 00       		.byte	0
 2094 00d3 00       		.byte	0
 2095 00d4 13       		.uleb128 0x13
 2096 00d5 21       		.uleb128 0x21
 2097 00d6 00       		.byte	0
 2098 00d7 49       		.uleb128 0x49
 2099 00d8 13       		.uleb128 0x13
 2100 00d9 2F       		.uleb128 0x2f
 2101 00da 0B       		.uleb128 0xb
 2102 00db 00       		.byte	0
 2103 00dc 00       		.byte	0
 2104 00dd 14       		.uleb128 0x14
 2105 00de 16       		.uleb128 0x16
 2106 00df 00       		.byte	0
 2107 00e0 03       		.uleb128 0x3
 2108 00e1 0E       		.uleb128 0xe
 2109 00e2 3A       		.uleb128 0x3a
ARM GAS  /var/folders/vd/czx34qs52cd_f3nb04sxmghc0000gn/T//ccrwAV4C.s 			page 38


 2110 00e3 0B       		.uleb128 0xb
 2111 00e4 3B       		.uleb128 0x3b
 2112 00e5 05       		.uleb128 0x5
 2113 00e6 49       		.uleb128 0x49
 2114 00e7 13       		.uleb128 0x13
 2115 00e8 00       		.byte	0
 2116 00e9 00       		.byte	0
 2117 00ea 15       		.uleb128 0x15
 2118 00eb 34       		.uleb128 0x34
 2119 00ec 00       		.byte	0
 2120 00ed 03       		.uleb128 0x3
 2121 00ee 0E       		.uleb128 0xe
 2122 00ef 3A       		.uleb128 0x3a
 2123 00f0 0B       		.uleb128 0xb
 2124 00f1 3B       		.uleb128 0x3b
 2125 00f2 05       		.uleb128 0x5
 2126 00f3 49       		.uleb128 0x49
 2127 00f4 13       		.uleb128 0x13
 2128 00f5 3F       		.uleb128 0x3f
 2129 00f6 19       		.uleb128 0x19
 2130 00f7 3C       		.uleb128 0x3c
 2131 00f8 19       		.uleb128 0x19
 2132 00f9 00       		.byte	0
 2133 00fa 00       		.byte	0
 2134 00fb 16       		.uleb128 0x16
 2135 00fc 34       		.uleb128 0x34
 2136 00fd 00       		.byte	0
 2137 00fe 03       		.uleb128 0x3
 2138 00ff 0E       		.uleb128 0xe
 2139 0100 3A       		.uleb128 0x3a
 2140 0101 0B       		.uleb128 0xb
 2141 0102 3B       		.uleb128 0x3b
 2142 0103 0B       		.uleb128 0xb
 2143 0104 49       		.uleb128 0x49
 2144 0105 13       		.uleb128 0x13
 2145 0106 3F       		.uleb128 0x3f
 2146 0107 19       		.uleb128 0x19
 2147 0108 3C       		.uleb128 0x3c
 2148 0109 19       		.uleb128 0x19
 2149 010a 00       		.byte	0
 2150 010b 00       		.byte	0
 2151 010c 17       		.uleb128 0x17
 2152 010d 13       		.uleb128 0x13
 2153 010e 01       		.byte	0x1
 2154 010f 0B       		.uleb128 0xb
 2155 0110 0B       		.uleb128 0xb
 2156 0111 3A       		.uleb128 0x3a
 2157 0112 0B       		.uleb128 0xb
 2158 0113 3B       		.uleb128 0x3b
 2159 0114 0B       		.uleb128 0xb
 2160 0115 01       		.uleb128 0x1
 2161 0116 13       		.uleb128 0x13
 2162 0117 00       		.byte	0
 2163 0118 00       		.byte	0
 2164 0119 18       		.uleb128 0x18
 2165 011a 17       		.uleb128 0x17
 2166 011b 01       		.byte	0x1
ARM GAS  /var/folders/vd/czx34qs52cd_f3nb04sxmghc0000gn/T//ccrwAV4C.s 			page 39


 2167 011c 0B       		.uleb128 0xb
 2168 011d 0B       		.uleb128 0xb
 2169 011e 3A       		.uleb128 0x3a
 2170 011f 0B       		.uleb128 0xb
 2171 0120 3B       		.uleb128 0x3b
 2172 0121 0B       		.uleb128 0xb
 2173 0122 01       		.uleb128 0x1
 2174 0123 13       		.uleb128 0x13
 2175 0124 00       		.byte	0
 2176 0125 00       		.byte	0
 2177 0126 19       		.uleb128 0x19
 2178 0127 0D       		.uleb128 0xd
 2179 0128 00       		.byte	0
 2180 0129 03       		.uleb128 0x3
 2181 012a 0E       		.uleb128 0xe
 2182 012b 3A       		.uleb128 0x3a
 2183 012c 0B       		.uleb128 0xb
 2184 012d 3B       		.uleb128 0x3b
 2185 012e 0B       		.uleb128 0xb
 2186 012f 49       		.uleb128 0x49
 2187 0130 13       		.uleb128 0x13
 2188 0131 00       		.byte	0
 2189 0132 00       		.byte	0
 2190 0133 1A       		.uleb128 0x1a
 2191 0134 0D       		.uleb128 0xd
 2192 0135 00       		.byte	0
 2193 0136 03       		.uleb128 0x3
 2194 0137 0E       		.uleb128 0xe
 2195 0138 3A       		.uleb128 0x3a
 2196 0139 0B       		.uleb128 0xb
 2197 013a 3B       		.uleb128 0x3b
 2198 013b 05       		.uleb128 0x5
 2199 013c 49       		.uleb128 0x49
 2200 013d 13       		.uleb128 0x13
 2201 013e 00       		.byte	0
 2202 013f 00       		.byte	0
 2203 0140 1B       		.uleb128 0x1b
 2204 0141 34       		.uleb128 0x34
 2205 0142 00       		.byte	0
 2206 0143 03       		.uleb128 0x3
 2207 0144 08       		.uleb128 0x8
 2208 0145 3A       		.uleb128 0x3a
 2209 0146 0B       		.uleb128 0xb
 2210 0147 3B       		.uleb128 0x3b
 2211 0148 05       		.uleb128 0x5
 2212 0149 49       		.uleb128 0x49
 2213 014a 13       		.uleb128 0x13
 2214 014b 3F       		.uleb128 0x3f
 2215 014c 19       		.uleb128 0x19
 2216 014d 3C       		.uleb128 0x3c
 2217 014e 19       		.uleb128 0x19
 2218 014f 00       		.byte	0
 2219 0150 00       		.byte	0
 2220 0151 1C       		.uleb128 0x1c
 2221 0152 21       		.uleb128 0x21
 2222 0153 00       		.byte	0
 2223 0154 00       		.byte	0
ARM GAS  /var/folders/vd/czx34qs52cd_f3nb04sxmghc0000gn/T//ccrwAV4C.s 			page 40


 2224 0155 00       		.byte	0
 2225 0156 1D       		.uleb128 0x1d
 2226 0157 15       		.uleb128 0x15
 2227 0158 01       		.byte	0x1
 2228 0159 27       		.uleb128 0x27
 2229 015a 19       		.uleb128 0x19
 2230 015b 49       		.uleb128 0x49
 2231 015c 13       		.uleb128 0x13
 2232 015d 01       		.uleb128 0x1
 2233 015e 13       		.uleb128 0x13
 2234 015f 00       		.byte	0
 2235 0160 00       		.byte	0
 2236 0161 1E       		.uleb128 0x1e
 2237 0162 2E       		.uleb128 0x2e
 2238 0163 01       		.byte	0x1
 2239 0164 3F       		.uleb128 0x3f
 2240 0165 19       		.uleb128 0x19
 2241 0166 03       		.uleb128 0x3
 2242 0167 0E       		.uleb128 0xe
 2243 0168 3A       		.uleb128 0x3a
 2244 0169 0B       		.uleb128 0xb
 2245 016a 3B       		.uleb128 0x3b
 2246 016b 0B       		.uleb128 0xb
 2247 016c 27       		.uleb128 0x27
 2248 016d 19       		.uleb128 0x19
 2249 016e 11       		.uleb128 0x11
 2250 016f 01       		.uleb128 0x1
 2251 0170 12       		.uleb128 0x12
 2252 0171 06       		.uleb128 0x6
 2253 0172 40       		.uleb128 0x40
 2254 0173 18       		.uleb128 0x18
 2255 0174 9742     		.uleb128 0x2117
 2256 0176 19       		.uleb128 0x19
 2257 0177 01       		.uleb128 0x1
 2258 0178 13       		.uleb128 0x13
 2259 0179 00       		.byte	0
 2260 017a 00       		.byte	0
 2261 017b 1F       		.uleb128 0x1f
 2262 017c 0B       		.uleb128 0xb
 2263 017d 01       		.byte	0x1
 2264 017e 55       		.uleb128 0x55
 2265 017f 17       		.uleb128 0x17
 2266 0180 01       		.uleb128 0x1
 2267 0181 13       		.uleb128 0x13
 2268 0182 00       		.byte	0
 2269 0183 00       		.byte	0
 2270 0184 20       		.uleb128 0x20
 2271 0185 34       		.uleb128 0x34
 2272 0186 00       		.byte	0
 2273 0187 03       		.uleb128 0x3
 2274 0188 0E       		.uleb128 0xe
 2275 0189 3A       		.uleb128 0x3a
 2276 018a 0B       		.uleb128 0xb
 2277 018b 3B       		.uleb128 0x3b
 2278 018c 0B       		.uleb128 0xb
 2279 018d 49       		.uleb128 0x49
 2280 018e 13       		.uleb128 0x13
ARM GAS  /var/folders/vd/czx34qs52cd_f3nb04sxmghc0000gn/T//ccrwAV4C.s 			page 41


 2281 018f 02       		.uleb128 0x2
 2282 0190 17       		.uleb128 0x17
 2283 0191 00       		.byte	0
 2284 0192 00       		.byte	0
 2285 0193 21       		.uleb128 0x21
 2286 0194 1D       		.uleb128 0x1d
 2287 0195 01       		.byte	0x1
 2288 0196 31       		.uleb128 0x31
 2289 0197 13       		.uleb128 0x13
 2290 0198 11       		.uleb128 0x11
 2291 0199 01       		.uleb128 0x1
 2292 019a 12       		.uleb128 0x12
 2293 019b 06       		.uleb128 0x6
 2294 019c 58       		.uleb128 0x58
 2295 019d 0B       		.uleb128 0xb
 2296 019e 59       		.uleb128 0x59
 2297 019f 0B       		.uleb128 0xb
 2298 01a0 01       		.uleb128 0x1
 2299 01a1 13       		.uleb128 0x13
 2300 01a2 00       		.byte	0
 2301 01a3 00       		.byte	0
 2302 01a4 22       		.uleb128 0x22
 2303 01a5 0B       		.uleb128 0xb
 2304 01a6 01       		.byte	0x1
 2305 01a7 11       		.uleb128 0x11
 2306 01a8 01       		.uleb128 0x1
 2307 01a9 12       		.uleb128 0x12
 2308 01aa 06       		.uleb128 0x6
 2309 01ab 00       		.byte	0
 2310 01ac 00       		.byte	0
 2311 01ad 23       		.uleb128 0x23
 2312 01ae 34       		.uleb128 0x34
 2313 01af 00       		.byte	0
 2314 01b0 31       		.uleb128 0x31
 2315 01b1 13       		.uleb128 0x13
 2316 01b2 00       		.byte	0
 2317 01b3 00       		.byte	0
 2318 01b4 24       		.uleb128 0x24
 2319 01b5 05       		.uleb128 0x5
 2320 01b6 00       		.byte	0
 2321 01b7 31       		.uleb128 0x31
 2322 01b8 13       		.uleb128 0x13
 2323 01b9 02       		.uleb128 0x2
 2324 01ba 17       		.uleb128 0x17
 2325 01bb 00       		.byte	0
 2326 01bc 00       		.byte	0
 2327 01bd 25       		.uleb128 0x25
 2328 01be 898201   		.uleb128 0x4109
 2329 01c1 00       		.byte	0
 2330 01c2 11       		.uleb128 0x11
 2331 01c3 01       		.uleb128 0x1
 2332 01c4 31       		.uleb128 0x31
 2333 01c5 13       		.uleb128 0x13
 2334 01c6 00       		.byte	0
 2335 01c7 00       		.byte	0
 2336 01c8 26       		.uleb128 0x26
 2337 01c9 1D       		.uleb128 0x1d
ARM GAS  /var/folders/vd/czx34qs52cd_f3nb04sxmghc0000gn/T//ccrwAV4C.s 			page 42


 2338 01ca 01       		.byte	0x1
 2339 01cb 31       		.uleb128 0x31
 2340 01cc 13       		.uleb128 0x13
 2341 01cd 11       		.uleb128 0x11
 2342 01ce 01       		.uleb128 0x1
 2343 01cf 12       		.uleb128 0x12
 2344 01d0 06       		.uleb128 0x6
 2345 01d1 58       		.uleb128 0x58
 2346 01d2 0B       		.uleb128 0xb
 2347 01d3 59       		.uleb128 0x59
 2348 01d4 05       		.uleb128 0x5
 2349 01d5 00       		.byte	0
 2350 01d6 00       		.byte	0
 2351 01d7 27       		.uleb128 0x27
 2352 01d8 1D       		.uleb128 0x1d
 2353 01d9 01       		.byte	0x1
 2354 01da 31       		.uleb128 0x31
 2355 01db 13       		.uleb128 0x13
 2356 01dc 11       		.uleb128 0x11
 2357 01dd 01       		.uleb128 0x1
 2358 01de 12       		.uleb128 0x12
 2359 01df 06       		.uleb128 0x6
 2360 01e0 58       		.uleb128 0x58
 2361 01e1 0B       		.uleb128 0xb
 2362 01e2 59       		.uleb128 0x59
 2363 01e3 0B       		.uleb128 0xb
 2364 01e4 00       		.byte	0
 2365 01e5 00       		.byte	0
 2366 01e6 28       		.uleb128 0x28
 2367 01e7 2E       		.uleb128 0x2e
 2368 01e8 00       		.byte	0
 2369 01e9 03       		.uleb128 0x3
 2370 01ea 0E       		.uleb128 0xe
 2371 01eb 3A       		.uleb128 0x3a
 2372 01ec 0B       		.uleb128 0xb
 2373 01ed 3B       		.uleb128 0x3b
 2374 01ee 05       		.uleb128 0x5
 2375 01ef 27       		.uleb128 0x27
 2376 01f0 19       		.uleb128 0x19
 2377 01f1 20       		.uleb128 0x20
 2378 01f2 0B       		.uleb128 0xb
 2379 01f3 00       		.byte	0
 2380 01f4 00       		.byte	0
 2381 01f5 29       		.uleb128 0x29
 2382 01f6 2E       		.uleb128 0x2e
 2383 01f7 01       		.byte	0x1
 2384 01f8 03       		.uleb128 0x3
 2385 01f9 0E       		.uleb128 0xe
 2386 01fa 3A       		.uleb128 0x3a
 2387 01fb 0B       		.uleb128 0xb
 2388 01fc 3B       		.uleb128 0x3b
 2389 01fd 05       		.uleb128 0x5
 2390 01fe 27       		.uleb128 0x27
 2391 01ff 19       		.uleb128 0x19
 2392 0200 20       		.uleb128 0x20
 2393 0201 0B       		.uleb128 0xb
 2394 0202 01       		.uleb128 0x1
ARM GAS  /var/folders/vd/czx34qs52cd_f3nb04sxmghc0000gn/T//ccrwAV4C.s 			page 43


 2395 0203 13       		.uleb128 0x13
 2396 0204 00       		.byte	0
 2397 0205 00       		.byte	0
 2398 0206 2A       		.uleb128 0x2a
 2399 0207 05       		.uleb128 0x5
 2400 0208 00       		.byte	0
 2401 0209 03       		.uleb128 0x3
 2402 020a 0E       		.uleb128 0xe
 2403 020b 3A       		.uleb128 0x3a
 2404 020c 0B       		.uleb128 0xb
 2405 020d 3B       		.uleb128 0x3b
 2406 020e 05       		.uleb128 0x5
 2407 020f 49       		.uleb128 0x49
 2408 0210 13       		.uleb128 0x13
 2409 0211 00       		.byte	0
 2410 0212 00       		.byte	0
 2411 0213 2B       		.uleb128 0x2b
 2412 0214 2E       		.uleb128 0x2e
 2413 0215 01       		.byte	0x1
 2414 0216 03       		.uleb128 0x3
 2415 0217 0E       		.uleb128 0xe
 2416 0218 3A       		.uleb128 0x3a
 2417 0219 0B       		.uleb128 0xb
 2418 021a 3B       		.uleb128 0x3b
 2419 021b 0B       		.uleb128 0xb
 2420 021c 27       		.uleb128 0x27
 2421 021d 19       		.uleb128 0x19
 2422 021e 49       		.uleb128 0x49
 2423 021f 13       		.uleb128 0x13
 2424 0220 20       		.uleb128 0x20
 2425 0221 0B       		.uleb128 0xb
 2426 0222 01       		.uleb128 0x1
 2427 0223 13       		.uleb128 0x13
 2428 0224 00       		.byte	0
 2429 0225 00       		.byte	0
 2430 0226 2C       		.uleb128 0x2c
 2431 0227 34       		.uleb128 0x34
 2432 0228 00       		.byte	0
 2433 0229 03       		.uleb128 0x3
 2434 022a 0E       		.uleb128 0xe
 2435 022b 3A       		.uleb128 0x3a
 2436 022c 0B       		.uleb128 0xb
 2437 022d 3B       		.uleb128 0x3b
 2438 022e 0B       		.uleb128 0xb
 2439 022f 49       		.uleb128 0x49
 2440 0230 13       		.uleb128 0x13
 2441 0231 00       		.byte	0
 2442 0232 00       		.byte	0
 2443 0233 2D       		.uleb128 0x2d
 2444 0234 2E       		.uleb128 0x2e
 2445 0235 00       		.byte	0
 2446 0236 3F       		.uleb128 0x3f
 2447 0237 19       		.uleb128 0x19
 2448 0238 3C       		.uleb128 0x3c
 2449 0239 19       		.uleb128 0x19
 2450 023a 6E       		.uleb128 0x6e
 2451 023b 0E       		.uleb128 0xe
ARM GAS  /var/folders/vd/czx34qs52cd_f3nb04sxmghc0000gn/T//ccrwAV4C.s 			page 44


 2452 023c 03       		.uleb128 0x3
 2453 023d 0E       		.uleb128 0xe
 2454 023e 3A       		.uleb128 0x3a
 2455 023f 0B       		.uleb128 0xb
 2456 0240 3B       		.uleb128 0x3b
 2457 0241 05       		.uleb128 0x5
 2458 0242 00       		.byte	0
 2459 0243 00       		.byte	0
 2460 0244 00       		.byte	0
 2461              		.section	.debug_loc,"",%progbits
 2462              	.Ldebug_loc0:
 2463              	.LLST5:
 2464 0000 1C000000 		.4byte	.LVL9
 2465 0004 28000000 		.4byte	.LVL11
 2466 0008 0300     		.2byte	0x3
 2467 000a 74       		.byte	0x74
 2468 000b 60       		.sleb128 -32
 2469 000c 9F       		.byte	0x9f
 2470 000d 28000000 		.4byte	.LVL11
 2471 0011 2F000000 		.4byte	.LVL13-1
 2472 0015 0100     		.2byte	0x1
 2473 0017 53       		.byte	0x53
 2474 0018 2F000000 		.4byte	.LVL13-1
 2475 001c 42000000 		.4byte	.LVL15
 2476 0020 0300     		.2byte	0x3
 2477 0022 74       		.byte	0x74
 2478 0023 60       		.sleb128 -32
 2479 0024 9F       		.byte	0x9f
 2480 0025 00000000 		.4byte	0
 2481 0029 00000000 		.4byte	0
 2482              	.LLST6:
 2483 002d 24000000 		.4byte	.LVL10
 2484 0031 28000000 		.4byte	.LVL11
 2485 0035 0300     		.2byte	0x3
 2486 0037 74       		.byte	0x74
 2487 0038 60       		.sleb128 -32
 2488 0039 9F       		.byte	0x9f
 2489 003a 28000000 		.4byte	.LVL11
 2490 003e 2C000000 		.4byte	.LVL12
 2491 0042 0100     		.2byte	0x1
 2492 0044 53       		.byte	0x53
 2493 0045 00000000 		.4byte	0
 2494 0049 00000000 		.4byte	0
 2495              	.LLST3:
 2496 004d 00000000 		.4byte	.LVL5
 2497 0051 06000000 		.4byte	.LVL6
 2498 0055 0300     		.2byte	0x3
 2499 0057 08       		.byte	0x8
 2500 0058 20       		.byte	0x20
 2501 0059 9F       		.byte	0x9f
 2502 005a 00000000 		.4byte	0
 2503 005e 00000000 		.4byte	0
 2504              	.LLST4:
 2505 0062 10000000 		.4byte	.LVL7
 2506 0066 14000000 		.4byte	.LVL8
 2507 006a 0200     		.2byte	0x2
 2508 006c 30       		.byte	0x30
ARM GAS  /var/folders/vd/czx34qs52cd_f3nb04sxmghc0000gn/T//ccrwAV4C.s 			page 45


 2509 006d 9F       		.byte	0x9f
 2510 006e 00000000 		.4byte	0
 2511 0072 00000000 		.4byte	0
 2512              	.LLST0:
 2513 0076 04000000 		.4byte	.LVL0
 2514 007a 06000000 		.4byte	.LVL1
 2515 007e 0300     		.2byte	0x3
 2516 0080 73       		.byte	0x73
 2517 0081 20       		.sleb128 32
 2518 0082 9F       		.byte	0x9f
 2519 0083 06000000 		.4byte	.LVL1
 2520 0087 0C000000 		.4byte	.LVL3
 2521 008b 0100     		.2byte	0x1
 2522 008d 53       		.byte	0x53
 2523 008e 00000000 		.4byte	0
 2524 0092 00000000 		.4byte	0
 2525              	.LLST1:
 2526 0096 04000000 		.4byte	.LVL0
 2527 009a 06000000 		.4byte	.LVL1
 2528 009e 0300     		.2byte	0x3
 2529 00a0 73       		.byte	0x73
 2530 00a1 20       		.sleb128 32
 2531 00a2 9F       		.byte	0x9f
 2532 00a3 06000000 		.4byte	.LVL1
 2533 00a7 0A000000 		.4byte	.LVL2
 2534 00ab 0100     		.2byte	0x1
 2535 00ad 53       		.byte	0x53
 2536 00ae 00000000 		.4byte	0
 2537 00b2 00000000 		.4byte	0
 2538              	.LLST2:
 2539 00b6 0A000000 		.4byte	.LVL2
 2540 00ba 10000000 		.4byte	.LVL4
 2541 00be 0200     		.2byte	0x2
 2542 00c0 30       		.byte	0x30
 2543 00c1 9F       		.byte	0x9f
 2544 00c2 00000000 		.4byte	0
 2545 00c6 00000000 		.4byte	0
 2546              		.section	.debug_aranges,"",%progbits
 2547 0000 24000000 		.4byte	0x24
 2548 0004 0200     		.2byte	0x2
 2549 0006 00000000 		.4byte	.Ldebug_info0
 2550 000a 04       		.byte	0x4
 2551 000b 00       		.byte	0
 2552 000c 0000     		.2byte	0
 2553 000e 0000     		.2byte	0
 2554 0010 00000000 		.4byte	.LFB280
 2555 0014 12000000 		.4byte	.LFE280-.LFB280
 2556 0018 00000000 		.4byte	.LFB281
 2557 001c 50000000 		.4byte	.LFE281-.LFB281
 2558 0020 00000000 		.4byte	0
 2559 0024 00000000 		.4byte	0
 2560              		.section	.debug_ranges,"",%progbits
 2561              	.Ldebug_ranges0:
 2562 0000 18000000 		.4byte	.LBB63
 2563 0004 38000000 		.4byte	.LBE63
 2564 0008 3A000000 		.4byte	.LBB68
 2565 000c 40000000 		.4byte	.LBE68
ARM GAS  /var/folders/vd/czx34qs52cd_f3nb04sxmghc0000gn/T//ccrwAV4C.s 			page 46


 2566 0010 00000000 		.4byte	0
 2567 0014 00000000 		.4byte	0
 2568 0018 00000000 		.4byte	.LFB280
 2569 001c 12000000 		.4byte	.LFE280
 2570 0020 00000000 		.4byte	.LFB281
 2571 0024 50000000 		.4byte	.LFE281
 2572 0028 00000000 		.4byte	0
 2573 002c 00000000 		.4byte	0
 2574              		.section	.debug_line,"",%progbits
 2575              	.Ldebug_line0:
 2576 0000 4E030000 		.section	.debug_str,"MS",%progbits,1
 2576      0200D402 
 2576      00000201 
 2576      FB0E0D00 
 2576      01010101 
 2577              	.LASF54:
 2578 0000 72656164 		.ascii	"ready_list_t\000"
 2578      795F6C69 
 2578      73745F74 
 2578      00
 2579              	.LASF4:
 2580 000d 73697A65 		.ascii	"size_t\000"
 2580      5F7400
 2581              	.LASF60:
 2582 0014 64656C74 		.ascii	"delta\000"
 2582      6100
 2583              	.LASF104:
 2584 001a 7264796D 		.ascii	"rdymsg\000"
 2584      736700
 2585              	.LASF20:
 2586 0021 75696E74 		.ascii	"uint64_t\000"
 2586      36345F74 
 2586      00
 2587              	.LASF5:
 2588 002a 5F5F7569 		.ascii	"__uint8_t\000"
 2588      6E74385F 
 2588      7400
 2589              	.LASF53:
 2590 0034 70726576 		.ascii	"prev\000"
 2590      00
 2591              	.LASF98:
 2592 0039 706F7274 		.ascii	"port_intctx\000"
 2592      5F696E74 
 2592      63747800 
 2593              	.LASF65:
 2594 0045 73797374 		.ascii	"system_debug_t\000"
 2594      656D5F64 
 2594      65627567 
 2594      5F7400
 2595              	.LASF147:
 2596 0054 70726F76 		.ascii	"provider\000"
 2596      69646572 
 2596      00
 2597              	.LASF157:
 2598 005d 73656D5F 		.ascii	"sem_list\000"
 2598      6C697374 
 2598      00
ARM GAS  /var/folders/vd/czx34qs52cd_f3nb04sxmghc0000gn/T//ccrwAV4C.s 			page 47


 2599              	.LASF169:
 2600 0066 706F7274 		.ascii	"port_lock\000"
 2600      5F6C6F63 
 2600      6B00
 2601              	.LASF139:
 2602 0070 6D656D67 		.ascii	"memgetfunc_t\000"
 2602      65746675 
 2602      6E635F74 
 2602      00
 2603              	.LASF15:
 2604 007d 6C6F6E67 		.ascii	"long long unsigned int\000"
 2604      206C6F6E 
 2604      6720756E 
 2604      7369676E 
 2604      65642069 
 2605              	.LASF105:
 2606 0094 65786974 		.ascii	"exitcode\000"
 2606      636F6465 
 2606      00
 2607              	.LASF72:
 2608 009d 6D61696E 		.ascii	"mainthread\000"
 2608      74687265 
 2608      616400
 2609              	.LASF108:
 2610 00a8 73656E74 		.ascii	"sentmsg\000"
 2610      6D736700 
 2611              	.LASF62:
 2612 00b0 76697274 		.ascii	"virtual_timers_list_t\000"
 2612      75616C5F 
 2612      74696D65 
 2612      72735F6C 
 2612      6973745F 
 2613              	.LASF75:
 2614 00c6 43505549 		.ascii	"CPUID\000"
 2614      4400
 2615              	.LASF50:
 2616 00cc 6E657874 		.ascii	"next\000"
 2616      00
 2617              	.LASF52:
 2618 00d1 63685F74 		.ascii	"ch_threads_queue\000"
 2618      68726561 
 2618      64735F71 
 2618      75657565 
 2618      00
 2619              	.LASF39:
 2620 00e2 72656673 		.ascii	"refs\000"
 2620      00
 2621              	.LASF87:
 2622 00e7 49534152 		.ascii	"ISAR\000"
 2622      00
 2623              	.LASF1:
 2624 00ec 6C6F6E67 		.ascii	"long long int\000"
 2624      206C6F6E 
 2624      6720696E 
 2624      7400
 2625              	.LASF3:
 2626 00fa 7369676E 		.ascii	"signed char\000"
ARM GAS  /var/folders/vd/czx34qs52cd_f3nb04sxmghc0000gn/T//ccrwAV4C.s 			page 48


 2626      65642063 
 2626      68617200 
 2627              	.LASF119:
 2628 0106 73697A65 		.ascii	"size\000"
 2628      00
 2629              	.LASF70:
 2630 010b 726C6973 		.ascii	"rlist\000"
 2630      7400
 2631              	.LASF172:
 2632 0111 62617365 		.ascii	"basePri\000"
 2632      50726900 
 2633              	.LASF71:
 2634 0119 76746C69 		.ascii	"vtlist\000"
 2634      737400
 2635              	.LASF168:
 2636 0120 706F7274 		.ascii	"port_unlock\000"
 2636      5F756E6C 
 2636      6F636B00 
 2637              	.LASF41:
 2638 012c 6D736771 		.ascii	"msgqueue\000"
 2638      75657565 
 2638      00
 2639              	.LASF37:
 2640 0135 73746174 		.ascii	"state\000"
 2640      6500
 2641              	.LASF11:
 2642 013b 6C6F6E67 		.ascii	"long int\000"
 2642      20696E74 
 2642      00
 2643              	.LASF23:
 2644 0144 74737461 		.ascii	"tstate_t\000"
 2644      74655F74 
 2644      00
 2645              	.LASF61:
 2646 014d 66756E63 		.ascii	"func\000"
 2646      00
 2647              	.LASF117:
 2648 0152 6964656E 		.ascii	"identifier\000"
 2648      74696669 
 2648      657200
 2649              	.LASF17:
 2650 015d 75696E74 		.ascii	"uint16_t\000"
 2650      31365F74 
 2650      00
 2651              	.LASF135:
 2652 0166 63686465 		.ascii	"chdebug_t\000"
 2652      6275675F 
 2652      7400
 2653              	.LASF133:
 2654 0170 6F66665F 		.ascii	"off_preempt\000"
 2654      70726565 
 2654      6D707400 
 2655              	.LASF179:
 2656 017c 63685363 		.ascii	"chSchIsPreemptionRequired\000"
 2656      68497350 
 2656      7265656D 
 2656      7074696F 
ARM GAS  /var/folders/vd/czx34qs52cd_f3nb04sxmghc0000gn/T//ccrwAV4C.s 			page 49


 2656      6E526571 
 2657              	.LASF12:
 2658 0196 5F5F7569 		.ascii	"__uint32_t\000"
 2658      6E743332 
 2658      5F7400
 2659              	.LASF95:
 2660 01a1 72656761 		.ascii	"regarm_t\000"
 2660      726D5F74 
 2660      00
 2661              	.LASF90:
 2662 01aa 5343425F 		.ascii	"SCB_Type\000"
 2662      54797065 
 2662      00
 2663              	.LASF66:
 2664 01b3 63685F73 		.ascii	"ch_system_debug\000"
 2664      79737465 
 2664      6D5F6465 
 2664      62756700 
 2665              	.LASF40:
 2666 01c3 77616974 		.ascii	"waiting\000"
 2666      696E6700 
 2667              	.LASF94:
 2668 01cb 41504250 		.ascii	"APBPrescTable\000"
 2668      72657363 
 2668      5461626C 
 2668      6500
 2669              	.LASF118:
 2670 01d9 7A65726F 		.ascii	"zero\000"
 2670      00
 2671              	.LASF137:
 2672 01de 6D757465 		.ascii	"mutex_t\000"
 2672      785F7400 
 2673              	.LASF146:
 2674 01e6 616C6967 		.ascii	"align\000"
 2674      6E00
 2675              	.LASF74:
 2676 01ec 73797369 		.ascii	"sysinterval_t\000"
 2676      6E746572 
 2676      76616C5F 
 2676      7400
 2677              	.LASF28:
 2678 01fa 636E745F 		.ascii	"cnt_t\000"
 2678      7400
 2679              	.LASF0:
 2680 0200 756E7369 		.ascii	"unsigned int\000"
 2680      676E6564 
 2680      20696E74 
 2680      00
 2681              	.LASF171:
 2682 020d 5F5F7365 		.ascii	"__set_PSP\000"
 2682      745F5053 
 2682      5000
 2683              	.LASF92:
 2684 0217 53797374 		.ascii	"SystemCoreClock\000"
 2684      656D436F 
 2684      7265436C 
 2684      6F636B00 
ARM GAS  /var/folders/vd/czx34qs52cd_f3nb04sxmghc0000gn/T//ccrwAV4C.s 			page 50


 2685              	.LASF109:
 2686 0227 77747365 		.ascii	"wtsemp\000"
 2686      6D7000
 2687              	.LASF176:
 2688 022e 2F557365 		.ascii	"/Users/lantian/Projects/stm32f407vet6/dev\000"
 2688      72732F6C 
 2688      616E7469 
 2688      616E2F50 
 2688      726F6A65 
 2689              	.LASF107:
 2690 0258 77747472 		.ascii	"wttrp\000"
 2690      7000
 2691              	.LASF136:
 2692 025e 63685F64 		.ascii	"ch_debug\000"
 2692      65627567 
 2692      00
 2693              	.LASF148:
 2694 0267 6D656D6F 		.ascii	"memory_pool_t\000"
 2694      72795F70 
 2694      6F6F6C5F 
 2694      7400
 2695              	.LASF35:
 2696 0275 6E616D65 		.ascii	"name\000"
 2696      00
 2697              	.LASF77:
 2698 027a 56544F52 		.ascii	"VTOR\000"
 2698      00
 2699              	.LASF175:
 2700 027f 2E2E2F6F 		.ascii	"../os/common/ports/ARMCMx/chcore_v7m.c\000"
 2700      732F636F 
 2700      6D6D6F6E 
 2700      2F706F72 
 2700      74732F41 
 2701              	.LASF132:
 2702 02a6 6F66665F 		.ascii	"off_refs\000"
 2702      72656673 
 2702      00
 2703              	.LASF156:
 2704 02af 6275665F 		.ascii	"buf_list\000"
 2704      6C697374 
 2704      00
 2705              	.LASF48:
 2706 02b8 63685F74 		.ascii	"ch_thread\000"
 2706      68726561 
 2706      6400
 2707              	.LASF84:
 2708 02c2 42464152 		.ascii	"BFAR\000"
 2708      00
 2709              	.LASF76:
 2710 02c7 49435352 		.ascii	"ICSR\000"
 2710      00
 2711              	.LASF26:
 2712 02cc 6D73675F 		.ascii	"msg_t\000"
 2712      7400
 2713              	.LASF78:
 2714 02d2 41495243 		.ascii	"AIRCR\000"
 2714      5200
ARM GAS  /var/folders/vd/czx34qs52cd_f3nb04sxmghc0000gn/T//ccrwAV4C.s 			page 51


 2715              	.LASF82:
 2716 02d8 44465352 		.ascii	"DFSR\000"
 2716      00
 2717              	.LASF29:
 2718 02dd 75636E74 		.ascii	"ucnt_t\000"
 2718      5F7400
 2719              	.LASF42:
 2720 02e4 6570656E 		.ascii	"epending\000"
 2720      64696E67 
 2720      00
 2721              	.LASF152:
 2722 02ed 64796E5F 		.ascii	"dyn_list_t\000"
 2722      6C697374 
 2722      5F7400
 2723              	.LASF83:
 2724 02f8 4D4D4641 		.ascii	"MMFAR\000"
 2724      5200
 2725              	.LASF163:
 2726 02fe 5F706F72 		.ascii	"_port_irq_epilogue\000"
 2726      745F6972 
 2726      715F6570 
 2726      696C6F67 
 2726      756500
 2727              	.LASF125:
 2728 0311 6F66665F 		.ascii	"off_ctx\000"
 2728      63747800 
 2729              	.LASF22:
 2730 0319 746D6F64 		.ascii	"tmode_t\000"
 2730      655F7400 
 2731              	.LASF55:
 2732 0321 63685F72 		.ascii	"ch_ready_list\000"
 2732      65616479 
 2732      5F6C6973 
 2732      7400
 2733              	.LASF27:
 2734 032f 6576656E 		.ascii	"eventmask_t\000"
 2734      746D6173 
 2734      6B5F7400 
 2735              	.LASF93:
 2736 033b 41484250 		.ascii	"AHBPrescTable\000"
 2736      72657363 
 2736      5461626C 
 2736      6500
 2737              	.LASF141:
 2738 0349 656E646D 		.ascii	"endmem\000"
 2738      656D00
 2739              	.LASF10:
 2740 0350 5F5F696E 		.ascii	"__int32_t\000"
 2740      7433325F 
 2740      7400
 2741              	.LASF96:
 2742 035a 73746B61 		.ascii	"stkalign_t\000"
 2742      6C69676E 
 2742      5F7400
 2743              	.LASF33:
 2744 0365 6E657765 		.ascii	"newer\000"
 2744      7200
ARM GAS  /var/folders/vd/czx34qs52cd_f3nb04sxmghc0000gn/T//ccrwAV4C.s 			page 52


 2745              	.LASF47:
 2746 036b 74687265 		.ascii	"threads_list_t\000"
 2746      6164735F 
 2746      6C697374 
 2746      5F7400
 2747              	.LASF44:
 2748 037a 7265616C 		.ascii	"realprio\000"
 2748      7072696F 
 2748      00
 2749              	.LASF120:
 2750 0383 76657273 		.ascii	"version\000"
 2750      696F6E00 
 2751              	.LASF21:
 2752 038b 7274636E 		.ascii	"rtcnt_t\000"
 2752      745F7400 
 2753              	.LASF150:
 2754 0393 64796E5F 		.ascii	"dyn_element_t\000"
 2754      656C656D 
 2754      656E745F 
 2754      7400
 2755              	.LASF174:
 2756 03a1 474E5520 		.ascii	"GNU C11 7.2.1 20170904 (release) [ARM/embedded-7-br"
 2756      43313120 
 2756      372E322E 
 2756      31203230 
 2756      31373039 
 2757 03d4 616E6368 		.ascii	"anch revision 255204] -mcpu=cortex-m4 -mno-thumb-in"
 2757      20726576 
 2757      6973696F 
 2757      6E203235 
 2757      35323034 
 2758 0407 74657277 		.ascii	"terwork -mthumb -ggdb -O2 -fomit-frame-pointer -fal"
 2758      6F726B20 
 2758      2D6D7468 
 2758      756D6220 
 2758      2D676764 
 2759 043a 69676E2D 		.ascii	"ign-functions=16 -ffunction-sections -fdata-section"
 2759      66756E63 
 2759      74696F6E 
 2759      733D3136 
 2759      202D6666 
 2760 046d 73202D66 		.ascii	"s -fno-common\000"
 2760      6E6F2D63 
 2760      6F6D6D6F 
 2760      6E00
 2761              	.LASF63:
 2762 047b 63685F76 		.ascii	"ch_virtual_timers_list\000"
 2762      69727475 
 2762      616C5F74 
 2762      696D6572 
 2762      735F6C69 
 2763              	.LASF2:
 2764 0492 6C6F6E67 		.ascii	"long double\000"
 2764      20646F75 
 2764      626C6500 
 2765              	.LASF31:
 2766 049e 71756575 		.ascii	"queue\000"
ARM GAS  /var/folders/vd/czx34qs52cd_f3nb04sxmghc0000gn/T//ccrwAV4C.s 			page 53


 2766      6500
 2767              	.LASF151:
 2768 04a4 63685F64 		.ascii	"ch_dyn_list\000"
 2768      796E5F6C 
 2768      69737400 
 2769              	.LASF80:
 2770 04b0 43465352 		.ascii	"CFSR\000"
 2770      00
 2771              	.LASF126:
 2772 04b5 6F66665F 		.ascii	"off_newer\000"
 2772      6E657765 
 2772      7200
 2773              	.LASF97:
 2774 04bf 706F7274 		.ascii	"port_context\000"
 2774      5F636F6E 
 2774      74657874 
 2774      00
 2775              	.LASF99:
 2776 04cc 706F7274 		.ascii	"port_extctx\000"
 2776      5F657874 
 2776      63747800 
 2777              	.LASF103:
 2778 04d8 746D5F63 		.ascii	"tm_calibration_t\000"
 2778      616C6962 
 2778      72617469 
 2778      6F6E5F74 
 2778      00
 2779              	.LASF32:
 2780 04e9 7072696F 		.ascii	"prio\000"
 2780      00
 2781              	.LASF158:
 2782 04ee 73656D5F 		.ascii	"sem_pool\000"
 2782      706F6F6C 
 2782      00
 2783              	.LASF56:
 2784 04f7 63757272 		.ascii	"current\000"
 2784      656E7400 
 2785              	.LASF14:
 2786 04ff 5F5F7569 		.ascii	"__uint64_t\000"
 2786      6E743634 
 2786      5F7400
 2787              	.LASF142:
 2788 050a 6D656D63 		.ascii	"memcore_t\000"
 2788      6F72655F 
 2788      7400
 2789              	.LASF24:
 2790 0514 74726566 		.ascii	"trefs_t\000"
 2790      735F7400 
 2791              	.LASF88:
 2792 051c 52455345 		.ascii	"RESERVED0\000"
 2792      52564544 
 2792      3000
 2793              	.LASF165:
 2794 0526 63747870 		.ascii	"ctxp\000"
 2794      00
 2795              	.LASF58:
 2796 052b 76697274 		.ascii	"virtual_timer_t\000"
ARM GAS  /var/folders/vd/czx34qs52cd_f3nb04sxmghc0000gn/T//ccrwAV4C.s 			page 54


 2796      75616C5F 
 2796      74696D65 
 2796      725F7400 
 2797              	.LASF149:
 2798 053b 63685F64 		.ascii	"ch_dyn_element\000"
 2798      796E5F65 
 2798      6C656D65 
 2798      6E7400
 2799              	.LASF25:
 2800 054a 74707269 		.ascii	"tprio_t\000"
 2800      6F5F7400 
 2801              	.LASF123:
 2802 0552 74687265 		.ascii	"threadsize\000"
 2802      61647369 
 2802      7A6500
 2803              	.LASF138:
 2804 055d 5F426F6F 		.ascii	"_Bool\000"
 2804      6C00
 2805              	.LASF18:
 2806 0563 696E7433 		.ascii	"int32_t\000"
 2806      325F7400 
 2807              	.LASF6:
 2808 056b 756E7369 		.ascii	"unsigned char\000"
 2808      676E6564 
 2808      20636861 
 2808      7200
 2809              	.LASF124:
 2810 0579 6F66665F 		.ascii	"off_prio\000"
 2810      7072696F 
 2810      00
 2811              	.LASF129:
 2812 0582 6F66665F 		.ascii	"off_stklimit\000"
 2812      73746B6C 
 2812      696D6974 
 2812      00
 2813              	.LASF79:
 2814 058f 53484353 		.ascii	"SHCSR\000"
 2814      5200
 2815              	.LASF91:
 2816 0595 49544D5F 		.ascii	"ITM_RxBuffer\000"
 2816      52784275 
 2816      66666572 
 2816      00
 2817              	.LASF7:
 2818 05a2 73686F72 		.ascii	"short int\000"
 2818      7420696E 
 2818      7400
 2819              	.LASF64:
 2820 05ac 6C617374 		.ascii	"lasttime\000"
 2820      74696D65 
 2820      00
 2821              	.LASF101:
 2822 05b5 78707372 		.ascii	"xpsr\000"
 2822      00
 2823              	.LASF111:
 2824 05ba 65776D61 		.ascii	"ewmask\000"
 2824      736B00
ARM GAS  /var/folders/vd/czx34qs52cd_f3nb04sxmghc0000gn/T//ccrwAV4C.s 			page 55


 2825              	.LASF69:
 2826 05c1 63685F73 		.ascii	"ch_system\000"
 2826      79737465 
 2826      6D00
 2827              	.LASF162:
 2828 05cb 63685F66 		.ascii	"ch_factory\000"
 2828      6163746F 
 2828      727900
 2829              	.LASF100:
 2830 05d6 6C725F74 		.ascii	"lr_thd\000"
 2830      686400
 2831              	.LASF155:
 2832 05dd 6F626A5F 		.ascii	"obj_pool\000"
 2832      706F6F6C 
 2832      00
 2833              	.LASF164:
 2834 05e6 5356435F 		.ascii	"SVC_Handler\000"
 2834      48616E64 
 2834      6C657200 
 2835              	.LASF159:
 2836 05f2 6D62785F 		.ascii	"mbx_list\000"
 2836      6C697374 
 2836      00
 2837              	.LASF59:
 2838 05fb 63685F76 		.ascii	"ch_virtual_timer\000"
 2838      69727475 
 2838      616C5F74 
 2838      696D6572 
 2838      00
 2839              	.LASF112:
 2840 060c 63685F73 		.ascii	"ch_semaphore\000"
 2840      656D6170 
 2840      686F7265 
 2840      00
 2841              	.LASF134:
 2842 0619 6F66665F 		.ascii	"off_time\000"
 2842      74696D65 
 2842      00
 2843              	.LASF116:
 2844 0622 63685F69 		.ascii	"ch_idle_thread_wa\000"
 2844      646C655F 
 2844      74687265 
 2844      61645F77 
 2844      6100
 2845              	.LASF122:
 2846 0634 74696D65 		.ascii	"timesize\000"
 2846      73697A65 
 2846      00
 2847              	.LASF19:
 2848 063d 75696E74 		.ascii	"uint32_t\000"
 2848      33325F74 
 2848      00
 2849              	.LASF110:
 2850 0646 77746D74 		.ascii	"wtmtxp\000"
 2850      787000
 2851              	.LASF85:
 2852 064d 41465352 		.ascii	"AFSR\000"
ARM GAS  /var/folders/vd/czx34qs52cd_f3nb04sxmghc0000gn/T//ccrwAV4C.s 			page 56


 2852      00
 2853              	.LASF49:
 2854 0652 63685F74 		.ascii	"ch_threads_list\000"
 2854      68726561 
 2854      64735F6C 
 2854      69737400 
 2855              	.LASF114:
 2856 0662 6F776E65 		.ascii	"owner\000"
 2856      7200
 2857              	.LASF13:
 2858 0668 6C6F6E67 		.ascii	"long unsigned int\000"
 2858      20756E73 
 2858      69676E65 
 2858      6420696E 
 2858      7400
 2859              	.LASF36:
 2860 067a 77616261 		.ascii	"wabase\000"
 2860      736500
 2861              	.LASF115:
 2862 0681 63686172 		.ascii	"char\000"
 2862      00
 2863              	.LASF34:
 2864 0686 6F6C6465 		.ascii	"older\000"
 2864      7200
 2865              	.LASF154:
 2866 068c 6F626A5F 		.ascii	"obj_list\000"
 2866      6C697374 
 2866      00
 2867              	.LASF8:
 2868 0695 5F5F7569 		.ascii	"__uint16_t\000"
 2868      6E743136 
 2868      5F7400
 2869              	.LASF166:
 2870 06a0 706F7274 		.ascii	"port_unlock_from_isr\000"
 2870      5F756E6C 
 2870      6F636B5F 
 2870      66726F6D 
 2870      5F697372 
 2871              	.LASF30:
 2872 06b5 74687265 		.ascii	"thread_t\000"
 2872      61645F74 
 2872      00
 2873              	.LASF143:
 2874 06be 63685F6D 		.ascii	"ch_memcore\000"
 2874      656D636F 
 2874      726500
 2875              	.LASF73:
 2876 06c9 73797374 		.ascii	"systime_t\000"
 2876      696D655F 
 2876      7400
 2877              	.LASF57:
 2878 06d3 76746675 		.ascii	"vtfunc_t\000"
 2878      6E635F74 
 2878      00
 2879              	.LASF170:
 2880 06dc 5F5F7365 		.ascii	"__set_BASEPRI\000"
 2880      745F4241 
ARM GAS  /var/folders/vd/czx34qs52cd_f3nb04sxmghc0000gn/T//ccrwAV4C.s 			page 57


 2880      53455052 
 2880      4900
 2881              	.LASF67:
 2882 06ea 70616E69 		.ascii	"panic_msg\000"
 2882      635F6D73 
 2882      6700
 2883              	.LASF173:
 2884 06f4 746F704F 		.ascii	"topOfProcStack\000"
 2884      6650726F 
 2884      63537461 
 2884      636B00
 2885              	.LASF102:
 2886 0703 6F666673 		.ascii	"offset\000"
 2886      657400
 2887              	.LASF113:
 2888 070a 63685F6D 		.ascii	"ch_mutex\000"
 2888      75746578 
 2888      00
 2889              	.LASF127:
 2890 0713 6F66665F 		.ascii	"off_older\000"
 2890      6F6C6465 
 2890      7200
 2891              	.LASF9:
 2892 071d 73686F72 		.ascii	"short unsigned int\000"
 2892      7420756E 
 2892      7369676E 
 2892      65642069 
 2892      6E7400
 2893              	.LASF68:
 2894 0730 63685F73 		.ascii	"ch_system_t\000"
 2894      79737465 
 2894      6D5F7400 
 2895              	.LASF167:
 2896 073c 706F7274 		.ascii	"port_lock_from_isr\000"
 2896      5F6C6F63 
 2896      6B5F6672 
 2896      6F6D5F69 
 2896      737200
 2897              	.LASF177:
 2898 074f 5F5F6765 		.ascii	"__get_PSP\000"
 2898      745F5053 
 2898      5000
 2899              	.LASF145:
 2900 0759 6F626A65 		.ascii	"object_size\000"
 2900      63745F73 
 2900      697A6500 
 2901              	.LASF45:
 2902 0765 6D706F6F 		.ascii	"mpool\000"
 2902      6C00
 2903              	.LASF121:
 2904 076b 70747273 		.ascii	"ptrsize\000"
 2904      697A6500 
 2905              	.LASF153:
 2906 0773 63685F6F 		.ascii	"ch_objects_factory\000"
 2906      626A6563 
 2906      74735F66 
 2906      6163746F 
ARM GAS  /var/folders/vd/czx34qs52cd_f3nb04sxmghc0000gn/T//ccrwAV4C.s 			page 58


 2906      727900
 2907              	.LASF51:
 2908 0786 74687265 		.ascii	"threads_queue_t\000"
 2908      6164735F 
 2908      71756575 
 2908      655F7400 
 2909              	.LASF144:
 2910 0796 706F6F6C 		.ascii	"pool_header\000"
 2910      5F686561 
 2910      64657200 
 2911              	.LASF86:
 2912 07a2 4D4D4652 		.ascii	"MMFR\000"
 2912      00
 2913              	.LASF128:
 2914 07a7 6F66665F 		.ascii	"off_name\000"
 2914      6E616D65 
 2914      00
 2915              	.LASF16:
 2916 07b0 75696E74 		.ascii	"uint8_t\000"
 2916      385F7400 
 2917              	.LASF38:
 2918 07b8 666C6167 		.ascii	"flags\000"
 2918      7300
 2919              	.LASF160:
 2920 07be 6669666F 		.ascii	"fifo_list\000"
 2920      5F6C6973 
 2920      7400
 2921              	.LASF131:
 2922 07c8 6F66665F 		.ascii	"off_flags\000"
 2922      666C6167 
 2922      7300
 2923              	.LASF46:
 2924 07d2 74687265 		.ascii	"thread_reference_t\000"
 2924      61645F72 
 2924      65666572 
 2924      656E6365 
 2924      5F7400
 2925              	.LASF106:
 2926 07e5 77746F62 		.ascii	"wtobjp\000"
 2926      6A7000
 2927              	.LASF130:
 2928 07ec 6F66665F 		.ascii	"off_state\000"
 2928      73746174 
 2928      6500
 2929              	.LASF161:
 2930 07f6 6F626A65 		.ascii	"objects_factory_t\000"
 2930      6374735F 
 2930      66616374 
 2930      6F72795F 
 2930      7400
 2931              	.LASF89:
 2932 0808 43504143 		.ascii	"CPACR\000"
 2932      5200
 2933              	.LASF81:
 2934 080e 48465352 		.ascii	"HFSR\000"
 2934      00
 2935              	.LASF43:
ARM GAS  /var/folders/vd/czx34qs52cd_f3nb04sxmghc0000gn/T//ccrwAV4C.s 			page 59


 2936 0813 6D74786C 		.ascii	"mtxlist\000"
 2936      69737400 
 2937              	.LASF178:
 2938 081b 72657375 		.ascii	"result\000"
 2938      6C7400
 2939              	.LASF140:
 2940 0822 6E657874 		.ascii	"nextmem\000"
 2940      6D656D00 
 2941              		.ident	"GCC: (GNU Tools for Arm Embedded Processors 7-2017-q4-major) 7.2.1 20170904 (release) [ARM
ARM GAS  /var/folders/vd/czx34qs52cd_f3nb04sxmghc0000gn/T//ccrwAV4C.s 			page 60


DEFINED SYMBOLS
                            *ABS*:0000000000000000 chcore_v7m.c
/var/folders/vd/czx34qs52cd_f3nb04sxmghc0000gn/T//ccrwAV4C.s:16     .text.SVC_Handler:0000000000000000 $t
/var/folders/vd/czx34qs52cd_f3nb04sxmghc0000gn/T//ccrwAV4C.s:24     .text.SVC_Handler:0000000000000000 SVC_Handler
/var/folders/vd/czx34qs52cd_f3nb04sxmghc0000gn/T//ccrwAV4C.s:84     .text._port_irq_epilogue:0000000000000000 $t
/var/folders/vd/czx34qs52cd_f3nb04sxmghc0000gn/T//ccrwAV4C.s:92     .text._port_irq_epilogue:0000000000000000 _port_irq_epilogue
/var/folders/vd/czx34qs52cd_f3nb04sxmghc0000gn/T//ccrwAV4C.s:200    .text._port_irq_epilogue:0000000000000044 $d

UNDEFINED SYMBOLS
chSchIsPreemptionRequired
_port_switch_from_isr
_port_exit_from_isr
