ARM GAS  /var/folders/vd/czx34qs52cd_f3nb04sxmghc0000gn/T//ccpANHNE.s 			page 1


   1              		.cpu cortex-m4
   2              		.eabi_attribute 20, 1
   3              		.eabi_attribute 21, 1
   4              		.eabi_attribute 23, 3
   5              		.eabi_attribute 24, 1
   6              		.eabi_attribute 25, 1
   7              		.eabi_attribute 26, 1
   8              		.eabi_attribute 30, 2
   9              		.eabi_attribute 34, 1
  10              		.eabi_attribute 18, 4
  11              		.file	"chdynamic.c"
  12              		.text
  13              	.Ltext0:
  14              		.cfi_sections	.debug_frame
  15              		.section	.text.chThdCreateFromHeap,"ax",%progbits
  16              		.align	1
  17              		.p2align 4,,15
  18              		.global	chThdCreateFromHeap
  19              		.syntax unified
  20              		.thumb
  21              		.thumb_func
  22              		.fpu softvfp
  23              		.type	chThdCreateFromHeap, %function
  24              	chThdCreateFromHeap:
  25              	.LFB280:
  26              		.file 1 "../os/rt/src/chdynamic.c"
  27              		.loc 1 84 0
  28              		.cfi_startproc
  29              		@ args = 8, pretend = 0, frame = 24
  30              		@ frame_needed = 0, uses_anonymous_args = 0
  31              	.LVL0:
  32 0000 70B5     		push	{r4, r5, r6, lr}
  33              		.cfi_def_cfa_offset 16
  34              		.cfi_offset 4, -16
  35              		.cfi_offset 5, -12
  36              		.cfi_offset 6, -8
  37              		.cfi_offset 14, -4
  38 0002 1646     		mov	r6, r2
  39 0004 86B0     		sub	sp, sp, #24
  40              		.cfi_def_cfa_offset 40
  41              		.loc 1 88 0
  42 0006 0822     		movs	r2, #8
  43              	.LVL1:
  44              		.loc 1 84 0
  45 0008 1D46     		mov	r5, r3
  46 000a 0C46     		mov	r4, r1
  47              		.loc 1 88 0
  48 000c FFF7FEFF 		bl	chHeapAllocAligned
  49              	.LVL2:
  50              		.loc 1 89 0
  51 0010 D8B1     		cbz	r0, .L3
  52              		.loc 1 93 0
  53 0012 0A9B     		ldr	r3, [sp, #40]
  54 0014 0493     		str	r3, [sp, #16]
  55              		.loc 1 96 0
  56 0016 0444     		add	r4, r4, r0
  57              	.LVL3:
ARM GAS  /var/folders/vd/czx34qs52cd_f3nb04sxmghc0000gn/T//ccpANHNE.s 			page 2


  58              		.loc 1 93 0
  59 0018 0B9B     		ldr	r3, [sp, #44]
  60 001a 0593     		str	r3, [sp, #20]
  61              	.LVL4:
  62 001c 0294     		str	r4, [sp, #8]
  63 001e CDE90060 		strd	r6, r0, [sp]
  64 0022 0395     		str	r5, [sp, #12]
  65              	.LBB34:
  66              	.LBB35:
  67              	.LBB36:
  68              	.LBB37:
  69              		.file 2 "../os/common/ext/ARM/CMSIS/Core/Include/cmsis_gcc.h"
  70              		.loc 2 490 0
  71 0024 2023     		movs	r3, #32
  72              		.syntax unified
  73              	@ 490 "../os/common/ext/ARM/CMSIS/Core/Include/cmsis_gcc.h" 1
  74 0026 83F31188 		MSR basepri, r3
  75              	@ 0 "" 2
  76              	.LVL5:
  77              		.thumb
  78              		.syntax unified
  79              	.LBE37:
  80              	.LBE36:
  81              	.LBE35:
  82              	.LBE34:
  83              		.loc 1 109 0
  84 002a 6846     		mov	r0, sp
  85              	.LVL6:
  86 002c FFF7FEFF 		bl	chThdCreateSuspendedI
  87              	.LVL7:
  88              		.loc 1 110 0
  89 0030 0123     		movs	r3, #1
  90 0032 80F82130 		strb	r3, [r0, #33]
  91              		.loc 1 111 0
  92 0036 0021     		movs	r1, #0
  93              		.loc 1 109 0
  94 0038 0446     		mov	r4, r0
  95              	.LVL8:
  96              		.loc 1 111 0
  97 003a FFF7FEFF 		bl	chSchWakeupS
  98              	.LVL9:
  99              	.LBB38:
 100              	.LBB39:
 101              	.LBB40:
 102              	.LBB41:
 103              	.LBB42:
 104              		.loc 2 490 0
 105 003e 0023     		movs	r3, #0
 106              		.syntax unified
 107              	@ 490 "../os/common/ext/ARM/CMSIS/Core/Include/cmsis_gcc.h" 1
 108 0040 83F31188 		MSR basepri, r3
 109              	@ 0 "" 2
 110              	.LVL10:
 111              		.thumb
 112              		.syntax unified
 113              	.L1:
 114              	.LBE42:
ARM GAS  /var/folders/vd/czx34qs52cd_f3nb04sxmghc0000gn/T//ccpANHNE.s 			page 3


 115              	.LBE41:
 116              	.LBE40:
 117              	.LBE39:
 118              	.LBE38:
 119              		.loc 1 115 0
 120 0044 2046     		mov	r0, r4
 121 0046 06B0     		add	sp, sp, #24
 122              		.cfi_remember_state
 123              		.cfi_def_cfa_offset 16
 124              		@ sp needed
 125 0048 70BD     		pop	{r4, r5, r6, pc}
 126              	.LVL11:
 127              	.L3:
 128              		.cfi_restore_state
 129              		.loc 1 90 0
 130 004a 0446     		mov	r4, r0
 131              	.LVL12:
 132 004c FAE7     		b	.L1
 133              		.cfi_endproc
 134              	.LFE280:
 135              		.size	chThdCreateFromHeap, .-chThdCreateFromHeap
 136 004e 00BF     		.section	.text.chThdCreateFromMemoryPool,"ax",%progbits
 137              		.align	1
 138              		.p2align 4,,15
 139              		.global	chThdCreateFromMemoryPool
 140              		.syntax unified
 141              		.thumb
 142              		.thumb_func
 143              		.fpu softvfp
 144              		.type	chThdCreateFromMemoryPool, %function
 145              	chThdCreateFromMemoryPool:
 146              	.LFB281:
 147              		.loc 1 146 0
 148              		.cfi_startproc
 149              		@ args = 4, pretend = 0, frame = 24
 150              		@ frame_needed = 0, uses_anonymous_args = 0
 151              	.LVL13:
 152 0000 F0B5     		push	{r4, r5, r6, r7, lr}
 153              		.cfi_def_cfa_offset 20
 154              		.cfi_offset 4, -20
 155              		.cfi_offset 5, -16
 156              		.cfi_offset 6, -12
 157              		.cfi_offset 7, -8
 158              		.cfi_offset 14, -4
 159 0002 87B0     		sub	sp, sp, #28
 160              		.cfi_def_cfa_offset 48
 161              		.loc 1 146 0
 162 0004 0C46     		mov	r4, r1
 163 0006 1746     		mov	r7, r2
 164 0008 1E46     		mov	r6, r3
 165 000a 0546     		mov	r5, r0
 166              		.loc 1 152 0
 167 000c FFF7FEFF 		bl	chPoolAlloc
 168              	.LVL14:
 169              		.loc 1 153 0
 170 0010 E0B1     		cbz	r0, .L8
 171              		.loc 1 160 0
ARM GAS  /var/folders/vd/czx34qs52cd_f3nb04sxmghc0000gn/T//ccpANHNE.s 			page 4


 172 0012 6B68     		ldr	r3, [r5, #4]
 173              		.loc 1 157 0
 174 0014 0094     		str	r4, [sp]
 175              		.loc 1 160 0
 176 0016 C418     		adds	r4, r0, r3
 177              	.LVL15:
 178              		.loc 1 157 0
 179 0018 0C9B     		ldr	r3, [sp, #48]
 180 001a 0593     		str	r3, [sp, #20]
 181              	.LVL16:
 182 001c 0190     		str	r0, [sp, #4]
 183 001e CDE90376 		strd	r7, r6, [sp, #12]
 184 0022 0294     		str	r4, [sp, #8]
 185              	.LBB43:
 186              	.LBB44:
 187              	.LBB45:
 188              	.LBB46:
 189              		.loc 2 490 0
 190 0024 2023     		movs	r3, #32
 191              		.syntax unified
 192              	@ 490 "../os/common/ext/ARM/CMSIS/Core/Include/cmsis_gcc.h" 1
 193 0026 83F31188 		MSR basepri, r3
 194              	@ 0 "" 2
 195              	.LVL17:
 196              		.thumb
 197              		.syntax unified
 198              	.LBE46:
 199              	.LBE45:
 200              	.LBE44:
 201              	.LBE43:
 202              		.loc 1 173 0
 203 002a 6846     		mov	r0, sp
 204              	.LVL18:
 205 002c FFF7FEFF 		bl	chThdCreateSuspendedI
 206              	.LVL19:
 207              		.loc 1 174 0
 208 0030 0223     		movs	r3, #2
 209 0032 80F82130 		strb	r3, [r0, #33]
 210              		.loc 1 175 0
 211 0036 0564     		str	r5, [r0, #64]
 212              		.loc 1 176 0
 213 0038 0021     		movs	r1, #0
 214              		.loc 1 173 0
 215 003a 0446     		mov	r4, r0
 216              	.LVL20:
 217              		.loc 1 176 0
 218 003c FFF7FEFF 		bl	chSchWakeupS
 219              	.LVL21:
 220              	.LBB47:
 221              	.LBB48:
 222              	.LBB49:
 223              	.LBB50:
 224              	.LBB51:
 225              		.loc 2 490 0
 226 0040 0023     		movs	r3, #0
 227              		.syntax unified
 228              	@ 490 "../os/common/ext/ARM/CMSIS/Core/Include/cmsis_gcc.h" 1
ARM GAS  /var/folders/vd/czx34qs52cd_f3nb04sxmghc0000gn/T//ccpANHNE.s 			page 5


 229 0042 83F31188 		MSR basepri, r3
 230              	@ 0 "" 2
 231              	.LVL22:
 232              		.thumb
 233              		.syntax unified
 234              	.L6:
 235              	.LBE51:
 236              	.LBE50:
 237              	.LBE49:
 238              	.LBE48:
 239              	.LBE47:
 240              		.loc 1 180 0
 241 0046 2046     		mov	r0, r4
 242 0048 07B0     		add	sp, sp, #28
 243              		.cfi_remember_state
 244              		.cfi_def_cfa_offset 20
 245              		@ sp needed
 246 004a F0BD     		pop	{r4, r5, r6, r7, pc}
 247              	.LVL23:
 248              	.L8:
 249              		.cfi_restore_state
 250              		.loc 1 154 0
 251 004c 0446     		mov	r4, r0
 252              	.LVL24:
 253 004e FAE7     		b	.L6
 254              		.cfi_endproc
 255              	.LFE281:
 256              		.size	chThdCreateFromMemoryPool, .-chThdCreateFromMemoryPool
 257              		.text
 258              	.Letext0:
 259              		.file 3 "/usr/local/Cellar/gcc-arm-none-eabi/20171218/lib/gcc/arm-none-eabi/7.2.1/include/stddef.h
 260              		.file 4 "/usr/local/Cellar/gcc-arm-none-eabi/20171218/arm-none-eabi/include/machine/_default_types
 261              		.file 5 "/usr/local/Cellar/gcc-arm-none-eabi/20171218/arm-none-eabi/include/sys/_stdint.h"
 262              		.file 6 "../os/common/ports/ARMCMx/compilers/GCC/chtypes.h"
 263              		.file 7 "../os/rt/include/chsystypes.h"
 264              		.file 8 "../os/rt/include/chschd.h"
 265              		.file 9 "../os/rt/include/chtime.h"
 266              		.file 10 "../os/common/ext/ARM/CMSIS/Core/Include/core_cm4.h"
 267              		.file 11 "../os/common/ext/ST/STM32F4xx/system_stm32f4xx.h"
 268              		.file 12 "../os/common/ports/ARMCMx/chcore.h"
 269              		.file 13 "../os/common/ports/ARMCMx/chcore_v7m.h"
 270              		.file 14 "../os/rt/include/chtm.h"
 271              		.file 15 "../os/rt/include/chsem.h"
 272              		.file 16 "../os/rt/include/chmtx.h"
 273              		.file 17 "../os/rt/include/chsys.h"
 274              		.file 18 "../os/rt/include/chthreads.h"
 275              		.file 19 "../os/rt/include/chregistry.h"
 276              		.file 20 "../os/common/oslib/include/chmemcore.h"
 277              		.file 21 "../os/common/oslib/include/chheap.h"
 278              		.file 22 "../os/common/oslib/include/chmempools.h"
 279              		.file 23 "../os/common/oslib/include/chfactory.h"
 280              		.section	.debug_info,"",%progbits
 281              	.Ldebug_info0:
 282 0000 560E0000 		.4byte	0xe56
 283 0004 0400     		.2byte	0x4
 284 0006 00000000 		.4byte	.Ldebug_abbrev0
 285 000a 04       		.byte	0x4
ARM GAS  /var/folders/vd/czx34qs52cd_f3nb04sxmghc0000gn/T//ccpANHNE.s 			page 6


 286 000b 01       		.uleb128 0x1
 287 000c 3C010000 		.4byte	.LASF170
 288 0010 0C       		.byte	0xc
 289 0011 EB020000 		.4byte	.LASF171
 290 0015 93030000 		.4byte	.LASF172
 291 0019 00000000 		.4byte	.Ldebug_ranges0+0
 292 001d 00000000 		.4byte	0
 293 0021 00000000 		.4byte	.Ldebug_line0
 294 0025 02       		.uleb128 0x2
 295 0026 04       		.byte	0x4
 296 0027 05       		.byte	0x5
 297 0028 696E7400 		.ascii	"int\000"
 298 002c 03       		.uleb128 0x3
 299 002d 15000000 		.4byte	.LASF4
 300 0031 03       		.byte	0x3
 301 0032 D8       		.byte	0xd8
 302 0033 37000000 		.4byte	0x37
 303 0037 04       		.uleb128 0x4
 304 0038 04       		.byte	0x4
 305 0039 07       		.byte	0x7
 306 003a 66030000 		.4byte	.LASF0
 307 003e 04       		.uleb128 0x4
 308 003f 08       		.byte	0x8
 309 0040 05       		.byte	0x5
 310 0041 16020000 		.4byte	.LASF1
 311 0045 04       		.uleb128 0x4
 312 0046 08       		.byte	0x8
 313 0047 04       		.byte	0x4
 314 0048 C6040000 		.4byte	.LASF2
 315 004c 04       		.uleb128 0x4
 316 004d 01       		.byte	0x1
 317 004e 06       		.byte	0x6
 318 004f 24020000 		.4byte	.LASF3
 319 0053 03       		.uleb128 0x3
 320 0054 3D000000 		.4byte	.LASF5
 321 0058 04       		.byte	0x4
 322 0059 2B       		.byte	0x2b
 323 005a 5E000000 		.4byte	0x5e
 324 005e 04       		.uleb128 0x4
 325 005f 01       		.byte	0x1
 326 0060 08       		.byte	0x8
 327 0061 AF050000 		.4byte	.LASF6
 328 0065 04       		.uleb128 0x4
 329 0066 02       		.byte	0x2
 330 0067 05       		.byte	0x5
 331 0068 D3050000 		.4byte	.LASF7
 332 006c 03       		.uleb128 0x3
 333 006d C4060000 		.4byte	.LASF8
 334 0071 04       		.byte	0x4
 335 0072 39       		.byte	0x39
 336 0073 77000000 		.4byte	0x77
 337 0077 04       		.uleb128 0x4
 338 0078 02       		.byte	0x2
 339 0079 07       		.byte	0x7
 340 007a 3B070000 		.4byte	.LASF9
 341 007e 03       		.uleb128 0x3
 342 007f 68040000 		.4byte	.LASF10
ARM GAS  /var/folders/vd/czx34qs52cd_f3nb04sxmghc0000gn/T//ccpANHNE.s 			page 7


 343 0083 04       		.byte	0x4
 344 0084 4D       		.byte	0x4d
 345 0085 89000000 		.4byte	0x89
 346 0089 04       		.uleb128 0x4
 347 008a 04       		.byte	0x4
 348 008b 05       		.byte	0x5
 349 008c 75020000 		.4byte	.LASF11
 350 0090 03       		.uleb128 0x3
 351 0091 04030000 		.4byte	.LASF12
 352 0095 04       		.byte	0x4
 353 0096 4F       		.byte	0x4f
 354 0097 9B000000 		.4byte	0x9b
 355 009b 04       		.uleb128 0x4
 356 009c 04       		.byte	0x4
 357 009d 07       		.byte	0x7
 358 009e 97060000 		.4byte	.LASF13
 359 00a2 03       		.uleb128 0x3
 360 00a3 3D050000 		.4byte	.LASF14
 361 00a7 04       		.byte	0x4
 362 00a8 69       		.byte	0x69
 363 00a9 AD000000 		.4byte	0xad
 364 00ad 04       		.uleb128 0x4
 365 00ae 08       		.byte	0x8
 366 00af 07       		.byte	0x7
 367 00b0 BC000000 		.4byte	.LASF15
 368 00b4 03       		.uleb128 0x3
 369 00b5 A7070000 		.4byte	.LASF16
 370 00b9 05       		.byte	0x5
 371 00ba 18       		.byte	0x18
 372 00bb 53000000 		.4byte	0x53
 373 00bf 05       		.uleb128 0x5
 374 00c0 B4000000 		.4byte	0xb4
 375 00c4 03       		.uleb128 0x3
 376 00c5 73030000 		.4byte	.LASF17
 377 00c9 05       		.byte	0x5
 378 00ca 24       		.byte	0x24
 379 00cb 6C000000 		.4byte	0x6c
 380 00cf 03       		.uleb128 0x3
 381 00d0 A7050000 		.4byte	.LASF18
 382 00d4 05       		.byte	0x5
 383 00d5 2C       		.byte	0x2c
 384 00d6 7E000000 		.4byte	0x7e
 385 00da 06       		.uleb128 0x6
 386 00db CF000000 		.4byte	0xcf
 387 00df 03       		.uleb128 0x3
 388 00e0 6C060000 		.4byte	.LASF19
 389 00e4 05       		.byte	0x5
 390 00e5 30       		.byte	0x30
 391 00e6 90000000 		.4byte	0x90
 392 00ea 03       		.uleb128 0x3
 393 00eb 34000000 		.4byte	.LASF20
 394 00ef 05       		.byte	0x5
 395 00f0 3C       		.byte	0x3c
 396 00f1 A2000000 		.4byte	0xa2
 397 00f5 03       		.uleb128 0x3
 398 00f6 94040000 		.4byte	.LASF21
 399 00fa 06       		.byte	0x6
ARM GAS  /var/folders/vd/czx34qs52cd_f3nb04sxmghc0000gn/T//ccpANHNE.s 			page 8


 400 00fb 39       		.byte	0x39
 401 00fc DF000000 		.4byte	0xdf
 402 0100 03       		.uleb128 0x3
 403 0101 31040000 		.4byte	.LASF22
 404 0105 06       		.byte	0x6
 405 0106 3C       		.byte	0x3c
 406 0107 B4000000 		.4byte	0xb4
 407 010b 03       		.uleb128 0x3
 408 010c 92020000 		.4byte	.LASF23
 409 0110 06       		.byte	0x6
 410 0111 3D       		.byte	0x3d
 411 0112 B4000000 		.4byte	0xb4
 412 0116 03       		.uleb128 0x3
 413 0117 57050000 		.4byte	.LASF24
 414 011b 06       		.byte	0x6
 415 011c 3E       		.byte	0x3e
 416 011d B4000000 		.4byte	0xb4
 417 0121 03       		.uleb128 0x3
 418 0122 8E050000 		.4byte	.LASF25
 419 0126 06       		.byte	0x6
 420 0127 40       		.byte	0x40
 421 0128 DF000000 		.4byte	0xdf
 422 012c 03       		.uleb128 0x3
 423 012d 02040000 		.4byte	.LASF26
 424 0131 06       		.byte	0x6
 425 0132 41       		.byte	0x41
 426 0133 CF000000 		.4byte	0xcf
 427 0137 03       		.uleb128 0x3
 428 0138 47040000 		.4byte	.LASF27
 429 013c 06       		.byte	0x6
 430 013d 43       		.byte	0x43
 431 013e DF000000 		.4byte	0xdf
 432 0142 03       		.uleb128 0x3
 433 0143 60030000 		.4byte	.LASF28
 434 0147 06       		.byte	0x6
 435 0148 45       		.byte	0x45
 436 0149 CF000000 		.4byte	0xcf
 437 014d 03       		.uleb128 0x3
 438 014e 08040000 		.4byte	.LASF29
 439 0152 06       		.byte	0x6
 440 0153 46       		.byte	0x46
 441 0154 DF000000 		.4byte	0xdf
 442 0158 03       		.uleb128 0x3
 443 0159 CF060000 		.4byte	.LASF30
 444 015d 07       		.byte	0x7
 445 015e 34       		.byte	0x34
 446 015f 63010000 		.4byte	0x163
 447 0163 07       		.uleb128 0x7
 448 0164 F8030000 		.4byte	.LASF48
 449 0168 44       		.byte	0x44
 450 0169 08       		.byte	0x8
 451 016a 8E       		.byte	0x8e
 452 016b 41020000 		.4byte	0x241
 453 016f 08       		.uleb128 0x8
 454 0170 DA030000 		.4byte	.LASF31
 455 0174 08       		.byte	0x8
 456 0175 8F       		.byte	0x8f
ARM GAS  /var/folders/vd/czx34qs52cd_f3nb04sxmghc0000gn/T//ccpANHNE.s 			page 9


 457 0176 76020000 		.4byte	0x276
 458 017a 00       		.byte	0
 459 017b 08       		.uleb128 0x8
 460 017c 27050000 		.4byte	.LASF32
 461 0180 08       		.byte	0x8
 462 0181 90       		.byte	0x90
 463 0182 21010000 		.4byte	0x121
 464 0186 08       		.byte	0x8
 465 0187 09       		.uleb128 0x9
 466 0188 63747800 		.ascii	"ctx\000"
 467 018c 08       		.byte	0x8
 468 018d 91       		.byte	0x91
 469 018e D4040000 		.4byte	0x4d4
 470 0192 0C       		.byte	0xc
 471 0193 08       		.uleb128 0x8
 472 0194 7D040000 		.4byte	.LASF33
 473 0198 08       		.byte	0x8
 474 0199 93       		.byte	0x93
 475 019a 4C020000 		.4byte	0x24c
 476 019e 10       		.byte	0x10
 477 019f 08       		.uleb128 0x8
 478 01a0 B5060000 		.4byte	.LASF34
 479 01a4 08       		.byte	0x8
 480 01a5 94       		.byte	0x94
 481 01a6 4C020000 		.4byte	0x24c
 482 01aa 14       		.byte	0x14
 483 01ab 08       		.uleb128 0x8
 484 01ac 18040000 		.4byte	.LASF35
 485 01b0 08       		.byte	0x8
 486 01b1 9B       		.byte	0x9b
 487 01b2 58060000 		.4byte	0x658
 488 01b6 18       		.byte	0x18
 489 01b7 08       		.uleb128 0x8
 490 01b8 A9060000 		.4byte	.LASF36
 491 01bc 08       		.byte	0x8
 492 01bd A4       		.byte	0xa4
 493 01be 6F060000 		.4byte	0x66f
 494 01c2 1C       		.byte	0x1c
 495 01c3 08       		.uleb128 0x8
 496 01c4 6F020000 		.4byte	.LASF37
 497 01c8 08       		.byte	0x8
 498 01c9 A9       		.byte	0xa9
 499 01ca 0B010000 		.4byte	0x10b
 500 01ce 20       		.byte	0x20
 501 01cf 08       		.uleb128 0x8
 502 01d0 BB070000 		.4byte	.LASF38
 503 01d4 08       		.byte	0x8
 504 01d5 AD       		.byte	0xad
 505 01d6 00010000 		.4byte	0x100
 506 01da 21       		.byte	0x21
 507 01db 08       		.uleb128 0x8
 508 01dc 5F050000 		.4byte	.LASF39
 509 01e0 08       		.byte	0x8
 510 01e1 B2       		.byte	0xb2
 511 01e2 16010000 		.4byte	0x116
 512 01e6 22       		.byte	0x22
 513 01e7 0A       		.uleb128 0xa
ARM GAS  /var/folders/vd/czx34qs52cd_f3nb04sxmghc0000gn/T//ccpANHNE.s 			page 10


 514 01e8 7500     		.ascii	"u\000"
 515 01ea 08       		.byte	0x8
 516 01eb 0301     		.2byte	0x103
 517 01ed 8E050000 		.4byte	0x58e
 518 01f1 24       		.byte	0x24
 519 01f2 0B       		.uleb128 0xb
 520 01f3 31030000 		.4byte	.LASF40
 521 01f7 08       		.byte	0x8
 522 01f8 0801     		.2byte	0x108
 523 01fa 52020000 		.4byte	0x252
 524 01fe 28       		.byte	0x28
 525 01ff 0B       		.uleb128 0xb
 526 0200 66020000 		.4byte	.LASF41
 527 0204 08       		.byte	0x8
 528 0205 0E01     		.2byte	0x10e
 529 0207 76020000 		.4byte	0x276
 530 020b 2C       		.byte	0x2c
 531 020c 0B       		.uleb128 0xb
 532 020d 0F040000 		.4byte	.LASF42
 533 0211 08       		.byte	0x8
 534 0212 1401     		.2byte	0x114
 535 0214 37010000 		.4byte	0x137
 536 0218 34       		.byte	0x34
 537 0219 0B       		.uleb128 0xb
 538 021a 13080000 		.4byte	.LASF43
 539 021e 08       		.byte	0x8
 540 021f 1B01     		.2byte	0x11b
 541 0221 52060000 		.4byte	0x652
 542 0225 38       		.byte	0x38
 543 0226 0B       		.uleb128 0xb
 544 0227 83040000 		.4byte	.LASF44
 545 022b 08       		.byte	0x8
 546 022c 1F01     		.2byte	0x11f
 547 022e 21010000 		.4byte	0x121
 548 0232 3C       		.byte	0x3c
 549 0233 0B       		.uleb128 0xb
 550 0234 E0030000 		.4byte	.LASF45
 551 0238 08       		.byte	0x8
 552 0239 2601     		.2byte	0x126
 553 023b 29030000 		.4byte	0x329
 554 023f 40       		.byte	0x40
 555 0240 00       		.byte	0
 556 0241 03       		.uleb128 0x3
 557 0242 9C040000 		.4byte	.LASF46
 558 0246 07       		.byte	0x7
 559 0247 39       		.byte	0x39
 560 0248 4C020000 		.4byte	0x24c
 561 024c 0C       		.uleb128 0xc
 562 024d 04       		.byte	0x4
 563 024e 58010000 		.4byte	0x158
 564 0252 03       		.uleb128 0x3
 565 0253 D2070000 		.4byte	.LASF47
 566 0257 07       		.byte	0x7
 567 0258 3E       		.byte	0x3e
 568 0259 5D020000 		.4byte	0x25d
 569 025d 07       		.uleb128 0x7
 570 025e 7C060000 		.4byte	.LASF49
ARM GAS  /var/folders/vd/czx34qs52cd_f3nb04sxmghc0000gn/T//ccpANHNE.s 			page 11


 571 0262 04       		.byte	0x4
 572 0263 08       		.byte	0x8
 573 0264 7C       		.byte	0x7c
 574 0265 76020000 		.4byte	0x276
 575 0269 08       		.uleb128 0x8
 576 026a 1C000000 		.4byte	.LASF50
 577 026e 08       		.byte	0x8
 578 026f 7D       		.byte	0x7d
 579 0270 4C020000 		.4byte	0x24c
 580 0274 00       		.byte	0
 581 0275 00       		.byte	0
 582 0276 03       		.uleb128 0x3
 583 0277 82070000 		.4byte	.LASF51
 584 027b 07       		.byte	0x7
 585 027c 45       		.byte	0x45
 586 027d 81020000 		.4byte	0x281
 587 0281 07       		.uleb128 0x7
 588 0282 2B010000 		.4byte	.LASF52
 589 0286 08       		.byte	0x8
 590 0287 08       		.byte	0x8
 591 0288 83       		.byte	0x83
 592 0289 A6020000 		.4byte	0x2a6
 593 028d 08       		.uleb128 0x8
 594 028e 1C000000 		.4byte	.LASF50
 595 0292 08       		.byte	0x8
 596 0293 84       		.byte	0x84
 597 0294 4C020000 		.4byte	0x24c
 598 0298 00       		.byte	0
 599 0299 08       		.uleb128 0x8
 600 029a 47000000 		.4byte	.LASF53
 601 029e 08       		.byte	0x8
 602 029f 85       		.byte	0x85
 603 02a0 4C020000 		.4byte	0x24c
 604 02a4 04       		.byte	0x4
 605 02a5 00       		.byte	0
 606 02a6 03       		.uleb128 0x3
 607 02a7 08000000 		.4byte	.LASF54
 608 02ab 07       		.byte	0x7
 609 02ac 4C       		.byte	0x4c
 610 02ad B1020000 		.4byte	0x2b1
 611 02b1 0D       		.uleb128 0xd
 612 02b2 39040000 		.4byte	.LASF55
 613 02b6 1C       		.byte	0x1c
 614 02b7 08       		.byte	0x8
 615 02b8 5E01     		.2byte	0x15e
 616 02ba 0D030000 		.4byte	0x30d
 617 02be 0B       		.uleb128 0xb
 618 02bf DA030000 		.4byte	.LASF31
 619 02c3 08       		.byte	0x8
 620 02c4 5F01     		.2byte	0x15f
 621 02c6 76020000 		.4byte	0x276
 622 02ca 00       		.byte	0
 623 02cb 0B       		.uleb128 0xb
 624 02cc 27050000 		.4byte	.LASF32
 625 02d0 08       		.byte	0x8
 626 02d1 6001     		.2byte	0x160
 627 02d3 21010000 		.4byte	0x121
ARM GAS  /var/folders/vd/czx34qs52cd_f3nb04sxmghc0000gn/T//ccpANHNE.s 			page 12


 628 02d7 08       		.byte	0x8
 629 02d8 0A       		.uleb128 0xa
 630 02d9 63747800 		.ascii	"ctx\000"
 631 02dd 08       		.byte	0x8
 632 02de 6201     		.2byte	0x162
 633 02e0 D4040000 		.4byte	0x4d4
 634 02e4 0C       		.byte	0xc
 635 02e5 0B       		.uleb128 0xb
 636 02e6 7D040000 		.4byte	.LASF33
 637 02ea 08       		.byte	0x8
 638 02eb 6501     		.2byte	0x165
 639 02ed 4C020000 		.4byte	0x24c
 640 02f1 10       		.byte	0x10
 641 02f2 0B       		.uleb128 0xb
 642 02f3 B5060000 		.4byte	.LASF34
 643 02f7 08       		.byte	0x8
 644 02f8 6601     		.2byte	0x166
 645 02fa 4C020000 		.4byte	0x24c
 646 02fe 14       		.byte	0x14
 647 02ff 0B       		.uleb128 0xb
 648 0300 35050000 		.4byte	.LASF56
 649 0304 08       		.byte	0x8
 650 0305 6901     		.2byte	0x169
 651 0307 4C020000 		.4byte	0x24c
 652 030b 18       		.byte	0x18
 653 030c 00       		.byte	0
 654 030d 03       		.uleb128 0x3
 655 030e ED060000 		.4byte	.LASF57
 656 0312 07       		.byte	0x7
 657 0313 51       		.byte	0x51
 658 0314 18030000 		.4byte	0x318
 659 0318 0C       		.uleb128 0xc
 660 0319 04       		.byte	0x4
 661 031a 1E030000 		.4byte	0x31e
 662 031e 0E       		.uleb128 0xe
 663 031f 29030000 		.4byte	0x329
 664 0323 0F       		.uleb128 0xf
 665 0324 29030000 		.4byte	0x329
 666 0328 00       		.byte	0
 667 0329 10       		.uleb128 0x10
 668 032a 04       		.byte	0x4
 669 032b 03       		.uleb128 0x3
 670 032c 64050000 		.4byte	.LASF58
 671 0330 07       		.byte	0x7
 672 0331 56       		.byte	0x56
 673 0332 36030000 		.4byte	0x336
 674 0336 0D       		.uleb128 0xd
 675 0337 2A060000 		.4byte	.LASF59
 676 033b 14       		.byte	0x14
 677 033c 08       		.byte	0x8
 678 033d 3901     		.2byte	0x139
 679 033f 85030000 		.4byte	0x385
 680 0343 0B       		.uleb128 0xb
 681 0344 1C000000 		.4byte	.LASF50
 682 0348 08       		.byte	0x8
 683 0349 3A01     		.2byte	0x13a
 684 034b 75060000 		.4byte	0x675
ARM GAS  /var/folders/vd/czx34qs52cd_f3nb04sxmghc0000gn/T//ccpANHNE.s 			page 13


 685 034f 00       		.byte	0
 686 0350 0B       		.uleb128 0xb
 687 0351 47000000 		.4byte	.LASF53
 688 0355 08       		.byte	0x8
 689 0356 3B01     		.2byte	0x13b
 690 0358 75060000 		.4byte	0x675
 691 035c 04       		.byte	0x4
 692 035d 0B       		.uleb128 0xb
 693 035e 21000000 		.4byte	.LASF60
 694 0362 08       		.byte	0x8
 695 0363 3C01     		.2byte	0x13c
 696 0365 5C040000 		.4byte	0x45c
 697 0369 08       		.byte	0x8
 698 036a 0B       		.uleb128 0xb
 699 036b 9B020000 		.4byte	.LASF61
 700 036f 08       		.byte	0x8
 701 0370 3D01     		.2byte	0x13d
 702 0372 0D030000 		.4byte	0x30d
 703 0376 0C       		.byte	0xc
 704 0377 0A       		.uleb128 0xa
 705 0378 70617200 		.ascii	"par\000"
 706 037c 08       		.byte	0x8
 707 037d 3F01     		.2byte	0x13f
 708 037f 29030000 		.4byte	0x329
 709 0383 10       		.byte	0x10
 710 0384 00       		.byte	0
 711 0385 03       		.uleb128 0x3
 712 0386 EF000000 		.4byte	.LASF62
 713 038a 07       		.byte	0x7
 714 038b 5B       		.byte	0x5b
 715 038c 90030000 		.4byte	0x390
 716 0390 0D       		.uleb128 0xd
 717 0391 AF040000 		.4byte	.LASF63
 718 0395 10       		.byte	0x10
 719 0396 08       		.byte	0x8
 720 0397 4901     		.2byte	0x149
 721 0399 D2030000 		.4byte	0x3d2
 722 039d 0B       		.uleb128 0xb
 723 039e 1C000000 		.4byte	.LASF50
 724 03a2 08       		.byte	0x8
 725 03a3 4A01     		.2byte	0x14a
 726 03a5 75060000 		.4byte	0x675
 727 03a9 00       		.byte	0
 728 03aa 0B       		.uleb128 0xb
 729 03ab 47000000 		.4byte	.LASF53
 730 03af 08       		.byte	0x8
 731 03b0 4C01     		.2byte	0x14c
 732 03b2 75060000 		.4byte	0x675
 733 03b6 04       		.byte	0x4
 734 03b7 0B       		.uleb128 0xb
 735 03b8 21000000 		.4byte	.LASF60
 736 03bc 08       		.byte	0x8
 737 03bd 4E01     		.2byte	0x14e
 738 03bf 5C040000 		.4byte	0x45c
 739 03c3 08       		.byte	0x8
 740 03c4 0B       		.uleb128 0xb
 741 03c5 DD050000 		.4byte	.LASF64
ARM GAS  /var/folders/vd/czx34qs52cd_f3nb04sxmghc0000gn/T//ccpANHNE.s 			page 14


 742 03c9 08       		.byte	0x8
 743 03ca 5601     		.2byte	0x156
 744 03cc 51040000 		.4byte	0x451
 745 03d0 0C       		.byte	0xc
 746 03d1 00       		.byte	0
 747 03d2 03       		.uleb128 0x3
 748 03d3 5E000000 		.4byte	.LASF65
 749 03d7 07       		.byte	0x7
 750 03d8 60       		.byte	0x60
 751 03d9 DD030000 		.4byte	0x3dd
 752 03dd 0D       		.uleb128 0xd
 753 03de 21030000 		.4byte	.LASF66
 754 03e2 04       		.byte	0x4
 755 03e3 08       		.byte	0x8
 756 03e4 7001     		.2byte	0x170
 757 03e6 F8030000 		.4byte	0x3f8
 758 03ea 0B       		.uleb128 0xb
 759 03eb 04070000 		.4byte	.LASF67
 760 03ef 08       		.byte	0x8
 761 03f0 7801     		.2byte	0x178
 762 03f2 5E060000 		.4byte	0x65e
 763 03f6 00       		.byte	0
 764 03f7 00       		.byte	0
 765 03f8 03       		.uleb128 0x3
 766 03f9 1D040000 		.4byte	.LASF68
 767 03fd 07       		.byte	0x7
 768 03fe 65       		.byte	0x65
 769 03ff 03040000 		.4byte	0x403
 770 0403 0D       		.uleb128 0xd
 771 0404 F9050000 		.4byte	.LASF69
 772 0408 78       		.byte	0x78
 773 0409 08       		.byte	0x8
 774 040a 9001     		.2byte	0x190
 775 040c 51040000 		.4byte	0x451
 776 0410 0B       		.uleb128 0xb
 777 0411 39030000 		.4byte	.LASF70
 778 0415 08       		.byte	0x8
 779 0416 9401     		.2byte	0x194
 780 0418 A6020000 		.4byte	0x2a6
 781 041c 00       		.byte	0
 782 041d 0B       		.uleb128 0xb
 783 041e 53020000 		.4byte	.LASF71
 784 0422 08       		.byte	0x8
 785 0423 9801     		.2byte	0x198
 786 0425 85030000 		.4byte	0x385
 787 0429 1C       		.byte	0x1c
 788 042a 0A       		.uleb128 0xa
 789 042b 64626700 		.ascii	"dbg\000"
 790 042f 08       		.byte	0x8
 791 0430 9C01     		.2byte	0x19c
 792 0432 D2030000 		.4byte	0x3d2
 793 0436 2C       		.byte	0x2c
 794 0437 0B       		.uleb128 0xb
 795 0438 DC000000 		.4byte	.LASF72
 796 043c 08       		.byte	0x8
 797 043d A001     		.2byte	0x1a0
 798 043f 58010000 		.4byte	0x158
ARM GAS  /var/folders/vd/czx34qs52cd_f3nb04sxmghc0000gn/T//ccpANHNE.s 			page 15


 799 0443 30       		.byte	0x30
 800 0444 0A       		.uleb128 0xa
 801 0445 746D00   		.ascii	"tm\000"
 802 0448 08       		.byte	0x8
 803 0449 A501     		.2byte	0x1a5
 804 044b 83050000 		.4byte	0x583
 805 044f 74       		.byte	0x74
 806 0450 00       		.byte	0
 807 0451 03       		.uleb128 0x3
 808 0452 E3060000 		.4byte	.LASF73
 809 0456 09       		.byte	0x9
 810 0457 8C       		.byte	0x8c
 811 0458 DF000000 		.4byte	0xdf
 812 045c 03       		.uleb128 0x3
 813 045d 52030000 		.4byte	.LASF74
 814 0461 09       		.byte	0x9
 815 0462 98       		.byte	0x98
 816 0463 DF000000 		.4byte	0xdf
 817 0467 11       		.uleb128 0x11
 818 0468 05010000 		.4byte	.LASF75
 819 046c 0A       		.byte	0xa
 820 046d F407     		.2byte	0x7f4
 821 046f DA000000 		.4byte	0xda
 822 0473 12       		.uleb128 0x12
 823 0474 7C030000 		.4byte	.LASF76
 824 0478 0B       		.byte	0xb
 825 0479 4C       		.byte	0x4c
 826 047a DF000000 		.4byte	0xdf
 827 047e 13       		.uleb128 0x13
 828 047f BF000000 		.4byte	0xbf
 829 0483 8E040000 		.4byte	0x48e
 830 0487 14       		.uleb128 0x14
 831 0488 37000000 		.4byte	0x37
 832 048c 0F       		.byte	0xf
 833 048d 00       		.byte	0
 834 048e 05       		.uleb128 0x5
 835 048f 7E040000 		.4byte	0x47e
 836 0493 12       		.uleb128 0x12
 837 0494 53040000 		.4byte	.LASF77
 838 0498 0B       		.byte	0xb
 839 0499 4E       		.byte	0x4e
 840 049a 8E040000 		.4byte	0x48e
 841 049e 13       		.uleb128 0x13
 842 049f BF000000 		.4byte	0xbf
 843 04a3 AE040000 		.4byte	0x4ae
 844 04a7 14       		.uleb128 0x14
 845 04a8 37000000 		.4byte	0x37
 846 04ac 07       		.byte	0x7
 847 04ad 00       		.byte	0
 848 04ae 05       		.uleb128 0x5
 849 04af 9E040000 		.4byte	0x49e
 850 04b3 12       		.uleb128 0x12
 851 04b4 E8040000 		.4byte	.LASF78
 852 04b8 0B       		.byte	0xb
 853 04b9 4F       		.byte	0x4f
 854 04ba AE040000 		.4byte	0x4ae
 855 04be 03       		.uleb128 0x3
ARM GAS  /var/folders/vd/czx34qs52cd_f3nb04sxmghc0000gn/T//ccpANHNE.s 			page 16


 856 04bf 0F030000 		.4byte	.LASF79
 857 04c3 0C       		.byte	0xc
 858 04c4 65       		.byte	0x65
 859 04c5 29030000 		.4byte	0x329
 860 04c9 03       		.uleb128 0x3
 861 04ca 72040000 		.4byte	.LASF80
 862 04ce 0C       		.byte	0xc
 863 04cf 6D       		.byte	0x6d
 864 04d0 EA000000 		.4byte	0xea
 865 04d4 07       		.uleb128 0x7
 866 04d5 9D000000 		.4byte	.LASF81
 867 04d9 04       		.byte	0x4
 868 04da 0C       		.byte	0xc
 869 04db 89       		.byte	0x89
 870 04dc EC040000 		.4byte	0x4ec
 871 04e0 09       		.uleb128 0x9
 872 04e1 737000   		.ascii	"sp\000"
 873 04e4 0C       		.byte	0xc
 874 04e5 8A       		.byte	0x8a
 875 04e6 68050000 		.4byte	0x568
 876 04ea 00       		.byte	0
 877 04eb 00       		.byte	0
 878 04ec 0D       		.uleb128 0xd
 879 04ed 4C000000 		.4byte	.LASF82
 880 04f1 24       		.byte	0x24
 881 04f2 0D       		.byte	0xd
 882 04f3 5901     		.2byte	0x159
 883 04f5 68050000 		.4byte	0x568
 884 04f9 0A       		.uleb128 0xa
 885 04fa 723400   		.ascii	"r4\000"
 886 04fd 0D       		.byte	0xd
 887 04fe 6C01     		.2byte	0x16c
 888 0500 BE040000 		.4byte	0x4be
 889 0504 00       		.byte	0
 890 0505 0A       		.uleb128 0xa
 891 0506 723500   		.ascii	"r5\000"
 892 0509 0D       		.byte	0xd
 893 050a 6D01     		.2byte	0x16d
 894 050c BE040000 		.4byte	0x4be
 895 0510 04       		.byte	0x4
 896 0511 0A       		.uleb128 0xa
 897 0512 723600   		.ascii	"r6\000"
 898 0515 0D       		.byte	0xd
 899 0516 6E01     		.2byte	0x16e
 900 0518 BE040000 		.4byte	0x4be
 901 051c 08       		.byte	0x8
 902 051d 0A       		.uleb128 0xa
 903 051e 723700   		.ascii	"r7\000"
 904 0521 0D       		.byte	0xd
 905 0522 6F01     		.2byte	0x16f
 906 0524 BE040000 		.4byte	0x4be
 907 0528 0C       		.byte	0xc
 908 0529 0A       		.uleb128 0xa
 909 052a 723800   		.ascii	"r8\000"
 910 052d 0D       		.byte	0xd
 911 052e 7001     		.2byte	0x170
 912 0530 BE040000 		.4byte	0x4be
ARM GAS  /var/folders/vd/czx34qs52cd_f3nb04sxmghc0000gn/T//ccpANHNE.s 			page 17


 913 0534 10       		.byte	0x10
 914 0535 0A       		.uleb128 0xa
 915 0536 723900   		.ascii	"r9\000"
 916 0539 0D       		.byte	0xd
 917 053a 7101     		.2byte	0x171
 918 053c BE040000 		.4byte	0x4be
 919 0540 14       		.byte	0x14
 920 0541 0A       		.uleb128 0xa
 921 0542 72313000 		.ascii	"r10\000"
 922 0546 0D       		.byte	0xd
 923 0547 7201     		.2byte	0x172
 924 0549 BE040000 		.4byte	0x4be
 925 054d 18       		.byte	0x18
 926 054e 0A       		.uleb128 0xa
 927 054f 72313100 		.ascii	"r11\000"
 928 0553 0D       		.byte	0xd
 929 0554 7301     		.2byte	0x173
 930 0556 BE040000 		.4byte	0x4be
 931 055a 1C       		.byte	0x1c
 932 055b 0A       		.uleb128 0xa
 933 055c 6C7200   		.ascii	"lr\000"
 934 055f 0D       		.byte	0xd
 935 0560 7401     		.2byte	0x174
 936 0562 BE040000 		.4byte	0x4be
 937 0566 20       		.byte	0x20
 938 0567 00       		.byte	0
 939 0568 0C       		.uleb128 0xc
 940 0569 04       		.byte	0x4
 941 056a EC040000 		.4byte	0x4ec
 942 056e 15       		.uleb128 0x15
 943 056f 04       		.byte	0x4
 944 0570 0E       		.byte	0xe
 945 0571 38       		.byte	0x38
 946 0572 83050000 		.4byte	0x583
 947 0576 08       		.uleb128 0x8
 948 0577 0E070000 		.4byte	.LASF83
 949 057b 0E       		.byte	0xe
 950 057c 3C       		.byte	0x3c
 951 057d F5000000 		.4byte	0xf5
 952 0581 00       		.byte	0
 953 0582 00       		.byte	0
 954 0583 03       		.uleb128 0x3
 955 0584 16050000 		.4byte	.LASF84
 956 0588 0E       		.byte	0xe
 957 0589 3D       		.byte	0x3d
 958 058a 6E050000 		.4byte	0x56e
 959 058e 16       		.uleb128 0x16
 960 058f 04       		.byte	0x4
 961 0590 08       		.byte	0x8
 962 0591 C6       		.byte	0xc6
 963 0592 F0050000 		.4byte	0x5f0
 964 0596 17       		.uleb128 0x17
 965 0597 27000000 		.4byte	.LASF85
 966 059b 08       		.byte	0x8
 967 059c CD       		.byte	0xcd
 968 059d 2C010000 		.4byte	0x12c
 969 05a1 17       		.uleb128 0x17
ARM GAS  /var/folders/vd/czx34qs52cd_f3nb04sxmghc0000gn/T//ccpANHNE.s 			page 18


 970 05a2 D3000000 		.4byte	.LASF86
 971 05a6 08       		.byte	0x8
 972 05a7 D4       		.byte	0xd4
 973 05a8 2C010000 		.4byte	0x12c
 974 05ac 17       		.uleb128 0x17
 975 05ad CB070000 		.4byte	.LASF87
 976 05b1 08       		.byte	0x8
 977 05b2 DB       		.byte	0xdb
 978 05b3 29030000 		.4byte	0x329
 979 05b7 17       		.uleb128 0x17
 980 05b8 BD030000 		.4byte	.LASF88
 981 05bc 08       		.byte	0x8
 982 05bd E2       		.byte	0xe2
 983 05be F0050000 		.4byte	0x5f0
 984 05c2 17       		.uleb128 0x17
 985 05c3 E7000000 		.4byte	.LASF89
 986 05c7 08       		.byte	0x8
 987 05c8 E7       		.byte	0xe7
 988 05c9 2C010000 		.4byte	0x12c
 989 05cd 17       		.uleb128 0x17
 990 05ce 8C030000 		.4byte	.LASF90
 991 05d2 08       		.byte	0x8
 992 05d3 F0       		.byte	0xf0
 993 05d4 1B060000 		.4byte	0x61b
 994 05d8 17       		.uleb128 0x17
 995 05d9 75060000 		.4byte	.LASF91
 996 05dd 08       		.byte	0x8
 997 05de F9       		.byte	0xf9
 998 05df 52060000 		.4byte	0x652
 999 05e3 18       		.uleb128 0x18
 1000 05e4 F2050000 		.4byte	.LASF92
 1001 05e8 08       		.byte	0x8
 1002 05e9 0101     		.2byte	0x101
 1003 05eb 37010000 		.4byte	0x137
 1004 05ef 00       		.byte	0
 1005 05f0 0C       		.uleb128 0xc
 1006 05f1 04       		.byte	0x4
 1007 05f2 41020000 		.4byte	0x241
 1008 05f6 07       		.uleb128 0x7
 1009 05f7 3B060000 		.4byte	.LASF93
 1010 05fb 0C       		.byte	0xc
 1011 05fc 0F       		.byte	0xf
 1012 05fd 34       		.byte	0x34
 1013 05fe 1B060000 		.4byte	0x61b
 1014 0602 08       		.uleb128 0x8
 1015 0603 DA030000 		.4byte	.LASF31
 1016 0607 0F       		.byte	0xf
 1017 0608 35       		.byte	0x35
 1018 0609 76020000 		.4byte	0x276
 1019 060d 00       		.byte	0
 1020 060e 09       		.uleb128 0x9
 1021 060f 636E7400 		.ascii	"cnt\000"
 1022 0613 0F       		.byte	0xf
 1023 0614 37       		.byte	0x37
 1024 0615 42010000 		.4byte	0x142
 1025 0619 08       		.byte	0x8
 1026 061a 00       		.byte	0
ARM GAS  /var/folders/vd/czx34qs52cd_f3nb04sxmghc0000gn/T//ccpANHNE.s 			page 19


 1027 061b 0C       		.uleb128 0xc
 1028 061c 04       		.byte	0x4
 1029 061d F6050000 		.4byte	0x5f6
 1030 0621 07       		.uleb128 0x7
 1031 0622 28070000 		.4byte	.LASF94
 1032 0626 10       		.byte	0x10
 1033 0627 10       		.byte	0x10
 1034 0628 39       		.byte	0x39
 1035 0629 52060000 		.4byte	0x652
 1036 062d 08       		.uleb128 0x8
 1037 062e DA030000 		.4byte	.LASF31
 1038 0632 10       		.byte	0x10
 1039 0633 3A       		.byte	0x3a
 1040 0634 76020000 		.4byte	0x276
 1041 0638 00       		.byte	0
 1042 0639 08       		.uleb128 0x8
 1043 063a 8C060000 		.4byte	.LASF95
 1044 063e 10       		.byte	0x10
 1045 063f 3C       		.byte	0x3c
 1046 0640 4C020000 		.4byte	0x24c
 1047 0644 08       		.byte	0x8
 1048 0645 08       		.uleb128 0x8
 1049 0646 1C000000 		.4byte	.LASF50
 1050 064a 10       		.byte	0x10
 1051 064b 3E       		.byte	0x3e
 1052 064c 1B080000 		.4byte	0x81b
 1053 0650 0C       		.byte	0xc
 1054 0651 00       		.byte	0
 1055 0652 0C       		.uleb128 0xc
 1056 0653 04       		.byte	0x4
 1057 0654 21060000 		.4byte	0x621
 1058 0658 0C       		.uleb128 0xc
 1059 0659 04       		.byte	0x4
 1060 065a 6A060000 		.4byte	0x66a
 1061 065e 06       		.uleb128 0x6
 1062 065f 58060000 		.4byte	0x658
 1063 0663 04       		.uleb128 0x4
 1064 0664 01       		.byte	0x1
 1065 0665 08       		.byte	0x8
 1066 0666 B0060000 		.4byte	.LASF96
 1067 066a 05       		.uleb128 0x5
 1068 066b 63060000 		.4byte	0x663
 1069 066f 0C       		.uleb128 0xc
 1070 0670 04       		.byte	0x4
 1071 0671 C9040000 		.4byte	0x4c9
 1072 0675 0C       		.uleb128 0xc
 1073 0676 04       		.byte	0x4
 1074 0677 2B030000 		.4byte	0x32b
 1075 067b 19       		.uleb128 0x19
 1076 067c 636800   		.ascii	"ch\000"
 1077 067f 08       		.byte	0x8
 1078 0680 C701     		.2byte	0x1c7
 1079 0682 F8030000 		.4byte	0x3f8
 1080 0686 13       		.uleb128 0x13
 1081 0687 C9040000 		.4byte	0x4c9
 1082 068b 91060000 		.4byte	0x691
 1083 068f 1A       		.uleb128 0x1a
ARM GAS  /var/folders/vd/czx34qs52cd_f3nb04sxmghc0000gn/T//ccpANHNE.s 			page 20


 1084 0690 00       		.byte	0
 1085 0691 11       		.uleb128 0x11
 1086 0692 51060000 		.4byte	.LASF97
 1087 0696 11       		.byte	0x11
 1088 0697 1701     		.2byte	0x117
 1089 0699 86060000 		.4byte	0x686
 1090 069d 03       		.uleb128 0x3
 1091 069e 00000000 		.4byte	.LASF98
 1092 06a2 12       		.byte	0x12
 1093 06a3 34       		.byte	0x34
 1094 06a4 18030000 		.4byte	0x318
 1095 06a8 15       		.uleb128 0x15
 1096 06a9 18       		.byte	0x18
 1097 06aa 12       		.byte	0x12
 1098 06ab 39       		.byte	0x39
 1099 06ac F9060000 		.4byte	0x6f9
 1100 06b0 08       		.uleb128 0x8
 1101 06b1 18040000 		.4byte	.LASF35
 1102 06b5 12       		.byte	0x12
 1103 06b6 3D       		.byte	0x3d
 1104 06b7 58060000 		.4byte	0x658
 1105 06bb 00       		.byte	0
 1106 06bc 08       		.uleb128 0x8
 1107 06bd 10050000 		.4byte	.LASF99
 1108 06c1 12       		.byte	0x12
 1109 06c2 41       		.byte	0x41
 1110 06c3 6F060000 		.4byte	0x66f
 1111 06c7 04       		.byte	0x4
 1112 06c8 08       		.uleb128 0x8
 1113 06c9 B7000000 		.4byte	.LASF100
 1114 06cd 12       		.byte	0x12
 1115 06ce 45       		.byte	0x45
 1116 06cf 6F060000 		.4byte	0x66f
 1117 06d3 08       		.byte	0x8
 1118 06d4 08       		.uleb128 0x8
 1119 06d5 27050000 		.4byte	.LASF32
 1120 06d9 12       		.byte	0x12
 1121 06da 49       		.byte	0x49
 1122 06db 21010000 		.4byte	0x121
 1123 06df 0C       		.byte	0xc
 1124 06e0 08       		.uleb128 0x8
 1125 06e1 2E000000 		.4byte	.LASF101
 1126 06e5 12       		.byte	0x12
 1127 06e6 4D       		.byte	0x4d
 1128 06e7 9D060000 		.4byte	0x69d
 1129 06eb 10       		.byte	0x10
 1130 06ec 09       		.uleb128 0x9
 1131 06ed 61726700 		.ascii	"arg\000"
 1132 06f1 12       		.byte	0x12
 1133 06f2 51       		.byte	0x51
 1134 06f3 29030000 		.4byte	0x329
 1135 06f7 14       		.byte	0x14
 1136 06f8 00       		.byte	0
 1137 06f9 03       		.uleb128 0x3
 1138 06fa 76000000 		.4byte	.LASF102
 1139 06fe 12       		.byte	0x12
 1140 06ff 52       		.byte	0x52
ARM GAS  /var/folders/vd/czx34qs52cd_f3nb04sxmghc0000gn/T//ccpANHNE.s 			page 21


 1141 0700 A8060000 		.4byte	0x6a8
 1142 0704 15       		.uleb128 0x15
 1143 0705 16       		.byte	0x16
 1144 0706 13       		.byte	0x13
 1145 0707 34       		.byte	0x34
 1146 0708 E5070000 		.4byte	0x7e5
 1147 070c 08       		.uleb128 0x8
 1148 070d AE020000 		.4byte	.LASF103
 1149 0711 13       		.byte	0x13
 1150 0712 35       		.byte	0x35
 1151 0713 E5070000 		.4byte	0x7e5
 1152 0717 00       		.byte	0
 1153 0718 08       		.uleb128 0x8
 1154 0719 3F030000 		.4byte	.LASF104
 1155 071d 13       		.byte	0x13
 1156 071e 36       		.byte	0x36
 1157 071f B4000000 		.4byte	0xb4
 1158 0723 04       		.byte	0x4
 1159 0724 08       		.uleb128 0x8
 1160 0725 30020000 		.4byte	.LASF105
 1161 0729 13       		.byte	0x13
 1162 072a 37       		.byte	0x37
 1163 072b B4000000 		.4byte	0xb4
 1164 072f 05       		.byte	0x5
 1165 0730 08       		.uleb128 0x8
 1166 0731 8C040000 		.4byte	.LASF106
 1167 0735 13       		.byte	0x13
 1168 0736 38       		.byte	0x38
 1169 0737 C4000000 		.4byte	0xc4
 1170 073b 06       		.byte	0x6
 1171 073c 08       		.uleb128 0x8
 1172 073d 67070000 		.4byte	.LASF107
 1173 0741 13       		.byte	0x13
 1174 0742 39       		.byte	0x39
 1175 0743 B4000000 		.4byte	0xb4
 1176 0747 08       		.byte	0x8
 1177 0748 08       		.uleb128 0x8
 1178 0749 63060000 		.4byte	.LASF108
 1179 074d 13       		.byte	0x13
 1180 074e 3A       		.byte	0x3a
 1181 074f B4000000 		.4byte	0xb4
 1182 0753 09       		.byte	0x9
 1183 0754 08       		.uleb128 0x8
 1184 0755 96050000 		.4byte	.LASF109
 1185 0759 13       		.byte	0x13
 1186 075a 3B       		.byte	0x3b
 1187 075b B4000000 		.4byte	0xb4
 1188 075f 0A       		.byte	0xa
 1189 0760 08       		.uleb128 0x8
 1190 0761 BD050000 		.4byte	.LASF110
 1191 0765 13       		.byte	0x13
 1192 0766 3C       		.byte	0x3c
 1193 0767 B4000000 		.4byte	0xb4
 1194 076b 0B       		.byte	0xb
 1195 076c 08       		.uleb128 0x8
 1196 076d 29040000 		.4byte	.LASF111
 1197 0771 13       		.byte	0x13
ARM GAS  /var/folders/vd/czx34qs52cd_f3nb04sxmghc0000gn/T//ccpANHNE.s 			page 22


 1198 0772 3D       		.byte	0x3d
 1199 0773 B4000000 		.4byte	0xb4
 1200 0777 0C       		.byte	0xc
 1201 0778 08       		.uleb128 0x8
 1202 0779 DE040000 		.4byte	.LASF112
 1203 077d 13       		.byte	0x13
 1204 077e 3E       		.byte	0x3e
 1205 077f B4000000 		.4byte	0xb4
 1206 0783 0D       		.byte	0xd
 1207 0784 08       		.uleb128 0x8
 1208 0785 31070000 		.4byte	.LASF113
 1209 0789 13       		.byte	0x13
 1210 078a 3F       		.byte	0x3f
 1211 078b B4000000 		.4byte	0xb4
 1212 078f 0E       		.byte	0xe
 1213 0790 08       		.uleb128 0x8
 1214 0791 9E070000 		.4byte	.LASF114
 1215 0795 13       		.byte	0x13
 1216 0796 40       		.byte	0x40
 1217 0797 B4000000 		.4byte	0xb4
 1218 079b 0F       		.byte	0xf
 1219 079c 08       		.uleb128 0x8
 1220 079d C6050000 		.4byte	.LASF115
 1221 07a1 13       		.byte	0x13
 1222 07a2 41       		.byte	0x41
 1223 07a3 B4000000 		.4byte	0xb4
 1224 07a7 10       		.byte	0x10
 1225 07a8 08       		.uleb128 0x8
 1226 07a9 E1070000 		.4byte	.LASF116
 1227 07ad 13       		.byte	0x13
 1228 07ae 42       		.byte	0x42
 1229 07af B4000000 		.4byte	0xb4
 1230 07b3 11       		.byte	0x11
 1231 07b4 08       		.uleb128 0x8
 1232 07b5 09080000 		.4byte	.LASF117
 1233 07b9 13       		.byte	0x13
 1234 07ba 43       		.byte	0x43
 1235 07bb B4000000 		.4byte	0xb4
 1236 07bf 12       		.byte	0x12
 1237 07c0 08       		.uleb128 0x8
 1238 07c1 E6030000 		.4byte	.LASF118
 1239 07c5 13       		.byte	0x13
 1240 07c6 44       		.byte	0x44
 1241 07c7 B4000000 		.4byte	0xb4
 1242 07cb 13       		.byte	0x13
 1243 07cc 08       		.uleb128 0x8
 1244 07cd D1020000 		.4byte	.LASF119
 1245 07d1 13       		.byte	0x13
 1246 07d2 45       		.byte	0x45
 1247 07d3 B4000000 		.4byte	0xb4
 1248 07d7 14       		.byte	0x14
 1249 07d8 08       		.uleb128 0x8
 1250 07d9 48060000 		.4byte	.LASF120
 1251 07dd 13       		.byte	0x13
 1252 07de 46       		.byte	0x46
 1253 07df B4000000 		.4byte	0xb4
 1254 07e3 15       		.byte	0x15
ARM GAS  /var/folders/vd/czx34qs52cd_f3nb04sxmghc0000gn/T//ccpANHNE.s 			page 23


 1255 07e4 00       		.byte	0
 1256 07e5 13       		.uleb128 0x13
 1257 07e6 63060000 		.4byte	0x663
 1258 07ea F5070000 		.4byte	0x7f5
 1259 07ee 14       		.uleb128 0x14
 1260 07ef 37000000 		.4byte	0x37
 1261 07f3 03       		.byte	0x3
 1262 07f4 00       		.byte	0
 1263 07f5 03       		.uleb128 0x3
 1264 07f6 C7020000 		.4byte	.LASF121
 1265 07fa 13       		.byte	0x13
 1266 07fb 47       		.byte	0x47
 1267 07fc 04070000 		.4byte	0x704
 1268 0800 05       		.uleb128 0x5
 1269 0801 F5070000 		.4byte	0x7f5
 1270 0805 12       		.uleb128 0x12
 1271 0806 C3030000 		.4byte	.LASF122
 1272 080a 13       		.byte	0x13
 1273 080b 6C       		.byte	0x6c
 1274 080c 00080000 		.4byte	0x800
 1275 0810 03       		.uleb128 0x3
 1276 0811 44030000 		.4byte	.LASF123
 1277 0815 10       		.byte	0x10
 1278 0816 34       		.byte	0x34
 1279 0817 21060000 		.4byte	0x621
 1280 081b 0C       		.uleb128 0xc
 1281 081c 04       		.byte	0x4
 1282 081d 10080000 		.4byte	0x810
 1283 0821 04       		.uleb128 0x4
 1284 0822 01       		.byte	0x1
 1285 0823 02       		.byte	0x2
 1286 0824 A1050000 		.4byte	.LASF124
 1287 0828 03       		.uleb128 0x3
 1288 0829 AA000000 		.4byte	.LASF125
 1289 082d 14       		.byte	0x14
 1290 082e 4B       		.byte	0x4b
 1291 082f 33080000 		.4byte	0x833
 1292 0833 0C       		.uleb128 0xc
 1293 0834 04       		.byte	0x4
 1294 0835 39080000 		.4byte	0x839
 1295 0839 1B       		.uleb128 0x1b
 1296 083a 29030000 		.4byte	0x329
 1297 083e 4D080000 		.4byte	0x84d
 1298 0842 0F       		.uleb128 0xf
 1299 0843 2C000000 		.4byte	0x2c
 1300 0847 0F       		.uleb128 0xf
 1301 0848 37000000 		.4byte	0x37
 1302 084c 00       		.byte	0
 1303 084d 03       		.uleb128 0x3
 1304 084e B9020000 		.4byte	.LASF126
 1305 0852 14       		.byte	0x14
 1306 0853 50       		.byte	0x50
 1307 0854 58080000 		.4byte	0x858
 1308 0858 0C       		.uleb128 0xc
 1309 0859 04       		.byte	0x4
 1310 085a 5E080000 		.4byte	0x85e
 1311 085e 1B       		.uleb128 0x1b
ARM GAS  /var/folders/vd/czx34qs52cd_f3nb04sxmghc0000gn/T//ccpANHNE.s 			page 24


 1312 085f 29030000 		.4byte	0x329
 1313 0863 77080000 		.4byte	0x877
 1314 0867 0F       		.uleb128 0xf
 1315 0868 2C000000 		.4byte	0x2c
 1316 086c 0F       		.uleb128 0xf
 1317 086d 37000000 		.4byte	0x37
 1318 0871 0F       		.uleb128 0xf
 1319 0872 2C000000 		.4byte	0x2c
 1320 0876 00       		.byte	0
 1321 0877 15       		.uleb128 0x15
 1322 0878 08       		.byte	0x8
 1323 0879 14       		.byte	0x14
 1324 087a 55       		.byte	0x55
 1325 087b 98080000 		.4byte	0x898
 1326 087f 08       		.uleb128 0x8
 1327 0880 22080000 		.4byte	.LASF127
 1328 0884 14       		.byte	0x14
 1329 0885 59       		.byte	0x59
 1330 0886 98080000 		.4byte	0x898
 1331 088a 00       		.byte	0
 1332 088b 08       		.uleb128 0x8
 1333 088c 61040000 		.4byte	.LASF128
 1334 0890 14       		.byte	0x14
 1335 0891 5D       		.byte	0x5d
 1336 0892 98080000 		.4byte	0x898
 1337 0896 04       		.byte	0x4
 1338 0897 00       		.byte	0
 1339 0898 0C       		.uleb128 0xc
 1340 0899 04       		.byte	0x4
 1341 089a B4000000 		.4byte	0xb4
 1342 089e 03       		.uleb128 0x3
 1343 089f 48050000 		.4byte	.LASF129
 1344 08a3 14       		.byte	0x14
 1345 08a4 5E       		.byte	0x5e
 1346 08a5 77080000 		.4byte	0x877
 1347 08a9 12       		.uleb128 0x12
 1348 08aa D8060000 		.4byte	.LASF130
 1349 08ae 14       		.byte	0x14
 1350 08af 69       		.byte	0x69
 1351 08b0 9E080000 		.4byte	0x89e
 1352 08b4 03       		.uleb128 0x3
 1353 08b5 A0020000 		.4byte	.LASF131
 1354 08b9 15       		.byte	0x15
 1355 08ba 4C       		.byte	0x4c
 1356 08bb BF080000 		.4byte	0x8bf
 1357 08bf 07       		.uleb128 0x7
 1358 08c0 2A080000 		.4byte	.LASF132
 1359 08c4 1C       		.byte	0x1c
 1360 08c5 15       		.byte	0x15
 1361 08c6 64       		.byte	0x64
 1362 08c7 F0080000 		.4byte	0x8f0
 1363 08cb 08       		.uleb128 0x8
 1364 08cc 6D000000 		.4byte	.LASF133
 1365 08d0 15       		.byte	0x15
 1366 08d1 65       		.byte	0x65
 1367 08d2 4D080000 		.4byte	0x84d
 1368 08d6 00       		.byte	0
ARM GAS  /var/folders/vd/czx34qs52cd_f3nb04sxmghc0000gn/T//ccpANHNE.s 			page 25


 1369 08d7 08       		.uleb128 0x8
 1370 08d8 1B080000 		.4byte	.LASF134
 1371 08dc 15       		.byte	0x15
 1372 08dd 67       		.byte	0x67
 1373 08de F0080000 		.4byte	0x8f0
 1374 08e2 04       		.byte	0x4
 1375 08e3 09       		.uleb128 0x9
 1376 08e4 6D747800 		.ascii	"mtx\000"
 1377 08e8 15       		.byte	0x15
 1378 08e9 69       		.byte	0x69
 1379 08ea 10080000 		.4byte	0x810
 1380 08ee 0C       		.byte	0xc
 1381 08ef 00       		.byte	0
 1382 08f0 03       		.uleb128 0x3
 1383 08f1 DD020000 		.4byte	.LASF135
 1384 08f5 15       		.byte	0x15
 1385 08f6 51       		.byte	0x51
 1386 08f7 FB080000 		.4byte	0x8fb
 1387 08fb 1C       		.uleb128 0x1c
 1388 08fc E6050000 		.4byte	.LASF173
 1389 0900 08       		.byte	0x8
 1390 0901 15       		.byte	0x15
 1391 0902 56       		.byte	0x56
 1392 0903 1E090000 		.4byte	0x91e
 1393 0907 17       		.uleb128 0x17
 1394 0908 26010000 		.4byte	.LASF136
 1395 090c 15       		.byte	0x15
 1396 090d 5A       		.byte	0x5a
 1397 090e 1E090000 		.4byte	0x91e
 1398 0912 17       		.uleb128 0x17
 1399 0913 52050000 		.4byte	.LASF137
 1400 0917 15       		.byte	0x15
 1401 0918 5E       		.byte	0x5e
 1402 0919 45090000 		.4byte	0x945
 1403 091d 00       		.byte	0
 1404 091e 15       		.uleb128 0x15
 1405 091f 08       		.byte	0x8
 1406 0920 15       		.byte	0x15
 1407 0921 57       		.byte	0x57
 1408 0922 3F090000 		.4byte	0x93f
 1409 0926 08       		.uleb128 0x8
 1410 0927 1C000000 		.4byte	.LASF50
 1411 092b 15       		.byte	0x15
 1412 092c 58       		.byte	0x58
 1413 092d 3F090000 		.4byte	0x93f
 1414 0931 00       		.byte	0
 1415 0932 08       		.uleb128 0x8
 1416 0933 58000000 		.4byte	.LASF138
 1417 0937 15       		.byte	0x15
 1418 0938 59       		.byte	0x59
 1419 0939 2C000000 		.4byte	0x2c
 1420 093d 04       		.byte	0x4
 1421 093e 00       		.byte	0
 1422 093f 0C       		.uleb128 0xc
 1423 0940 04       		.byte	0x4
 1424 0941 F0080000 		.4byte	0x8f0
 1425 0945 15       		.uleb128 0x15
ARM GAS  /var/folders/vd/czx34qs52cd_f3nb04sxmghc0000gn/T//ccpANHNE.s 			page 26


 1426 0946 08       		.byte	0x8
 1427 0947 15       		.byte	0x15
 1428 0948 5B       		.byte	0x5b
 1429 0949 66090000 		.4byte	0x966
 1430 094d 08       		.uleb128 0x8
 1431 094e 92060000 		.4byte	.LASF139
 1432 0952 15       		.byte	0x15
 1433 0953 5C       		.byte	0x5c
 1434 0954 66090000 		.4byte	0x966
 1435 0958 00       		.byte	0
 1436 0959 08       		.uleb128 0x8
 1437 095a 30020000 		.4byte	.LASF105
 1438 095e 15       		.byte	0x15
 1439 095f 5D       		.byte	0x5d
 1440 0960 2C000000 		.4byte	0x2c
 1441 0964 04       		.byte	0x4
 1442 0965 00       		.byte	0
 1443 0966 0C       		.uleb128 0xc
 1444 0967 04       		.byte	0x4
 1445 0968 B4080000 		.4byte	0x8b4
 1446 096c 07       		.uleb128 0x7
 1447 096d 92070000 		.4byte	.LASF140
 1448 0971 04       		.byte	0x4
 1449 0972 16       		.byte	0x16
 1450 0973 3C       		.byte	0x3c
 1451 0974 85090000 		.4byte	0x985
 1452 0978 08       		.uleb128 0x8
 1453 0979 1C000000 		.4byte	.LASF50
 1454 097d 16       		.byte	0x16
 1455 097e 3D       		.byte	0x3d
 1456 097f 85090000 		.4byte	0x985
 1457 0983 00       		.byte	0
 1458 0984 00       		.byte	0
 1459 0985 0C       		.uleb128 0xc
 1460 0986 04       		.byte	0x4
 1461 0987 6C090000 		.4byte	0x96c
 1462 098b 15       		.uleb128 0x15
 1463 098c 10       		.byte	0x10
 1464 098d 16       		.byte	0x16
 1465 098e 44       		.byte	0x44
 1466 098f C4090000 		.4byte	0x9c4
 1467 0993 08       		.uleb128 0x8
 1468 0994 1C000000 		.4byte	.LASF50
 1469 0998 16       		.byte	0x16
 1470 0999 45       		.byte	0x45
 1471 099a 85090000 		.4byte	0x985
 1472 099e 00       		.byte	0
 1473 099f 08       		.uleb128 0x8
 1474 09a0 5B070000 		.4byte	.LASF141
 1475 09a4 16       		.byte	0x16
 1476 09a5 46       		.byte	0x46
 1477 09a6 2C000000 		.4byte	0x2c
 1478 09aa 04       		.byte	0x4
 1479 09ab 08       		.uleb128 0x8
 1480 09ac 4C030000 		.4byte	.LASF142
 1481 09b0 16       		.byte	0x16
 1482 09b1 48       		.byte	0x48
ARM GAS  /var/folders/vd/czx34qs52cd_f3nb04sxmghc0000gn/T//ccpANHNE.s 			page 27


 1483 09b2 37000000 		.4byte	0x37
 1484 09b6 08       		.byte	0x8
 1485 09b7 08       		.uleb128 0x8
 1486 09b8 6D000000 		.4byte	.LASF133
 1487 09bc 16       		.byte	0x16
 1488 09bd 49       		.byte	0x49
 1489 09be 28080000 		.4byte	0x828
 1490 09c2 0C       		.byte	0xc
 1491 09c3 00       		.byte	0
 1492 09c4 03       		.uleb128 0x3
 1493 09c5 CC030000 		.4byte	.LASF143
 1494 09c9 16       		.byte	0x16
 1495 09ca 4B       		.byte	0x4b
 1496 09cb 8B090000 		.4byte	0x98b
 1497 09cf 07       		.uleb128 0x7
 1498 09d0 74050000 		.4byte	.LASF144
 1499 09d4 10       		.byte	0x10
 1500 09d5 17       		.byte	0x17
 1501 09d6 97       		.byte	0x97
 1502 09d7 000A0000 		.4byte	0xa00
 1503 09db 08       		.uleb128 0x8
 1504 09dc 1C000000 		.4byte	.LASF50
 1505 09e0 17       		.byte	0x17
 1506 09e1 9B       		.byte	0x9b
 1507 09e2 000A0000 		.4byte	0xa00
 1508 09e6 00       		.byte	0
 1509 09e7 08       		.uleb128 0x8
 1510 09e8 5F050000 		.4byte	.LASF39
 1511 09ec 17       		.byte	0x17
 1512 09ed 9F       		.byte	0x9f
 1513 09ee 4D010000 		.4byte	0x14d
 1514 09f2 04       		.byte	0x4
 1515 09f3 08       		.uleb128 0x8
 1516 09f4 18040000 		.4byte	.LASF35
 1517 09f8 17       		.byte	0x17
 1518 09f9 A1       		.byte	0xa1
 1519 09fa 060A0000 		.4byte	0xa06
 1520 09fe 08       		.byte	0x8
 1521 09ff 00       		.byte	0
 1522 0a00 0C       		.uleb128 0xc
 1523 0a01 04       		.byte	0x4
 1524 0a02 CF090000 		.4byte	0x9cf
 1525 0a06 13       		.uleb128 0x13
 1526 0a07 63060000 		.4byte	0x663
 1527 0a0b 160A0000 		.4byte	0xa16
 1528 0a0f 14       		.uleb128 0x14
 1529 0a10 37000000 		.4byte	0x37
 1530 0a14 07       		.byte	0x7
 1531 0a15 00       		.byte	0
 1532 0a16 03       		.uleb128 0x3
 1533 0a17 18010000 		.4byte	.LASF145
 1534 0a1b 17       		.byte	0x17
 1535 0a1c A5       		.byte	0xa5
 1536 0a1d CF090000 		.4byte	0x9cf
 1537 0a21 07       		.uleb128 0x7
 1538 0a22 D2040000 		.4byte	.LASF146
 1539 0a26 04       		.byte	0x4
ARM GAS  /var/folders/vd/czx34qs52cd_f3nb04sxmghc0000gn/T//ccpANHNE.s 			page 28


 1540 0a27 17       		.byte	0x17
 1541 0a28 AA       		.byte	0xaa
 1542 0a29 3A0A0000 		.4byte	0xa3a
 1543 0a2d 08       		.uleb128 0x8
 1544 0a2e 1C000000 		.4byte	.LASF50
 1545 0a32 17       		.byte	0x17
 1546 0a33 AB       		.byte	0xab
 1547 0a34 3A0A0000 		.4byte	0xa3a
 1548 0a38 00       		.byte	0
 1549 0a39 00       		.byte	0
 1550 0a3a 0C       		.uleb128 0xc
 1551 0a3b 04       		.byte	0x4
 1552 0a3c 160A0000 		.4byte	0xa16
 1553 0a40 03       		.uleb128 0x3
 1554 0a41 83050000 		.4byte	.LASF147
 1555 0a45 17       		.byte	0x17
 1556 0a46 AC       		.byte	0xac
 1557 0a47 210A0000 		.4byte	0xa21
 1558 0a4b 0D       		.uleb128 0xd
 1559 0a4c 6F070000 		.4byte	.LASF148
 1560 0a50 44       		.byte	0x44
 1561 0a51 17       		.byte	0x17
 1562 0a52 1501     		.2byte	0x115
 1563 0a54 C10A0000 		.4byte	0xac1
 1564 0a58 0A       		.uleb128 0xa
 1565 0a59 6D747800 		.ascii	"mtx\000"
 1566 0a5d 17       		.byte	0x17
 1567 0a5e 1A01     		.2byte	0x11a
 1568 0a60 10080000 		.4byte	0x810
 1569 0a64 00       		.byte	0
 1570 0a65 0B       		.uleb128 0xb
 1571 0a66 BB060000 		.4byte	.LASF149
 1572 0a6a 17       		.byte	0x17
 1573 0a6b 2101     		.2byte	0x121
 1574 0a6d 400A0000 		.4byte	0xa40
 1575 0a71 10       		.byte	0x10
 1576 0a72 0B       		.uleb128 0xb
 1577 0a73 21060000 		.4byte	.LASF150
 1578 0a77 17       		.byte	0x17
 1579 0a78 2501     		.2byte	0x125
 1580 0a7a C4090000 		.4byte	0x9c4
 1581 0a7e 14       		.byte	0x14
 1582 0a7f 0B       		.uleb128 0xb
 1583 0a80 EF030000 		.4byte	.LASF151
 1584 0a84 17       		.byte	0x17
 1585 0a85 2A01     		.2byte	0x12a
 1586 0a87 400A0000 		.4byte	0xa40
 1587 0a8b 24       		.byte	0x24
 1588 0a8c 0B       		.uleb128 0xb
 1589 0a8d 8A000000 		.4byte	.LASF152
 1590 0a91 17       		.byte	0x17
 1591 0a92 3001     		.2byte	0x130
 1592 0a94 400A0000 		.4byte	0xa40
 1593 0a98 28       		.byte	0x28
 1594 0a99 0B       		.uleb128 0xb
 1595 0a9a 2C050000 		.4byte	.LASF153
 1596 0a9e 17       		.byte	0x17
ARM GAS  /var/folders/vd/czx34qs52cd_f3nb04sxmghc0000gn/T//ccpANHNE.s 			page 29


 1597 0a9f 3401     		.2byte	0x134
 1598 0aa1 C4090000 		.4byte	0x9c4
 1599 0aa5 2C       		.byte	0x2c
 1600 0aa6 0B       		.uleb128 0xb
 1601 0aa7 18030000 		.4byte	.LASF154
 1602 0aab 17       		.byte	0x17
 1603 0aac 3A01     		.2byte	0x13a
 1604 0aae 400A0000 		.4byte	0xa40
 1605 0ab2 3C       		.byte	0x3c
 1606 0ab3 0B       		.uleb128 0xb
 1607 0ab4 C1070000 		.4byte	.LASF155
 1608 0ab8 17       		.byte	0x17
 1609 0ab9 4001     		.2byte	0x140
 1610 0abb 400A0000 		.4byte	0xa40
 1611 0abf 40       		.byte	0x40
 1612 0ac0 00       		.byte	0
 1613 0ac1 1D       		.uleb128 0x1d
 1614 0ac2 F7070000 		.4byte	.LASF156
 1615 0ac6 17       		.byte	0x17
 1616 0ac7 4201     		.2byte	0x142
 1617 0ac9 4B0A0000 		.4byte	0xa4b
 1618 0acd 11       		.uleb128 0x11
 1619 0ace 0C060000 		.4byte	.LASF157
 1620 0ad2 17       		.byte	0x17
 1621 0ad3 4D01     		.2byte	0x14d
 1622 0ad5 C10A0000 		.4byte	0xac1
 1623 0ad9 1E       		.uleb128 0x1e
 1624 0ada F6040000 		.4byte	.LASF158
 1625 0ade 01       		.byte	0x1
 1626 0adf 91       		.byte	0x91
 1627 0ae0 4C020000 		.4byte	0x24c
 1628 0ae4 00000000 		.4byte	.LFB281
 1629 0ae8 50000000 		.4byte	.LFE281-.LFB281
 1630 0aec 01       		.uleb128 0x1
 1631 0aed 9C       		.byte	0x9c
 1632 0aee 390C0000 		.4byte	0xc39
 1633 0af2 1F       		.uleb128 0x1f
 1634 0af3 6D7000   		.ascii	"mp\000"
 1635 0af6 01       		.byte	0x1
 1636 0af7 91       		.byte	0x91
 1637 0af8 390C0000 		.4byte	0xc39
 1638 0afc 00000000 		.4byte	.LLST10
 1639 0b00 20       		.uleb128 0x20
 1640 0b01 18040000 		.4byte	.LASF35
 1641 0b05 01       		.byte	0x1
 1642 0b06 91       		.byte	0x91
 1643 0b07 58060000 		.4byte	0x658
 1644 0b0b 1E000000 		.4byte	.LLST11
 1645 0b0f 20       		.uleb128 0x20
 1646 0b10 27050000 		.4byte	.LASF32
 1647 0b14 01       		.byte	0x1
 1648 0b15 92       		.byte	0x92
 1649 0b16 21010000 		.4byte	0x121
 1650 0b1a 6F000000 		.4byte	.LLST12
 1651 0b1e 1F       		.uleb128 0x1f
 1652 0b1f 706600   		.ascii	"pf\000"
 1653 0b22 01       		.byte	0x1
ARM GAS  /var/folders/vd/czx34qs52cd_f3nb04sxmghc0000gn/T//ccpANHNE.s 			page 30


 1654 0b23 92       		.byte	0x92
 1655 0b24 9D060000 		.4byte	0x69d
 1656 0b28 8D000000 		.4byte	.LLST13
 1657 0b2c 1F       		.uleb128 0x1f
 1658 0b2d 61726700 		.ascii	"arg\000"
 1659 0b31 01       		.byte	0x1
 1660 0b32 92       		.byte	0x92
 1661 0b33 29030000 		.4byte	0x329
 1662 0b37 AB000000 		.4byte	.LLST14
 1663 0b3b 21       		.uleb128 0x21
 1664 0b3c 747000   		.ascii	"tp\000"
 1665 0b3f 01       		.byte	0x1
 1666 0b40 93       		.byte	0x93
 1667 0b41 4C020000 		.4byte	0x24c
 1668 0b45 CB000000 		.4byte	.LLST15
 1669 0b49 21       		.uleb128 0x21
 1670 0b4a 77737000 		.ascii	"wsp\000"
 1671 0b4e 01       		.byte	0x1
 1672 0b4f 94       		.byte	0x94
 1673 0b50 29030000 		.4byte	0x329
 1674 0b54 E9000000 		.4byte	.LLST16
 1675 0b58 22       		.uleb128 0x22
 1676 0b59 03060000 		.4byte	.LASF174
 1677 0b5d 4F0C0000 		.4byte	0xc4f
 1678 0b61 23       		.uleb128 0x23
 1679 0b62 746400   		.ascii	"td\000"
 1680 0b65 01       		.byte	0x1
 1681 0b66 9D       		.byte	0x9d
 1682 0b67 F9060000 		.4byte	0x6f9
 1683 0b6b 02       		.uleb128 0x2
 1684 0b6c 91       		.byte	0x91
 1685 0b6d 50       		.sleb128 -48
 1686 0b6e 24       		.uleb128 0x24
 1687 0b6f F70D0000 		.4byte	0xdf7
 1688 0b73 24000000 		.4byte	.LBB43
 1689 0b77 06000000 		.4byte	.LBE43-.LBB43
 1690 0b7b 01       		.byte	0x1
 1691 0b7c AC       		.byte	0xac
 1692 0b7d AD0B0000 		.4byte	0xbad
 1693 0b81 25       		.uleb128 0x25
 1694 0b82 090E0000 		.4byte	0xe09
 1695 0b86 24000000 		.4byte	.LBB44
 1696 0b8a 06000000 		.4byte	.LBE44-.LBB44
 1697 0b8e 11       		.byte	0x11
 1698 0b8f 6301     		.2byte	0x163
 1699 0b91 25       		.uleb128 0x25
 1700 0b92 120E0000 		.4byte	0xe12
 1701 0b96 24000000 		.4byte	.LBB45
 1702 0b9a 06000000 		.4byte	.LBE45-.LBB45
 1703 0b9e 0D       		.byte	0xd
 1704 0b9f 5A02     		.2byte	0x25a
 1705 0ba1 26       		.uleb128 0x26
 1706 0ba2 1F0E0000 		.4byte	0xe1f
 1707 0ba6 13010000 		.4byte	.LLST17
 1708 0baa 00       		.byte	0
 1709 0bab 00       		.byte	0
 1710 0bac 00       		.byte	0
ARM GAS  /var/folders/vd/czx34qs52cd_f3nb04sxmghc0000gn/T//ccpANHNE.s 			page 31


 1711 0bad 24       		.uleb128 0x24
 1712 0bae C70D0000 		.4byte	0xdc7
 1713 0bb2 40000000 		.4byte	.LBB47
 1714 0bb6 06000000 		.4byte	.LBE47-.LBB47
 1715 0bba 01       		.byte	0x1
 1716 0bbb B1       		.byte	0xb1
 1717 0bbc FB0B0000 		.4byte	0xbfb
 1718 0bc0 27       		.uleb128 0x27
 1719 0bc1 40000000 		.4byte	.LBB48
 1720 0bc5 06000000 		.4byte	.LBE48-.LBB48
 1721 0bc9 28       		.uleb128 0x28
 1722 0bca D40D0000 		.4byte	0xdd4
 1723 0bce 25       		.uleb128 0x25
 1724 0bcf 000E0000 		.4byte	0xe00
 1725 0bd3 40000000 		.4byte	.LBB49
 1726 0bd7 06000000 		.4byte	.LBE49-.LBB49
 1727 0bdb 11       		.byte	0x11
 1728 0bdc 7A01     		.2byte	0x17a
 1729 0bde 25       		.uleb128 0x25
 1730 0bdf 120E0000 		.4byte	0xe12
 1731 0be3 40000000 		.4byte	.LBB50
 1732 0be7 06000000 		.4byte	.LBE50-.LBB50
 1733 0beb 0D       		.byte	0xd
 1734 0bec 6D02     		.2byte	0x26d
 1735 0bee 26       		.uleb128 0x26
 1736 0bef 1F0E0000 		.4byte	0xe1f
 1737 0bf3 28010000 		.4byte	.LLST18
 1738 0bf7 00       		.byte	0
 1739 0bf8 00       		.byte	0
 1740 0bf9 00       		.byte	0
 1741 0bfa 00       		.byte	0
 1742 0bfb 29       		.uleb128 0x29
 1743 0bfc 10000000 		.4byte	.LVL14
 1744 0c00 2C0E0000 		.4byte	0xe2c
 1745 0c04 0F0C0000 		.4byte	0xc0f
 1746 0c08 2A       		.uleb128 0x2a
 1747 0c09 01       		.uleb128 0x1
 1748 0c0a 50       		.byte	0x50
 1749 0c0b 02       		.uleb128 0x2
 1750 0c0c 75       		.byte	0x75
 1751 0c0d 00       		.sleb128 0
 1752 0c0e 00       		.byte	0
 1753 0c0f 29       		.uleb128 0x29
 1754 0c10 30000000 		.4byte	.LVL19
 1755 0c14 370E0000 		.4byte	0xe37
 1756 0c18 230C0000 		.4byte	0xc23
 1757 0c1c 2A       		.uleb128 0x2a
 1758 0c1d 01       		.uleb128 0x1
 1759 0c1e 50       		.byte	0x50
 1760 0c1f 02       		.uleb128 0x2
 1761 0c20 7D       		.byte	0x7d
 1762 0c21 00       		.sleb128 0
 1763 0c22 00       		.byte	0
 1764 0c23 2B       		.uleb128 0x2b
 1765 0c24 40000000 		.4byte	.LVL21
 1766 0c28 420E0000 		.4byte	0xe42
 1767 0c2c 2A       		.uleb128 0x2a
ARM GAS  /var/folders/vd/czx34qs52cd_f3nb04sxmghc0000gn/T//ccpANHNE.s 			page 32


 1768 0c2d 01       		.uleb128 0x1
 1769 0c2e 50       		.byte	0x50
 1770 0c2f 02       		.uleb128 0x2
 1771 0c30 74       		.byte	0x74
 1772 0c31 00       		.sleb128 0
 1773 0c32 2A       		.uleb128 0x2a
 1774 0c33 01       		.uleb128 0x1
 1775 0c34 51       		.byte	0x51
 1776 0c35 01       		.uleb128 0x1
 1777 0c36 30       		.byte	0x30
 1778 0c37 00       		.byte	0
 1779 0c38 00       		.byte	0
 1780 0c39 0C       		.uleb128 0xc
 1781 0c3a 04       		.byte	0x4
 1782 0c3b C4090000 		.4byte	0x9c4
 1783 0c3f 13       		.uleb128 0x13
 1784 0c40 6A060000 		.4byte	0x66a
 1785 0c44 4F0C0000 		.4byte	0xc4f
 1786 0c48 14       		.uleb128 0x14
 1787 0c49 37000000 		.4byte	0x37
 1788 0c4d 19       		.byte	0x19
 1789 0c4e 00       		.byte	0
 1790 0c4f 05       		.uleb128 0x5
 1791 0c50 3F0C0000 		.4byte	0xc3f
 1792 0c54 1E       		.uleb128 0x1e
 1793 0c55 7E020000 		.4byte	.LASF159
 1794 0c59 01       		.byte	0x1
 1795 0c5a 52       		.byte	0x52
 1796 0c5b 4C020000 		.4byte	0x24c
 1797 0c5f 00000000 		.4byte	.LFB280
 1798 0c63 4E000000 		.4byte	.LFE280-.LFB280
 1799 0c67 01       		.uleb128 0x1
 1800 0c68 9C       		.byte	0x9c
 1801 0c69 C70D0000 		.4byte	0xdc7
 1802 0c6d 20       		.uleb128 0x20
 1803 0c6e 12010000 		.4byte	.LASF160
 1804 0c72 01       		.byte	0x1
 1805 0c73 52       		.byte	0x52
 1806 0c74 66090000 		.4byte	0x966
 1807 0c78 3C010000 		.4byte	.LLST0
 1808 0c7c 20       		.uleb128 0x20
 1809 0c7d 30020000 		.4byte	.LASF105
 1810 0c81 01       		.byte	0x1
 1811 0c82 52       		.byte	0x52
 1812 0c83 2C000000 		.4byte	0x2c
 1813 0c87 5D010000 		.4byte	.LLST1
 1814 0c8b 20       		.uleb128 0x20
 1815 0c8c 18040000 		.4byte	.LASF35
 1816 0c90 01       		.byte	0x1
 1817 0c91 53       		.byte	0x53
 1818 0c92 58060000 		.4byte	0x658
 1819 0c96 A2010000 		.4byte	.LLST2
 1820 0c9a 20       		.uleb128 0x20
 1821 0c9b 27050000 		.4byte	.LASF32
 1822 0c9f 01       		.byte	0x1
 1823 0ca0 53       		.byte	0x53
 1824 0ca1 21010000 		.4byte	0x121
ARM GAS  /var/folders/vd/czx34qs52cd_f3nb04sxmghc0000gn/T//ccpANHNE.s 			page 33


 1825 0ca5 C0010000 		.4byte	.LLST3
 1826 0ca9 1F       		.uleb128 0x1f
 1827 0caa 706600   		.ascii	"pf\000"
 1828 0cad 01       		.byte	0x1
 1829 0cae 54       		.byte	0x54
 1830 0caf 9D060000 		.4byte	0x69d
 1831 0cb3 DE010000 		.4byte	.LLST4
 1832 0cb7 1F       		.uleb128 0x1f
 1833 0cb8 61726700 		.ascii	"arg\000"
 1834 0cbc 01       		.byte	0x1
 1835 0cbd 54       		.byte	0x54
 1836 0cbe 29030000 		.4byte	0x329
 1837 0cc2 FE010000 		.4byte	.LLST5
 1838 0cc6 21       		.uleb128 0x21
 1839 0cc7 747000   		.ascii	"tp\000"
 1840 0cca 01       		.byte	0x1
 1841 0ccb 55       		.byte	0x55
 1842 0ccc 4C020000 		.4byte	0x24c
 1843 0cd0 1E020000 		.4byte	.LLST6
 1844 0cd4 21       		.uleb128 0x21
 1845 0cd5 77737000 		.ascii	"wsp\000"
 1846 0cd9 01       		.byte	0x1
 1847 0cda 56       		.byte	0x56
 1848 0cdb 29030000 		.4byte	0x329
 1849 0cdf 3C020000 		.4byte	.LLST7
 1850 0ce3 23       		.uleb128 0x23
 1851 0ce4 746400   		.ascii	"td\000"
 1852 0ce7 01       		.byte	0x1
 1853 0ce8 5D       		.byte	0x5d
 1854 0ce9 F9060000 		.4byte	0x6f9
 1855 0ced 02       		.uleb128 0x2
 1856 0cee 91       		.byte	0x91
 1857 0cef 58       		.sleb128 -40
 1858 0cf0 24       		.uleb128 0x24
 1859 0cf1 F70D0000 		.4byte	0xdf7
 1860 0cf5 24000000 		.4byte	.LBB34
 1861 0cf9 06000000 		.4byte	.LBE34-.LBB34
 1862 0cfd 01       		.byte	0x1
 1863 0cfe 6C       		.byte	0x6c
 1864 0cff 2F0D0000 		.4byte	0xd2f
 1865 0d03 25       		.uleb128 0x25
 1866 0d04 090E0000 		.4byte	0xe09
 1867 0d08 24000000 		.4byte	.LBB35
 1868 0d0c 06000000 		.4byte	.LBE35-.LBB35
 1869 0d10 11       		.byte	0x11
 1870 0d11 6301     		.2byte	0x163
 1871 0d13 25       		.uleb128 0x25
 1872 0d14 120E0000 		.4byte	0xe12
 1873 0d18 24000000 		.4byte	.LBB36
 1874 0d1c 06000000 		.4byte	.LBE36-.LBB36
 1875 0d20 0D       		.byte	0xd
 1876 0d21 5A02     		.2byte	0x25a
 1877 0d23 26       		.uleb128 0x26
 1878 0d24 1F0E0000 		.4byte	0xe1f
 1879 0d28 66020000 		.4byte	.LLST8
 1880 0d2c 00       		.byte	0
 1881 0d2d 00       		.byte	0
ARM GAS  /var/folders/vd/czx34qs52cd_f3nb04sxmghc0000gn/T//ccpANHNE.s 			page 34


 1882 0d2e 00       		.byte	0
 1883 0d2f 24       		.uleb128 0x24
 1884 0d30 C70D0000 		.4byte	0xdc7
 1885 0d34 3E000000 		.4byte	.LBB38
 1886 0d38 06000000 		.4byte	.LBE38-.LBB38
 1887 0d3c 01       		.byte	0x1
 1888 0d3d 70       		.byte	0x70
 1889 0d3e 7D0D0000 		.4byte	0xd7d
 1890 0d42 27       		.uleb128 0x27
 1891 0d43 3E000000 		.4byte	.LBB39
 1892 0d47 06000000 		.4byte	.LBE39-.LBB39
 1893 0d4b 28       		.uleb128 0x28
 1894 0d4c D40D0000 		.4byte	0xdd4
 1895 0d50 25       		.uleb128 0x25
 1896 0d51 000E0000 		.4byte	0xe00
 1897 0d55 3E000000 		.4byte	.LBB40
 1898 0d59 06000000 		.4byte	.LBE40-.LBB40
 1899 0d5d 11       		.byte	0x11
 1900 0d5e 7A01     		.2byte	0x17a
 1901 0d60 25       		.uleb128 0x25
 1902 0d61 120E0000 		.4byte	0xe12
 1903 0d65 3E000000 		.4byte	.LBB41
 1904 0d69 06000000 		.4byte	.LBE41-.LBB41
 1905 0d6d 0D       		.byte	0xd
 1906 0d6e 6D02     		.2byte	0x26d
 1907 0d70 26       		.uleb128 0x26
 1908 0d71 1F0E0000 		.4byte	0xe1f
 1909 0d75 7B020000 		.4byte	.LLST9
 1910 0d79 00       		.byte	0
 1911 0d7a 00       		.byte	0
 1912 0d7b 00       		.byte	0
 1913 0d7c 00       		.byte	0
 1914 0d7d 29       		.uleb128 0x29
 1915 0d7e 10000000 		.4byte	.LVL2
 1916 0d82 4E0E0000 		.4byte	0xe4e
 1917 0d86 9D0D0000 		.4byte	0xd9d
 1918 0d8a 2A       		.uleb128 0x2a
 1919 0d8b 01       		.uleb128 0x1
 1920 0d8c 50       		.byte	0x50
 1921 0d8d 03       		.uleb128 0x3
 1922 0d8e F3       		.byte	0xf3
 1923 0d8f 01       		.uleb128 0x1
 1924 0d90 50       		.byte	0x50
 1925 0d91 2A       		.uleb128 0x2a
 1926 0d92 01       		.uleb128 0x1
 1927 0d93 51       		.byte	0x51
 1928 0d94 02       		.uleb128 0x2
 1929 0d95 74       		.byte	0x74
 1930 0d96 00       		.sleb128 0
 1931 0d97 2A       		.uleb128 0x2a
 1932 0d98 01       		.uleb128 0x1
 1933 0d99 52       		.byte	0x52
 1934 0d9a 01       		.uleb128 0x1
 1935 0d9b 38       		.byte	0x38
 1936 0d9c 00       		.byte	0
 1937 0d9d 29       		.uleb128 0x29
 1938 0d9e 30000000 		.4byte	.LVL7
ARM GAS  /var/folders/vd/czx34qs52cd_f3nb04sxmghc0000gn/T//ccpANHNE.s 			page 35


 1939 0da2 370E0000 		.4byte	0xe37
 1940 0da6 B10D0000 		.4byte	0xdb1
 1941 0daa 2A       		.uleb128 0x2a
 1942 0dab 01       		.uleb128 0x1
 1943 0dac 50       		.byte	0x50
 1944 0dad 02       		.uleb128 0x2
 1945 0dae 7D       		.byte	0x7d
 1946 0daf 00       		.sleb128 0
 1947 0db0 00       		.byte	0
 1948 0db1 2B       		.uleb128 0x2b
 1949 0db2 3E000000 		.4byte	.LVL9
 1950 0db6 420E0000 		.4byte	0xe42
 1951 0dba 2A       		.uleb128 0x2a
 1952 0dbb 01       		.uleb128 0x1
 1953 0dbc 50       		.byte	0x50
 1954 0dbd 02       		.uleb128 0x2
 1955 0dbe 74       		.byte	0x74
 1956 0dbf 00       		.sleb128 0
 1957 0dc0 2A       		.uleb128 0x2a
 1958 0dc1 01       		.uleb128 0x1
 1959 0dc2 51       		.byte	0x51
 1960 0dc3 01       		.uleb128 0x1
 1961 0dc4 30       		.byte	0x30
 1962 0dc5 00       		.byte	0
 1963 0dc6 00       		.byte	0
 1964 0dc7 2C       		.uleb128 0x2c
 1965 0dc8 EB070000 		.4byte	.LASF164
 1966 0dcc 11       		.byte	0x11
 1967 0dcd 6D01     		.2byte	0x16d
 1968 0dcf 03       		.byte	0x3
 1969 0dd0 E20D0000 		.4byte	0xde2
 1970 0dd4 2D       		.uleb128 0x2d
 1971 0dd5 03060000 		.4byte	.LASF174
 1972 0dd9 F20D0000 		.4byte	0xdf2
 1973 0ddd EB070000 		.4byte	.LASF164
 1974 0de1 00       		.byte	0
 1975 0de2 13       		.uleb128 0x13
 1976 0de3 6A060000 		.4byte	0x66a
 1977 0de7 F20D0000 		.4byte	0xdf2
 1978 0deb 14       		.uleb128 0x14
 1979 0dec 37000000 		.4byte	0x37
 1980 0df0 0B       		.byte	0xb
 1981 0df1 00       		.byte	0
 1982 0df2 05       		.uleb128 0x5
 1983 0df3 E20D0000 		.4byte	0xde2
 1984 0df7 2E       		.uleb128 0x2e
 1985 0df8 17060000 		.4byte	.LASF161
 1986 0dfc 11       		.byte	0x11
 1987 0dfd 6101     		.2byte	0x161
 1988 0dff 03       		.byte	0x3
 1989 0e00 2E       		.uleb128 0x2e
 1990 0e01 5A020000 		.4byte	.LASF162
 1991 0e05 0D       		.byte	0xd
 1992 0e06 6A02     		.2byte	0x26a
 1993 0e08 03       		.byte	0x3
 1994 0e09 2E       		.uleb128 0x2e
 1995 0e0a 93000000 		.4byte	.LASF163
ARM GAS  /var/folders/vd/czx34qs52cd_f3nb04sxmghc0000gn/T//ccpANHNE.s 			page 36


 1996 0e0e 0D       		.byte	0xd
 1997 0e0f 5202     		.2byte	0x252
 1998 0e11 03       		.byte	0x3
 1999 0e12 2C       		.uleb128 0x2c
 2000 0e13 F6060000 		.4byte	.LASF165
 2001 0e17 02       		.byte	0x2
 2002 0e18 E801     		.2byte	0x1e8
 2003 0e1a 03       		.byte	0x3
 2004 0e1b 2C0E0000 		.4byte	0xe2c
 2005 0e1f 2F       		.uleb128 0x2f
 2006 0e20 4B020000 		.4byte	.LASF175
 2007 0e24 02       		.byte	0x2
 2008 0e25 E801     		.2byte	0x1e8
 2009 0e27 DF000000 		.4byte	0xdf
 2010 0e2b 00       		.byte	0
 2011 0e2c 30       		.uleb128 0x30
 2012 0e2d AF070000 		.4byte	.LASF166
 2013 0e31 AF070000 		.4byte	.LASF166
 2014 0e35 16       		.byte	0x16
 2015 0e36 9E       		.byte	0x9e
 2016 0e37 30       		.uleb128 0x30
 2017 0e38 35020000 		.4byte	.LASF167
 2018 0e3c 35020000 		.4byte	.LASF167
 2019 0e40 12       		.byte	0x12
 2020 0e41 E3       		.byte	0xe3
 2021 0e42 31       		.uleb128 0x31
 2022 0e43 4E070000 		.4byte	.LASF168
 2023 0e47 4E070000 		.4byte	.LASF168
 2024 0e4b 08       		.byte	0x8
 2025 0e4c D501     		.2byte	0x1d5
 2026 0e4e 30       		.uleb128 0x30
 2027 0e4f 15070000 		.4byte	.LASF169
 2028 0e53 15070000 		.4byte	.LASF169
 2029 0e57 15       		.byte	0x15
 2030 0e58 83       		.byte	0x83
 2031 0e59 00       		.byte	0
 2032              		.section	.debug_abbrev,"",%progbits
 2033              	.Ldebug_abbrev0:
 2034 0000 01       		.uleb128 0x1
 2035 0001 11       		.uleb128 0x11
 2036 0002 01       		.byte	0x1
 2037 0003 25       		.uleb128 0x25
 2038 0004 0E       		.uleb128 0xe
 2039 0005 13       		.uleb128 0x13
 2040 0006 0B       		.uleb128 0xb
 2041 0007 03       		.uleb128 0x3
 2042 0008 0E       		.uleb128 0xe
 2043 0009 1B       		.uleb128 0x1b
 2044 000a 0E       		.uleb128 0xe
 2045 000b 55       		.uleb128 0x55
 2046 000c 17       		.uleb128 0x17
 2047 000d 11       		.uleb128 0x11
 2048 000e 01       		.uleb128 0x1
 2049 000f 10       		.uleb128 0x10
 2050 0010 17       		.uleb128 0x17
 2051 0011 00       		.byte	0
 2052 0012 00       		.byte	0
ARM GAS  /var/folders/vd/czx34qs52cd_f3nb04sxmghc0000gn/T//ccpANHNE.s 			page 37


 2053 0013 02       		.uleb128 0x2
 2054 0014 24       		.uleb128 0x24
 2055 0015 00       		.byte	0
 2056 0016 0B       		.uleb128 0xb
 2057 0017 0B       		.uleb128 0xb
 2058 0018 3E       		.uleb128 0x3e
 2059 0019 0B       		.uleb128 0xb
 2060 001a 03       		.uleb128 0x3
 2061 001b 08       		.uleb128 0x8
 2062 001c 00       		.byte	0
 2063 001d 00       		.byte	0
 2064 001e 03       		.uleb128 0x3
 2065 001f 16       		.uleb128 0x16
 2066 0020 00       		.byte	0
 2067 0021 03       		.uleb128 0x3
 2068 0022 0E       		.uleb128 0xe
 2069 0023 3A       		.uleb128 0x3a
 2070 0024 0B       		.uleb128 0xb
 2071 0025 3B       		.uleb128 0x3b
 2072 0026 0B       		.uleb128 0xb
 2073 0027 49       		.uleb128 0x49
 2074 0028 13       		.uleb128 0x13
 2075 0029 00       		.byte	0
 2076 002a 00       		.byte	0
 2077 002b 04       		.uleb128 0x4
 2078 002c 24       		.uleb128 0x24
 2079 002d 00       		.byte	0
 2080 002e 0B       		.uleb128 0xb
 2081 002f 0B       		.uleb128 0xb
 2082 0030 3E       		.uleb128 0x3e
 2083 0031 0B       		.uleb128 0xb
 2084 0032 03       		.uleb128 0x3
 2085 0033 0E       		.uleb128 0xe
 2086 0034 00       		.byte	0
 2087 0035 00       		.byte	0
 2088 0036 05       		.uleb128 0x5
 2089 0037 26       		.uleb128 0x26
 2090 0038 00       		.byte	0
 2091 0039 49       		.uleb128 0x49
 2092 003a 13       		.uleb128 0x13
 2093 003b 00       		.byte	0
 2094 003c 00       		.byte	0
 2095 003d 06       		.uleb128 0x6
 2096 003e 35       		.uleb128 0x35
 2097 003f 00       		.byte	0
 2098 0040 49       		.uleb128 0x49
 2099 0041 13       		.uleb128 0x13
 2100 0042 00       		.byte	0
 2101 0043 00       		.byte	0
 2102 0044 07       		.uleb128 0x7
 2103 0045 13       		.uleb128 0x13
 2104 0046 01       		.byte	0x1
 2105 0047 03       		.uleb128 0x3
 2106 0048 0E       		.uleb128 0xe
 2107 0049 0B       		.uleb128 0xb
 2108 004a 0B       		.uleb128 0xb
 2109 004b 3A       		.uleb128 0x3a
ARM GAS  /var/folders/vd/czx34qs52cd_f3nb04sxmghc0000gn/T//ccpANHNE.s 			page 38


 2110 004c 0B       		.uleb128 0xb
 2111 004d 3B       		.uleb128 0x3b
 2112 004e 0B       		.uleb128 0xb
 2113 004f 01       		.uleb128 0x1
 2114 0050 13       		.uleb128 0x13
 2115 0051 00       		.byte	0
 2116 0052 00       		.byte	0
 2117 0053 08       		.uleb128 0x8
 2118 0054 0D       		.uleb128 0xd
 2119 0055 00       		.byte	0
 2120 0056 03       		.uleb128 0x3
 2121 0057 0E       		.uleb128 0xe
 2122 0058 3A       		.uleb128 0x3a
 2123 0059 0B       		.uleb128 0xb
 2124 005a 3B       		.uleb128 0x3b
 2125 005b 0B       		.uleb128 0xb
 2126 005c 49       		.uleb128 0x49
 2127 005d 13       		.uleb128 0x13
 2128 005e 38       		.uleb128 0x38
 2129 005f 0B       		.uleb128 0xb
 2130 0060 00       		.byte	0
 2131 0061 00       		.byte	0
 2132 0062 09       		.uleb128 0x9
 2133 0063 0D       		.uleb128 0xd
 2134 0064 00       		.byte	0
 2135 0065 03       		.uleb128 0x3
 2136 0066 08       		.uleb128 0x8
 2137 0067 3A       		.uleb128 0x3a
 2138 0068 0B       		.uleb128 0xb
 2139 0069 3B       		.uleb128 0x3b
 2140 006a 0B       		.uleb128 0xb
 2141 006b 49       		.uleb128 0x49
 2142 006c 13       		.uleb128 0x13
 2143 006d 38       		.uleb128 0x38
 2144 006e 0B       		.uleb128 0xb
 2145 006f 00       		.byte	0
 2146 0070 00       		.byte	0
 2147 0071 0A       		.uleb128 0xa
 2148 0072 0D       		.uleb128 0xd
 2149 0073 00       		.byte	0
 2150 0074 03       		.uleb128 0x3
 2151 0075 08       		.uleb128 0x8
 2152 0076 3A       		.uleb128 0x3a
 2153 0077 0B       		.uleb128 0xb
 2154 0078 3B       		.uleb128 0x3b
 2155 0079 05       		.uleb128 0x5
 2156 007a 49       		.uleb128 0x49
 2157 007b 13       		.uleb128 0x13
 2158 007c 38       		.uleb128 0x38
 2159 007d 0B       		.uleb128 0xb
 2160 007e 00       		.byte	0
 2161 007f 00       		.byte	0
 2162 0080 0B       		.uleb128 0xb
 2163 0081 0D       		.uleb128 0xd
 2164 0082 00       		.byte	0
 2165 0083 03       		.uleb128 0x3
 2166 0084 0E       		.uleb128 0xe
ARM GAS  /var/folders/vd/czx34qs52cd_f3nb04sxmghc0000gn/T//ccpANHNE.s 			page 39


 2167 0085 3A       		.uleb128 0x3a
 2168 0086 0B       		.uleb128 0xb
 2169 0087 3B       		.uleb128 0x3b
 2170 0088 05       		.uleb128 0x5
 2171 0089 49       		.uleb128 0x49
 2172 008a 13       		.uleb128 0x13
 2173 008b 38       		.uleb128 0x38
 2174 008c 0B       		.uleb128 0xb
 2175 008d 00       		.byte	0
 2176 008e 00       		.byte	0
 2177 008f 0C       		.uleb128 0xc
 2178 0090 0F       		.uleb128 0xf
 2179 0091 00       		.byte	0
 2180 0092 0B       		.uleb128 0xb
 2181 0093 0B       		.uleb128 0xb
 2182 0094 49       		.uleb128 0x49
 2183 0095 13       		.uleb128 0x13
 2184 0096 00       		.byte	0
 2185 0097 00       		.byte	0
 2186 0098 0D       		.uleb128 0xd
 2187 0099 13       		.uleb128 0x13
 2188 009a 01       		.byte	0x1
 2189 009b 03       		.uleb128 0x3
 2190 009c 0E       		.uleb128 0xe
 2191 009d 0B       		.uleb128 0xb
 2192 009e 0B       		.uleb128 0xb
 2193 009f 3A       		.uleb128 0x3a
 2194 00a0 0B       		.uleb128 0xb
 2195 00a1 3B       		.uleb128 0x3b
 2196 00a2 05       		.uleb128 0x5
 2197 00a3 01       		.uleb128 0x1
 2198 00a4 13       		.uleb128 0x13
 2199 00a5 00       		.byte	0
 2200 00a6 00       		.byte	0
 2201 00a7 0E       		.uleb128 0xe
 2202 00a8 15       		.uleb128 0x15
 2203 00a9 01       		.byte	0x1
 2204 00aa 27       		.uleb128 0x27
 2205 00ab 19       		.uleb128 0x19
 2206 00ac 01       		.uleb128 0x1
 2207 00ad 13       		.uleb128 0x13
 2208 00ae 00       		.byte	0
 2209 00af 00       		.byte	0
 2210 00b0 0F       		.uleb128 0xf
 2211 00b1 05       		.uleb128 0x5
 2212 00b2 00       		.byte	0
 2213 00b3 49       		.uleb128 0x49
 2214 00b4 13       		.uleb128 0x13
 2215 00b5 00       		.byte	0
 2216 00b6 00       		.byte	0
 2217 00b7 10       		.uleb128 0x10
 2218 00b8 0F       		.uleb128 0xf
 2219 00b9 00       		.byte	0
 2220 00ba 0B       		.uleb128 0xb
 2221 00bb 0B       		.uleb128 0xb
 2222 00bc 00       		.byte	0
 2223 00bd 00       		.byte	0
ARM GAS  /var/folders/vd/czx34qs52cd_f3nb04sxmghc0000gn/T//ccpANHNE.s 			page 40


 2224 00be 11       		.uleb128 0x11
 2225 00bf 34       		.uleb128 0x34
 2226 00c0 00       		.byte	0
 2227 00c1 03       		.uleb128 0x3
 2228 00c2 0E       		.uleb128 0xe
 2229 00c3 3A       		.uleb128 0x3a
 2230 00c4 0B       		.uleb128 0xb
 2231 00c5 3B       		.uleb128 0x3b
 2232 00c6 05       		.uleb128 0x5
 2233 00c7 49       		.uleb128 0x49
 2234 00c8 13       		.uleb128 0x13
 2235 00c9 3F       		.uleb128 0x3f
 2236 00ca 19       		.uleb128 0x19
 2237 00cb 3C       		.uleb128 0x3c
 2238 00cc 19       		.uleb128 0x19
 2239 00cd 00       		.byte	0
 2240 00ce 00       		.byte	0
 2241 00cf 12       		.uleb128 0x12
 2242 00d0 34       		.uleb128 0x34
 2243 00d1 00       		.byte	0
 2244 00d2 03       		.uleb128 0x3
 2245 00d3 0E       		.uleb128 0xe
 2246 00d4 3A       		.uleb128 0x3a
 2247 00d5 0B       		.uleb128 0xb
 2248 00d6 3B       		.uleb128 0x3b
 2249 00d7 0B       		.uleb128 0xb
 2250 00d8 49       		.uleb128 0x49
 2251 00d9 13       		.uleb128 0x13
 2252 00da 3F       		.uleb128 0x3f
 2253 00db 19       		.uleb128 0x19
 2254 00dc 3C       		.uleb128 0x3c
 2255 00dd 19       		.uleb128 0x19
 2256 00de 00       		.byte	0
 2257 00df 00       		.byte	0
 2258 00e0 13       		.uleb128 0x13
 2259 00e1 01       		.uleb128 0x1
 2260 00e2 01       		.byte	0x1
 2261 00e3 49       		.uleb128 0x49
 2262 00e4 13       		.uleb128 0x13
 2263 00e5 01       		.uleb128 0x1
 2264 00e6 13       		.uleb128 0x13
 2265 00e7 00       		.byte	0
 2266 00e8 00       		.byte	0
 2267 00e9 14       		.uleb128 0x14
 2268 00ea 21       		.uleb128 0x21
 2269 00eb 00       		.byte	0
 2270 00ec 49       		.uleb128 0x49
 2271 00ed 13       		.uleb128 0x13
 2272 00ee 2F       		.uleb128 0x2f
 2273 00ef 0B       		.uleb128 0xb
 2274 00f0 00       		.byte	0
 2275 00f1 00       		.byte	0
 2276 00f2 15       		.uleb128 0x15
 2277 00f3 13       		.uleb128 0x13
 2278 00f4 01       		.byte	0x1
 2279 00f5 0B       		.uleb128 0xb
 2280 00f6 0B       		.uleb128 0xb
ARM GAS  /var/folders/vd/czx34qs52cd_f3nb04sxmghc0000gn/T//ccpANHNE.s 			page 41


 2281 00f7 3A       		.uleb128 0x3a
 2282 00f8 0B       		.uleb128 0xb
 2283 00f9 3B       		.uleb128 0x3b
 2284 00fa 0B       		.uleb128 0xb
 2285 00fb 01       		.uleb128 0x1
 2286 00fc 13       		.uleb128 0x13
 2287 00fd 00       		.byte	0
 2288 00fe 00       		.byte	0
 2289 00ff 16       		.uleb128 0x16
 2290 0100 17       		.uleb128 0x17
 2291 0101 01       		.byte	0x1
 2292 0102 0B       		.uleb128 0xb
 2293 0103 0B       		.uleb128 0xb
 2294 0104 3A       		.uleb128 0x3a
 2295 0105 0B       		.uleb128 0xb
 2296 0106 3B       		.uleb128 0x3b
 2297 0107 0B       		.uleb128 0xb
 2298 0108 01       		.uleb128 0x1
 2299 0109 13       		.uleb128 0x13
 2300 010a 00       		.byte	0
 2301 010b 00       		.byte	0
 2302 010c 17       		.uleb128 0x17
 2303 010d 0D       		.uleb128 0xd
 2304 010e 00       		.byte	0
 2305 010f 03       		.uleb128 0x3
 2306 0110 0E       		.uleb128 0xe
 2307 0111 3A       		.uleb128 0x3a
 2308 0112 0B       		.uleb128 0xb
 2309 0113 3B       		.uleb128 0x3b
 2310 0114 0B       		.uleb128 0xb
 2311 0115 49       		.uleb128 0x49
 2312 0116 13       		.uleb128 0x13
 2313 0117 00       		.byte	0
 2314 0118 00       		.byte	0
 2315 0119 18       		.uleb128 0x18
 2316 011a 0D       		.uleb128 0xd
 2317 011b 00       		.byte	0
 2318 011c 03       		.uleb128 0x3
 2319 011d 0E       		.uleb128 0xe
 2320 011e 3A       		.uleb128 0x3a
 2321 011f 0B       		.uleb128 0xb
 2322 0120 3B       		.uleb128 0x3b
 2323 0121 05       		.uleb128 0x5
 2324 0122 49       		.uleb128 0x49
 2325 0123 13       		.uleb128 0x13
 2326 0124 00       		.byte	0
 2327 0125 00       		.byte	0
 2328 0126 19       		.uleb128 0x19
 2329 0127 34       		.uleb128 0x34
 2330 0128 00       		.byte	0
 2331 0129 03       		.uleb128 0x3
 2332 012a 08       		.uleb128 0x8
 2333 012b 3A       		.uleb128 0x3a
 2334 012c 0B       		.uleb128 0xb
 2335 012d 3B       		.uleb128 0x3b
 2336 012e 05       		.uleb128 0x5
 2337 012f 49       		.uleb128 0x49
ARM GAS  /var/folders/vd/czx34qs52cd_f3nb04sxmghc0000gn/T//ccpANHNE.s 			page 42


 2338 0130 13       		.uleb128 0x13
 2339 0131 3F       		.uleb128 0x3f
 2340 0132 19       		.uleb128 0x19
 2341 0133 3C       		.uleb128 0x3c
 2342 0134 19       		.uleb128 0x19
 2343 0135 00       		.byte	0
 2344 0136 00       		.byte	0
 2345 0137 1A       		.uleb128 0x1a
 2346 0138 21       		.uleb128 0x21
 2347 0139 00       		.byte	0
 2348 013a 00       		.byte	0
 2349 013b 00       		.byte	0
 2350 013c 1B       		.uleb128 0x1b
 2351 013d 15       		.uleb128 0x15
 2352 013e 01       		.byte	0x1
 2353 013f 27       		.uleb128 0x27
 2354 0140 19       		.uleb128 0x19
 2355 0141 49       		.uleb128 0x49
 2356 0142 13       		.uleb128 0x13
 2357 0143 01       		.uleb128 0x1
 2358 0144 13       		.uleb128 0x13
 2359 0145 00       		.byte	0
 2360 0146 00       		.byte	0
 2361 0147 1C       		.uleb128 0x1c
 2362 0148 17       		.uleb128 0x17
 2363 0149 01       		.byte	0x1
 2364 014a 03       		.uleb128 0x3
 2365 014b 0E       		.uleb128 0xe
 2366 014c 0B       		.uleb128 0xb
 2367 014d 0B       		.uleb128 0xb
 2368 014e 3A       		.uleb128 0x3a
 2369 014f 0B       		.uleb128 0xb
 2370 0150 3B       		.uleb128 0x3b
 2371 0151 0B       		.uleb128 0xb
 2372 0152 01       		.uleb128 0x1
 2373 0153 13       		.uleb128 0x13
 2374 0154 00       		.byte	0
 2375 0155 00       		.byte	0
 2376 0156 1D       		.uleb128 0x1d
 2377 0157 16       		.uleb128 0x16
 2378 0158 00       		.byte	0
 2379 0159 03       		.uleb128 0x3
 2380 015a 0E       		.uleb128 0xe
 2381 015b 3A       		.uleb128 0x3a
 2382 015c 0B       		.uleb128 0xb
 2383 015d 3B       		.uleb128 0x3b
 2384 015e 05       		.uleb128 0x5
 2385 015f 49       		.uleb128 0x49
 2386 0160 13       		.uleb128 0x13
 2387 0161 00       		.byte	0
 2388 0162 00       		.byte	0
 2389 0163 1E       		.uleb128 0x1e
 2390 0164 2E       		.uleb128 0x2e
 2391 0165 01       		.byte	0x1
 2392 0166 3F       		.uleb128 0x3f
 2393 0167 19       		.uleb128 0x19
 2394 0168 03       		.uleb128 0x3
ARM GAS  /var/folders/vd/czx34qs52cd_f3nb04sxmghc0000gn/T//ccpANHNE.s 			page 43


 2395 0169 0E       		.uleb128 0xe
 2396 016a 3A       		.uleb128 0x3a
 2397 016b 0B       		.uleb128 0xb
 2398 016c 3B       		.uleb128 0x3b
 2399 016d 0B       		.uleb128 0xb
 2400 016e 27       		.uleb128 0x27
 2401 016f 19       		.uleb128 0x19
 2402 0170 49       		.uleb128 0x49
 2403 0171 13       		.uleb128 0x13
 2404 0172 11       		.uleb128 0x11
 2405 0173 01       		.uleb128 0x1
 2406 0174 12       		.uleb128 0x12
 2407 0175 06       		.uleb128 0x6
 2408 0176 40       		.uleb128 0x40
 2409 0177 18       		.uleb128 0x18
 2410 0178 9742     		.uleb128 0x2117
 2411 017a 19       		.uleb128 0x19
 2412 017b 01       		.uleb128 0x1
 2413 017c 13       		.uleb128 0x13
 2414 017d 00       		.byte	0
 2415 017e 00       		.byte	0
 2416 017f 1F       		.uleb128 0x1f
 2417 0180 05       		.uleb128 0x5
 2418 0181 00       		.byte	0
 2419 0182 03       		.uleb128 0x3
 2420 0183 08       		.uleb128 0x8
 2421 0184 3A       		.uleb128 0x3a
 2422 0185 0B       		.uleb128 0xb
 2423 0186 3B       		.uleb128 0x3b
 2424 0187 0B       		.uleb128 0xb
 2425 0188 49       		.uleb128 0x49
 2426 0189 13       		.uleb128 0x13
 2427 018a 02       		.uleb128 0x2
 2428 018b 17       		.uleb128 0x17
 2429 018c 00       		.byte	0
 2430 018d 00       		.byte	0
 2431 018e 20       		.uleb128 0x20
 2432 018f 05       		.uleb128 0x5
 2433 0190 00       		.byte	0
 2434 0191 03       		.uleb128 0x3
 2435 0192 0E       		.uleb128 0xe
 2436 0193 3A       		.uleb128 0x3a
 2437 0194 0B       		.uleb128 0xb
 2438 0195 3B       		.uleb128 0x3b
 2439 0196 0B       		.uleb128 0xb
 2440 0197 49       		.uleb128 0x49
 2441 0198 13       		.uleb128 0x13
 2442 0199 02       		.uleb128 0x2
 2443 019a 17       		.uleb128 0x17
 2444 019b 00       		.byte	0
 2445 019c 00       		.byte	0
 2446 019d 21       		.uleb128 0x21
 2447 019e 34       		.uleb128 0x34
 2448 019f 00       		.byte	0
 2449 01a0 03       		.uleb128 0x3
 2450 01a1 08       		.uleb128 0x8
 2451 01a2 3A       		.uleb128 0x3a
ARM GAS  /var/folders/vd/czx34qs52cd_f3nb04sxmghc0000gn/T//ccpANHNE.s 			page 44


 2452 01a3 0B       		.uleb128 0xb
 2453 01a4 3B       		.uleb128 0x3b
 2454 01a5 0B       		.uleb128 0xb
 2455 01a6 49       		.uleb128 0x49
 2456 01a7 13       		.uleb128 0x13
 2457 01a8 02       		.uleb128 0x2
 2458 01a9 17       		.uleb128 0x17
 2459 01aa 00       		.byte	0
 2460 01ab 00       		.byte	0
 2461 01ac 22       		.uleb128 0x22
 2462 01ad 34       		.uleb128 0x34
 2463 01ae 00       		.byte	0
 2464 01af 03       		.uleb128 0x3
 2465 01b0 0E       		.uleb128 0xe
 2466 01b1 49       		.uleb128 0x49
 2467 01b2 13       		.uleb128 0x13
 2468 01b3 34       		.uleb128 0x34
 2469 01b4 19       		.uleb128 0x19
 2470 01b5 00       		.byte	0
 2471 01b6 00       		.byte	0
 2472 01b7 23       		.uleb128 0x23
 2473 01b8 34       		.uleb128 0x34
 2474 01b9 00       		.byte	0
 2475 01ba 03       		.uleb128 0x3
 2476 01bb 08       		.uleb128 0x8
 2477 01bc 3A       		.uleb128 0x3a
 2478 01bd 0B       		.uleb128 0xb
 2479 01be 3B       		.uleb128 0x3b
 2480 01bf 0B       		.uleb128 0xb
 2481 01c0 49       		.uleb128 0x49
 2482 01c1 13       		.uleb128 0x13
 2483 01c2 02       		.uleb128 0x2
 2484 01c3 18       		.uleb128 0x18
 2485 01c4 00       		.byte	0
 2486 01c5 00       		.byte	0
 2487 01c6 24       		.uleb128 0x24
 2488 01c7 1D       		.uleb128 0x1d
 2489 01c8 01       		.byte	0x1
 2490 01c9 31       		.uleb128 0x31
 2491 01ca 13       		.uleb128 0x13
 2492 01cb 11       		.uleb128 0x11
 2493 01cc 01       		.uleb128 0x1
 2494 01cd 12       		.uleb128 0x12
 2495 01ce 06       		.uleb128 0x6
 2496 01cf 58       		.uleb128 0x58
 2497 01d0 0B       		.uleb128 0xb
 2498 01d1 59       		.uleb128 0x59
 2499 01d2 0B       		.uleb128 0xb
 2500 01d3 01       		.uleb128 0x1
 2501 01d4 13       		.uleb128 0x13
 2502 01d5 00       		.byte	0
 2503 01d6 00       		.byte	0
 2504 01d7 25       		.uleb128 0x25
 2505 01d8 1D       		.uleb128 0x1d
 2506 01d9 01       		.byte	0x1
 2507 01da 31       		.uleb128 0x31
 2508 01db 13       		.uleb128 0x13
ARM GAS  /var/folders/vd/czx34qs52cd_f3nb04sxmghc0000gn/T//ccpANHNE.s 			page 45


 2509 01dc 11       		.uleb128 0x11
 2510 01dd 01       		.uleb128 0x1
 2511 01de 12       		.uleb128 0x12
 2512 01df 06       		.uleb128 0x6
 2513 01e0 58       		.uleb128 0x58
 2514 01e1 0B       		.uleb128 0xb
 2515 01e2 59       		.uleb128 0x59
 2516 01e3 05       		.uleb128 0x5
 2517 01e4 00       		.byte	0
 2518 01e5 00       		.byte	0
 2519 01e6 26       		.uleb128 0x26
 2520 01e7 05       		.uleb128 0x5
 2521 01e8 00       		.byte	0
 2522 01e9 31       		.uleb128 0x31
 2523 01ea 13       		.uleb128 0x13
 2524 01eb 02       		.uleb128 0x2
 2525 01ec 17       		.uleb128 0x17
 2526 01ed 00       		.byte	0
 2527 01ee 00       		.byte	0
 2528 01ef 27       		.uleb128 0x27
 2529 01f0 0B       		.uleb128 0xb
 2530 01f1 01       		.byte	0x1
 2531 01f2 11       		.uleb128 0x11
 2532 01f3 01       		.uleb128 0x1
 2533 01f4 12       		.uleb128 0x12
 2534 01f5 06       		.uleb128 0x6
 2535 01f6 00       		.byte	0
 2536 01f7 00       		.byte	0
 2537 01f8 28       		.uleb128 0x28
 2538 01f9 34       		.uleb128 0x34
 2539 01fa 00       		.byte	0
 2540 01fb 31       		.uleb128 0x31
 2541 01fc 13       		.uleb128 0x13
 2542 01fd 00       		.byte	0
 2543 01fe 00       		.byte	0
 2544 01ff 29       		.uleb128 0x29
 2545 0200 898201   		.uleb128 0x4109
 2546 0203 01       		.byte	0x1
 2547 0204 11       		.uleb128 0x11
 2548 0205 01       		.uleb128 0x1
 2549 0206 31       		.uleb128 0x31
 2550 0207 13       		.uleb128 0x13
 2551 0208 01       		.uleb128 0x1
 2552 0209 13       		.uleb128 0x13
 2553 020a 00       		.byte	0
 2554 020b 00       		.byte	0
 2555 020c 2A       		.uleb128 0x2a
 2556 020d 8A8201   		.uleb128 0x410a
 2557 0210 00       		.byte	0
 2558 0211 02       		.uleb128 0x2
 2559 0212 18       		.uleb128 0x18
 2560 0213 9142     		.uleb128 0x2111
 2561 0215 18       		.uleb128 0x18
 2562 0216 00       		.byte	0
 2563 0217 00       		.byte	0
 2564 0218 2B       		.uleb128 0x2b
 2565 0219 898201   		.uleb128 0x4109
ARM GAS  /var/folders/vd/czx34qs52cd_f3nb04sxmghc0000gn/T//ccpANHNE.s 			page 46


 2566 021c 01       		.byte	0x1
 2567 021d 11       		.uleb128 0x11
 2568 021e 01       		.uleb128 0x1
 2569 021f 31       		.uleb128 0x31
 2570 0220 13       		.uleb128 0x13
 2571 0221 00       		.byte	0
 2572 0222 00       		.byte	0
 2573 0223 2C       		.uleb128 0x2c
 2574 0224 2E       		.uleb128 0x2e
 2575 0225 01       		.byte	0x1
 2576 0226 03       		.uleb128 0x3
 2577 0227 0E       		.uleb128 0xe
 2578 0228 3A       		.uleb128 0x3a
 2579 0229 0B       		.uleb128 0xb
 2580 022a 3B       		.uleb128 0x3b
 2581 022b 05       		.uleb128 0x5
 2582 022c 27       		.uleb128 0x27
 2583 022d 19       		.uleb128 0x19
 2584 022e 20       		.uleb128 0x20
 2585 022f 0B       		.uleb128 0xb
 2586 0230 01       		.uleb128 0x1
 2587 0231 13       		.uleb128 0x13
 2588 0232 00       		.byte	0
 2589 0233 00       		.byte	0
 2590 0234 2D       		.uleb128 0x2d
 2591 0235 34       		.uleb128 0x34
 2592 0236 00       		.byte	0
 2593 0237 03       		.uleb128 0x3
 2594 0238 0E       		.uleb128 0xe
 2595 0239 49       		.uleb128 0x49
 2596 023a 13       		.uleb128 0x13
 2597 023b 34       		.uleb128 0x34
 2598 023c 19       		.uleb128 0x19
 2599 023d 1C       		.uleb128 0x1c
 2600 023e 0E       		.uleb128 0xe
 2601 023f 00       		.byte	0
 2602 0240 00       		.byte	0
 2603 0241 2E       		.uleb128 0x2e
 2604 0242 2E       		.uleb128 0x2e
 2605 0243 00       		.byte	0
 2606 0244 03       		.uleb128 0x3
 2607 0245 0E       		.uleb128 0xe
 2608 0246 3A       		.uleb128 0x3a
 2609 0247 0B       		.uleb128 0xb
 2610 0248 3B       		.uleb128 0x3b
 2611 0249 05       		.uleb128 0x5
 2612 024a 27       		.uleb128 0x27
 2613 024b 19       		.uleb128 0x19
 2614 024c 20       		.uleb128 0x20
 2615 024d 0B       		.uleb128 0xb
 2616 024e 00       		.byte	0
 2617 024f 00       		.byte	0
 2618 0250 2F       		.uleb128 0x2f
 2619 0251 05       		.uleb128 0x5
 2620 0252 00       		.byte	0
 2621 0253 03       		.uleb128 0x3
 2622 0254 0E       		.uleb128 0xe
ARM GAS  /var/folders/vd/czx34qs52cd_f3nb04sxmghc0000gn/T//ccpANHNE.s 			page 47


 2623 0255 3A       		.uleb128 0x3a
 2624 0256 0B       		.uleb128 0xb
 2625 0257 3B       		.uleb128 0x3b
 2626 0258 05       		.uleb128 0x5
 2627 0259 49       		.uleb128 0x49
 2628 025a 13       		.uleb128 0x13
 2629 025b 00       		.byte	0
 2630 025c 00       		.byte	0
 2631 025d 30       		.uleb128 0x30
 2632 025e 2E       		.uleb128 0x2e
 2633 025f 00       		.byte	0
 2634 0260 3F       		.uleb128 0x3f
 2635 0261 19       		.uleb128 0x19
 2636 0262 3C       		.uleb128 0x3c
 2637 0263 19       		.uleb128 0x19
 2638 0264 6E       		.uleb128 0x6e
 2639 0265 0E       		.uleb128 0xe
 2640 0266 03       		.uleb128 0x3
 2641 0267 0E       		.uleb128 0xe
 2642 0268 3A       		.uleb128 0x3a
 2643 0269 0B       		.uleb128 0xb
 2644 026a 3B       		.uleb128 0x3b
 2645 026b 0B       		.uleb128 0xb
 2646 026c 00       		.byte	0
 2647 026d 00       		.byte	0
 2648 026e 31       		.uleb128 0x31
 2649 026f 2E       		.uleb128 0x2e
 2650 0270 00       		.byte	0
 2651 0271 3F       		.uleb128 0x3f
 2652 0272 19       		.uleb128 0x19
 2653 0273 3C       		.uleb128 0x3c
 2654 0274 19       		.uleb128 0x19
 2655 0275 6E       		.uleb128 0x6e
 2656 0276 0E       		.uleb128 0xe
 2657 0277 03       		.uleb128 0x3
 2658 0278 0E       		.uleb128 0xe
 2659 0279 3A       		.uleb128 0x3a
 2660 027a 0B       		.uleb128 0xb
 2661 027b 3B       		.uleb128 0x3b
 2662 027c 05       		.uleb128 0x5
 2663 027d 00       		.byte	0
 2664 027e 00       		.byte	0
 2665 027f 00       		.byte	0
 2666              		.section	.debug_loc,"",%progbits
 2667              	.Ldebug_loc0:
 2668              	.LLST10:
 2669 0000 00000000 		.4byte	.LVL13
 2670 0004 0F000000 		.4byte	.LVL14-1
 2671 0008 0100     		.2byte	0x1
 2672 000a 50       		.byte	0x50
 2673 000b 0F000000 		.4byte	.LVL14-1
 2674 000f 50000000 		.4byte	.LFE281
 2675 0013 0100     		.2byte	0x1
 2676 0015 55       		.byte	0x55
 2677 0016 00000000 		.4byte	0
 2678 001a 00000000 		.4byte	0
 2679              	.LLST11:
ARM GAS  /var/folders/vd/czx34qs52cd_f3nb04sxmghc0000gn/T//ccpANHNE.s 			page 48


 2680 001e 00000000 		.4byte	.LVL13
 2681 0022 0F000000 		.4byte	.LVL14-1
 2682 0026 0100     		.2byte	0x1
 2683 0028 51       		.byte	0x51
 2684 0029 0F000000 		.4byte	.LVL14-1
 2685 002d 18000000 		.4byte	.LVL15
 2686 0031 0100     		.2byte	0x1
 2687 0033 54       		.byte	0x54
 2688 0034 18000000 		.4byte	.LVL15
 2689 0038 2F000000 		.4byte	.LVL19-1
 2690 003c 0200     		.2byte	0x2
 2691 003e 7D       		.byte	0x7d
 2692 003f 00       		.sleb128 0
 2693 0040 2F000000 		.4byte	.LVL19-1
 2694 0044 4C000000 		.4byte	.LVL23
 2695 0048 0400     		.2byte	0x4
 2696 004a F3       		.byte	0xf3
 2697 004b 01       		.uleb128 0x1
 2698 004c 51       		.byte	0x51
 2699 004d 9F       		.byte	0x9f
 2700 004e 4C000000 		.4byte	.LVL23
 2701 0052 4E000000 		.4byte	.LVL24
 2702 0056 0100     		.2byte	0x1
 2703 0058 54       		.byte	0x54
 2704 0059 4E000000 		.4byte	.LVL24
 2705 005d 50000000 		.4byte	.LFE281
 2706 0061 0400     		.2byte	0x4
 2707 0063 F3       		.byte	0xf3
 2708 0064 01       		.uleb128 0x1
 2709 0065 51       		.byte	0x51
 2710 0066 9F       		.byte	0x9f
 2711 0067 00000000 		.4byte	0
 2712 006b 00000000 		.4byte	0
 2713              	.LLST12:
 2714 006f 00000000 		.4byte	.LVL13
 2715 0073 0F000000 		.4byte	.LVL14-1
 2716 0077 0100     		.2byte	0x1
 2717 0079 52       		.byte	0x52
 2718 007a 0F000000 		.4byte	.LVL14-1
 2719 007e 50000000 		.4byte	.LFE281
 2720 0082 0100     		.2byte	0x1
 2721 0084 57       		.byte	0x57
 2722 0085 00000000 		.4byte	0
 2723 0089 00000000 		.4byte	0
 2724              	.LLST13:
 2725 008d 00000000 		.4byte	.LVL13
 2726 0091 0F000000 		.4byte	.LVL14-1
 2727 0095 0100     		.2byte	0x1
 2728 0097 53       		.byte	0x53
 2729 0098 0F000000 		.4byte	.LVL14-1
 2730 009c 50000000 		.4byte	.LFE281
 2731 00a0 0100     		.2byte	0x1
 2732 00a2 56       		.byte	0x56
 2733 00a3 00000000 		.4byte	0
 2734 00a7 00000000 		.4byte	0
 2735              	.LLST14:
 2736 00ab 00000000 		.4byte	.LVL13
ARM GAS  /var/folders/vd/czx34qs52cd_f3nb04sxmghc0000gn/T//ccpANHNE.s 			page 49


 2737 00af 4C000000 		.4byte	.LVL23
 2738 00b3 0200     		.2byte	0x2
 2739 00b5 91       		.byte	0x91
 2740 00b6 00       		.sleb128 0
 2741 00b7 4C000000 		.4byte	.LVL23
 2742 00bb 50000000 		.4byte	.LFE281
 2743 00bf 0200     		.2byte	0x2
 2744 00c1 91       		.byte	0x91
 2745 00c2 00       		.sleb128 0
 2746 00c3 00000000 		.4byte	0
 2747 00c7 00000000 		.4byte	0
 2748              	.LLST15:
 2749 00cb 3C000000 		.4byte	.LVL20
 2750 00cf 3F000000 		.4byte	.LVL21-1
 2751 00d3 0100     		.2byte	0x1
 2752 00d5 50       		.byte	0x50
 2753 00d6 3F000000 		.4byte	.LVL21-1
 2754 00da 46000000 		.4byte	.LVL22
 2755 00de 0100     		.2byte	0x1
 2756 00e0 54       		.byte	0x54
 2757 00e1 00000000 		.4byte	0
 2758 00e5 00000000 		.4byte	0
 2759              	.LLST16:
 2760 00e9 10000000 		.4byte	.LVL14
 2761 00ed 2C000000 		.4byte	.LVL18
 2762 00f1 0100     		.2byte	0x1
 2763 00f3 50       		.byte	0x50
 2764 00f4 2C000000 		.4byte	.LVL18
 2765 00f8 2F000000 		.4byte	.LVL19-1
 2766 00fc 0200     		.2byte	0x2
 2767 00fe 91       		.byte	0x91
 2768 00ff 54       		.sleb128 -44
 2769 0100 4C000000 		.4byte	.LVL23
 2770 0104 50000000 		.4byte	.LFE281
 2771 0108 0100     		.2byte	0x1
 2772 010a 50       		.byte	0x50
 2773 010b 00000000 		.4byte	0
 2774 010f 00000000 		.4byte	0
 2775              	.LLST17:
 2776 0113 1C000000 		.4byte	.LVL16
 2777 0117 2A000000 		.4byte	.LVL17
 2778 011b 0300     		.2byte	0x3
 2779 011d 08       		.byte	0x8
 2780 011e 20       		.byte	0x20
 2781 011f 9F       		.byte	0x9f
 2782 0120 00000000 		.4byte	0
 2783 0124 00000000 		.4byte	0
 2784              	.LLST18:
 2785 0128 40000000 		.4byte	.LVL21
 2786 012c 46000000 		.4byte	.LVL22
 2787 0130 0200     		.2byte	0x2
 2788 0132 30       		.byte	0x30
 2789 0133 9F       		.byte	0x9f
 2790 0134 00000000 		.4byte	0
 2791 0138 00000000 		.4byte	0
 2792              	.LLST0:
 2793 013c 00000000 		.4byte	.LVL0
ARM GAS  /var/folders/vd/czx34qs52cd_f3nb04sxmghc0000gn/T//ccpANHNE.s 			page 50


 2794 0140 0F000000 		.4byte	.LVL2-1
 2795 0144 0100     		.2byte	0x1
 2796 0146 50       		.byte	0x50
 2797 0147 0F000000 		.4byte	.LVL2-1
 2798 014b 4E000000 		.4byte	.LFE280
 2799 014f 0400     		.2byte	0x4
 2800 0151 F3       		.byte	0xf3
 2801 0152 01       		.uleb128 0x1
 2802 0153 50       		.byte	0x50
 2803 0154 9F       		.byte	0x9f
 2804 0155 00000000 		.4byte	0
 2805 0159 00000000 		.4byte	0
 2806              	.LLST1:
 2807 015d 00000000 		.4byte	.LVL0
 2808 0161 0F000000 		.4byte	.LVL2-1
 2809 0165 0100     		.2byte	0x1
 2810 0167 51       		.byte	0x51
 2811 0168 0F000000 		.4byte	.LVL2-1
 2812 016c 18000000 		.4byte	.LVL3
 2813 0170 0100     		.2byte	0x1
 2814 0172 54       		.byte	0x54
 2815 0173 18000000 		.4byte	.LVL3
 2816 0177 4A000000 		.4byte	.LVL11
 2817 017b 0400     		.2byte	0x4
 2818 017d F3       		.byte	0xf3
 2819 017e 01       		.uleb128 0x1
 2820 017f 51       		.byte	0x51
 2821 0180 9F       		.byte	0x9f
 2822 0181 4A000000 		.4byte	.LVL11
 2823 0185 4C000000 		.4byte	.LVL12
 2824 0189 0100     		.2byte	0x1
 2825 018b 54       		.byte	0x54
 2826 018c 4C000000 		.4byte	.LVL12
 2827 0190 4E000000 		.4byte	.LFE280
 2828 0194 0400     		.2byte	0x4
 2829 0196 F3       		.byte	0xf3
 2830 0197 01       		.uleb128 0x1
 2831 0198 51       		.byte	0x51
 2832 0199 9F       		.byte	0x9f
 2833 019a 00000000 		.4byte	0
 2834 019e 00000000 		.4byte	0
 2835              	.LLST2:
 2836 01a2 00000000 		.4byte	.LVL0
 2837 01a6 08000000 		.4byte	.LVL1
 2838 01aa 0100     		.2byte	0x1
 2839 01ac 52       		.byte	0x52
 2840 01ad 08000000 		.4byte	.LVL1
 2841 01b1 4E000000 		.4byte	.LFE280
 2842 01b5 0100     		.2byte	0x1
 2843 01b7 56       		.byte	0x56
 2844 01b8 00000000 		.4byte	0
 2845 01bc 00000000 		.4byte	0
 2846              	.LLST3:
 2847 01c0 00000000 		.4byte	.LVL0
 2848 01c4 0F000000 		.4byte	.LVL2-1
 2849 01c8 0100     		.2byte	0x1
 2850 01ca 53       		.byte	0x53
ARM GAS  /var/folders/vd/czx34qs52cd_f3nb04sxmghc0000gn/T//ccpANHNE.s 			page 51


 2851 01cb 0F000000 		.4byte	.LVL2-1
 2852 01cf 4E000000 		.4byte	.LFE280
 2853 01d3 0100     		.2byte	0x1
 2854 01d5 55       		.byte	0x55
 2855 01d6 00000000 		.4byte	0
 2856 01da 00000000 		.4byte	0
 2857              	.LLST4:
 2858 01de 00000000 		.4byte	.LVL0
 2859 01e2 4A000000 		.4byte	.LVL11
 2860 01e6 0200     		.2byte	0x2
 2861 01e8 91       		.byte	0x91
 2862 01e9 00       		.sleb128 0
 2863 01ea 4A000000 		.4byte	.LVL11
 2864 01ee 4E000000 		.4byte	.LFE280
 2865 01f2 0200     		.2byte	0x2
 2866 01f4 91       		.byte	0x91
 2867 01f5 00       		.sleb128 0
 2868 01f6 00000000 		.4byte	0
 2869 01fa 00000000 		.4byte	0
 2870              	.LLST5:
 2871 01fe 00000000 		.4byte	.LVL0
 2872 0202 4A000000 		.4byte	.LVL11
 2873 0206 0200     		.2byte	0x2
 2874 0208 91       		.byte	0x91
 2875 0209 04       		.sleb128 4
 2876 020a 4A000000 		.4byte	.LVL11
 2877 020e 4E000000 		.4byte	.LFE280
 2878 0212 0200     		.2byte	0x2
 2879 0214 91       		.byte	0x91
 2880 0215 04       		.sleb128 4
 2881 0216 00000000 		.4byte	0
 2882 021a 00000000 		.4byte	0
 2883              	.LLST6:
 2884 021e 3A000000 		.4byte	.LVL8
 2885 0222 3D000000 		.4byte	.LVL9-1
 2886 0226 0100     		.2byte	0x1
 2887 0228 50       		.byte	0x50
 2888 0229 3D000000 		.4byte	.LVL9-1
 2889 022d 44000000 		.4byte	.LVL10
 2890 0231 0100     		.2byte	0x1
 2891 0233 54       		.byte	0x54
 2892 0234 00000000 		.4byte	0
 2893 0238 00000000 		.4byte	0
 2894              	.LLST7:
 2895 023c 10000000 		.4byte	.LVL2
 2896 0240 2C000000 		.4byte	.LVL6
 2897 0244 0100     		.2byte	0x1
 2898 0246 50       		.byte	0x50
 2899 0247 2C000000 		.4byte	.LVL6
 2900 024b 2F000000 		.4byte	.LVL7-1
 2901 024f 0200     		.2byte	0x2
 2902 0251 91       		.byte	0x91
 2903 0252 5C       		.sleb128 -36
 2904 0253 4A000000 		.4byte	.LVL11
 2905 0257 4E000000 		.4byte	.LFE280
 2906 025b 0100     		.2byte	0x1
 2907 025d 50       		.byte	0x50
ARM GAS  /var/folders/vd/czx34qs52cd_f3nb04sxmghc0000gn/T//ccpANHNE.s 			page 52


 2908 025e 00000000 		.4byte	0
 2909 0262 00000000 		.4byte	0
 2910              	.LLST8:
 2911 0266 1C000000 		.4byte	.LVL4
 2912 026a 2A000000 		.4byte	.LVL5
 2913 026e 0300     		.2byte	0x3
 2914 0270 08       		.byte	0x8
 2915 0271 20       		.byte	0x20
 2916 0272 9F       		.byte	0x9f
 2917 0273 00000000 		.4byte	0
 2918 0277 00000000 		.4byte	0
 2919              	.LLST9:
 2920 027b 3E000000 		.4byte	.LVL9
 2921 027f 44000000 		.4byte	.LVL10
 2922 0283 0200     		.2byte	0x2
 2923 0285 30       		.byte	0x30
 2924 0286 9F       		.byte	0x9f
 2925 0287 00000000 		.4byte	0
 2926 028b 00000000 		.4byte	0
 2927              		.section	.debug_aranges,"",%progbits
 2928 0000 24000000 		.4byte	0x24
 2929 0004 0200     		.2byte	0x2
 2930 0006 00000000 		.4byte	.Ldebug_info0
 2931 000a 04       		.byte	0x4
 2932 000b 00       		.byte	0
 2933 000c 0000     		.2byte	0
 2934 000e 0000     		.2byte	0
 2935 0010 00000000 		.4byte	.LFB280
 2936 0014 4E000000 		.4byte	.LFE280-.LFB280
 2937 0018 00000000 		.4byte	.LFB281
 2938 001c 50000000 		.4byte	.LFE281-.LFB281
 2939 0020 00000000 		.4byte	0
 2940 0024 00000000 		.4byte	0
 2941              		.section	.debug_ranges,"",%progbits
 2942              	.Ldebug_ranges0:
 2943 0000 00000000 		.4byte	.LFB280
 2944 0004 4E000000 		.4byte	.LFE280
 2945 0008 00000000 		.4byte	.LFB281
 2946 000c 50000000 		.4byte	.LFE281
 2947 0010 00000000 		.4byte	0
 2948 0014 00000000 		.4byte	0
 2949              		.section	.debug_line,"",%progbits
 2950              	.Ldebug_line0:
 2951 0000 6E030000 		.section	.debug_str,"MS",%progbits,1
 2951      0200FB02 
 2951      00000201 
 2951      FB0E0D00 
 2951      01010101 
 2952              	.LASF98:
 2953 0000 7466756E 		.ascii	"tfunc_t\000"
 2953      635F7400 
 2954              	.LASF54:
 2955 0008 72656164 		.ascii	"ready_list_t\000"
 2955      795F6C69 
 2955      73745F74 
 2955      00
 2956              	.LASF4:
ARM GAS  /var/folders/vd/czx34qs52cd_f3nb04sxmghc0000gn/T//ccpANHNE.s 			page 53


 2957 0015 73697A65 		.ascii	"size_t\000"
 2957      5F7400
 2958              	.LASF50:
 2959 001c 6E657874 		.ascii	"next\000"
 2959      00
 2960              	.LASF60:
 2961 0021 64656C74 		.ascii	"delta\000"
 2961      6100
 2962              	.LASF85:
 2963 0027 7264796D 		.ascii	"rdymsg\000"
 2963      736700
 2964              	.LASF101:
 2965 002e 66756E63 		.ascii	"funcp\000"
 2965      7000
 2966              	.LASF20:
 2967 0034 75696E74 		.ascii	"uint64_t\000"
 2967      36345F74 
 2967      00
 2968              	.LASF5:
 2969 003d 5F5F7569 		.ascii	"__uint8_t\000"
 2969      6E74385F 
 2969      7400
 2970              	.LASF53:
 2971 0047 70726576 		.ascii	"prev\000"
 2971      00
 2972              	.LASF82:
 2973 004c 706F7274 		.ascii	"port_intctx\000"
 2973      5F696E74 
 2973      63747800 
 2974              	.LASF138:
 2975 0058 70616765 		.ascii	"pages\000"
 2975      7300
 2976              	.LASF65:
 2977 005e 73797374 		.ascii	"system_debug_t\000"
 2977      656D5F64 
 2977      65627567 
 2977      5F7400
 2978              	.LASF133:
 2979 006d 70726F76 		.ascii	"provider\000"
 2979      69646572 
 2979      00
 2980              	.LASF102:
 2981 0076 74687265 		.ascii	"thread_descriptor_t\000"
 2981      61645F64 
 2981      65736372 
 2981      6970746F 
 2981      725F7400 
 2982              	.LASF152:
 2983 008a 73656D5F 		.ascii	"sem_list\000"
 2983      6C697374 
 2983      00
 2984              	.LASF163:
 2985 0093 706F7274 		.ascii	"port_lock\000"
 2985      5F6C6F63 
 2985      6B00
 2986              	.LASF81:
 2987 009d 706F7274 		.ascii	"port_context\000"
ARM GAS  /var/folders/vd/czx34qs52cd_f3nb04sxmghc0000gn/T//ccpANHNE.s 			page 54


 2987      5F636F6E 
 2987      74657874 
 2987      00
 2988              	.LASF125:
 2989 00aa 6D656D67 		.ascii	"memgetfunc_t\000"
 2989      65746675 
 2989      6E635F74 
 2989      00
 2990              	.LASF100:
 2991 00b7 77656E64 		.ascii	"wend\000"
 2991      00
 2992              	.LASF15:
 2993 00bc 6C6F6E67 		.ascii	"long long unsigned int\000"
 2993      206C6F6E 
 2993      6720756E 
 2993      7369676E 
 2993      65642069 
 2994              	.LASF86:
 2995 00d3 65786974 		.ascii	"exitcode\000"
 2995      636F6465 
 2995      00
 2996              	.LASF72:
 2997 00dc 6D61696E 		.ascii	"mainthread\000"
 2997      74687265 
 2997      616400
 2998              	.LASF89:
 2999 00e7 73656E74 		.ascii	"sentmsg\000"
 2999      6D736700 
 3000              	.LASF62:
 3001 00ef 76697274 		.ascii	"virtual_timers_list_t\000"
 3001      75616C5F 
 3001      74696D65 
 3001      72735F6C 
 3001      6973745F 
 3002              	.LASF75:
 3003 0105 49544D5F 		.ascii	"ITM_RxBuffer\000"
 3003      52784275 
 3003      66666572 
 3003      00
 3004              	.LASF160:
 3005 0112 68656170 		.ascii	"heapp\000"
 3005      7000
 3006              	.LASF145:
 3007 0118 64796E5F 		.ascii	"dyn_element_t\000"
 3007      656C656D 
 3007      656E745F 
 3007      7400
 3008              	.LASF136:
 3009 0126 66726565 		.ascii	"free\000"
 3009      00
 3010              	.LASF52:
 3011 012b 63685F74 		.ascii	"ch_threads_queue\000"
 3011      68726561 
 3011      64735F71 
 3011      75657565 
 3011      00
 3012              	.LASF170:
ARM GAS  /var/folders/vd/czx34qs52cd_f3nb04sxmghc0000gn/T//ccpANHNE.s 			page 55


 3013 013c 474E5520 		.ascii	"GNU C11 7.2.1 20170904 (release) [ARM/embedded-7-br"
 3013      43313120 
 3013      372E322E 
 3013      31203230 
 3013      31373039 
 3014 016f 616E6368 		.ascii	"anch revision 255204] -mcpu=cortex-m4 -mno-thumb-in"
 3014      20726576 
 3014      6973696F 
 3014      6E203235 
 3014      35323034 
 3015 01a2 74657277 		.ascii	"terwork -mthumb -ggdb -O2 -fomit-frame-pointer -fal"
 3015      6F726B20 
 3015      2D6D7468 
 3015      756D6220 
 3015      2D676764 
 3016 01d5 69676E2D 		.ascii	"ign-functions=16 -ffunction-sections -fdata-section"
 3016      66756E63 
 3016      74696F6E 
 3016      733D3136 
 3016      202D6666 
 3017 0208 73202D66 		.ascii	"s -fno-common\000"
 3017      6E6F2D63 
 3017      6F6D6D6F 
 3017      6E00
 3018              	.LASF1:
 3019 0216 6C6F6E67 		.ascii	"long long int\000"
 3019      206C6F6E 
 3019      6720696E 
 3019      7400
 3020              	.LASF3:
 3021 0224 7369676E 		.ascii	"signed char\000"
 3021      65642063 
 3021      68617200 
 3022              	.LASF105:
 3023 0230 73697A65 		.ascii	"size\000"
 3023      00
 3024              	.LASF167:
 3025 0235 63685468 		.ascii	"chThdCreateSuspendedI\000"
 3025      64437265 
 3025      61746553 
 3025      75737065 
 3025      6E646564 
 3026              	.LASF175:
 3027 024b 62617365 		.ascii	"basePri\000"
 3027      50726900 
 3028              	.LASF71:
 3029 0253 76746C69 		.ascii	"vtlist\000"
 3029      737400
 3030              	.LASF162:
 3031 025a 706F7274 		.ascii	"port_unlock\000"
 3031      5F756E6C 
 3031      6F636B00 
 3032              	.LASF41:
 3033 0266 6D736771 		.ascii	"msgqueue\000"
 3033      75657565 
 3033      00
 3034              	.LASF37:
ARM GAS  /var/folders/vd/czx34qs52cd_f3nb04sxmghc0000gn/T//ccpANHNE.s 			page 56


 3035 026f 73746174 		.ascii	"state\000"
 3035      6500
 3036              	.LASF11:
 3037 0275 6C6F6E67 		.ascii	"long int\000"
 3037      20696E74 
 3037      00
 3038              	.LASF159:
 3039 027e 63685468 		.ascii	"chThdCreateFromHeap\000"
 3039      64437265 
 3039      61746546 
 3039      726F6D48 
 3039      65617000 
 3040              	.LASF23:
 3041 0292 74737461 		.ascii	"tstate_t\000"
 3041      74655F74 
 3041      00
 3042              	.LASF61:
 3043 029b 66756E63 		.ascii	"func\000"
 3043      00
 3044              	.LASF131:
 3045 02a0 6D656D6F 		.ascii	"memory_heap_t\000"
 3045      72795F68 
 3045      6561705F 
 3045      7400
 3046              	.LASF103:
 3047 02ae 6964656E 		.ascii	"identifier\000"
 3047      74696669 
 3047      657200
 3048              	.LASF126:
 3049 02b9 6D656D67 		.ascii	"memgetfunc2_t\000"
 3049      65746675 
 3049      6E63325F 
 3049      7400
 3050              	.LASF121:
 3051 02c7 63686465 		.ascii	"chdebug_t\000"
 3051      6275675F 
 3051      7400
 3052              	.LASF119:
 3053 02d1 6F66665F 		.ascii	"off_preempt\000"
 3053      70726565 
 3053      6D707400 
 3054              	.LASF135:
 3055 02dd 68656170 		.ascii	"heap_header_t\000"
 3055      5F686561 
 3055      6465725F 
 3055      7400
 3056              	.LASF171:
 3057 02eb 2E2E2F6F 		.ascii	"../os/rt/src/chdynamic.c\000"
 3057      732F7274 
 3057      2F737263 
 3057      2F636864 
 3057      796E616D 
 3058              	.LASF12:
 3059 0304 5F5F7569 		.ascii	"__uint32_t\000"
 3059      6E743332 
 3059      5F7400
 3060              	.LASF79:
ARM GAS  /var/folders/vd/czx34qs52cd_f3nb04sxmghc0000gn/T//ccpANHNE.s 			page 57


 3061 030f 72656761 		.ascii	"regarm_t\000"
 3061      726D5F74 
 3061      00
 3062              	.LASF154:
 3063 0318 6D62785F 		.ascii	"mbx_list\000"
 3063      6C697374 
 3063      00
 3064              	.LASF66:
 3065 0321 63685F73 		.ascii	"ch_system_debug\000"
 3065      79737465 
 3065      6D5F6465 
 3065      62756700 
 3066              	.LASF40:
 3067 0331 77616974 		.ascii	"waiting\000"
 3067      696E6700 
 3068              	.LASF70:
 3069 0339 726C6973 		.ascii	"rlist\000"
 3069      7400
 3070              	.LASF104:
 3071 033f 7A65726F 		.ascii	"zero\000"
 3071      00
 3072              	.LASF123:
 3073 0344 6D757465 		.ascii	"mutex_t\000"
 3073      785F7400 
 3074              	.LASF142:
 3075 034c 616C6967 		.ascii	"align\000"
 3075      6E00
 3076              	.LASF74:
 3077 0352 73797369 		.ascii	"sysinterval_t\000"
 3077      6E746572 
 3077      76616C5F 
 3077      7400
 3078              	.LASF28:
 3079 0360 636E745F 		.ascii	"cnt_t\000"
 3079      7400
 3080              	.LASF0:
 3081 0366 756E7369 		.ascii	"unsigned int\000"
 3081      676E6564 
 3081      20696E74 
 3081      00
 3082              	.LASF17:
 3083 0373 75696E74 		.ascii	"uint16_t\000"
 3083      31365F74 
 3083      00
 3084              	.LASF76:
 3085 037c 53797374 		.ascii	"SystemCoreClock\000"
 3085      656D436F 
 3085      7265436C 
 3085      6F636B00 
 3086              	.LASF90:
 3087 038c 77747365 		.ascii	"wtsemp\000"
 3087      6D7000
 3088              	.LASF172:
 3089 0393 2F557365 		.ascii	"/Users/lantian/Projects/stm32f407vet6/dev\000"
 3089      72732F6C 
 3089      616E7469 
 3089      616E2F50 
ARM GAS  /var/folders/vd/czx34qs52cd_f3nb04sxmghc0000gn/T//ccpANHNE.s 			page 58


 3089      726F6A65 
 3090              	.LASF88:
 3091 03bd 77747472 		.ascii	"wttrp\000"
 3091      7000
 3092              	.LASF122:
 3093 03c3 63685F64 		.ascii	"ch_debug\000"
 3093      65627567 
 3093      00
 3094              	.LASF143:
 3095 03cc 6D656D6F 		.ascii	"memory_pool_t\000"
 3095      72795F70 
 3095      6F6F6C5F 
 3095      7400
 3096              	.LASF31:
 3097 03da 71756575 		.ascii	"queue\000"
 3097      6500
 3098              	.LASF45:
 3099 03e0 6D706F6F 		.ascii	"mpool\000"
 3099      6C00
 3100              	.LASF118:
 3101 03e6 6F66665F 		.ascii	"off_refs\000"
 3101      72656673 
 3101      00
 3102              	.LASF151:
 3103 03ef 6275665F 		.ascii	"buf_list\000"
 3103      6C697374 
 3103      00
 3104              	.LASF48:
 3105 03f8 63685F74 		.ascii	"ch_thread\000"
 3105      68726561 
 3105      6400
 3106              	.LASF26:
 3107 0402 6D73675F 		.ascii	"msg_t\000"
 3107      7400
 3108              	.LASF29:
 3109 0408 75636E74 		.ascii	"ucnt_t\000"
 3109      5F7400
 3110              	.LASF42:
 3111 040f 6570656E 		.ascii	"epending\000"
 3111      64696E67 
 3111      00
 3112              	.LASF35:
 3113 0418 6E616D65 		.ascii	"name\000"
 3113      00
 3114              	.LASF68:
 3115 041d 63685F73 		.ascii	"ch_system_t\000"
 3115      79737465 
 3115      6D5F7400 
 3116              	.LASF111:
 3117 0429 6F66665F 		.ascii	"off_ctx\000"
 3117      63747800 
 3118              	.LASF22:
 3119 0431 746D6F64 		.ascii	"tmode_t\000"
 3119      655F7400 
 3120              	.LASF55:
 3121 0439 63685F72 		.ascii	"ch_ready_list\000"
 3121      65616479 
ARM GAS  /var/folders/vd/czx34qs52cd_f3nb04sxmghc0000gn/T//ccpANHNE.s 			page 59


 3121      5F6C6973 
 3121      7400
 3122              	.LASF27:
 3123 0447 6576656E 		.ascii	"eventmask_t\000"
 3123      746D6173 
 3123      6B5F7400 
 3124              	.LASF77:
 3125 0453 41484250 		.ascii	"AHBPrescTable\000"
 3125      72657363 
 3125      5461626C 
 3125      6500
 3126              	.LASF128:
 3127 0461 656E646D 		.ascii	"endmem\000"
 3127      656D00
 3128              	.LASF10:
 3129 0468 5F5F696E 		.ascii	"__int32_t\000"
 3129      7433325F 
 3129      7400
 3130              	.LASF80:
 3131 0472 73746B61 		.ascii	"stkalign_t\000"
 3131      6C69676E 
 3131      5F7400
 3132              	.LASF33:
 3133 047d 6E657765 		.ascii	"newer\000"
 3133      7200
 3134              	.LASF44:
 3135 0483 7265616C 		.ascii	"realprio\000"
 3135      7072696F 
 3135      00
 3136              	.LASF106:
 3137 048c 76657273 		.ascii	"version\000"
 3137      696F6E00 
 3138              	.LASF21:
 3139 0494 7274636E 		.ascii	"rtcnt_t\000"
 3139      745F7400 
 3140              	.LASF46:
 3141 049c 74687265 		.ascii	"thread_reference_t\000"
 3141      61645F72 
 3141      65666572 
 3141      656E6365 
 3141      5F7400
 3142              	.LASF63:
 3143 04af 63685F76 		.ascii	"ch_virtual_timers_list\000"
 3143      69727475 
 3143      616C5F74 
 3143      696D6572 
 3143      735F6C69 
 3144              	.LASF2:
 3145 04c6 6C6F6E67 		.ascii	"long double\000"
 3145      20646F75 
 3145      626C6500 
 3146              	.LASF146:
 3147 04d2 63685F64 		.ascii	"ch_dyn_list\000"
 3147      796E5F6C 
 3147      69737400 
 3148              	.LASF112:
 3149 04de 6F66665F 		.ascii	"off_newer\000"
ARM GAS  /var/folders/vd/czx34qs52cd_f3nb04sxmghc0000gn/T//ccpANHNE.s 			page 60


 3149      6E657765 
 3149      7200
 3150              	.LASF78:
 3151 04e8 41504250 		.ascii	"APBPrescTable\000"
 3151      72657363 
 3151      5461626C 
 3151      6500
 3152              	.LASF158:
 3153 04f6 63685468 		.ascii	"chThdCreateFromMemoryPool\000"
 3153      64437265 
 3153      61746546 
 3153      726F6D4D 
 3153      656D6F72 
 3154              	.LASF99:
 3155 0510 77626173 		.ascii	"wbase\000"
 3155      6500
 3156              	.LASF84:
 3157 0516 746D5F63 		.ascii	"tm_calibration_t\000"
 3157      616C6962 
 3157      72617469 
 3157      6F6E5F74 
 3157      00
 3158              	.LASF32:
 3159 0527 7072696F 		.ascii	"prio\000"
 3159      00
 3160              	.LASF153:
 3161 052c 73656D5F 		.ascii	"sem_pool\000"
 3161      706F6F6C 
 3161      00
 3162              	.LASF56:
 3163 0535 63757272 		.ascii	"current\000"
 3163      656E7400 
 3164              	.LASF14:
 3165 053d 5F5F7569 		.ascii	"__uint64_t\000"
 3165      6E743634 
 3165      5F7400
 3166              	.LASF129:
 3167 0548 6D656D63 		.ascii	"memcore_t\000"
 3167      6F72655F 
 3167      7400
 3168              	.LASF137:
 3169 0552 75736564 		.ascii	"used\000"
 3169      00
 3170              	.LASF24:
 3171 0557 74726566 		.ascii	"trefs_t\000"
 3171      735F7400 
 3172              	.LASF39:
 3173 055f 72656673 		.ascii	"refs\000"
 3173      00
 3174              	.LASF58:
 3175 0564 76697274 		.ascii	"virtual_timer_t\000"
 3175      75616C5F 
 3175      74696D65 
 3175      725F7400 
 3176              	.LASF144:
 3177 0574 63685F64 		.ascii	"ch_dyn_element\000"
 3177      796E5F65 
ARM GAS  /var/folders/vd/czx34qs52cd_f3nb04sxmghc0000gn/T//ccpANHNE.s 			page 61


 3177      6C656D65 
 3177      6E7400
 3178              	.LASF147:
 3179 0583 64796E5F 		.ascii	"dyn_list_t\000"
 3179      6C697374 
 3179      5F7400
 3180              	.LASF25:
 3181 058e 74707269 		.ascii	"tprio_t\000"
 3181      6F5F7400 
 3182              	.LASF109:
 3183 0596 74687265 		.ascii	"threadsize\000"
 3183      61647369 
 3183      7A6500
 3184              	.LASF124:
 3185 05a1 5F426F6F 		.ascii	"_Bool\000"
 3185      6C00
 3186              	.LASF18:
 3187 05a7 696E7433 		.ascii	"int32_t\000"
 3187      325F7400 
 3188              	.LASF6:
 3189 05af 756E7369 		.ascii	"unsigned char\000"
 3189      676E6564 
 3189      20636861 
 3189      7200
 3190              	.LASF110:
 3191 05bd 6F66665F 		.ascii	"off_prio\000"
 3191      7072696F 
 3191      00
 3192              	.LASF115:
 3193 05c6 6F66665F 		.ascii	"off_stklimit\000"
 3193      73746B6C 
 3193      696D6974 
 3193      00
 3194              	.LASF7:
 3195 05d3 73686F72 		.ascii	"short int\000"
 3195      7420696E 
 3195      7400
 3196              	.LASF64:
 3197 05dd 6C617374 		.ascii	"lasttime\000"
 3197      74696D65 
 3197      00
 3198              	.LASF173:
 3199 05e6 68656170 		.ascii	"heap_header\000"
 3199      5F686561 
 3199      64657200 
 3200              	.LASF92:
 3201 05f2 65776D61 		.ascii	"ewmask\000"
 3201      736B00
 3202              	.LASF69:
 3203 05f9 63685F73 		.ascii	"ch_system\000"
 3203      79737465 
 3203      6D00
 3204              	.LASF174:
 3205 0603 5F5F6675 		.ascii	"__func__\000"
 3205      6E635F5F 
 3205      00
 3206              	.LASF157:
ARM GAS  /var/folders/vd/czx34qs52cd_f3nb04sxmghc0000gn/T//ccpANHNE.s 			page 62


 3207 060c 63685F66 		.ascii	"ch_factory\000"
 3207      6163746F 
 3207      727900
 3208              	.LASF161:
 3209 0617 63685379 		.ascii	"chSysLock\000"
 3209      734C6F63 
 3209      6B00
 3210              	.LASF150:
 3211 0621 6F626A5F 		.ascii	"obj_pool\000"
 3211      706F6F6C 
 3211      00
 3212              	.LASF59:
 3213 062a 63685F76 		.ascii	"ch_virtual_timer\000"
 3213      69727475 
 3213      616C5F74 
 3213      696D6572 
 3213      00
 3214              	.LASF93:
 3215 063b 63685F73 		.ascii	"ch_semaphore\000"
 3215      656D6170 
 3215      686F7265 
 3215      00
 3216              	.LASF120:
 3217 0648 6F66665F 		.ascii	"off_time\000"
 3217      74696D65 
 3217      00
 3218              	.LASF97:
 3219 0651 63685F69 		.ascii	"ch_idle_thread_wa\000"
 3219      646C655F 
 3219      74687265 
 3219      61645F77 
 3219      6100
 3220              	.LASF108:
 3221 0663 74696D65 		.ascii	"timesize\000"
 3221      73697A65 
 3221      00
 3222              	.LASF19:
 3223 066c 75696E74 		.ascii	"uint32_t\000"
 3223      33325F74 
 3223      00
 3224              	.LASF91:
 3225 0675 77746D74 		.ascii	"wtmtxp\000"
 3225      787000
 3226              	.LASF49:
 3227 067c 63685F74 		.ascii	"ch_threads_list\000"
 3227      68726561 
 3227      64735F6C 
 3227      69737400 
 3228              	.LASF95:
 3229 068c 6F776E65 		.ascii	"owner\000"
 3229      7200
 3230              	.LASF139:
 3231 0692 68656170 		.ascii	"heap\000"
 3231      00
 3232              	.LASF13:
 3233 0697 6C6F6E67 		.ascii	"long unsigned int\000"
 3233      20756E73 
ARM GAS  /var/folders/vd/czx34qs52cd_f3nb04sxmghc0000gn/T//ccpANHNE.s 			page 63


 3233      69676E65 
 3233      6420696E 
 3233      7400
 3234              	.LASF36:
 3235 06a9 77616261 		.ascii	"wabase\000"
 3235      736500
 3236              	.LASF96:
 3237 06b0 63686172 		.ascii	"char\000"
 3237      00
 3238              	.LASF34:
 3239 06b5 6F6C6465 		.ascii	"older\000"
 3239      7200
 3240              	.LASF149:
 3241 06bb 6F626A5F 		.ascii	"obj_list\000"
 3241      6C697374 
 3241      00
 3242              	.LASF8:
 3243 06c4 5F5F7569 		.ascii	"__uint16_t\000"
 3243      6E743136 
 3243      5F7400
 3244              	.LASF30:
 3245 06cf 74687265 		.ascii	"thread_t\000"
 3245      61645F74 
 3245      00
 3246              	.LASF130:
 3247 06d8 63685F6D 		.ascii	"ch_memcore\000"
 3247      656D636F 
 3247      726500
 3248              	.LASF73:
 3249 06e3 73797374 		.ascii	"systime_t\000"
 3249      696D655F 
 3249      7400
 3250              	.LASF57:
 3251 06ed 76746675 		.ascii	"vtfunc_t\000"
 3251      6E635F74 
 3251      00
 3252              	.LASF165:
 3253 06f6 5F5F7365 		.ascii	"__set_BASEPRI\000"
 3253      745F4241 
 3253      53455052 
 3253      4900
 3254              	.LASF67:
 3255 0704 70616E69 		.ascii	"panic_msg\000"
 3255      635F6D73 
 3255      6700
 3256              	.LASF83:
 3257 070e 6F666673 		.ascii	"offset\000"
 3257      657400
 3258              	.LASF169:
 3259 0715 63684865 		.ascii	"chHeapAllocAligned\000"
 3259      6170416C 
 3259      6C6F6341 
 3259      6C69676E 
 3259      656400
 3260              	.LASF94:
 3261 0728 63685F6D 		.ascii	"ch_mutex\000"
 3261      75746578 
ARM GAS  /var/folders/vd/czx34qs52cd_f3nb04sxmghc0000gn/T//ccpANHNE.s 			page 64


 3261      00
 3262              	.LASF113:
 3263 0731 6F66665F 		.ascii	"off_older\000"
 3263      6F6C6465 
 3263      7200
 3264              	.LASF9:
 3265 073b 73686F72 		.ascii	"short unsigned int\000"
 3265      7420756E 
 3265      7369676E 
 3265      65642069 
 3265      6E7400
 3266              	.LASF168:
 3267 074e 63685363 		.ascii	"chSchWakeupS\000"
 3267      6857616B 
 3267      65757053 
 3267      00
 3268              	.LASF141:
 3269 075b 6F626A65 		.ascii	"object_size\000"
 3269      63745F73 
 3269      697A6500 
 3270              	.LASF107:
 3271 0767 70747273 		.ascii	"ptrsize\000"
 3271      697A6500 
 3272              	.LASF148:
 3273 076f 63685F6F 		.ascii	"ch_objects_factory\000"
 3273      626A6563 
 3273      74735F66 
 3273      6163746F 
 3273      727900
 3274              	.LASF51:
 3275 0782 74687265 		.ascii	"threads_queue_t\000"
 3275      6164735F 
 3275      71756575 
 3275      655F7400 
 3276              	.LASF140:
 3277 0792 706F6F6C 		.ascii	"pool_header\000"
 3277      5F686561 
 3277      64657200 
 3278              	.LASF114:
 3279 079e 6F66665F 		.ascii	"off_name\000"
 3279      6E616D65 
 3279      00
 3280              	.LASF16:
 3281 07a7 75696E74 		.ascii	"uint8_t\000"
 3281      385F7400 
 3282              	.LASF166:
 3283 07af 6368506F 		.ascii	"chPoolAlloc\000"
 3283      6F6C416C 
 3283      6C6F6300 
 3284              	.LASF38:
 3285 07bb 666C6167 		.ascii	"flags\000"
 3285      7300
 3286              	.LASF155:
 3287 07c1 6669666F 		.ascii	"fifo_list\000"
 3287      5F6C6973 
 3287      7400
 3288              	.LASF87:
ARM GAS  /var/folders/vd/czx34qs52cd_f3nb04sxmghc0000gn/T//ccpANHNE.s 			page 65


 3289 07cb 77746F62 		.ascii	"wtobjp\000"
 3289      6A7000
 3290              	.LASF47:
 3291 07d2 74687265 		.ascii	"threads_list_t\000"
 3291      6164735F 
 3291      6C697374 
 3291      5F7400
 3292              	.LASF116:
 3293 07e1 6F66665F 		.ascii	"off_state\000"
 3293      73746174 
 3293      6500
 3294              	.LASF164:
 3295 07eb 63685379 		.ascii	"chSysUnlock\000"
 3295      73556E6C 
 3295      6F636B00 
 3296              	.LASF156:
 3297 07f7 6F626A65 		.ascii	"objects_factory_t\000"
 3297      6374735F 
 3297      66616374 
 3297      6F72795F 
 3297      7400
 3298              	.LASF117:
 3299 0809 6F66665F 		.ascii	"off_flags\000"
 3299      666C6167 
 3299      7300
 3300              	.LASF43:
 3301 0813 6D74786C 		.ascii	"mtxlist\000"
 3301      69737400 
 3302              	.LASF134:
 3303 081b 68656164 		.ascii	"header\000"
 3303      657200
 3304              	.LASF127:
 3305 0822 6E657874 		.ascii	"nextmem\000"
 3305      6D656D00 
 3306              	.LASF132:
 3307 082a 6D656D6F 		.ascii	"memory_heap\000"
 3307      72795F68 
 3307      65617000 
 3308              		.ident	"GCC: (GNU Tools for Arm Embedded Processors 7-2017-q4-major) 7.2.1 20170904 (release) [ARM
ARM GAS  /var/folders/vd/czx34qs52cd_f3nb04sxmghc0000gn/T//ccpANHNE.s 			page 66


DEFINED SYMBOLS
                            *ABS*:0000000000000000 chdynamic.c
/var/folders/vd/czx34qs52cd_f3nb04sxmghc0000gn/T//ccpANHNE.s:16     .text.chThdCreateFromHeap:0000000000000000 $t
/var/folders/vd/czx34qs52cd_f3nb04sxmghc0000gn/T//ccpANHNE.s:24     .text.chThdCreateFromHeap:0000000000000000 chThdCreateFromHeap
/var/folders/vd/czx34qs52cd_f3nb04sxmghc0000gn/T//ccpANHNE.s:137    .text.chThdCreateFromMemoryPool:0000000000000000 $t
/var/folders/vd/czx34qs52cd_f3nb04sxmghc0000gn/T//ccpANHNE.s:145    .text.chThdCreateFromMemoryPool:0000000000000000 chThdCreateFromMemoryPool

UNDEFINED SYMBOLS
chHeapAllocAligned
chThdCreateSuspendedI
chSchWakeupS
chPoolAlloc
