ARM GAS  /var/folders/vd/czx34qs52cd_f3nb04sxmghc0000gn/T//ccpANHNE.s 			page 1


   1              		.cpu cortex-m4
   2              		.eabi_attribute 20, 1
   3              		.eabi_attribute 21, 1
   4              		.eabi_attribute 23, 3
   5              		.eabi_attribute 24, 1
   6              		.eabi_attribute 25, 1
   7              		.eabi_attribute 26, 1
   8              		.eabi_attribute 30, 2
   9              		.eabi_attribute 34, 1
  10              		.eabi_attribute 18, 4
  11              		.file	"chdynamic.c"
  12              		.text
  13              	.Ltext0:
  14              		.cfi_sections	.debug_frame
  15              		.section	.text.chThdCreateFromHeap,"ax",%progbits
  16              		.align	1
  17              		.p2align 4,,15
  18              		.global	chThdCreateFromHeap
  19              		.syntax unified
  20              		.thumb
  21              		.thumb_func
  22              		.fpu softvfp
  23              		.type	chThdCreateFromHeap, %function
  24              	chThdCreateFromHeap:
  25              	.LFB280:
  26              		.file 1 "../os/rt/src/chdynamic.c"
  27              		.loc 1 84 0
  28              		.cfi_startproc
  29              		@ args = 8, pretend = 0, frame = 24
  30              		@ frame_needed = 0, uses_anonymous_args = 0
  31              	.LVL0:
  32 0000 70B5     		push	{r4, r5, r6, lr}
  33              		.cfi_def_cfa_offset 16
  34              		.cfi_offset 4, -16
  35              		.cfi_offset 5, -12
  36              		.cfi_offset 6, -8
  37              		.cfi_offset 14, -4
  38 0002 1646     		mov	r6, r2
  39 0004 86B0     		sub	sp, sp, #24
  40              		.cfi_def_cfa_offset 40
  41              		.loc 1 88 0
  42 0006 0822     		movs	r2, #8
  43              	.LVL1:
  44              		.loc 1 84 0
  45 0008 1D46     		mov	r5, r3
  46 000a 0C46     		mov	r4, r1
  47              		.loc 1 88 0
  48 000c FFF7FEFF 		bl	chHeapAllocAligned
  49              	.LVL2:
  50              		.loc 1 89 0
  51 0010 D8B1     		cbz	r0, .L3
  52              		.loc 1 93 0
  53 0012 0A9B     		ldr	r3, [sp, #40]
  54 0014 0493     		str	r3, [sp, #16]
  55              		.loc 1 96 0
  56 0016 0444     		add	r4, r4, r0
  57              	.LVL3:
ARM GAS  /var/folders/vd/czx34qs52cd_f3nb04sxmghc0000gn/T//ccpANHNE.s 			page 2


  58              		.loc 1 93 0
  59 0018 0B9B     		ldr	r3, [sp, #44]
  60 001a 0593     		str	r3, [sp, #20]
  61              	.LVL4:
  62 001c 0294     		str	r4, [sp, #8]
  63 001e CDE90060 		strd	r6, r0, [sp]
  64 0022 0395     		str	r5, [sp, #12]
  65              	.LBB34:
  66              	.LBB35:
  67              	.LBB36:
  68              	.LBB37:
  69              		.file 2 "../os/common/ext/ARM/CMSIS/Core/Include/cmsis_gcc.h"
  70              		.loc 2 490 0
  71 0024 2023     		movs	r3, #32
  72              		.syntax unified
  73              	@ 490 "../os/common/ext/ARM/CMSIS/Core/Include/cmsis_gcc.h" 1
  74 0026 83F31188 		MSR basepri, r3
  75              	@ 0 "" 2
  76              	.LVL5:
  77              		.thumb
  78              		.syntax unified
  79              	.LBE37:
  80              	.LBE36:
  81              	.LBE35:
  82              	.LBE34:
  83              		.loc 1 109 0
  84 002a 6846     		mov	r0, sp
  85              	.LVL6:
  86 002c FFF7FEFF 		bl	chThdCreateSuspendedI
  87              	.LVL7:
  88              		.loc 1 110 0
  89 0030 0123     		movs	r3, #1
  90 0032 80F82130 		strb	r3, [r0, #33]
  91              		.loc 1 111 0
  92 0036 0021     		movs	r1, #0
  93              		.loc 1 109 0
  94 0038 0446     		mov	r4, r0
  95              	.LVL8:
  96              		.loc 1 111 0
  97 003a FFF7FEFF 		bl	chSchWakeupS
  98              	.LVL9:
  99              	.LBB38:
 100              	.LBB39:
 101              	.LBB40:
 102              	.LBB41:
 103              	.LBB42:
 104              		.loc 2 490 0
 105 003e 0023     		movs	r3, #0
 106              		.syntax unified
 107              	@ 490 "../os/common/ext/ARM/CMSIS/Core/Include/cmsis_gcc.h" 1
 108 0040 83F31188 		MSR basepri, r3
 109              	@ 0 "" 2
 110              	.LVL10:
 111              		.thumb
 112              		.syntax unified
 113              	.L1:
 114              	.LBE42:
ARM GAS  /var/folders/vd/czx34qs52cd_f3nb04sxmghc0000gn/T//ccpANHNE.s 			page 3


 115              	.LBE41:
 116              	.LBE40:
 117              	.LBE39:
 118              	.LBE38:
 119              		.loc 1 115 0
 120 0044 2046     		mov	r0, r4
 121 0046 06B0     		add	sp, sp, #24
 122              		.cfi_remember_state
 123              		.cfi_def_cfa_offset 16
 124              		@ sp needed
 125 0048 70BD     		pop	{r4, r5, r6, pc}
 126              	.LVL11:
 127              	.L3:
 128              		.cfi_restore_state
 129              		.loc 1 90 0
 130 004a 0446     		mov	r4, r0
 131              	.LVL12:
 132 004c FAE7     		b	.L1
 133              		.cfi_endproc
 134              	.LFE280:
 135              		.size	chThdCreateFromHeap, .-chThdCreateFromHeap
 136 004e 00BF     		.section	.text.chThdCreateFromMemoryPool,"ax",%progbits
 137              		.align	1
 138              		.p2align 4,,15
 139              		.global	chThdCreateFromMemoryPool
 140              		.syntax unified
 141              		.thumb
 142              		.thumb_func
 143              		.fpu softvfp
 144              		.type	chThdCreateFromMemoryPool, %function
 145              	chThdCreateFromMemoryPool:
 146              	.LFB281:
 147              		.loc 1 146 0
 148              		.cfi_startproc
 149              		@ args = 4, pretend = 0, frame = 24
 150              		@ frame_needed = 0, uses_anonymous_args = 0
 151              	.LVL13:
 152 0000 F0B5     		push	{r4, r5, r6, r7, lr}
 153              		.cfi_def_cfa_offset 20
 154              		.cfi_offset 4, -20
 155              		.cfi_offset 5, -16
 156              		.cfi_offset 6, -12
 157              		.cfi_offset 7, -8
 158              		.cfi_offset 14, -4
 159 0002 87B0     		sub	sp, sp, #28
 160              		.cfi_def_cfa_offset 48
 161              		.loc 1 146 0
 162 0004 0C46     		mov	r4, r1
 163 0006 1746     		mov	r7, r2
 164 0008 1E46     		mov	r6, r3
 165 000a 0546     		mov	r5, r0
 166              		.loc 1 152 0
 167 000c FFF7FEFF 		bl	chPoolAlloc
 168              	.LVL14:
 169              		.loc 1 153 0
 170 0010 E0B1     		cbz	r0, .L8
 171              		.loc 1 160 0
ARM GAS  /var/folders/vd/czx34qs52cd_f3nb04sxmghc0000gn/T//ccpANHNE.s 			page 4


 172 0012 6B68     		ldr	r3, [r5, #4]
 173              		.loc 1 157 0
 174 0014 0094     		str	r4, [sp]
 175              		.loc 1 160 0
 176 0016 C418     		adds	r4, r0, r3
 177              	.LVL15:
 178              		.loc 1 157 0
 179 0018 0C9B     		ldr	r3, [sp, #48]
 180 001a 0593     		str	r3, [sp, #20]
 181              	.LVL16:
 182 001c 0190     		str	r0, [sp, #4]
 183 001e CDE90376 		strd	r7, r6, [sp, #12]
 184 0022 0294     		str	r4, [sp, #8]
 185              	.LBB43:
 186              	.LBB44:
 187              	.LBB45:
 188              	.LBB46:
 189              		.loc 2 490 0
 190 0024 2023     		movs	r3, #32
 191              		.syntax unified
 192              	@ 490 "../os/common/ext/ARM/CMSIS/Core/Include/cmsis_gcc.h" 1
 193 0026 83F31188 		MSR basepri, r3
 194              	@ 0 "" 2
 195              	.LVL17:
 196              		.thumb
 197              		.syntax unified
 198              	.LBE46:
 199              	.LBE45:
 200              	.LBE44:
 201              	.LBE43:
 202              		.loc 1 173 0
 203 002a 6846     		mov	r0, sp
 204              	.LVL18:
 205 002c FFF7FEFF 		bl	chThdCreateSuspendedI
 206              	.LVL19:
 207              		.loc 1 174 0
 208 0030 0223     		movs	r3, #2
 209 0032 80F82130 		strb	r3, [r0, #33]
 210              		.loc 1 175 0
 211 0036 0564     		str	r5, [r0, #64]
 212              		.loc 1 176 0
 213 0038 0021     		movs	r1, #0
 214              		.loc 1 173 0
 215 003a 0446     		mov	r4, r0
 216              	.LVL20:
 217              		.loc 1 176 0
 218 003c FFF7FEFF 		bl	chSchWakeupS
 219              	.LVL21:
 220              	.LBB47:
 221              	.LBB48:
 222              	.LBB49:
 223              	.LBB50:
 224              	.LBB51:
 225              		.loc 2 490 0
 226 0040 0023     		movs	r3, #0
 227              		.syntax unified
 228              	@ 490 "../os/common/ext/ARM/CMSIS/Core/Include/cmsis_gcc.h" 1
ARM GAS  /var/folders/vd/czx34qs52cd_f3nb04sxmghc0000gn/T//ccpANHNE.s 			page 5


 229 0042 83F31188 		MSR basepri, r3
 230              	@ 0 "" 2
 231              	.LVL22:
 232              		.thumb
 233              		.syntax unified
 234              	.L6:
 235              	.LBE51:
 236              	.LBE50:
 237              	.LBE49:
 238              	.LBE48:
 239              	.LBE47:
 240              		.loc 1 180 0
 241 0046 2046     		mov	r0, r4
 242 0048 07B0     		add	sp, sp, #28
 243              		.cfi_remember_state
 244              		.cfi_def_cfa_offset 20
 245              		@ sp needed
 246 004a F0BD     		pop	{r4, r5, r6, r7, pc}
 247              	.LVL23:
 248              	.L8:
 249              		.cfi_restore_state
 250              		.loc 1 154 0
 251 004c 0446     		mov	r4, r0
 252              	.LVL24:
 253 004e FAE7     		b	.L6
 254              		.cfi_endproc
 255              	.LFE281:
 256              		.size	chThdCreateFromMemoryPool, .-chThdCreateFromMemoryPool
 257              		.text
 258              	.Letext0:
 259              		.file 3 "/usr/local/Cellar/gcc-arm-none-eabi/20171218/lib/gcc/arm-none-eabi/7.2.1/include/stddef.h
 260              		.file 4 "/usr/local/Cellar/gcc-arm-none-eabi/20171218/arm-none-eabi/include/machine/_default_types
 261              		.file 5 "/usr/local/Cellar/gcc-arm-none-eabi/20171218/arm-none-eabi/include/sys/_stdint.h"
 262              		.file 6 "../os/common/ports/ARMCMx/compilers/GCC/chtypes.h"
 263              		.file 7 "../os/rt/include/chsystypes.h"
 264              		.file 8 "../os/rt/include/chschd.h"
 265              		.file 9 "../os/rt/include/chtime.h"
 266              		.file 10 "../os/common/ext/ARM/CMSIS/Core/Include/core_cm4.h"
 267              		.file 11 "../os/common/ext/ST/STM32F4xx/system_stm32f4xx.h"
 268              		.file 12 "../os/common/ports/ARMCMx/chcore.h"
 269              		.file 13 "../os/common/ports/ARMCMx/chcore_v7m.h"
 270              		.file 14 "../os/rt/include/chtm.h"
 271              		.file 15 "../os/rt/include/chsem.h"
 272              		.file 16 "../os/rt/include/chmtx.h"
 273              		.file 17 "../os/rt/include/chsys.h"
 274              		.file 18 "../os/rt/include/chthreads.h"
 275              		.file 19 "../os/rt/include/chregistry.h"
 276              		.file 20 "../os/common/oslib/include/chmemcore.h"
 277              		.file 21 "../os/common/oslib/include/chheap.h"
 278              		.file 22 "../os/common/oslib/include/chmempools.h"
 279              		.file 23 "../os/common/oslib/include/chfactory.h"