ARM GAS  /var/folders/vd/czx34qs52cd_f3nb04sxmghc0000gn/T//ccvumeud.s 			page 1


   1              		.cpu cortex-m4
   2              		.eabi_attribute 20, 1
   3              		.eabi_attribute 21, 1
   4              		.eabi_attribute 23, 3
   5              		.eabi_attribute 24, 1
   6              		.eabi_attribute 25, 1
   7              		.eabi_attribute 26, 1
   8              		.eabi_attribute 30, 2
   9              		.eabi_attribute 34, 1
  10              		.eabi_attribute 18, 4
  11              		.file	"chevents.c"
  12              		.text
  13              	.Ltext0:
  14              		.cfi_sections	.debug_frame
  15              		.section	.text.chEvtRegisterMaskWithFlags,"ax",%progbits
  16              		.align	1
  17              		.p2align 4,,15
  18              		.global	chEvtRegisterMaskWithFlags
  19              		.syntax unified
  20              		.thumb
  21              		.thumb_func
  22              		.fpu softvfp
  23              		.type	chEvtRegisterMaskWithFlags, %function
  24              	chEvtRegisterMaskWithFlags:
  25              	.LFB280:
  26              		.file 1 "../os/rt/src/chevents.c"
  27              		.loc 1 106 0
  28              		.cfi_startproc
  29              		@ args = 0, pretend = 0, frame = 0
  30              		@ frame_needed = 0, uses_anonymous_args = 0
  31              		@ link register save eliminated.
  32              	.LVL0:
  33 0000 30B4     		push	{r4, r5}
  34              		.cfi_def_cfa_offset 8
  35              		.cfi_offset 4, -8
  36              		.cfi_offset 5, -4
  37              	.LBB178:
  38              	.LBB179:
  39              	.LBB180:
  40              	.LBB181:
  41              		.file 2 "../os/common/ext/ARM/CMSIS/Core/Include/cmsis_gcc.h"
  42              		.loc 2 490 0
  43 0002 2024     		movs	r4, #32
  44              		.syntax unified
  45              	@ 490 "../os/common/ext/ARM/CMSIS/Core/Include/cmsis_gcc.h" 1
  46 0004 84F31188 		MSR basepri, r4
  47              	@ 0 "" 2
  48              	.LVL1:
  49              		.thumb
  50              		.syntax unified
  51              	.LBE181:
  52              	.LBE180:
  53              	.LBE179:
  54              	.LBE178:
  55              		.loc 1 113 0
  56 0008 064D     		ldr	r5, .L4
  57              		.loc 1 111 0
ARM GAS  /var/folders/vd/czx34qs52cd_f3nb04sxmghc0000gn/T//ccvumeud.s 			page 2


  58 000a 0468     		ldr	r4, [r0]
  59              		.loc 1 113 0
  60 000c AD69     		ldr	r5, [r5, #24]
  61              		.loc 1 111 0
  62 000e 0C60     		str	r4, [r1]
  63              		.loc 1 115 0
  64 0010 0024     		movs	r4, #0
  65              		.loc 1 112 0
  66 0012 0160     		str	r1, [r0]
  67              		.loc 1 114 0
  68 0014 C1E90152 		strd	r5, r2, [r1, #4]
  69              		.loc 1 115 0
  70 0018 C1E90343 		strd	r4, r3, [r1, #12]
  71              	.LBB182:
  72              	.LBB183:
  73              	.LBB184:
  74              	.LBB185:
  75              	.LBB186:
  76              		.loc 2 490 0
  77              		.syntax unified
  78              	@ 490 "../os/common/ext/ARM/CMSIS/Core/Include/cmsis_gcc.h" 1
  79 001c 84F31188 		MSR basepri, r4
  80              	@ 0 "" 2
  81              		.thumb
  82              		.syntax unified
  83              	.LBE186:
  84              	.LBE185:
  85              	.LBE184:
  86              	.LBE183:
  87              	.LBE182:
  88              		.loc 1 118 0
  89 0020 30BC     		pop	{r4, r5}
  90              		.cfi_restore 5
  91              		.cfi_restore 4
  92              		.cfi_def_cfa_offset 0
  93 0022 7047     		bx	lr
  94              	.L5:
  95              		.align	2
  96              	.L4:
  97 0024 00000000 		.word	ch
  98              		.cfi_endproc
  99              	.LFE280:
 100              		.size	chEvtRegisterMaskWithFlags, .-chEvtRegisterMaskWithFlags
 101              		.section	.text.chEvtUnregister,"ax",%progbits
 102              		.align	1
 103              		.p2align 4,,15
 104              		.global	chEvtUnregister
 105              		.syntax unified
 106              		.thumb
 107              		.thumb_func
 108              		.fpu softvfp
 109              		.type	chEvtUnregister, %function
 110              	chEvtUnregister:
 111              	.LFB281:
 112              		.loc 1 133 0
 113              		.cfi_startproc
 114              		@ args = 0, pretend = 0, frame = 0
ARM GAS  /var/folders/vd/czx34qs52cd_f3nb04sxmghc0000gn/T//ccvumeud.s 			page 3


 115              		@ frame_needed = 0, uses_anonymous_args = 0
 116              		@ link register save eliminated.
 117              	.LVL2:
 118              	.LBB187:
 119              	.LBB188:
 120              	.LBB189:
 121              	.LBB190:
 122              		.loc 2 490 0
 123 0000 2023     		movs	r3, #32
 124              		.syntax unified
 125              	@ 490 "../os/common/ext/ARM/CMSIS/Core/Include/cmsis_gcc.h" 1
 126 0002 83F31188 		MSR basepri, r3
 127              	@ 0 "" 2
 128              	.LVL3:
 129              		.thumb
 130              		.syntax unified
 131              	.LBE190:
 132              	.LBE189:
 133              	.LBE188:
 134              	.LBE187:
 135              		.loc 1 139 0
 136 0006 0246     		mov	r2, r0
 137 0008 02E0     		b	.L7
 138              	.LVL4:
 139              	.L9:
 140              		.loc 1 145 0
 141 000a 8B42     		cmp	r3, r1
 142 000c 07D0     		beq	.L11
 143 000e 1A46     		mov	r2, r3
 144              	.LVL5:
 145              	.L7:
 146              		.loc 1 143 0
 147 0010 1368     		ldr	r3, [r2]
 148 0012 8342     		cmp	r3, r0
 149 0014 F9D1     		bne	.L9
 150              	.LVL6:
 151              	.LBB191:
 152              	.LBB192:
 153              	.LBB193:
 154              	.LBB194:
 155              	.LBB195:
 156              		.loc 2 490 0
 157 0016 0023     		movs	r3, #0
 158              		.syntax unified
 159              	@ 490 "../os/common/ext/ARM/CMSIS/Core/Include/cmsis_gcc.h" 1
 160 0018 83F31188 		MSR basepri, r3
 161              	@ 0 "" 2
 162              	.LVL7:
 163              		.thumb
 164              		.syntax unified
 165              	.LBE195:
 166              	.LBE194:
 167              	.LBE193:
 168              	.LBE192:
 169              	.LBE191:
 170              		.loc 1 152 0
 171 001c 7047     		bx	lr
ARM GAS  /var/folders/vd/czx34qs52cd_f3nb04sxmghc0000gn/T//ccvumeud.s 			page 4


 172              	.L11:
 173              		.loc 1 146 0
 174 001e 0B68     		ldr	r3, [r1]
 175 0020 1360     		str	r3, [r2]
 176              	.LVL8:
 177              	.LBB200:
 178              	.LBB199:
 179              	.LBB198:
 180              	.LBB197:
 181              	.LBB196:
 182              		.loc 2 490 0
 183 0022 0023     		movs	r3, #0
 184              		.syntax unified
 185              	@ 490 "../os/common/ext/ARM/CMSIS/Core/Include/cmsis_gcc.h" 1
 186 0024 83F31188 		MSR basepri, r3
 187              	@ 0 "" 2
 188              	.LVL9:
 189              		.thumb
 190              		.syntax unified
 191              	.LBE196:
 192              	.LBE197:
 193              	.LBE198:
 194              	.LBE199:
 195              	.LBE200:
 196              		.loc 1 152 0
 197 0028 7047     		bx	lr
 198              		.cfi_endproc
 199              	.LFE281:
 200              		.size	chEvtUnregister, .-chEvtUnregister
 201 002a 00BF     		.section	.text.chEvtGetAndClearEventsI,"ax",%progbits
 202              		.align	1
 203              		.p2align 4,,15
 204              		.global	chEvtGetAndClearEventsI
 205              		.syntax unified
 206              		.thumb
 207              		.thumb_func
 208              		.fpu softvfp
 209              		.type	chEvtGetAndClearEventsI, %function
 210              	chEvtGetAndClearEventsI:
 211              	.LFB282:
 212              		.loc 1 162 0
 213              		.cfi_startproc
 214              		@ args = 0, pretend = 0, frame = 0
 215              		@ frame_needed = 0, uses_anonymous_args = 0
 216              		@ link register save eliminated.
 217              	.LVL10:
 218              		.loc 1 165 0
 219 0000 034B     		ldr	r3, .L13
 220 0002 9A69     		ldr	r2, [r3, #24]
 221 0004 536B     		ldr	r3, [r2, #52]
 222              	.LVL11:
 223              		.loc 1 166 0
 224 0006 23EA0001 		bic	r1, r3, r0
 225 000a 5163     		str	r1, [r2, #52]
 226              		.loc 1 169 0
 227 000c 1840     		ands	r0, r0, r3
 228              	.LVL12:
ARM GAS  /var/folders/vd/czx34qs52cd_f3nb04sxmghc0000gn/T//ccvumeud.s 			page 5


 229 000e 7047     		bx	lr
 230              	.L14:
 231              		.align	2
 232              	.L13:
 233 0010 00000000 		.word	ch
 234              		.cfi_endproc
 235              	.LFE282:
 236              		.size	chEvtGetAndClearEventsI, .-chEvtGetAndClearEventsI
 237              		.section	.text.chEvtGetAndClearEvents,"ax",%progbits
 238              		.align	1
 239              		.p2align 4,,15
 240              		.global	chEvtGetAndClearEvents
 241              		.syntax unified
 242              		.thumb
 243              		.thumb_func
 244              		.fpu softvfp
 245              		.type	chEvtGetAndClearEvents, %function
 246              	chEvtGetAndClearEvents:
 247              	.LFB283:
 248              		.loc 1 179 0
 249              		.cfi_startproc
 250              		@ args = 0, pretend = 0, frame = 0
 251              		@ frame_needed = 0, uses_anonymous_args = 0
 252              		@ link register save eliminated.
 253              	.LVL13:
 254              	.LBB201:
 255              	.LBB202:
 256              	.LBB203:
 257              	.LBB204:
 258              		.loc 2 490 0
 259 0000 2023     		movs	r3, #32
 260              		.syntax unified
 261              	@ 490 "../os/common/ext/ARM/CMSIS/Core/Include/cmsis_gcc.h" 1
 262 0002 83F31188 		MSR basepri, r3
 263              	@ 0 "" 2
 264              	.LVL14:
 265              		.thumb
 266              		.syntax unified
 267              	.LBE204:
 268              	.LBE203:
 269              	.LBE202:
 270              	.LBE201:
 271              	.LBB205:
 272              	.LBB206:
 273              		.loc 1 165 0
 274 0006 054B     		ldr	r3, .L16
 275 0008 9A69     		ldr	r2, [r3, #24]
 276 000a 536B     		ldr	r3, [r2, #52]
 277              	.LVL15:
 278              		.loc 1 166 0
 279 000c 23EA0001 		bic	r1, r3, r0
 280 0010 5163     		str	r1, [r2, #52]
 281              	.LVL16:
 282              	.LBE206:
 283              	.LBE205:
 284              	.LBB207:
 285              	.LBB208:
ARM GAS  /var/folders/vd/czx34qs52cd_f3nb04sxmghc0000gn/T//ccvumeud.s 			page 6


 286              	.LBB209:
 287              	.LBB210:
 288              	.LBB211:
 289              		.loc 2 490 0
 290 0012 0022     		movs	r2, #0
 291              		.syntax unified
 292              	@ 490 "../os/common/ext/ARM/CMSIS/Core/Include/cmsis_gcc.h" 1
 293 0014 82F31188 		MSR basepri, r2
 294              	@ 0 "" 2
 295              	.LVL17:
 296              		.thumb
 297              		.syntax unified
 298              	.LBE211:
 299              	.LBE210:
 300              	.LBE209:
 301              	.LBE208:
 302              	.LBE207:
 303              		.loc 1 187 0
 304 0018 1840     		ands	r0, r0, r3
 305              	.LVL18:
 306 001a 7047     		bx	lr
 307              	.L17:
 308              		.align	2
 309              	.L16:
 310 001c 00000000 		.word	ch
 311              		.cfi_endproc
 312              	.LFE283:
 313              		.size	chEvtGetAndClearEvents, .-chEvtGetAndClearEvents
 314              		.section	.text.chEvtAddEvents,"ax",%progbits
 315              		.align	1
 316              		.p2align 4,,15
 317              		.global	chEvtAddEvents
 318              		.syntax unified
 319              		.thumb
 320              		.thumb_func
 321              		.fpu softvfp
 322              		.type	chEvtAddEvents, %function
 323              	chEvtAddEvents:
 324              	.LFB284:
 325              		.loc 1 198 0
 326              		.cfi_startproc
 327              		@ args = 0, pretend = 0, frame = 0
 328              		@ frame_needed = 0, uses_anonymous_args = 0
 329              		@ link register save eliminated.
 330              	.LVL19:
 331              	.LBB212:
 332              	.LBB213:
 333              	.LBB214:
 334              	.LBB215:
 335              		.loc 2 490 0
 336 0000 2023     		movs	r3, #32
 337              		.syntax unified
 338              	@ 490 "../os/common/ext/ARM/CMSIS/Core/Include/cmsis_gcc.h" 1
 339 0002 83F31188 		MSR basepri, r3
 340              	@ 0 "" 2
 341              	.LVL20:
 342              		.thumb
ARM GAS  /var/folders/vd/czx34qs52cd_f3nb04sxmghc0000gn/T//ccvumeud.s 			page 7


 343              		.syntax unified
 344              	.LBE215:
 345              	.LBE214:
 346              	.LBE213:
 347              	.LBE212:
 348              	.LBB216:
 349              	.LBB217:
 350              		.file 3 "../os/rt/include/chevents.h"
 351              		.loc 3 271 0
 352 0006 044B     		ldr	r3, .L19
 353 0008 9B69     		ldr	r3, [r3, #24]
 354 000a 5A6B     		ldr	r2, [r3, #52]
 355 000c 1043     		orrs	r0, r0, r2
 356              	.LVL21:
 357 000e 5863     		str	r0, [r3, #52]
 358              	.LVL22:
 359              	.LBE217:
 360              	.LBE216:
 361              	.LBB218:
 362              	.LBB219:
 363              	.LBB220:
 364              	.LBB221:
 365              	.LBB222:
 366              		.loc 2 490 0
 367 0010 0023     		movs	r3, #0
 368              		.syntax unified
 369              	@ 490 "../os/common/ext/ARM/CMSIS/Core/Include/cmsis_gcc.h" 1
 370 0012 83F31188 		MSR basepri, r3
 371              	@ 0 "" 2
 372              	.LVL23:
 373              		.thumb
 374              		.syntax unified
 375              	.LBE222:
 376              	.LBE221:
 377              	.LBE220:
 378              	.LBE219:
 379              	.LBE218:
 380              		.loc 1 206 0
 381 0016 7047     		bx	lr
 382              	.L20:
 383              		.align	2
 384              	.L19:
 385 0018 00000000 		.word	ch
 386              		.cfi_endproc
 387              	.LFE284:
 388              		.size	chEvtAddEvents, .-chEvtAddEvents
 389              		.section	.text.chEvtGetAndClearFlags,"ax",%progbits
 390              		.align	1
 391              		.p2align 4,,15
 392              		.global	chEvtGetAndClearFlags
 393              		.syntax unified
 394              		.thumb
 395              		.thumb_func
 396              		.fpu softvfp
 397              		.type	chEvtGetAndClearFlags, %function
 398              	chEvtGetAndClearFlags:
 399              	.LFB286:
ARM GAS  /var/folders/vd/czx34qs52cd_f3nb04sxmghc0000gn/T//ccvumeud.s 			page 8


 400              		.loc 1 257 0
 401              		.cfi_startproc
 402              		@ args = 0, pretend = 0, frame = 0
 403              		@ frame_needed = 0, uses_anonymous_args = 0
 404              		@ link register save eliminated.
 405              	.LVL24:
 406              		.loc 1 257 0
 407 0000 0246     		mov	r2, r0
 408              	.LBB223:
 409              	.LBB224:
 410              	.LBB225:
 411              	.LBB226:
 412              		.loc 2 490 0
 413 0002 2023     		movs	r3, #32
 414              		.syntax unified
 415              	@ 490 "../os/common/ext/ARM/CMSIS/Core/Include/cmsis_gcc.h" 1
 416 0004 83F31188 		MSR basepri, r3
 417              	@ 0 "" 2
 418              	.LVL25:
 419              		.thumb
 420              		.syntax unified
 421              	.LBE226:
 422              	.LBE225:
 423              	.LBE224:
 424              	.LBE223:
 425              		.loc 1 262 0
 426 0008 0023     		movs	r3, #0
 427              		.loc 1 261 0
 428 000a C068     		ldr	r0, [r0, #12]
 429              	.LVL26:
 430              		.loc 1 262 0
 431 000c D360     		str	r3, [r2, #12]
 432              	.LVL27:
 433              	.LBB227:
 434              	.LBB228:
 435              	.LBB229:
 436              	.LBB230:
 437              	.LBB231:
 438              		.loc 2 490 0
 439              		.syntax unified
 440              	@ 490 "../os/common/ext/ARM/CMSIS/Core/Include/cmsis_gcc.h" 1
 441 000e 83F31188 		MSR basepri, r3
 442              	@ 0 "" 2
 443              	.LVL28:
 444              		.thumb
 445              		.syntax unified
 446              	.LBE231:
 447              	.LBE230:
 448              	.LBE229:
 449              	.LBE228:
 450              	.LBE227:
 451              		.loc 1 266 0
 452 0012 7047     		bx	lr
 453              		.cfi_endproc
 454              	.LFE286:
 455              		.size	chEvtGetAndClearFlags, .-chEvtGetAndClearFlags
 456              		.section	.text.chEvtSignalI,"ax",%progbits
ARM GAS  /var/folders/vd/czx34qs52cd_f3nb04sxmghc0000gn/T//ccvumeud.s 			page 9


 457              		.align	1
 458              		.p2align 4,,15
 459              		.global	chEvtSignalI
 460              		.syntax unified
 461              		.thumb
 462              		.thumb_func
 463              		.fpu softvfp
 464              		.type	chEvtSignalI, %function
 465              	chEvtSignalI:
 466              	.LFB288:
 467              		.loc 1 298 0
 468              		.cfi_startproc
 469              		@ args = 0, pretend = 0, frame = 0
 470              		@ frame_needed = 0, uses_anonymous_args = 0
 471              		@ link register save eliminated.
 472              	.LVL29:
 473              		.loc 1 303 0
 474 0000 436B     		ldr	r3, [r0, #52]
 475              		.loc 1 305 0
 476 0002 90F82020 		ldrb	r2, [r0, #32]	@ zero_extendqisi2
 477              		.loc 1 303 0
 478 0006 1943     		orrs	r1, r1, r3
 479              	.LVL30:
 480              		.loc 1 305 0
 481 0008 0A2A     		cmp	r2, #10
 482              		.loc 1 303 0
 483 000a 4163     		str	r1, [r0, #52]
 484              		.loc 1 305 0
 485 000c 09D0     		beq	.L26
 486              		.loc 1 306 0
 487 000e 0B2A     		cmp	r2, #11
 488 0010 00D0     		beq	.L27
 489              	.L22:
 490              		.loc 1 312 0
 491 0012 7047     		bx	lr
 492              	.L27:
 493              		.loc 1 308 0
 494 0014 436A     		ldr	r3, [r0, #36]
 495              		.loc 1 307 0
 496 0016 8B43     		bics	r3, r3, r1
 497 0018 FBD1     		bne	.L22
 498              	.L24:
 499              		.loc 1 309 0
 500 001a 0023     		movs	r3, #0
 501 001c 4362     		str	r3, [r0, #36]
 502              		.loc 1 310 0
 503 001e FFF7FEBF 		b	chSchReadyI
 504              	.LVL31:
 505              	.L26:
 506              		.loc 1 306 0 discriminator 1
 507 0022 436A     		ldr	r3, [r0, #36]
 508              		.loc 1 305 0 discriminator 1
 509 0024 1942     		tst	r1, r3
 510 0026 F8D1     		bne	.L24
 511 0028 7047     		bx	lr
 512              		.cfi_endproc
 513              	.LFE288:
ARM GAS  /var/folders/vd/czx34qs52cd_f3nb04sxmghc0000gn/T//ccvumeud.s 			page 10


 514              		.size	chEvtSignalI, .-chEvtSignalI
 515 002a 00BF     		.section	.text.chEvtBroadcastFlagsI,"ax",%progbits
 516              		.align	1
 517              		.p2align 4,,15
 518              		.global	chEvtBroadcastFlagsI
 519              		.syntax unified
 520              		.thumb
 521              		.thumb_func
 522              		.fpu softvfp
 523              		.type	chEvtBroadcastFlagsI, %function
 524              	chEvtBroadcastFlagsI:
 525              	.LFB285:
 526              		.loc 1 225 0
 527              		.cfi_startproc
 528              		@ args = 0, pretend = 0, frame = 0
 529              		@ frame_needed = 0, uses_anonymous_args = 0
 530              	.LVL32:
 531 0000 70B5     		push	{r4, r5, r6, lr}
 532              		.cfi_def_cfa_offset 16
 533              		.cfi_offset 4, -16
 534              		.cfi_offset 5, -12
 535              		.cfi_offset 6, -8
 536              		.cfi_offset 14, -4
 537              		.loc 1 231 0
 538 0002 0468     		ldr	r4, [r0]
 539              	.LVL33:
 540              		.loc 1 233 0
 541 0004 A042     		cmp	r0, r4
 542 0006 0FD0     		beq	.L28
 543 0008 0646     		mov	r6, r0
 544 000a 0D46     		mov	r5, r1
 545              	.LVL34:
 546              	.L32:
 547              		.loc 1 235 0
 548 000c E368     		ldr	r3, [r4, #12]
 549 000e 2B43     		orrs	r3, r3, r5
 550 0010 E360     		str	r3, [r4, #12]
 551              		.loc 1 238 0
 552 0012 15B1     		cbz	r5, .L30
 553              		.loc 1 239 0 discriminator 1
 554 0014 2269     		ldr	r2, [r4, #16]
 555              		.loc 1 238 0 discriminator 1
 556 0016 1342     		tst	r3, r2
 557 0018 03D0     		beq	.L31
 558              	.L30:
 559              		.loc 1 240 0
 560 001a D4E90101 		ldrd	r0, r1, [r4, #4]
 561 001e FFF7FEFF 		bl	chEvtSignalI
 562              	.LVL35:
 563              	.L31:
 564              		.loc 1 242 0
 565 0022 2468     		ldr	r4, [r4]
 566              	.LVL36:
 567              		.loc 1 233 0
 568 0024 A642     		cmp	r6, r4
 569 0026 F1D1     		bne	.L32
 570              	.LVL37:
ARM GAS  /var/folders/vd/czx34qs52cd_f3nb04sxmghc0000gn/T//ccvumeud.s 			page 11


 571              	.L28:
 572              		.loc 1 244 0
 573 0028 70BD     		pop	{r4, r5, r6, pc}
 574              		.cfi_endproc
 575              	.LFE285:
 576              		.size	chEvtBroadcastFlagsI, .-chEvtBroadcastFlagsI
 577 002a 00BF     		.section	.text.chEvtSignal,"ax",%progbits
 578              		.align	1
 579              		.p2align 4,,15
 580              		.global	chEvtSignal
 581              		.syntax unified
 582              		.thumb
 583              		.thumb_func
 584              		.fpu softvfp
 585              		.type	chEvtSignal, %function
 586              	chEvtSignal:
 587              	.LFB287:
 588              		.loc 1 276 0
 589              		.cfi_startproc
 590              		@ args = 0, pretend = 0, frame = 0
 591              		@ frame_needed = 0, uses_anonymous_args = 0
 592              	.LVL38:
 593 0000 08B5     		push	{r3, lr}
 594              		.cfi_def_cfa_offset 8
 595              		.cfi_offset 3, -8
 596              		.cfi_offset 14, -4
 597              	.LBB232:
 598              	.LBB233:
 599              	.LBB234:
 600              	.LBB235:
 601              		.loc 2 490 0
 602 0002 2023     		movs	r3, #32
 603              		.syntax unified
 604              	@ 490 "../os/common/ext/ARM/CMSIS/Core/Include/cmsis_gcc.h" 1
 605 0004 83F31188 		MSR basepri, r3
 606              	@ 0 "" 2
 607              	.LVL39:
 608              		.thumb
 609              		.syntax unified
 610              	.LBE235:
 611              	.LBE234:
 612              	.LBE233:
 613              	.LBE232:
 614              		.loc 1 281 0
 615 0008 FFF7FEFF 		bl	chEvtSignalI
 616              	.LVL40:
 617              		.loc 1 282 0
 618 000c FFF7FEFF 		bl	chSchRescheduleS
 619              	.LVL41:
 620              	.LBB236:
 621              	.LBB237:
 622              	.LBB238:
 623              	.LBB239:
 624              	.LBB240:
 625              		.loc 2 490 0
 626 0010 0023     		movs	r3, #0
 627              		.syntax unified
ARM GAS  /var/folders/vd/czx34qs52cd_f3nb04sxmghc0000gn/T//ccvumeud.s 			page 12


 628              	@ 490 "../os/common/ext/ARM/CMSIS/Core/Include/cmsis_gcc.h" 1
 629 0012 83F31188 		MSR basepri, r3
 630              	@ 0 "" 2
 631              	.LVL42:
 632              		.thumb
 633              		.syntax unified
 634              	.LBE240:
 635              	.LBE239:
 636              	.LBE238:
 637              	.LBE237:
 638              	.LBE236:
 639              		.loc 1 284 0
 640 0016 08BD     		pop	{r3, pc}
 641              		.cfi_endproc
 642              	.LFE287:
 643              		.size	chEvtSignal, .-chEvtSignal
 644              		.section	.text.chEvtBroadcastFlags,"ax",%progbits
 645              		.align	1
 646              		.p2align 4,,15
 647              		.global	chEvtBroadcastFlags
 648              		.syntax unified
 649              		.thumb
 650              		.thumb_func
 651              		.fpu softvfp
 652              		.type	chEvtBroadcastFlags, %function
 653              	chEvtBroadcastFlags:
 654              	.LFB289:
 655              		.loc 1 327 0
 656              		.cfi_startproc
 657              		@ args = 0, pretend = 0, frame = 0
 658              		@ frame_needed = 0, uses_anonymous_args = 0
 659              	.LVL43:
 660 0000 08B5     		push	{r3, lr}
 661              		.cfi_def_cfa_offset 8
 662              		.cfi_offset 3, -8
 663              		.cfi_offset 14, -4
 664              	.LBB241:
 665              	.LBB242:
 666              	.LBB243:
 667              	.LBB244:
 668              		.loc 2 490 0
 669 0002 2023     		movs	r3, #32
 670              		.syntax unified
 671              	@ 490 "../os/common/ext/ARM/CMSIS/Core/Include/cmsis_gcc.h" 1
 672 0004 83F31188 		MSR basepri, r3
 673              	@ 0 "" 2
 674              	.LVL44:
 675              		.thumb
 676              		.syntax unified
 677              	.LBE244:
 678              	.LBE243:
 679              	.LBE242:
 680              	.LBE241:
 681              		.loc 1 330 0
 682 0008 FFF7FEFF 		bl	chEvtBroadcastFlagsI
 683              	.LVL45:
 684              		.loc 1 331 0
ARM GAS  /var/folders/vd/czx34qs52cd_f3nb04sxmghc0000gn/T//ccvumeud.s 			page 13


 685 000c FFF7FEFF 		bl	chSchRescheduleS
 686              	.LVL46:
 687              	.LBB245:
 688              	.LBB246:
 689              	.LBB247:
 690              	.LBB248:
 691              	.LBB249:
 692              		.loc 2 490 0
 693 0010 0023     		movs	r3, #0
 694              		.syntax unified
 695              	@ 490 "../os/common/ext/ARM/CMSIS/Core/Include/cmsis_gcc.h" 1
 696 0012 83F31188 		MSR basepri, r3
 697              	@ 0 "" 2
 698              	.LVL47:
 699              		.thumb
 700              		.syntax unified
 701              	.LBE249:
 702              	.LBE248:
 703              	.LBE247:
 704              	.LBE246:
 705              	.LBE245:
 706              		.loc 1 333 0
 707 0016 08BD     		pop	{r3, pc}
 708              		.cfi_endproc
 709              	.LFE289:
 710              		.size	chEvtBroadcastFlags, .-chEvtBroadcastFlags
 711              		.section	.text.chEvtGetAndClearFlagsI,"ax",%progbits
 712              		.align	1
 713              		.p2align 4,,15
 714              		.global	chEvtGetAndClearFlagsI
 715              		.syntax unified
 716              		.thumb
 717              		.thumb_func
 718              		.fpu softvfp
 719              		.type	chEvtGetAndClearFlagsI, %function
 720              	chEvtGetAndClearFlagsI:
 721              	.LFB290:
 722              		.loc 1 346 0
 723              		.cfi_startproc
 724              		@ args = 0, pretend = 0, frame = 0
 725              		@ frame_needed = 0, uses_anonymous_args = 0
 726              		@ link register save eliminated.
 727              	.LVL48:
 728              		.loc 1 346 0
 729 0000 0346     		mov	r3, r0
 730              		.loc 1 350 0
 731 0002 0022     		movs	r2, #0
 732              		.loc 1 349 0
 733 0004 C068     		ldr	r0, [r0, #12]
 734              	.LVL49:
 735              		.loc 1 350 0
 736 0006 DA60     		str	r2, [r3, #12]
 737              		.loc 1 353 0
 738 0008 7047     		bx	lr
 739              		.cfi_endproc
 740              	.LFE290:
 741              		.size	chEvtGetAndClearFlagsI, .-chEvtGetAndClearFlagsI
ARM GAS  /var/folders/vd/czx34qs52cd_f3nb04sxmghc0000gn/T//ccvumeud.s 			page 14


 742 000a 00BF     		.section	.text.chEvtDispatch,"ax",%progbits
 743              		.align	1
 744              		.p2align 4,,15
 745              		.global	chEvtDispatch
 746              		.syntax unified
 747              		.thumb
 748              		.thumb_func
 749              		.fpu softvfp
 750              		.type	chEvtDispatch, %function
 751              	chEvtDispatch:
 752              	.LFB291:
 753              		.loc 1 364 0
 754              		.cfi_startproc
 755              		@ args = 0, pretend = 0, frame = 0
 756              		@ frame_needed = 0, uses_anonymous_args = 0
 757              	.LVL50:
 758              		.loc 1 370 0
 759 0000 B9B1     		cbz	r1, .L53
 760              		.loc 1 364 0
 761 0002 F8B5     		push	{r3, r4, r5, r6, r7, lr}
 762              		.cfi_def_cfa_offset 24
 763              		.cfi_offset 3, -24
 764              		.cfi_offset 4, -20
 765              		.cfi_offset 5, -16
 766              		.cfi_offset 6, -12
 767              		.cfi_offset 7, -8
 768              		.cfi_offset 14, -4
 769 0004 0746     		mov	r7, r0
 770 0006 0D46     		mov	r5, r1
 771              		.loc 1 369 0
 772 0008 0024     		movs	r4, #0
 773              		.loc 1 373 0
 774 000a 0126     		movs	r6, #1
 775              	.LVL51:
 776              	.L47:
 777              		.loc 1 371 0
 778 000c 25FA04F3 		lsr	r3, r5, r4
 779 0010 13F0010F 		tst	r3, #1
 780              		.loc 1 373 0
 781 0014 06FA04F2 		lsl	r2, r6, r4
 782              		.loc 1 374 0
 783 0018 2046     		mov	r0, r4
 784              		.loc 1 371 0
 785 001a 08D0     		beq	.L49
 786              		.loc 1 374 0
 787 001c 57F82430 		ldr	r3, [r7, r4, lsl #2]
 788              		.loc 1 373 0
 789 0020 25EA0205 		bic	r5, r5, r2
 790              	.LVL52:
 791              		.loc 1 376 0
 792 0024 0134     		adds	r4, r4, #1
 793              	.LVL53:
 794              		.loc 1 374 0
 795 0026 9847     		blx	r3
 796              	.LVL54:
 797              		.loc 1 370 0
 798 0028 002D     		cmp	r5, #0
ARM GAS  /var/folders/vd/czx34qs52cd_f3nb04sxmghc0000gn/T//ccvumeud.s 			page 15


 799 002a EFD1     		bne	.L47
 800              		.loc 1 378 0
 801 002c F8BD     		pop	{r3, r4, r5, r6, r7, pc}
 802              	.LVL55:
 803              	.L49:
 804              		.loc 1 376 0
 805 002e 0134     		adds	r4, r4, #1
 806              	.LVL56:
 807 0030 ECE7     		b	.L47
 808              	.LVL57:
 809              	.L53:
 810              		.cfi_def_cfa_offset 0
 811              		.cfi_restore 3
 812              		.cfi_restore 4
 813              		.cfi_restore 5
 814              		.cfi_restore 6
 815              		.cfi_restore 7
 816              		.cfi_restore 14
 817 0032 7047     		bx	lr
 818              		.cfi_endproc
 819              	.LFE291:
 820              		.size	chEvtDispatch, .-chEvtDispatch
 821              		.section	.text.chEvtWaitOne,"ax",%progbits
 822              		.align	1
 823              		.p2align 4,,15
 824              		.global	chEvtWaitOne
 825              		.syntax unified
 826              		.thumb
 827              		.thumb_func
 828              		.fpu softvfp
 829              		.type	chEvtWaitOne, %function
 830              	chEvtWaitOne:
 831              	.LFB292:
 832              		.loc 1 399 0
 833              		.cfi_startproc
 834              		@ args = 0, pretend = 0, frame = 0
 835              		@ frame_needed = 0, uses_anonymous_args = 0
 836              	.LVL58:
 837 0000 38B5     		push	{r3, r4, r5, lr}
 838              		.cfi_def_cfa_offset 16
 839              		.cfi_offset 3, -16
 840              		.cfi_offset 4, -12
 841              		.cfi_offset 5, -8
 842              		.cfi_offset 14, -4
 843              		.loc 1 400 0
 844 0002 0C4B     		ldr	r3, .L59
 845 0004 9D69     		ldr	r5, [r3, #24]
 846              	.LVL59:
 847              	.LBB250:
 848              	.LBB251:
 849              	.LBB252:
 850              	.LBB253:
 851              		.loc 2 490 0
 852 0006 2023     		movs	r3, #32
 853              		.syntax unified
 854              	@ 490 "../os/common/ext/ARM/CMSIS/Core/Include/cmsis_gcc.h" 1
 855 0008 83F31188 		MSR basepri, r3
ARM GAS  /var/folders/vd/czx34qs52cd_f3nb04sxmghc0000gn/T//ccvumeud.s 			page 16


 856              	@ 0 "" 2
 857              	.LVL60:
 858              		.thumb
 859              		.syntax unified
 860              	.LBE253:
 861              	.LBE252:
 862              	.LBE251:
 863              	.LBE250:
 864              		.loc 1 404 0
 865 000c 6B6B     		ldr	r3, [r5, #52]
 866              	.LVL61:
 867              		.loc 1 405 0
 868 000e 13EA0004 		ands	r4, r3, r0
 869              	.LVL62:
 870 0012 06D1     		bne	.L57
 871 0014 0446     		mov	r4, r0
 872              	.LVL63:
 873              		.loc 1 406 0
 874 0016 6862     		str	r0, [r5, #36]
 875              		.loc 1 407 0
 876 0018 0A20     		movs	r0, #10
 877              	.LVL64:
 878 001a FFF7FEFF 		bl	chSchGoSleepS
 879              	.LVL65:
 880              		.loc 1 408 0
 881 001e 6B6B     		ldr	r3, [r5, #52]
 882 0020 1C40     		ands	r4, r4, r3
 883              	.LVL66:
 884              	.L57:
 885              		.loc 1 410 0
 886 0022 6042     		negs	r0, r4
 887 0024 2040     		ands	r0, r0, r4
 888              	.LVL67:
 889              		.loc 1 411 0
 890 0026 23EA0003 		bic	r3, r3, r0
 891 002a 6B63     		str	r3, [r5, #52]
 892              	.LVL68:
 893              	.LBB254:
 894              	.LBB255:
 895              	.LBB256:
 896              	.LBB257:
 897              	.LBB258:
 898              		.loc 2 490 0
 899 002c 0023     		movs	r3, #0
 900              		.syntax unified
 901              	@ 490 "../os/common/ext/ARM/CMSIS/Core/Include/cmsis_gcc.h" 1
 902 002e 83F31188 		MSR basepri, r3
 903              	@ 0 "" 2
 904              	.LVL69:
 905              		.thumb
 906              		.syntax unified
 907              	.LBE258:
 908              	.LBE257:
 909              	.LBE256:
 910              	.LBE255:
 911              	.LBE254:
 912              		.loc 1 415 0
ARM GAS  /var/folders/vd/czx34qs52cd_f3nb04sxmghc0000gn/T//ccvumeud.s 			page 17


 913 0032 38BD     		pop	{r3, r4, r5, pc}
 914              	.LVL70:
 915              	.L60:
 916              		.align	2
 917              	.L59:
 918 0034 00000000 		.word	ch
 919              		.cfi_endproc
 920              	.LFE292:
 921              		.size	chEvtWaitOne, .-chEvtWaitOne
 922              		.section	.text.chEvtWaitAny,"ax",%progbits
 923              		.align	1
 924              		.p2align 4,,15
 925              		.global	chEvtWaitAny
 926              		.syntax unified
 927              		.thumb
 928              		.thumb_func
 929              		.fpu softvfp
 930              		.type	chEvtWaitAny, %function
 931              	chEvtWaitAny:
 932              	.LFB293:
 933              		.loc 1 429 0
 934              		.cfi_startproc
 935              		@ args = 0, pretend = 0, frame = 0
 936              		@ frame_needed = 0, uses_anonymous_args = 0
 937              	.LVL71:
 938 0000 38B5     		push	{r3, r4, r5, lr}
 939              		.cfi_def_cfa_offset 16
 940              		.cfi_offset 3, -16
 941              		.cfi_offset 4, -12
 942              		.cfi_offset 5, -8
 943              		.cfi_offset 14, -4
 944              		.loc 1 430 0
 945 0002 0C4B     		ldr	r3, .L64
 946 0004 9D69     		ldr	r5, [r3, #24]
 947              	.LVL72:
 948              	.LBB259:
 949              	.LBB260:
 950              	.LBB261:
 951              	.LBB262:
 952              		.loc 2 490 0
 953 0006 2023     		movs	r3, #32
 954              		.syntax unified
 955              	@ 490 "../os/common/ext/ARM/CMSIS/Core/Include/cmsis_gcc.h" 1
 956 0008 83F31188 		MSR basepri, r3
 957              	@ 0 "" 2
 958              	.LVL73:
 959              		.thumb
 960              		.syntax unified
 961              	.LBE262:
 962              	.LBE261:
 963              	.LBE260:
 964              	.LBE259:
 965              		.loc 1 434 0
 966 000c 6B6B     		ldr	r3, [r5, #52]
 967              	.LVL74:
 968              		.loc 1 435 0
 969 000e 13EA0004 		ands	r4, r3, r0
ARM GAS  /var/folders/vd/czx34qs52cd_f3nb04sxmghc0000gn/T//ccvumeud.s 			page 18


 970              	.LVL75:
 971 0012 06D1     		bne	.L62
 972 0014 0446     		mov	r4, r0
 973              	.LVL76:
 974              		.loc 1 436 0
 975 0016 6862     		str	r0, [r5, #36]
 976              		.loc 1 437 0
 977 0018 0A20     		movs	r0, #10
 978              	.LVL77:
 979 001a FFF7FEFF 		bl	chSchGoSleepS
 980              	.LVL78:
 981              		.loc 1 438 0
 982 001e 6B6B     		ldr	r3, [r5, #52]
 983 0020 1C40     		ands	r4, r4, r3
 984              	.LVL79:
 985              	.L62:
 986              		.loc 1 440 0
 987 0022 23EA0403 		bic	r3, r3, r4
 988 0026 6B63     		str	r3, [r5, #52]
 989              	.LVL80:
 990              	.LBB263:
 991              	.LBB264:
 992              	.LBB265:
 993              	.LBB266:
 994              	.LBB267:
 995              		.loc 2 490 0
 996 0028 0023     		movs	r3, #0
 997              		.syntax unified
 998              	@ 490 "../os/common/ext/ARM/CMSIS/Core/Include/cmsis_gcc.h" 1
 999 002a 83F31188 		MSR basepri, r3
 1000              	@ 0 "" 2
 1001              	.LVL81:
 1002              		.thumb
 1003              		.syntax unified
 1004              	.LBE267:
 1005              	.LBE266:
 1006              	.LBE265:
 1007              	.LBE264:
 1008              	.LBE263:
 1009              		.loc 1 444 0
 1010 002e 2046     		mov	r0, r4
 1011 0030 38BD     		pop	{r3, r4, r5, pc}
 1012              	.LVL82:
 1013              	.L65:
 1014 0032 00BF     		.align	2
 1015              	.L64:
 1016 0034 00000000 		.word	ch
 1017              		.cfi_endproc
 1018              	.LFE293:
 1019              		.size	chEvtWaitAny, .-chEvtWaitAny
 1020              		.section	.text.chEvtWaitAll,"ax",%progbits
 1021              		.align	1
 1022              		.p2align 4,,15
 1023              		.global	chEvtWaitAll
 1024              		.syntax unified
 1025              		.thumb
 1026              		.thumb_func
ARM GAS  /var/folders/vd/czx34qs52cd_f3nb04sxmghc0000gn/T//ccvumeud.s 			page 19


 1027              		.fpu softvfp
 1028              		.type	chEvtWaitAll, %function
 1029              	chEvtWaitAll:
 1030              	.LFB294:
 1031              		.loc 1 457 0
 1032              		.cfi_startproc
 1033              		@ args = 0, pretend = 0, frame = 0
 1034              		@ frame_needed = 0, uses_anonymous_args = 0
 1035              	.LVL83:
 1036 0000 38B5     		push	{r3, r4, r5, lr}
 1037              		.cfi_def_cfa_offset 16
 1038              		.cfi_offset 3, -16
 1039              		.cfi_offset 4, -12
 1040              		.cfi_offset 5, -8
 1041              		.cfi_offset 14, -4
 1042              		.loc 1 458 0
 1043 0002 0B4B     		ldr	r3, .L69
 1044              		.loc 1 457 0
 1045 0004 0446     		mov	r4, r0
 1046              		.loc 1 458 0
 1047 0006 9D69     		ldr	r5, [r3, #24]
 1048              	.LVL84:
 1049              	.LBB268:
 1050              	.LBB269:
 1051              	.LBB270:
 1052              	.LBB271:
 1053              		.loc 2 490 0
 1054 0008 2023     		movs	r3, #32
 1055              		.syntax unified
 1056              	@ 490 "../os/common/ext/ARM/CMSIS/Core/Include/cmsis_gcc.h" 1
 1057 000a 83F31188 		MSR basepri, r3
 1058              	@ 0 "" 2
 1059              	.LVL85:
 1060              		.thumb
 1061              		.syntax unified
 1062              	.LBE271:
 1063              	.LBE270:
 1064              	.LBE269:
 1065              	.LBE268:
 1066              		.loc 1 461 0
 1067 000e 6B6B     		ldr	r3, [r5, #52]
 1068 0010 30EA0302 		bics	r2, r0, r3
 1069 0014 04D0     		beq	.L67
 1070              		.loc 1 462 0
 1071 0016 6862     		str	r0, [r5, #36]
 1072              		.loc 1 463 0
 1073 0018 0B20     		movs	r0, #11
 1074              	.LVL86:
 1075 001a FFF7FEFF 		bl	chSchGoSleepS
 1076              	.LVL87:
 1077 001e 6B6B     		ldr	r3, [r5, #52]
 1078              	.L67:
 1079              		.loc 1 465 0
 1080 0020 23EA0403 		bic	r3, r3, r4
 1081 0024 6B63     		str	r3, [r5, #52]
 1082              	.LVL88:
 1083              	.LBB272:
ARM GAS  /var/folders/vd/czx34qs52cd_f3nb04sxmghc0000gn/T//ccvumeud.s 			page 20


 1084              	.LBB273:
 1085              	.LBB274:
 1086              	.LBB275:
 1087              	.LBB276:
 1088              		.loc 2 490 0
 1089 0026 0023     		movs	r3, #0
 1090              		.syntax unified
 1091              	@ 490 "../os/common/ext/ARM/CMSIS/Core/Include/cmsis_gcc.h" 1
 1092 0028 83F31188 		MSR basepri, r3
 1093              	@ 0 "" 2
 1094              	.LVL89:
 1095              		.thumb
 1096              		.syntax unified
 1097              	.LBE276:
 1098              	.LBE275:
 1099              	.LBE274:
 1100              	.LBE273:
 1101              	.LBE272:
 1102              		.loc 1 469 0
 1103 002c 2046     		mov	r0, r4
 1104 002e 38BD     		pop	{r3, r4, r5, pc}
 1105              	.LVL90:
 1106              	.L70:
 1107              		.align	2
 1108              	.L69:
 1109 0030 00000000 		.word	ch
 1110              		.cfi_endproc
 1111              	.LFE294:
 1112              		.size	chEvtWaitAll, .-chEvtWaitAll
 1113              		.section	.text.chEvtWaitOneTimeout,"ax",%progbits
 1114              		.align	1
 1115              		.p2align 4,,15
 1116              		.global	chEvtWaitOneTimeout
 1117              		.syntax unified
 1118              		.thumb
 1119              		.thumb_func
 1120              		.fpu softvfp
 1121              		.type	chEvtWaitOneTimeout, %function
 1122              	chEvtWaitOneTimeout:
 1123              	.LFB295:
 1124              		.loc 1 495 0
 1125              		.cfi_startproc
 1126              		@ args = 0, pretend = 0, frame = 0
 1127              		@ frame_needed = 0, uses_anonymous_args = 0
 1128              	.LVL91:
 1129              		.loc 1 496 0
 1130 0000 114B     		ldr	r3, .L78
 1131              		.loc 1 495 0
 1132 0002 70B5     		push	{r4, r5, r6, lr}
 1133              		.cfi_def_cfa_offset 16
 1134              		.cfi_offset 4, -16
 1135              		.cfi_offset 5, -12
 1136              		.cfi_offset 6, -8
 1137              		.cfi_offset 14, -4
 1138              		.loc 1 496 0
 1139 0004 9E69     		ldr	r6, [r3, #24]
 1140              	.LVL92:
ARM GAS  /var/folders/vd/czx34qs52cd_f3nb04sxmghc0000gn/T//ccvumeud.s 			page 21


 1141              	.LBB277:
 1142              	.LBB278:
 1143              	.LBB279:
 1144              	.LBB280:
 1145              		.loc 2 490 0
 1146 0006 2023     		movs	r3, #32
 1147              		.syntax unified
 1148              	@ 490 "../os/common/ext/ARM/CMSIS/Core/Include/cmsis_gcc.h" 1
 1149 0008 83F31188 		MSR basepri, r3
 1150              	@ 0 "" 2
 1151              	.LVL93:
 1152              		.thumb
 1153              		.syntax unified
 1154              	.LBE280:
 1155              	.LBE279:
 1156              	.LBE278:
 1157              	.LBE277:
 1158              		.loc 1 500 0
 1159 000c 736B     		ldr	r3, [r6, #52]
 1160              	.LVL94:
 1161              		.loc 1 501 0
 1162 000e 13EA0004 		ands	r4, r3, r0
 1163              	.LVL95:
 1164 0012 0ED1     		bne	.L72
 1165              		.loc 1 502 0
 1166 0014 19B9     		cbnz	r1, .L73
 1167              	.LVL96:
 1168              	.L77:
 1169              	.LBB281:
 1170              	.LBB282:
 1171              	.LBB283:
 1172              	.LBB284:
 1173              	.LBB285:
 1174              		.loc 2 490 0
 1175              		.syntax unified
 1176              	@ 490 "../os/common/ext/ARM/CMSIS/Core/Include/cmsis_gcc.h" 1
 1177 0016 84F31188 		MSR basepri, r4
 1178              	@ 0 "" 2
 1179              	.LVL97:
 1180              		.thumb
 1181              		.syntax unified
 1182              	.LBE285:
 1183              	.LBE284:
 1184              	.LBE283:
 1185              	.LBE282:
 1186              	.LBE281:
 1187              		.loc 1 518 0
 1188 001a 2046     		mov	r0, r4
 1189 001c 70BD     		pop	{r4, r5, r6, pc}
 1190              	.LVL98:
 1191              	.L73:
 1192              		.loc 1 506 0
 1193 001e 7062     		str	r0, [r6, #36]
 1194 0020 0546     		mov	r5, r0
 1195              		.loc 1 507 0
 1196 0022 0A20     		movs	r0, #10
 1197              	.LVL99:
ARM GAS  /var/folders/vd/czx34qs52cd_f3nb04sxmghc0000gn/T//ccvumeud.s 			page 22


 1198 0024 FFF7FEFF 		bl	chSchGoSleepTimeoutS
 1199              	.LVL100:
 1200 0028 0028     		cmp	r0, #0
 1201 002a F4DB     		blt	.L77
 1202              		.loc 1 511 0
 1203 002c 736B     		ldr	r3, [r6, #52]
 1204 002e 03EA0504 		and	r4, r3, r5
 1205              	.LVL101:
 1206              	.L72:
 1207              		.loc 1 513 0
 1208 0032 6242     		negs	r2, r4
 1209 0034 1440     		ands	r4, r4, r2
 1210              	.LVL102:
 1211              		.loc 1 514 0
 1212 0036 23EA0403 		bic	r3, r3, r4
 1213 003a 7363     		str	r3, [r6, #52]
 1214              	.LVL103:
 1215              	.LBB286:
 1216              	.LBB287:
 1217              	.LBB288:
 1218              	.LBB289:
 1219              	.LBB290:
 1220              		.loc 2 490 0
 1221 003c 0023     		movs	r3, #0
 1222              		.syntax unified
 1223              	@ 490 "../os/common/ext/ARM/CMSIS/Core/Include/cmsis_gcc.h" 1
 1224 003e 83F31188 		MSR basepri, r3
 1225              	@ 0 "" 2
 1226              	.LVL104:
 1227              		.thumb
 1228              		.syntax unified
 1229              	.LBE290:
 1230              	.LBE289:
 1231              	.LBE288:
 1232              	.LBE287:
 1233              	.LBE286:
 1234              		.loc 1 518 0
 1235 0042 2046     		mov	r0, r4
 1236 0044 70BD     		pop	{r4, r5, r6, pc}
 1237              	.LVL105:
 1238              	.L79:
 1239 0046 00BF     		.align	2
 1240              	.L78:
 1241 0048 00000000 		.word	ch
 1242              		.cfi_endproc
 1243              	.LFE295:
 1244              		.size	chEvtWaitOneTimeout, .-chEvtWaitOneTimeout
 1245              		.section	.text.chEvtWaitAnyTimeout,"ax",%progbits
 1246              		.align	1
 1247              		.p2align 4,,15
 1248              		.global	chEvtWaitAnyTimeout
 1249              		.syntax unified
 1250              		.thumb
 1251              		.thumb_func
 1252              		.fpu softvfp
 1253              		.type	chEvtWaitAnyTimeout, %function
 1254              	chEvtWaitAnyTimeout:
ARM GAS  /var/folders/vd/czx34qs52cd_f3nb04sxmghc0000gn/T//ccvumeud.s 			page 23


 1255              	.LFB296:
 1256              		.loc 1 538 0
 1257              		.cfi_startproc
 1258              		@ args = 0, pretend = 0, frame = 0
 1259              		@ frame_needed = 0, uses_anonymous_args = 0
 1260              	.LVL106:
 1261              		.loc 1 539 0
 1262 0000 104B     		ldr	r3, .L87
 1263              		.loc 1 538 0
 1264 0002 70B5     		push	{r4, r5, r6, lr}
 1265              		.cfi_def_cfa_offset 16
 1266              		.cfi_offset 4, -16
 1267              		.cfi_offset 5, -12
 1268              		.cfi_offset 6, -8
 1269              		.cfi_offset 14, -4
 1270              		.loc 1 539 0
 1271 0004 9E69     		ldr	r6, [r3, #24]
 1272              	.LVL107:
 1273              	.LBB291:
 1274              	.LBB292:
 1275              	.LBB293:
 1276              	.LBB294:
 1277              		.loc 2 490 0
 1278 0006 2023     		movs	r3, #32
 1279              		.syntax unified
 1280              	@ 490 "../os/common/ext/ARM/CMSIS/Core/Include/cmsis_gcc.h" 1
 1281 0008 83F31188 		MSR basepri, r3
 1282              	@ 0 "" 2
 1283              	.LVL108:
 1284              		.thumb
 1285              		.syntax unified
 1286              	.LBE294:
 1287              	.LBE293:
 1288              	.LBE292:
 1289              	.LBE291:
 1290              		.loc 1 543 0
 1291 000c 736B     		ldr	r3, [r6, #52]
 1292              	.LVL109:
 1293              		.loc 1 544 0
 1294 000e 13EA0005 		ands	r5, r3, r0
 1295              	.LVL110:
 1296 0012 0ED1     		bne	.L81
 1297              		.loc 1 545 0
 1298 0014 19B9     		cbnz	r1, .L82
 1299              	.LVL111:
 1300              	.L86:
 1301              	.LBB295:
 1302              	.LBB296:
 1303              	.LBB297:
 1304              	.LBB298:
 1305              	.LBB299:
 1306              		.loc 2 490 0
 1307              		.syntax unified
 1308              	@ 490 "../os/common/ext/ARM/CMSIS/Core/Include/cmsis_gcc.h" 1
 1309 0016 85F31188 		MSR basepri, r5
 1310              	@ 0 "" 2
 1311              	.LVL112:
ARM GAS  /var/folders/vd/czx34qs52cd_f3nb04sxmghc0000gn/T//ccvumeud.s 			page 24


 1312              		.thumb
 1313              		.syntax unified
 1314              	.LBE299:
 1315              	.LBE298:
 1316              	.LBE297:
 1317              	.LBE296:
 1318              	.LBE295:
 1319              		.loc 1 560 0
 1320 001a 2846     		mov	r0, r5
 1321 001c 70BD     		pop	{r4, r5, r6, pc}
 1322              	.LVL113:
 1323              	.L82:
 1324              		.loc 1 549 0
 1325 001e 7062     		str	r0, [r6, #36]
 1326 0020 0446     		mov	r4, r0
 1327              		.loc 1 550 0
 1328 0022 0A20     		movs	r0, #10
 1329              	.LVL114:
 1330 0024 FFF7FEFF 		bl	chSchGoSleepTimeoutS
 1331              	.LVL115:
 1332 0028 0028     		cmp	r0, #0
 1333 002a F4DB     		blt	.L86
 1334              		.loc 1 554 0
 1335 002c 736B     		ldr	r3, [r6, #52]
 1336 002e 03EA0405 		and	r5, r3, r4
 1337              	.LVL116:
 1338              	.L81:
 1339              		.loc 1 556 0
 1340 0032 23EA0503 		bic	r3, r3, r5
 1341 0036 7363     		str	r3, [r6, #52]
 1342              	.LVL117:
 1343              	.LBB300:
 1344              	.LBB301:
 1345              	.LBB302:
 1346              	.LBB303:
 1347              	.LBB304:
 1348              		.loc 2 490 0
 1349 0038 0023     		movs	r3, #0
 1350              		.syntax unified
 1351              	@ 490 "../os/common/ext/ARM/CMSIS/Core/Include/cmsis_gcc.h" 1
 1352 003a 83F31188 		MSR basepri, r3
 1353              	@ 0 "" 2
 1354              	.LVL118:
 1355              		.thumb
 1356              		.syntax unified
 1357              	.LBE304:
 1358              	.LBE303:
 1359              	.LBE302:
 1360              	.LBE301:
 1361              	.LBE300:
 1362              		.loc 1 560 0
 1363 003e 2846     		mov	r0, r5
 1364 0040 70BD     		pop	{r4, r5, r6, pc}
 1365              	.LVL119:
 1366              	.L88:
 1367 0042 00BF     		.align	2
 1368              	.L87:
ARM GAS  /var/folders/vd/czx34qs52cd_f3nb04sxmghc0000gn/T//ccvumeud.s 			page 25


 1369 0044 00000000 		.word	ch
 1370              		.cfi_endproc
 1371              	.LFE296:
 1372              		.size	chEvtWaitAnyTimeout, .-chEvtWaitAnyTimeout
 1373              		.section	.text.chEvtWaitAllTimeout,"ax",%progbits
 1374              		.align	1
 1375              		.p2align 4,,15
 1376              		.global	chEvtWaitAllTimeout
 1377              		.syntax unified
 1378              		.thumb
 1379              		.thumb_func
 1380              		.fpu softvfp
 1381              		.type	chEvtWaitAllTimeout, %function
 1382              	chEvtWaitAllTimeout:
 1383              	.LFB297:
 1384              		.loc 1 579 0
 1385              		.cfi_startproc
 1386              		@ args = 0, pretend = 0, frame = 0
 1387              		@ frame_needed = 0, uses_anonymous_args = 0
 1388              	.LVL120:
 1389 0000 38B5     		push	{r3, r4, r5, lr}
 1390              		.cfi_def_cfa_offset 16
 1391              		.cfi_offset 3, -16
 1392              		.cfi_offset 4, -12
 1393              		.cfi_offset 5, -8
 1394              		.cfi_offset 14, -4
 1395              		.loc 1 580 0
 1396 0002 104B     		ldr	r3, .L96
 1397              		.loc 1 579 0
 1398 0004 0446     		mov	r4, r0
 1399              		.loc 1 580 0
 1400 0006 9D69     		ldr	r5, [r3, #24]
 1401              	.LVL121:
 1402              	.LBB305:
 1403              	.LBB306:
 1404              	.LBB307:
 1405              	.LBB308:
 1406              		.loc 2 490 0
 1407 0008 2023     		movs	r3, #32
 1408              		.syntax unified
 1409              	@ 490 "../os/common/ext/ARM/CMSIS/Core/Include/cmsis_gcc.h" 1
 1410 000a 83F31188 		MSR basepri, r3
 1411              	@ 0 "" 2
 1412              	.LVL122:
 1413              		.thumb
 1414              		.syntax unified
 1415              	.LBE308:
 1416              	.LBE307:
 1417              	.LBE306:
 1418              	.LBE305:
 1419              		.loc 1 583 0
 1420 000e 6B6B     		ldr	r3, [r5, #52]
 1421 0010 30EA0302 		bics	r2, r0, r3
 1422 0014 0BD0     		beq	.L90
 1423 0016 0846     		mov	r0, r1
 1424              	.LVL123:
 1425              		.loc 1 584 0
ARM GAS  /var/folders/vd/czx34qs52cd_f3nb04sxmghc0000gn/T//ccvumeud.s 			page 26


 1426 0018 11B9     		cbnz	r1, .L91
 1427              	.LVL124:
 1428              	.L95:
 1429              	.LBB309:
 1430              	.LBB310:
 1431              	.LBB311:
 1432              	.LBB312:
 1433              	.LBB313:
 1434              		.loc 2 490 0
 1435              		.syntax unified
 1436              	@ 490 "../os/common/ext/ARM/CMSIS/Core/Include/cmsis_gcc.h" 1
 1437 001a 80F31188 		MSR basepri, r0
 1438              	@ 0 "" 2
 1439              		.thumb
 1440              		.syntax unified
 1441              	.LBE313:
 1442              	.LBE312:
 1443              	.LBE311:
 1444              	.LBE310:
 1445              	.LBE309:
 1446              		.loc 1 598 0
 1447 001e 38BD     		pop	{r3, r4, r5, pc}
 1448              	.LVL125:
 1449              	.L91:
 1450              		.loc 1 588 0
 1451 0020 6C62     		str	r4, [r5, #36]
 1452              		.loc 1 589 0
 1453 0022 0B20     		movs	r0, #11
 1454              	.LVL126:
 1455 0024 FFF7FEFF 		bl	chSchGoSleepTimeoutS
 1456              	.LVL127:
 1457 0028 0028     		cmp	r0, #0
 1458 002a 08DB     		blt	.L93
 1459 002c 6B6B     		ldr	r3, [r5, #52]
 1460              	.L90:
 1461              		.loc 1 594 0
 1462 002e 23EA0403 		bic	r3, r3, r4
 1463 0032 6B63     		str	r3, [r5, #52]
 1464              	.LVL128:
 1465              	.LBB318:
 1466              	.LBB319:
 1467              	.LBB320:
 1468              	.LBB321:
 1469              	.LBB322:
 1470              		.loc 2 490 0
 1471 0034 0023     		movs	r3, #0
 1472              		.syntax unified
 1473              	@ 490 "../os/common/ext/ARM/CMSIS/Core/Include/cmsis_gcc.h" 1
 1474 0036 83F31188 		MSR basepri, r3
 1475              	@ 0 "" 2
 1476              	.LVL129:
 1477              		.thumb
 1478              		.syntax unified
 1479              	.LBE322:
 1480              	.LBE321:
 1481              	.LBE320:
 1482              	.LBE319:
ARM GAS  /var/folders/vd/czx34qs52cd_f3nb04sxmghc0000gn/T//ccvumeud.s 			page 27


 1483              	.LBE318:
 1484              		.loc 1 597 0
 1485 003a 2046     		mov	r0, r4
 1486              		.loc 1 598 0
 1487 003c 38BD     		pop	{r3, r4, r5, pc}
 1488              	.LVL130:
 1489              	.L93:
 1490              	.LBB323:
 1491              	.LBB317:
 1492              	.LBB316:
 1493              	.LBB315:
 1494              	.LBB314:
 1495              		.loc 2 490 0
 1496 003e 0020     		movs	r0, #0
 1497 0040 EBE7     		b	.L95
 1498              	.L97:
 1499 0042 00BF     		.align	2
 1500              	.L96:
 1501 0044 00000000 		.word	ch
 1502              	.LBE314:
 1503              	.LBE315:
 1504              	.LBE316:
 1505              	.LBE317:
 1506              	.LBE323:
 1507              		.cfi_endproc
 1508              	.LFE297:
 1509              		.size	chEvtWaitAllTimeout, .-chEvtWaitAllTimeout
 1510              		.text
 1511              	.Letext0:
 1512              		.file 4 "/usr/local/Cellar/gcc-arm-none-eabi/20171218/lib/gcc/arm-none-eabi/7.2.1/include/stddef.h
 1513              		.file 5 "/usr/local/Cellar/gcc-arm-none-eabi/20171218/arm-none-eabi/include/machine/_default_types
 1514              		.file 6 "/usr/local/Cellar/gcc-arm-none-eabi/20171218/arm-none-eabi/include/sys/_stdint.h"
 1515              		.file 7 "../os/common/ports/ARMCMx/compilers/GCC/chtypes.h"
 1516              		.file 8 "../os/rt/include/chsystypes.h"
 1517              		.file 9 "../os/rt/include/chschd.h"
 1518              		.file 10 "../os/rt/include/chtime.h"
 1519              		.file 11 "../os/common/ext/ARM/CMSIS/Core/Include/core_cm4.h"
 1520              		.file 12 "../os/common/ext/ST/STM32F4xx/system_stm32f4xx.h"
 1521              		.file 13 "../os/common/ports/ARMCMx/chcore.h"
 1522              		.file 14 "../os/common/ports/ARMCMx/chcore_v7m.h"
 1523              		.file 15 "../os/rt/include/chtm.h"
 1524              		.file 16 "../os/rt/include/chsem.h"
 1525              		.file 17 "../os/rt/include/chmtx.h"
 1526              		.file 18 "../os/rt/include/chsys.h"
 1527              		.file 19 "../os/rt/include/chregistry.h"
 1528              		.file 20 "../os/common/oslib/include/chmemcore.h"
 1529              		.file 21 "../os/common/oslib/include/chmempools.h"
 1530              		.file 22 "../os/common/oslib/include/chfactory.h"