ARM GAS  /var/folders/vd/czx34qs52cd_f3nb04sxmghc0000gn/T//cch4Oj73.s 			page 1


   1              		.cpu cortex-m4
   2              		.eabi_attribute 20, 1
   3              		.eabi_attribute 21, 1
   4              		.eabi_attribute 23, 3
   5              		.eabi_attribute 24, 1
   6              		.eabi_attribute 25, 1
   7              		.eabi_attribute 26, 1
   8              		.eabi_attribute 30, 2
   9              		.eabi_attribute 34, 1
  10              		.eabi_attribute 18, 4
  11              		.file	"chfactory.c"
  12              		.text
  13              	.Ltext0:
  14              		.cfi_sections	.debug_frame
  15              		.section	.text.chCoreAllocAlignedI,"ax",%progbits
  16              		.align	1
  17              		.p2align 4,,15
  18              		.syntax unified
  19              		.thumb
  20              		.thumb_func
  21              		.fpu softvfp
  22              		.type	chCoreAllocAlignedI, %function
  23              	chCoreAllocAlignedI:
  24              	.LFB248:
  25              		.file 1 "../os/common/oslib/include/chmemcore.h"
  26              		.loc 1 139 0
  27              		.cfi_startproc
  28              		@ args = 0, pretend = 0, frame = 0
  29              		@ frame_needed = 0, uses_anonymous_args = 0
  30              		@ link register save eliminated.
  31              	.LVL0:
  32              		.loc 1 141 0
  33 0000 0022     		movs	r2, #0
  34 0002 FFF7FEBF 		b	chCoreAllocAlignedWithOffsetI
  35              	.LVL1:
  36              		.cfi_endproc
  37              	.LFE248:
  38              		.size	chCoreAllocAlignedI, .-chCoreAllocAlignedI
  39 0006 00BF     		.section	.text.dyn_find_object,"ax",%progbits
  40              		.align	1
  41              		.p2align 4,,15
  42              		.syntax unified
  43              		.thumb
  44              		.thumb_func
  45              		.fpu softvfp
  46              		.type	dyn_find_object, %function
  47              	dyn_find_object:
  48              	.LFB287:
  49              		.file 2 "../os/common/oslib/src/chfactory.c"
  50              		.loc 2 221 0
  51              		.cfi_startproc
  52              		@ args = 0, pretend = 0, frame = 0
  53              		@ frame_needed = 0, uses_anonymous_args = 0
  54              	.LVL2:
  55 0000 70B5     		push	{r4, r5, r6, lr}
  56              		.cfi_def_cfa_offset 16
  57              		.cfi_offset 4, -16
ARM GAS  /var/folders/vd/czx34qs52cd_f3nb04sxmghc0000gn/T//cch4Oj73.s 			page 2


  58              		.cfi_offset 5, -12
  59              		.cfi_offset 6, -8
  60              		.cfi_offset 14, -4
  61              	.LBB48:
  62              	.LBB49:
  63              		.loc 2 92 0
  64 0002 0C68     		ldr	r4, [r1]
  65              	.LVL3:
  66              		.loc 2 94 0
  67 0004 A142     		cmp	r1, r4
  68 0006 12D0     		beq	.L7
  69 0008 0D46     		mov	r5, r1
  70 000a 0646     		mov	r6, r0
  71 000c 02E0     		b	.L6
  72              	.LVL4:
  73              	.L13:
  74              		.loc 2 98 0
  75 000e 2468     		ldr	r4, [r4]
  76              	.LVL5:
  77              		.loc 2 94 0
  78 0010 A542     		cmp	r5, r4
  79 0012 0CD0     		beq	.L7
  80              	.L6:
  81              		.loc 2 95 0
  82 0014 0822     		movs	r2, #8
  83 0016 3146     		mov	r1, r6
  84 0018 A018     		adds	r0, r4, r2
  85 001a FFF7FEFF 		bl	strncmp
  86              	.LVL6:
  87 001e 0028     		cmp	r0, #0
  88 0020 F5D1     		bne	.L13
  89              	.LVL7:
  90              	.LBE49:
  91              	.LBE48:
  92              		.loc 2 228 0
  93 0022 2CB1     		cbz	r4, .L3
  94              		.loc 2 230 0
  95 0024 6368     		ldr	r3, [r4, #4]
  96 0026 0133     		adds	r3, r3, #1
  97 0028 6360     		str	r3, [r4, #4]
  98              		.loc 2 234 0
  99 002a 2046     		mov	r0, r4
 100 002c 70BD     		pop	{r4, r5, r6, pc}
 101              	.LVL8:
 102              	.L7:
 103              	.LBB51:
 104              	.LBB50:
 105              		.loc 2 101 0
 106 002e 0024     		movs	r4, #0
 107              	.LVL9:
 108              	.L3:
 109              	.LBE50:
 110              	.LBE51:
 111              		.loc 2 234 0
 112 0030 2046     		mov	r0, r4
 113 0032 70BD     		pop	{r4, r5, r6, pc}
 114              		.cfi_endproc
ARM GAS  /var/folders/vd/czx34qs52cd_f3nb04sxmghc0000gn/T//cch4Oj73.s 			page 3


 115              	.LFE287:
 116              		.size	dyn_find_object, .-dyn_find_object
 117              		.section	.text.dyn_create_object_pool,"ax",%progbits
 118              		.align	1
 119              		.p2align 4,,15
 120              		.syntax unified
 121              		.thumb
 122              		.thumb_func
 123              		.fpu softvfp
 124              		.type	dyn_create_object_pool, %function
 125              	dyn_create_object_pool:
 126              	.LFB285:
 127              		.loc 2 175 0
 128              		.cfi_startproc
 129              		@ args = 0, pretend = 0, frame = 0
 130              		@ frame_needed = 0, uses_anonymous_args = 0
 131              	.LVL10:
 132 0000 F8B5     		push	{r3, r4, r5, r6, r7, lr}
 133              		.cfi_def_cfa_offset 24
 134              		.cfi_offset 3, -24
 135              		.cfi_offset 4, -20
 136              		.cfi_offset 5, -16
 137              		.cfi_offset 6, -12
 138              		.cfi_offset 7, -8
 139              		.cfi_offset 14, -4
 140              	.LBB58:
 141              	.LBB59:
 142              		.loc 2 92 0
 143 0002 0C68     		ldr	r4, [r1]
 144              		.loc 2 94 0
 145 0004 A142     		cmp	r1, r4
 146              	.LBE59:
 147              	.LBE58:
 148              		.loc 2 175 0
 149 0006 0D46     		mov	r5, r1
 150 0008 0646     		mov	r6, r0
 151              	.LVL11:
 152 000a 1746     		mov	r7, r2
 153              	.LBB61:
 154              	.LBB60:
 155              		.loc 2 94 0
 156 000c 03D1     		bne	.L17
 157 000e 0DE0     		b	.L15
 158              	.LVL12:
 159              	.L25:
 160              		.loc 2 98 0
 161 0010 2468     		ldr	r4, [r4]
 162              	.LVL13:
 163              		.loc 2 94 0
 164 0012 A542     		cmp	r5, r4
 165 0014 0AD0     		beq	.L15
 166              	.L17:
 167              		.loc 2 95 0
 168 0016 0822     		movs	r2, #8
 169 0018 3146     		mov	r1, r6
 170 001a A018     		adds	r0, r4, r2
 171 001c FFF7FEFF 		bl	strncmp
ARM GAS  /var/folders/vd/czx34qs52cd_f3nb04sxmghc0000gn/T//cch4Oj73.s 			page 4


 172              	.LVL14:
 173 0020 0028     		cmp	r0, #0
 174 0022 F5D1     		bne	.L25
 175              	.LVL15:
 176              	.LBE60:
 177              	.LBE61:
 178              		.loc 2 182 0
 179 0024 14B1     		cbz	r4, .L15
 180              		.loc 2 183 0
 181 0026 0446     		mov	r4, r0
 182              		.loc 2 204 0
 183 0028 2046     		mov	r0, r4
 184 002a F8BD     		pop	{r3, r4, r5, r6, r7, pc}
 185              	.LVL16:
 186              	.L15:
 187              	.LBB62:
 188              	.LBB63:
 189              		.loc 2 187 0
 190 002c 3846     		mov	r0, r7
 191 002e FFF7FEFF 		bl	chPoolAlloc
 192              	.LVL17:
 193              		.loc 2 188 0
 194 0032 0446     		mov	r4, r0
 195 0034 48B1     		cbz	r0, .L14
 196              		.loc 2 195 0
 197 0036 0822     		movs	r2, #8
 198 0038 1044     		add	r0, r0, r2
 199              	.LVL18:
 200 003a 3146     		mov	r1, r6
 201 003c FFF7FEFF 		bl	strncpy
 202              	.LVL19:
 203              		.loc 2 198 0
 204 0040 2B68     		ldr	r3, [r5]
 205              		.loc 2 197 0
 206 0042 0122     		movs	r2, #1
 207              		.loc 2 198 0
 208 0044 C4E90032 		strd	r3, r2, [r4]
 209              		.loc 2 201 0
 210 0048 2C60     		str	r4, [r5]
 211              	.L14:
 212              	.LBE63:
 213              	.LBE62:
 214              		.loc 2 204 0
 215 004a 2046     		mov	r0, r4
 216 004c F8BD     		pop	{r3, r4, r5, r6, r7, pc}
 217              		.cfi_endproc
 218              	.LFE285:
 219              		.size	dyn_create_object_pool, .-dyn_create_object_pool
 220 004e 00BF     		.section	.text.dyn_create_object_heap,"ax",%progbits
 221              		.align	1
 222              		.p2align 4,,15
 223              		.syntax unified
 224              		.thumb
 225              		.thumb_func
 226              		.fpu softvfp
 227              		.type	dyn_create_object_heap, %function
 228              	dyn_create_object_heap:
ARM GAS  /var/folders/vd/czx34qs52cd_f3nb04sxmghc0000gn/T//cch4Oj73.s 			page 5


 229              	.LFB283:
 230              		.loc 2 126 0
 231              		.cfi_startproc
 232              		@ args = 0, pretend = 0, frame = 0
 233              		@ frame_needed = 0, uses_anonymous_args = 0
 234              	.LVL20:
 235 0000 F8B5     		push	{r3, r4, r5, r6, r7, lr}
 236              		.cfi_def_cfa_offset 24
 237              		.cfi_offset 3, -24
 238              		.cfi_offset 4, -20
 239              		.cfi_offset 5, -16
 240              		.cfi_offset 6, -12
 241              		.cfi_offset 7, -8
 242              		.cfi_offset 14, -4
 243              	.LBB72:
 244              	.LBB73:
 245              		.loc 2 92 0
 246 0002 0C68     		ldr	r4, [r1]
 247              		.loc 2 94 0
 248 0004 A142     		cmp	r1, r4
 249              	.LBE73:
 250              	.LBE72:
 251              		.loc 2 126 0
 252 0006 0D46     		mov	r5, r1
 253 0008 0646     		mov	r6, r0
 254              	.LVL21:
 255 000a 1746     		mov	r7, r2
 256              	.LBB75:
 257              	.LBB74:
 258              		.loc 2 94 0
 259 000c 03D1     		bne	.L29
 260 000e 0DE0     		b	.L27
 261              	.LVL22:
 262              	.L37:
 263              		.loc 2 98 0
 264 0010 2468     		ldr	r4, [r4]
 265              	.LVL23:
 266              		.loc 2 94 0
 267 0012 A542     		cmp	r5, r4
 268 0014 0AD0     		beq	.L27
 269              	.L29:
 270              		.loc 2 95 0
 271 0016 0822     		movs	r2, #8
 272 0018 3146     		mov	r1, r6
 273 001a A018     		adds	r0, r4, r2
 274 001c FFF7FEFF 		bl	strncmp
 275              	.LVL24:
 276 0020 0028     		cmp	r0, #0
 277 0022 F5D1     		bne	.L37
 278              	.LVL25:
 279              	.LBE74:
 280              	.LBE75:
 281              		.loc 2 133 0
 282 0024 14B1     		cbz	r4, .L27
 283              		.loc 2 134 0
 284 0026 0446     		mov	r4, r0
 285              		.loc 2 155 0
ARM GAS  /var/folders/vd/czx34qs52cd_f3nb04sxmghc0000gn/T//cch4Oj73.s 			page 6


 286 0028 2046     		mov	r0, r4
 287 002a F8BD     		pop	{r3, r4, r5, r6, r7, pc}
 288              	.LVL26:
 289              	.L27:
 290              	.LBB76:
 291              	.LBB77:
 292              	.LBB78:
 293              	.LBB79:
 294              		.file 3 "../os/common/oslib/include/chheap.h"
 295              		.loc 3 160 0
 296 002c 3946     		mov	r1, r7
 297 002e 0822     		movs	r2, #8
 298 0030 0020     		movs	r0, #0
 299 0032 FFF7FEFF 		bl	chHeapAllocAligned
 300              	.LVL27:
 301              	.LBE79:
 302              	.LBE78:
 303              		.loc 2 141 0
 304 0036 0446     		mov	r4, r0
 305 0038 48B1     		cbz	r0, .L26
 306              		.loc 2 146 0
 307 003a 0822     		movs	r2, #8
 308 003c 1044     		add	r0, r0, r2
 309 003e 3146     		mov	r1, r6
 310 0040 FFF7FEFF 		bl	strncpy
 311              	.LVL28:
 312              		.loc 2 149 0
 313 0044 2B68     		ldr	r3, [r5]
 314              		.loc 2 148 0
 315 0046 0122     		movs	r2, #1
 316              		.loc 2 149 0
 317 0048 C4E90032 		strd	r3, r2, [r4]
 318              		.loc 2 152 0
 319 004c 2C60     		str	r4, [r5]
 320              	.L26:
 321              	.LBE77:
 322              	.LBE76:
 323              		.loc 2 155 0
 324 004e 2046     		mov	r0, r4
 325 0050 F8BD     		pop	{r3, r4, r5, r6, r7, pc}
 326              		.cfi_endproc
 327              	.LFE283:
 328              		.size	dyn_create_object_heap, .-dyn_create_object_heap
 329 0052 00BF     		.section	.text.dyn_release_object_heap.part.3,"ax",%progbits
 330              		.align	1
 331              		.p2align 4,,15
 332              		.syntax unified
 333              		.thumb
 334              		.thumb_func
 335              		.fpu softvfp
 336              		.type	dyn_release_object_heap.part.3, %function
 337              	dyn_release_object_heap.part.3:
 338              	.LFB308:
 339              		.loc 2 157 0
 340              		.cfi_startproc
 341              		@ args = 0, pretend = 0, frame = 0
 342              		@ frame_needed = 0, uses_anonymous_args = 0
ARM GAS  /var/folders/vd/czx34qs52cd_f3nb04sxmghc0000gn/T//cch4Oj73.s 			page 7


 343              		@ link register save eliminated.
 344              	.LVL29:
 345              	.LBB80:
 346              	.LBB81:
 347              		.loc 2 106 0
 348 0000 0A46     		mov	r2, r1
 349 0002 02E0     		b	.L40
 350              	.LVL30:
 351              	.L42:
 352              		.loc 2 110 0
 353 0004 9842     		cmp	r0, r3
 354 0006 06D0     		beq	.L44
 355 0008 1A46     		mov	r2, r3
 356              	.LVL31:
 357              	.L40:
 358              		.loc 2 109 0
 359 000a 1368     		ldr	r3, [r2]
 360 000c 8B42     		cmp	r3, r1
 361 000e F9D1     		bne	.L42
 362              		.loc 2 120 0
 363 0010 0020     		movs	r0, #0
 364              	.LVL32:
 365              	.LBE81:
 366              	.LBE80:
 367              		.loc 2 167 0
 368 0012 FFF7FEBF 		b	chHeapFree
 369              	.LVL33:
 370              	.L44:
 371              	.LBB83:
 372              	.LBB82:
 373              		.loc 2 112 0
 374 0016 0368     		ldr	r3, [r0]
 375 0018 1360     		str	r3, [r2]
 376              	.LVL34:
 377              	.LBE82:
 378              	.LBE83:
 379              		.loc 2 167 0
 380 001a FFF7FEBF 		b	chHeapFree
 381              	.LVL35:
 382              		.cfi_endproc
 383              	.LFE308:
 384              		.size	dyn_release_object_heap.part.3, .-dyn_release_object_heap.part.3
 385 001e 00BF     		.section	.text._factory_init,"ax",%progbits
 386              		.align	1
 387              		.p2align 4,,15
 388              		.global	_factory_init
 389              		.syntax unified
 390              		.thumb
 391              		.thumb_func
 392              		.fpu softvfp
 393              		.type	_factory_init, %function
 394              	_factory_init:
 395              	.LFB288:
 396              		.loc 2 245 0
 397              		.cfi_startproc
 398              		@ args = 0, pretend = 0, frame = 0
 399              		@ frame_needed = 0, uses_anonymous_args = 0
ARM GAS  /var/folders/vd/czx34qs52cd_f3nb04sxmghc0000gn/T//cch4Oj73.s 			page 8


 400 0000 70B5     		push	{r4, r5, r6, lr}
 401              		.cfi_def_cfa_offset 16
 402              		.cfi_offset 4, -16
 403              		.cfi_offset 5, -12
 404              		.cfi_offset 6, -8
 405              		.cfi_offset 14, -4
 406              		.loc 2 248 0
 407 0002 114C     		ldr	r4, .L47
 408              	.LBB84:
 409              	.LBB85:
 410              		.file 4 "../os/common/oslib/include/chmempools.h"
 411              		.loc 4 198 0
 412 0004 114D     		ldr	r5, .L47+4
 413              	.LBE85:
 414              	.LBE84:
 415              		.loc 2 248 0
 416 0006 2046     		mov	r0, r4
 417 0008 FFF7FEFF 		bl	chMtxObjectInit
 418              	.LVL36:
 419              	.LBB88:
 420              	.LBB89:
 421              		.loc 2 88 0
 422 000c 04F11006 		add	r6, r4, #16
 423              	.LBE89:
 424              	.LBE88:
 425              	.LBB91:
 426              	.LBB86:
 427              		.loc 4 198 0
 428 0010 2B46     		mov	r3, r5
 429 0012 04F11400 		add	r0, r4, #20
 430 0016 0422     		movs	r2, #4
 431 0018 1421     		movs	r1, #20
 432              	.LBE86:
 433              	.LBE91:
 434              	.LBB92:
 435              	.LBB90:
 436              		.loc 2 88 0
 437 001a 2661     		str	r6, [r4, #16]
 438              	.LVL37:
 439              	.LBE90:
 440              	.LBE92:
 441              	.LBB93:
 442              	.LBB87:
 443              		.loc 4 198 0
 444 001c FFF7FEFF 		bl	chPoolObjectInitAligned
 445              	.LVL38:
 446              	.LBE87:
 447              	.LBE93:
 448              	.LBB94:
 449              	.LBB95:
 450              		.loc 2 88 0
 451 0020 04F12406 		add	r6, r4, #36
 452              	.LBE95:
 453              	.LBE94:
 454              	.LBB96:
 455              	.LBB97:
 456              		.loc 4 198 0
ARM GAS  /var/folders/vd/czx34qs52cd_f3nb04sxmghc0000gn/T//cch4Oj73.s 			page 9


 457 0024 2B46     		mov	r3, r5
 458 0026 0422     		movs	r2, #4
 459              	.LBE97:
 460              	.LBE96:
 461              	.LBB100:
 462              	.LBB101:
 463              		.loc 2 88 0
 464 0028 04F12805 		add	r5, r4, #40
 465              	.LBE101:
 466              	.LBE100:
 467              	.LBB103:
 468              	.LBB98:
 469              		.loc 4 198 0
 470 002c 04F12C00 		add	r0, r4, #44
 471 0030 1C21     		movs	r1, #28
 472              	.LBE98:
 473              	.LBE103:
 474              	.LBB104:
 475              	.LBB102:
 476              		.loc 2 88 0
 477 0032 C4E90965 		strd	r6, r5, [r4, #36]
 478              	.LVL39:
 479              	.LBE102:
 480              	.LBE104:
 481              	.LBB105:
 482              	.LBB99:
 483              		.loc 4 198 0
 484 0036 FFF7FEFF 		bl	chPoolObjectInitAligned
 485              	.LVL40:
 486              	.LBE99:
 487              	.LBE105:
 488              	.LBB106:
 489              	.LBB107:
 490              		.loc 2 88 0
 491 003a 04F13C02 		add	r2, r4, #60
 492              	.LBE107:
 493              	.LBE106:
 494              	.LBB108:
 495              	.LBB109:
 496 003e 04F14003 		add	r3, r4, #64
 497 0042 C4E90F23 		strd	r2, r3, [r4, #60]
 498              	.LBE109:
 499              	.LBE108:
 500              		.loc 2 274 0
 501 0046 70BD     		pop	{r4, r5, r6, pc}
 502              	.L48:
 503              		.align	2
 504              	.L47:
 505 0048 00000000 		.word	.LANCHOR0
 506 004c 00000000 		.word	chCoreAllocAlignedI
 507              		.cfi_endproc
 508              	.LFE288:
 509              		.size	_factory_init, .-_factory_init
 510              		.section	.text.chFactoryRegisterObject,"ax",%progbits
 511              		.align	1
 512              		.p2align 4,,15
 513              		.global	chFactoryRegisterObject
ARM GAS  /var/folders/vd/czx34qs52cd_f3nb04sxmghc0000gn/T//cch4Oj73.s 			page 10


 514              		.syntax unified
 515              		.thumb
 516              		.thumb_func
 517              		.fpu softvfp
 518              		.type	chFactoryRegisterObject, %function
 519              	chFactoryRegisterObject:
 520              	.LFB289:
 521              		.loc 2 292 0
 522              		.cfi_startproc
 523              		@ args = 0, pretend = 0, frame = 0
 524              		@ frame_needed = 0, uses_anonymous_args = 0
 525              	.LVL41:
 526 0000 38B5     		push	{r3, r4, r5, lr}
 527              		.cfi_def_cfa_offset 16
 528              		.cfi_offset 3, -16
 529              		.cfi_offset 4, -12
 530              		.cfi_offset 5, -8
 531              		.cfi_offset 14, -4
 532              		.loc 2 292 0
 533 0002 0446     		mov	r4, r0
 534              		.loc 2 295 0
 535 0004 0848     		ldr	r0, .L55
 536              	.LVL42:
 537              		.loc 2 292 0
 538 0006 0D46     		mov	r5, r1
 539              		.loc 2 295 0
 540 0008 FFF7FEFF 		bl	chMtxLock
 541              	.LVL43:
 542              		.loc 2 297 0
 543 000c 074A     		ldr	r2, .L55+4
 544 000e 2046     		mov	r0, r4
 545 0010 111F     		subs	r1, r2, #4
 546 0012 FFF7FEFF 		bl	dyn_create_object_pool
 547              	.LVL44:
 548              		.loc 2 300 0
 549 0016 0446     		mov	r4, r0
 550              	.LVL45:
 551 0018 00B1     		cbz	r0, .L50
 552              		.loc 2 302 0
 553 001a 0561     		str	r5, [r0, #16]
 554              	.L50:
 555              		.loc 2 305 0
 556 001c 0248     		ldr	r0, .L55
 557              	.LVL46:
 558 001e FFF7FEFF 		bl	chMtxUnlock
 559              	.LVL47:
 560              		.loc 2 308 0
 561 0022 2046     		mov	r0, r4
 562 0024 38BD     		pop	{r3, r4, r5, pc}
 563              	.LVL48:
 564              	.L56:
 565 0026 00BF     		.align	2
 566              	.L55:
 567 0028 00000000 		.word	.LANCHOR0
 568 002c 14000000 		.word	.LANCHOR0+20
 569              		.cfi_endproc
 570              	.LFE289:
ARM GAS  /var/folders/vd/czx34qs52cd_f3nb04sxmghc0000gn/T//cch4Oj73.s 			page 11


 571              		.size	chFactoryRegisterObject, .-chFactoryRegisterObject
 572              		.section	.text.chFactoryFindObject,"ax",%progbits
 573              		.align	1
 574              		.p2align 4,,15
 575              		.global	chFactoryFindObject
 576              		.syntax unified
 577              		.thumb
 578              		.thumb_func
 579              		.fpu softvfp
 580              		.type	chFactoryFindObject, %function
 581              	chFactoryFindObject:
 582              	.LFB290:
 583              		.loc 2 323 0
 584              		.cfi_startproc
 585              		@ args = 0, pretend = 0, frame = 0
 586              		@ frame_needed = 0, uses_anonymous_args = 0
 587              	.LVL49:
 588 0000 38B5     		push	{r3, r4, r5, lr}
 589              		.cfi_def_cfa_offset 16
 590              		.cfi_offset 3, -16
 591              		.cfi_offset 4, -12
 592              		.cfi_offset 5, -8
 593              		.cfi_offset 14, -4
 594              		.loc 2 326 0
 595 0002 084C     		ldr	r4, .L59
 596              		.loc 2 323 0
 597 0004 0546     		mov	r5, r0
 598              		.loc 2 326 0
 599 0006 2046     		mov	r0, r4
 600              	.LVL50:
 601 0008 FFF7FEFF 		bl	chMtxLock
 602              	.LVL51:
 603              		.loc 2 328 0
 604 000c 04F11001 		add	r1, r4, #16
 605 0010 2846     		mov	r0, r5
 606 0012 FFF7FEFF 		bl	dyn_find_object
 607              	.LVL52:
 608 0016 0546     		mov	r5, r0
 609              	.LVL53:
 610              		.loc 2 330 0
 611 0018 2046     		mov	r0, r4
 612              	.LVL54:
 613 001a FFF7FEFF 		bl	chMtxUnlock
 614              	.LVL55:
 615              		.loc 2 333 0
 616 001e 2846     		mov	r0, r5
 617 0020 38BD     		pop	{r3, r4, r5, pc}
 618              	.LVL56:
 619              	.L60:
 620 0022 00BF     		.align	2
 621              	.L59:
 622 0024 00000000 		.word	.LANCHOR0
 623              		.cfi_endproc
 624              	.LFE290:
 625              		.size	chFactoryFindObject, .-chFactoryFindObject
 626              		.section	.text.chFactoryFindObjectByPointer,"ax",%progbits
 627              		.align	1
ARM GAS  /var/folders/vd/czx34qs52cd_f3nb04sxmghc0000gn/T//cch4Oj73.s 			page 12


 628              		.p2align 4,,15
 629              		.global	chFactoryFindObjectByPointer
 630              		.syntax unified
 631              		.thumb
 632              		.thumb_func
 633              		.fpu softvfp
 634              		.type	chFactoryFindObjectByPointer, %function
 635              	chFactoryFindObjectByPointer:
 636              	.LFB291:
 637              		.loc 2 348 0
 638              		.cfi_startproc
 639              		@ args = 0, pretend = 0, frame = 0
 640              		@ frame_needed = 0, uses_anonymous_args = 0
 641              	.LVL57:
 642 0000 70B5     		push	{r4, r5, r6, lr}
 643              		.cfi_def_cfa_offset 16
 644              		.cfi_offset 4, -16
 645              		.cfi_offset 5, -12
 646              		.cfi_offset 6, -8
 647              		.cfi_offset 14, -4
 648              		.loc 2 349 0
 649 0002 114D     		ldr	r5, .L69
 650              		.loc 2 348 0
 651 0004 0646     		mov	r6, r0
 652              		.loc 2 349 0
 653 0006 2C69     		ldr	r4, [r5, #16]
 654              	.LVL58:
 655              		.loc 2 351 0
 656 0008 2846     		mov	r0, r5
 657              	.LVL59:
 658 000a FFF7FEFF 		bl	chMtxLock
 659              	.LVL60:
 660              		.loc 2 353 0
 661 000e 05F11000 		add	r0, r5, #16
 662 0012 8442     		cmp	r4, r0
 663 0014 09D0     		beq	.L62
 664              		.loc 2 354 0
 665 0016 2369     		ldr	r3, [r4, #16]
 666 0018 9E42     		cmp	r6, r3
 667 001a 03D1     		bne	.L64
 668 001c 0BE0     		b	.L63
 669              	.L66:
 670 001e 2369     		ldr	r3, [r4, #16]
 671 0020 B342     		cmp	r3, r6
 672 0022 08D0     		beq	.L63
 673              	.L64:
 674              		.loc 2 361 0
 675 0024 2468     		ldr	r4, [r4]
 676              	.LVL61:
 677              		.loc 2 353 0
 678 0026 8442     		cmp	r4, r0
 679 0028 F9D1     		bne	.L66
 680              	.L62:
 681              		.loc 2 364 0
 682 002a 0748     		ldr	r0, .L69
 683              		.loc 2 366 0
 684 002c 0024     		movs	r4, #0
ARM GAS  /var/folders/vd/czx34qs52cd_f3nb04sxmghc0000gn/T//cch4Oj73.s 			page 13


 685              	.LVL62:
 686              		.loc 2 364 0
 687 002e FFF7FEFF 		bl	chMtxUnlock
 688              	.LVL63:
 689              		.loc 2 367 0
 690 0032 2046     		mov	r0, r4
 691 0034 70BD     		pop	{r4, r5, r6, pc}
 692              	.LVL64:
 693              	.L63:
 694              		.loc 2 355 0
 695 0036 6368     		ldr	r3, [r4, #4]
 696              		.loc 2 357 0
 697 0038 0348     		ldr	r0, .L69
 698              		.loc 2 355 0
 699 003a 0133     		adds	r3, r3, #1
 700 003c 6360     		str	r3, [r4, #4]
 701              		.loc 2 357 0
 702 003e FFF7FEFF 		bl	chMtxUnlock
 703              	.LVL65:
 704              		.loc 2 367 0
 705 0042 2046     		mov	r0, r4
 706 0044 70BD     		pop	{r4, r5, r6, pc}
 707              	.LVL66:
 708              	.L70:
 709 0046 00BF     		.align	2
 710              	.L69:
 711 0048 00000000 		.word	.LANCHOR0
 712              		.cfi_endproc
 713              	.LFE291:
 714              		.size	chFactoryFindObjectByPointer, .-chFactoryFindObjectByPointer
 715              		.section	.text.chFactoryReleaseObject,"ax",%progbits
 716              		.align	1
 717              		.p2align 4,,15
 718              		.global	chFactoryReleaseObject
 719              		.syntax unified
 720              		.thumb
 721              		.thumb_func
 722              		.fpu softvfp
 723              		.type	chFactoryReleaseObject, %function
 724              	chFactoryReleaseObject:
 725              	.LFB292:
 726              		.loc 2 381 0
 727              		.cfi_startproc
 728              		@ args = 0, pretend = 0, frame = 0
 729              		@ frame_needed = 0, uses_anonymous_args = 0
 730              	.LVL67:
 731 0000 10B5     		push	{r4, lr}
 732              		.cfi_def_cfa_offset 8
 733              		.cfi_offset 4, -8
 734              		.cfi_offset 14, -4
 735              		.loc 2 381 0
 736 0002 0446     		mov	r4, r0
 737              		.loc 2 383 0
 738 0004 1048     		ldr	r0, .L81
 739              	.LVL68:
 740 0006 FFF7FEFF 		bl	chMtxLock
 741              	.LVL69:
ARM GAS  /var/folders/vd/czx34qs52cd_f3nb04sxmghc0000gn/T//cch4Oj73.s 			page 14


 742              	.LBB116:
 743              	.LBB117:
 744              		.loc 2 213 0
 745 000a 6368     		ldr	r3, [r4, #4]
 746 000c 013B     		subs	r3, r3, #1
 747 000e 6360     		str	r3, [r4, #4]
 748              		.loc 2 214 0
 749 0010 23B1     		cbz	r3, .L79
 750              	.LVL70:
 751              	.LBE117:
 752              	.LBE116:
 753              		.loc 2 389 0
 754 0012 0D48     		ldr	r0, .L81
 755              		.loc 2 390 0
 756 0014 BDE81040 		pop	{r4, lr}
 757              		.cfi_remember_state
 758              		.cfi_restore 14
 759              		.cfi_restore 4
 760              		.cfi_def_cfa_offset 0
 761              	.LVL71:
 762              		.loc 2 389 0
 763 0018 FFF7FEBF 		b	chMtxUnlock
 764              	.LVL72:
 765              	.L79:
 766              		.cfi_restore_state
 767              	.LBB133:
 768              	.LBB130:
 769              	.LBB118:
 770              	.LBB119:
 771              	.LBB120:
 772              	.LBB121:
 773              		.loc 2 106 0
 774 001c 0B48     		ldr	r0, .L81+4
 775 001e 0246     		mov	r2, r0
 776 0020 02E0     		b	.L72
 777              	.LVL73:
 778              	.L75:
 779              		.loc 2 110 0
 780 0022 9942     		cmp	r1, r3
 781 0024 0DD0     		beq	.L80
 782 0026 1A46     		mov	r2, r3
 783              	.LVL74:
 784              	.L72:
 785              		.loc 2 109 0
 786 0028 1368     		ldr	r3, [r2]
 787 002a 8342     		cmp	r3, r0
 788              	.LBE121:
 789              	.LBE120:
 790              	.LBE119:
 791              	.LBE118:
 792              	.LBE130:
 793              	.LBE133:
 794              		.loc 2 385 0
 795 002c 2146     		mov	r1, r4
 796              	.LBB134:
 797              	.LBB131:
 798              	.LBB128:
ARM GAS  /var/folders/vd/czx34qs52cd_f3nb04sxmghc0000gn/T//cch4Oj73.s 			page 15


 799              	.LBB126:
 800              	.LBB124:
 801              	.LBB122:
 802              		.loc 2 109 0
 803 002e F8D1     		bne	.L75
 804              	.LVL75:
 805              		.loc 2 120 0
 806 0030 0021     		movs	r1, #0
 807              	.LVL76:
 808              	.L74:
 809              	.LBE122:
 810              	.LBE124:
 811              		.loc 2 216 0
 812 0032 0748     		ldr	r0, .L81+8
 813 0034 FFF7FEFF 		bl	chPoolFree
 814              	.LVL77:
 815              	.LBE126:
 816              	.LBE128:
 817              	.LBE131:
 818              	.LBE134:
 819              		.loc 2 389 0
 820 0038 0348     		ldr	r0, .L81
 821              		.loc 2 390 0
 822 003a BDE81040 		pop	{r4, lr}
 823              		.cfi_remember_state
 824              		.cfi_restore 14
 825              		.cfi_restore 4
 826              		.cfi_def_cfa_offset 0
 827              	.LVL78:
 828              		.loc 2 389 0
 829 003e FFF7FEBF 		b	chMtxUnlock
 830              	.LVL79:
 831              	.L80:
 832              		.cfi_restore_state
 833              	.LBB135:
 834              	.LBB132:
 835              	.LBB129:
 836              	.LBB127:
 837              	.LBB125:
 838              	.LBB123:
 839              		.loc 2 112 0
 840 0042 0B68     		ldr	r3, [r1]
 841 0044 1360     		str	r3, [r2]
 842 0046 F4E7     		b	.L74
 843              	.L82:
 844              		.align	2
 845              	.L81:
 846 0048 00000000 		.word	.LANCHOR0
 847 004c 10000000 		.word	.LANCHOR0+16
 848 0050 14000000 		.word	.LANCHOR0+20
 849              	.LBE123:
 850              	.LBE125:
 851              	.LBE127:
 852              	.LBE129:
 853              	.LBE132:
 854              	.LBE135:
 855              		.cfi_endproc
ARM GAS  /var/folders/vd/czx34qs52cd_f3nb04sxmghc0000gn/T//cch4Oj73.s 			page 16


 856              	.LFE292:
 857              		.size	chFactoryReleaseObject, .-chFactoryReleaseObject
 858              		.section	.text.chFactoryCreateBuffer,"ax",%progbits
 859              		.align	1
 860              		.p2align 4,,15
 861              		.global	chFactoryCreateBuffer
 862              		.syntax unified
 863              		.thumb
 864              		.thumb_func
 865              		.fpu softvfp
 866              		.type	chFactoryCreateBuffer, %function
 867              	chFactoryCreateBuffer:
 868              	.LFB293:
 869              		.loc 2 409 0
 870              		.cfi_startproc
 871              		@ args = 0, pretend = 0, frame = 0
 872              		@ frame_needed = 0, uses_anonymous_args = 0
 873              	.LVL80:
 874 0000 38B5     		push	{r3, r4, r5, lr}
 875              		.cfi_def_cfa_offset 16
 876              		.cfi_offset 3, -16
 877              		.cfi_offset 4, -12
 878              		.cfi_offset 5, -8
 879              		.cfi_offset 14, -4
 880              		.loc 2 409 0
 881 0002 0446     		mov	r4, r0
 882 0004 0D46     		mov	r5, r1
 883              		.loc 2 412 0
 884 0006 0A48     		ldr	r0, .L89
 885              	.LVL81:
 886 0008 FFF7FEFF 		bl	chMtxLock
 887              	.LVL82:
 888              		.loc 2 414 0
 889 000c 2046     		mov	r0, r4
 890 000e 2A46     		mov	r2, r5
 891 0010 0849     		ldr	r1, .L89+4
 892 0012 FFF7FEFF 		bl	dyn_create_object_heap
 893              	.LVL83:
 894              		.loc 2 417 0
 895 0016 0446     		mov	r4, r0
 896              	.LVL84:
 897 0018 20B1     		cbz	r0, .L84
 898              		.loc 2 419 0
 899 001a 2A46     		mov	r2, r5
 900 001c 0021     		movs	r1, #0
 901 001e 1030     		adds	r0, r0, #16
 902              	.LVL85:
 903 0020 FFF7FEFF 		bl	memset
 904              	.LVL86:
 905              	.L84:
 906              		.loc 2 422 0
 907 0024 0248     		ldr	r0, .L89
 908 0026 FFF7FEFF 		bl	chMtxUnlock
 909              	.LVL87:
 910              		.loc 2 425 0
 911 002a 2046     		mov	r0, r4
 912 002c 38BD     		pop	{r3, r4, r5, pc}
ARM GAS  /var/folders/vd/czx34qs52cd_f3nb04sxmghc0000gn/T//cch4Oj73.s 			page 17


 913              	.LVL88:
 914              	.L90:
 915 002e 00BF     		.align	2
 916              	.L89:
 917 0030 00000000 		.word	.LANCHOR0
 918 0034 24000000 		.word	.LANCHOR0+36
 919              		.cfi_endproc
 920              	.LFE293:
 921              		.size	chFactoryCreateBuffer, .-chFactoryCreateBuffer
 922              		.section	.text.chFactoryFindBuffer,"ax",%progbits
 923              		.align	1
 924              		.p2align 4,,15
 925              		.global	chFactoryFindBuffer
 926              		.syntax unified
 927              		.thumb
 928              		.thumb_func
 929              		.fpu softvfp
 930              		.type	chFactoryFindBuffer, %function
 931              	chFactoryFindBuffer:
 932              	.LFB294:
 933              		.loc 2 440 0
 934              		.cfi_startproc
 935              		@ args = 0, pretend = 0, frame = 0
 936              		@ frame_needed = 0, uses_anonymous_args = 0
 937              	.LVL89:
 938 0000 38B5     		push	{r3, r4, r5, lr}
 939              		.cfi_def_cfa_offset 16
 940              		.cfi_offset 3, -16
 941              		.cfi_offset 4, -12
 942              		.cfi_offset 5, -8
 943              		.cfi_offset 14, -4
 944              		.loc 2 443 0
 945 0002 084C     		ldr	r4, .L93
 946              		.loc 2 440 0
 947 0004 0546     		mov	r5, r0
 948              		.loc 2 443 0
 949 0006 2046     		mov	r0, r4
 950              	.LVL90:
 951 0008 FFF7FEFF 		bl	chMtxLock
 952              	.LVL91:
 953              		.loc 2 445 0
 954 000c 04F12401 		add	r1, r4, #36
 955 0010 2846     		mov	r0, r5
 956 0012 FFF7FEFF 		bl	dyn_find_object
 957              	.LVL92:
 958 0016 0546     		mov	r5, r0
 959              	.LVL93:
 960              		.loc 2 447 0
 961 0018 2046     		mov	r0, r4
 962              	.LVL94:
 963 001a FFF7FEFF 		bl	chMtxUnlock
 964              	.LVL95:
 965              		.loc 2 450 0
 966 001e 2846     		mov	r0, r5
 967 0020 38BD     		pop	{r3, r4, r5, pc}
 968              	.LVL96:
 969              	.L94:
ARM GAS  /var/folders/vd/czx34qs52cd_f3nb04sxmghc0000gn/T//cch4Oj73.s 			page 18


 970 0022 00BF     		.align	2
 971              	.L93:
 972 0024 00000000 		.word	.LANCHOR0
 973              		.cfi_endproc
 974              	.LFE294:
 975              		.size	chFactoryFindBuffer, .-chFactoryFindBuffer
 976              		.section	.text.chFactoryReleaseBuffer,"ax",%progbits
 977              		.align	1
 978              		.p2align 4,,15
 979              		.global	chFactoryReleaseBuffer
 980              		.syntax unified
 981              		.thumb
 982              		.thumb_func
 983              		.fpu softvfp
 984              		.type	chFactoryReleaseBuffer, %function
 985              	chFactoryReleaseBuffer:
 986              	.LFB295:
 987              		.loc 2 462 0
 988              		.cfi_startproc
 989              		@ args = 0, pretend = 0, frame = 0
 990              		@ frame_needed = 0, uses_anonymous_args = 0
 991              	.LVL97:
 992 0000 10B5     		push	{r4, lr}
 993              		.cfi_def_cfa_offset 8
 994              		.cfi_offset 4, -8
 995              		.cfi_offset 14, -4
 996              		.loc 2 462 0
 997 0002 0446     		mov	r4, r0
 998              		.loc 2 464 0
 999 0004 0748     		ldr	r0, .L98
 1000              	.LVL98:
 1001 0006 FFF7FEFF 		bl	chMtxLock
 1002              	.LVL99:
 1003              	.LBB136:
 1004              	.LBB137:
 1005              		.loc 2 164 0
 1006 000a 6368     		ldr	r3, [r4, #4]
 1007 000c 013B     		subs	r3, r3, #1
 1008 000e 6360     		str	r3, [r4, #4]
 1009              		.loc 2 165 0
 1010 0010 1BB9     		cbnz	r3, .L96
 1011 0012 2046     		mov	r0, r4
 1012 0014 0449     		ldr	r1, .L98+4
 1013 0016 FFF7FEFF 		bl	dyn_release_object_heap.part.3
 1014              	.LVL100:
 1015              	.L96:
 1016              	.LBE137:
 1017              	.LBE136:
 1018              		.loc 2 468 0
 1019 001a 0248     		ldr	r0, .L98
 1020              		.loc 2 469 0
 1021 001c BDE81040 		pop	{r4, lr}
 1022              		.cfi_restore 14
 1023              		.cfi_restore 4
 1024              		.cfi_def_cfa_offset 0
 1025              	.LVL101:
 1026              		.loc 2 468 0
ARM GAS  /var/folders/vd/czx34qs52cd_f3nb04sxmghc0000gn/T//cch4Oj73.s 			page 19


 1027 0020 FFF7FEBF 		b	chMtxUnlock
 1028              	.LVL102:
 1029              	.L99:
 1030              		.align	2
 1031              	.L98:
 1032 0024 00000000 		.word	.LANCHOR0
 1033 0028 24000000 		.word	.LANCHOR0+36
 1034              		.cfi_endproc
 1035              	.LFE295:
 1036              		.size	chFactoryReleaseBuffer, .-chFactoryReleaseBuffer
 1037              		.section	.text.chFactoryCreateSemaphore,"ax",%progbits
 1038              		.align	1
 1039              		.p2align 4,,15
 1040              		.global	chFactoryCreateSemaphore
 1041              		.syntax unified
 1042              		.thumb
 1043              		.thumb_func
 1044              		.fpu softvfp
 1045              		.type	chFactoryCreateSemaphore, %function
 1046              	chFactoryCreateSemaphore:
 1047              	.LFB296:
 1048              		.loc 2 488 0
 1049              		.cfi_startproc
 1050              		@ args = 0, pretend = 0, frame = 0
 1051              		@ frame_needed = 0, uses_anonymous_args = 0
 1052              	.LVL103:
 1053 0000 38B5     		push	{r3, r4, r5, lr}
 1054              		.cfi_def_cfa_offset 16
 1055              		.cfi_offset 3, -16
 1056              		.cfi_offset 4, -12
 1057              		.cfi_offset 5, -8
 1058              		.cfi_offset 14, -4
 1059              		.loc 2 488 0
 1060 0002 0446     		mov	r4, r0
 1061              		.loc 2 491 0
 1062 0004 0948     		ldr	r0, .L106
 1063              	.LVL104:
 1064              		.loc 2 488 0
 1065 0006 0D46     		mov	r5, r1
 1066              		.loc 2 491 0
 1067 0008 FFF7FEFF 		bl	chMtxLock
 1068              	.LVL105:
 1069              		.loc 2 493 0
 1070 000c 084A     		ldr	r2, .L106+4
 1071 000e 2046     		mov	r0, r4
 1072 0010 111F     		subs	r1, r2, #4
 1073 0012 FFF7FEFF 		bl	dyn_create_object_pool
 1074              	.LVL106:
 1075              		.loc 2 496 0
 1076 0016 0446     		mov	r4, r0
 1077              	.LVL107:
 1078 0018 18B1     		cbz	r0, .L101
 1079              		.loc 2 498 0
 1080 001a 2946     		mov	r1, r5
 1081 001c 1030     		adds	r0, r0, #16
 1082              	.LVL108:
 1083 001e FFF7FEFF 		bl	chSemObjectInit
ARM GAS  /var/folders/vd/czx34qs52cd_f3nb04sxmghc0000gn/T//cch4Oj73.s 			page 20


 1084              	.LVL109:
 1085              	.L101:
 1086              		.loc 2 501 0
 1087 0022 0248     		ldr	r0, .L106
 1088 0024 FFF7FEFF 		bl	chMtxUnlock
 1089              	.LVL110:
 1090              		.loc 2 504 0
 1091 0028 2046     		mov	r0, r4
 1092 002a 38BD     		pop	{r3, r4, r5, pc}
 1093              	.LVL111:
 1094              	.L107:
 1095              		.align	2
 1096              	.L106:
 1097 002c 00000000 		.word	.LANCHOR0
 1098 0030 2C000000 		.word	.LANCHOR0+44
 1099              		.cfi_endproc
 1100              	.LFE296:
 1101              		.size	chFactoryCreateSemaphore, .-chFactoryCreateSemaphore
 1102              		.section	.text.chFactoryFindSemaphore,"ax",%progbits
 1103              		.align	1
 1104              		.p2align 4,,15
 1105              		.global	chFactoryFindSemaphore
 1106              		.syntax unified
 1107              		.thumb
 1108              		.thumb_func
 1109              		.fpu softvfp
 1110              		.type	chFactoryFindSemaphore, %function
 1111              	chFactoryFindSemaphore:
 1112              	.LFB297:
 1113              		.loc 2 519 0
 1114              		.cfi_startproc
 1115              		@ args = 0, pretend = 0, frame = 0
 1116              		@ frame_needed = 0, uses_anonymous_args = 0
 1117              	.LVL112:
 1118 0000 38B5     		push	{r3, r4, r5, lr}
 1119              		.cfi_def_cfa_offset 16
 1120              		.cfi_offset 3, -16
 1121              		.cfi_offset 4, -12
 1122              		.cfi_offset 5, -8
 1123              		.cfi_offset 14, -4
 1124              		.loc 2 522 0
 1125 0002 084C     		ldr	r4, .L110
 1126              		.loc 2 519 0
 1127 0004 0546     		mov	r5, r0
 1128              		.loc 2 522 0
 1129 0006 2046     		mov	r0, r4
 1130              	.LVL113:
 1131 0008 FFF7FEFF 		bl	chMtxLock
 1132              	.LVL114:
 1133              		.loc 2 524 0
 1134 000c 04F12801 		add	r1, r4, #40
 1135 0010 2846     		mov	r0, r5
 1136 0012 FFF7FEFF 		bl	dyn_find_object
 1137              	.LVL115:
 1138 0016 0546     		mov	r5, r0
 1139              	.LVL116:
 1140              		.loc 2 526 0
ARM GAS  /var/folders/vd/czx34qs52cd_f3nb04sxmghc0000gn/T//cch4Oj73.s 			page 21


 1141 0018 2046     		mov	r0, r4
 1142              	.LVL117:
 1143 001a FFF7FEFF 		bl	chMtxUnlock
 1144              	.LVL118:
 1145              		.loc 2 529 0
 1146 001e 2846     		mov	r0, r5
 1147 0020 38BD     		pop	{r3, r4, r5, pc}
 1148              	.LVL119:
 1149              	.L111:
 1150 0022 00BF     		.align	2
 1151              	.L110:
 1152 0024 00000000 		.word	.LANCHOR0
 1153              		.cfi_endproc
 1154              	.LFE297:
 1155              		.size	chFactoryFindSemaphore, .-chFactoryFindSemaphore
 1156              		.section	.text.chFactoryReleaseSemaphore,"ax",%progbits
 1157              		.align	1
 1158              		.p2align 4,,15
 1159              		.global	chFactoryReleaseSemaphore
 1160              		.syntax unified
 1161              		.thumb
 1162              		.thumb_func
 1163              		.fpu softvfp
 1164              		.type	chFactoryReleaseSemaphore, %function
 1165              	chFactoryReleaseSemaphore:
 1166              	.LFB298:
 1167              		.loc 2 541 0
 1168              		.cfi_startproc
 1169              		@ args = 0, pretend = 0, frame = 0
 1170              		@ frame_needed = 0, uses_anonymous_args = 0
 1171              	.LVL120:
 1172 0000 10B5     		push	{r4, lr}
 1173              		.cfi_def_cfa_offset 8
 1174              		.cfi_offset 4, -8
 1175              		.cfi_offset 14, -4
 1176              		.loc 2 541 0
 1177 0002 0446     		mov	r4, r0
 1178              		.loc 2 543 0
 1179 0004 1048     		ldr	r0, .L122
 1180              	.LVL121:
 1181 0006 FFF7FEFF 		bl	chMtxLock
 1182              	.LVL122:
 1183              	.LBB144:
 1184              	.LBB145:
 1185              		.loc 2 213 0
 1186 000a 6368     		ldr	r3, [r4, #4]
 1187 000c 013B     		subs	r3, r3, #1
 1188 000e 6360     		str	r3, [r4, #4]
 1189              		.loc 2 214 0
 1190 0010 23B1     		cbz	r3, .L120
 1191              	.LVL123:
 1192              	.LBE145:
 1193              	.LBE144:
 1194              		.loc 2 549 0
 1195 0012 0D48     		ldr	r0, .L122
 1196              		.loc 2 550 0
 1197 0014 BDE81040 		pop	{r4, lr}
ARM GAS  /var/folders/vd/czx34qs52cd_f3nb04sxmghc0000gn/T//cch4Oj73.s 			page 22


 1198              		.cfi_remember_state
 1199              		.cfi_restore 14
 1200              		.cfi_restore 4
 1201              		.cfi_def_cfa_offset 0
 1202              	.LVL124:
 1203              		.loc 2 549 0
 1204 0018 FFF7FEBF 		b	chMtxUnlock
 1205              	.LVL125:
 1206              	.L120:
 1207              		.cfi_restore_state
 1208              	.LBB161:
 1209              	.LBB158:
 1210              	.LBB146:
 1211              	.LBB147:
 1212              	.LBB148:
 1213              	.LBB149:
 1214              		.loc 2 106 0
 1215 001c 0B48     		ldr	r0, .L122+4
 1216 001e 0246     		mov	r2, r0
 1217 0020 02E0     		b	.L113
 1218              	.LVL126:
 1219              	.L116:
 1220              		.loc 2 110 0
 1221 0022 9942     		cmp	r1, r3
 1222 0024 0DD0     		beq	.L121
 1223 0026 1A46     		mov	r2, r3
 1224              	.LVL127:
 1225              	.L113:
 1226              		.loc 2 109 0
 1227 0028 1368     		ldr	r3, [r2]
 1228 002a 8342     		cmp	r3, r0
 1229              	.LBE149:
 1230              	.LBE148:
 1231              	.LBE147:
 1232              	.LBE146:
 1233              	.LBE158:
 1234              	.LBE161:
 1235              		.loc 2 545 0
 1236 002c 2146     		mov	r1, r4
 1237              	.LBB162:
 1238              	.LBB159:
 1239              	.LBB156:
 1240              	.LBB154:
 1241              	.LBB152:
 1242              	.LBB150:
 1243              		.loc 2 109 0
 1244 002e F8D1     		bne	.L116
 1245              	.LVL128:
 1246              		.loc 2 120 0
 1247 0030 0021     		movs	r1, #0
 1248              	.LVL129:
 1249              	.L115:
 1250              	.LBE150:
 1251              	.LBE152:
 1252              		.loc 2 216 0
 1253 0032 0748     		ldr	r0, .L122+8
 1254 0034 FFF7FEFF 		bl	chPoolFree
ARM GAS  /var/folders/vd/czx34qs52cd_f3nb04sxmghc0000gn/T//cch4Oj73.s 			page 23


 1255              	.LVL130:
 1256              	.LBE154:
 1257              	.LBE156:
 1258              	.LBE159:
 1259              	.LBE162:
 1260              		.loc 2 549 0
 1261 0038 0348     		ldr	r0, .L122
 1262              		.loc 2 550 0
 1263 003a BDE81040 		pop	{r4, lr}
 1264              		.cfi_remember_state
 1265              		.cfi_restore 14
 1266              		.cfi_restore 4
 1267              		.cfi_def_cfa_offset 0
 1268              	.LVL131:
 1269              		.loc 2 549 0
 1270 003e FFF7FEBF 		b	chMtxUnlock
 1271              	.LVL132:
 1272              	.L121:
 1273              		.cfi_restore_state
 1274              	.LBB163:
 1275              	.LBB160:
 1276              	.LBB157:
 1277              	.LBB155:
 1278              	.LBB153:
 1279              	.LBB151:
 1280              		.loc 2 112 0
 1281 0042 0B68     		ldr	r3, [r1]
 1282 0044 1360     		str	r3, [r2]
 1283 0046 F4E7     		b	.L115
 1284              	.L123:
 1285              		.align	2
 1286              	.L122:
 1287 0048 00000000 		.word	.LANCHOR0
 1288 004c 28000000 		.word	.LANCHOR0+40
 1289 0050 2C000000 		.word	.LANCHOR0+44
 1290              	.LBE151:
 1291              	.LBE153:
 1292              	.LBE155:
 1293              	.LBE157:
 1294              	.LBE160:
 1295              	.LBE163:
 1296              		.cfi_endproc
 1297              	.LFE298:
 1298              		.size	chFactoryReleaseSemaphore, .-chFactoryReleaseSemaphore
 1299              		.section	.text.chFactoryCreateMailbox,"ax",%progbits
 1300              		.align	1
 1301              		.p2align 4,,15
 1302              		.global	chFactoryCreateMailbox
 1303              		.syntax unified
 1304              		.thumb
 1305              		.thumb_func
 1306              		.fpu softvfp
 1307              		.type	chFactoryCreateMailbox, %function
 1308              	chFactoryCreateMailbox:
 1309              	.LFB299:
 1310              		.loc 2 569 0
 1311              		.cfi_startproc
ARM GAS  /var/folders/vd/czx34qs52cd_f3nb04sxmghc0000gn/T//cch4Oj73.s 			page 24


 1312              		@ args = 0, pretend = 0, frame = 0
 1313              		@ frame_needed = 0, uses_anonymous_args = 0
 1314              	.LVL133:
 1315 0000 38B5     		push	{r3, r4, r5, lr}
 1316              		.cfi_def_cfa_offset 16
 1317              		.cfi_offset 3, -16
 1318              		.cfi_offset 4, -12
 1319              		.cfi_offset 5, -8
 1320              		.cfi_offset 14, -4
 1321              		.loc 2 569 0
 1322 0002 0446     		mov	r4, r0
 1323 0004 0D46     		mov	r5, r1
 1324              		.loc 2 572 0
 1325 0006 0B48     		ldr	r0, .L130
 1326              	.LVL134:
 1327 0008 FFF7FEFF 		bl	chMtxLock
 1328              	.LVL135:
 1329              		.loc 2 574 0
 1330 000c 05F10E02 		add	r2, r5, #14
 1331 0010 2046     		mov	r0, r4
 1332 0012 9200     		lsls	r2, r2, #2
 1333 0014 0849     		ldr	r1, .L130+4
 1334 0016 FFF7FEFF 		bl	dyn_create_object_heap
 1335              	.LVL136:
 1336              		.loc 2 578 0
 1337 001a 0446     		mov	r4, r0
 1338              	.LVL137:
 1339 001c 28B1     		cbz	r0, .L125
 1340              		.loc 2 580 0
 1341 001e 00F13801 		add	r1, r0, #56
 1342 0022 2A46     		mov	r2, r5
 1343 0024 1030     		adds	r0, r0, #16
 1344              	.LVL138:
 1345 0026 FFF7FEFF 		bl	chMBObjectInit
 1346              	.LVL139:
 1347              	.L125:
 1348              		.loc 2 583 0
 1349 002a 0248     		ldr	r0, .L130
 1350 002c FFF7FEFF 		bl	chMtxUnlock
 1351              	.LVL140:
 1352              		.loc 2 586 0
 1353 0030 2046     		mov	r0, r4
 1354 0032 38BD     		pop	{r3, r4, r5, pc}
 1355              	.LVL141:
 1356              	.L131:
 1357              		.align	2
 1358              	.L130:
 1359 0034 00000000 		.word	.LANCHOR0
 1360 0038 3C000000 		.word	.LANCHOR0+60
 1361              		.cfi_endproc
 1362              	.LFE299:
 1363              		.size	chFactoryCreateMailbox, .-chFactoryCreateMailbox
 1364              		.section	.text.chFactoryFindMailbox,"ax",%progbits
 1365              		.align	1
 1366              		.p2align 4,,15
 1367              		.global	chFactoryFindMailbox
 1368              		.syntax unified
ARM GAS  /var/folders/vd/czx34qs52cd_f3nb04sxmghc0000gn/T//cch4Oj73.s 			page 25


 1369              		.thumb
 1370              		.thumb_func
 1371              		.fpu softvfp
 1372              		.type	chFactoryFindMailbox, %function
 1373              	chFactoryFindMailbox:
 1374              	.LFB300:
 1375              		.loc 2 601 0
 1376              		.cfi_startproc
 1377              		@ args = 0, pretend = 0, frame = 0
 1378              		@ frame_needed = 0, uses_anonymous_args = 0
 1379              	.LVL142:
 1380 0000 38B5     		push	{r3, r4, r5, lr}
 1381              		.cfi_def_cfa_offset 16
 1382              		.cfi_offset 3, -16
 1383              		.cfi_offset 4, -12
 1384              		.cfi_offset 5, -8
 1385              		.cfi_offset 14, -4
 1386              		.loc 2 604 0
 1387 0002 084C     		ldr	r4, .L134
 1388              		.loc 2 601 0
 1389 0004 0546     		mov	r5, r0
 1390              		.loc 2 604 0
 1391 0006 2046     		mov	r0, r4
 1392              	.LVL143:
 1393 0008 FFF7FEFF 		bl	chMtxLock
 1394              	.LVL144:
 1395              		.loc 2 606 0
 1396 000c 04F13C01 		add	r1, r4, #60
 1397 0010 2846     		mov	r0, r5
 1398 0012 FFF7FEFF 		bl	dyn_find_object
 1399              	.LVL145:
 1400 0016 0546     		mov	r5, r0
 1401              	.LVL146:
 1402              		.loc 2 608 0
 1403 0018 2046     		mov	r0, r4
 1404              	.LVL147:
 1405 001a FFF7FEFF 		bl	chMtxUnlock
 1406              	.LVL148:
 1407              		.loc 2 611 0
 1408 001e 2846     		mov	r0, r5
 1409 0020 38BD     		pop	{r3, r4, r5, pc}
 1410              	.LVL149:
 1411              	.L135:
 1412 0022 00BF     		.align	2
 1413              	.L134:
 1414 0024 00000000 		.word	.LANCHOR0
 1415              		.cfi_endproc
 1416              	.LFE300:
 1417              		.size	chFactoryFindMailbox, .-chFactoryFindMailbox
 1418              		.section	.text.chFactoryReleaseMailbox,"ax",%progbits
 1419              		.align	1
 1420              		.p2align 4,,15
 1421              		.global	chFactoryReleaseMailbox
 1422              		.syntax unified
 1423              		.thumb
 1424              		.thumb_func
 1425              		.fpu softvfp
ARM GAS  /var/folders/vd/czx34qs52cd_f3nb04sxmghc0000gn/T//cch4Oj73.s 			page 26


 1426              		.type	chFactoryReleaseMailbox, %function
 1427              	chFactoryReleaseMailbox:
 1428              	.LFB301:
 1429              		.loc 2 623 0
 1430              		.cfi_startproc
 1431              		@ args = 0, pretend = 0, frame = 0
 1432              		@ frame_needed = 0, uses_anonymous_args = 0
 1433              	.LVL150:
 1434 0000 10B5     		push	{r4, lr}
 1435              		.cfi_def_cfa_offset 8
 1436              		.cfi_offset 4, -8
 1437              		.cfi_offset 14, -4
 1438              		.loc 2 623 0
 1439 0002 0446     		mov	r4, r0
 1440              		.loc 2 625 0
 1441 0004 0748     		ldr	r0, .L139
 1442              	.LVL151:
 1443 0006 FFF7FEFF 		bl	chMtxLock
 1444              	.LVL152:
 1445              	.LBB164:
 1446              	.LBB165:
 1447              		.loc 2 164 0
 1448 000a 6368     		ldr	r3, [r4, #4]
 1449 000c 013B     		subs	r3, r3, #1
 1450 000e 6360     		str	r3, [r4, #4]
 1451              		.loc 2 165 0
 1452 0010 1BB9     		cbnz	r3, .L137
 1453 0012 2046     		mov	r0, r4
 1454 0014 0449     		ldr	r1, .L139+4
 1455 0016 FFF7FEFF 		bl	dyn_release_object_heap.part.3
 1456              	.LVL153:
 1457              	.L137:
 1458              	.LBE165:
 1459              	.LBE164:
 1460              		.loc 2 629 0
 1461 001a 0248     		ldr	r0, .L139
 1462              		.loc 2 630 0
 1463 001c BDE81040 		pop	{r4, lr}
 1464              		.cfi_restore 14
 1465              		.cfi_restore 4
 1466              		.cfi_def_cfa_offset 0
 1467              	.LVL154:
 1468              		.loc 2 629 0
 1469 0020 FFF7FEBF 		b	chMtxUnlock
 1470              	.LVL155:
 1471              	.L140:
 1472              		.align	2
 1473              	.L139:
 1474 0024 00000000 		.word	.LANCHOR0
 1475 0028 3C000000 		.word	.LANCHOR0+60
 1476              		.cfi_endproc
 1477              	.LFE301:
 1478              		.size	chFactoryReleaseMailbox, .-chFactoryReleaseMailbox
 1479              		.section	.text.chFactoryCreateObjectsFIFO,"ax",%progbits
 1480              		.align	1
 1481              		.p2align 4,,15
 1482              		.global	chFactoryCreateObjectsFIFO
ARM GAS  /var/folders/vd/czx34qs52cd_f3nb04sxmghc0000gn/T//cch4Oj73.s 			page 27


 1483              		.syntax unified
 1484              		.thumb
 1485              		.thumb_func
 1486              		.fpu softvfp
 1487              		.type	chFactoryCreateObjectsFIFO, %function
 1488              	chFactoryCreateObjectsFIFO:
 1489              	.LFB302:
 1490              		.loc 2 656 0
 1491              		.cfi_startproc
 1492              		@ args = 0, pretend = 0, frame = 0
 1493              		@ frame_needed = 0, uses_anonymous_args = 0
 1494              	.LVL156:
 1495 0000 2DE9F843 		push	{r3, r4, r5, r6, r7, r8, r9, lr}
 1496              		.cfi_def_cfa_offset 32
 1497              		.cfi_offset 3, -32
 1498              		.cfi_offset 4, -28
 1499              		.cfi_offset 5, -24
 1500              		.cfi_offset 6, -20
 1501              		.cfi_offset 7, -16
 1502              		.cfi_offset 8, -12
 1503              		.cfi_offset 9, -8
 1504              		.cfi_offset 14, -4
 1505              		.loc 2 656 0
 1506 0004 1646     		mov	r6, r2
 1507              		.loc 2 663 0
 1508 0006 06F11504 		add	r4, r6, #21
 1509              		.loc 2 656 0
 1510 000a 0546     		mov	r5, r0
 1511 000c 8846     		mov	r8, r1
 1512              		.loc 2 659 0
 1513 000e 1348     		ldr	r0, .L147
 1514              	.LVL157:
 1515              		.loc 2 663 0
 1516 0010 A400     		lsls	r4, r4, #2
 1517              		.loc 2 656 0
 1518 0012 9946     		mov	r9, r3
 1519              		.loc 2 659 0
 1520 0014 FFF7FEFF 		bl	chMtxLock
 1521              	.LVL158:
 1522              		.loc 2 661 0
 1523 0018 2846     		mov	r0, r5
 1524 001a 08FB0642 		mla	r2, r8, r6, r4
 1525 001e 1049     		ldr	r1, .L147+4
 1526 0020 FFF7FEFF 		bl	dyn_create_object_heap
 1527              	.LVL159:
 1528              		.loc 2 666 0
 1529 0024 0546     		mov	r5, r0
 1530              	.LVL160:
 1531 0026 98B1     		cbz	r0, .L142
 1532              	.LBB168:
 1533              	.LBB169:
 1534              		.file 5 "../os/common/oslib/include/chfifo.h"
 1535              		.loc 5 136 0
 1536 0028 00F11007 		add	r7, r0, #16
 1537              	.LBE169:
 1538              	.LBE168:
 1539              		.loc 2 669 0
ARM GAS  /var/folders/vd/czx34qs52cd_f3nb04sxmghc0000gn/T//cch4Oj73.s 			page 28


 1540 002c 0444     		add	r4, r4, r0
 1541              	.LVL161:
 1542              	.LBB171:
 1543              	.LBB170:
 1544              		.loc 5 136 0
 1545 002e 4A46     		mov	r2, r9
 1546 0030 4146     		mov	r1, r8
 1547 0032 3846     		mov	r0, r7
 1548              	.LVL162:
 1549 0034 FFF7FEFF 		bl	chGuardedPoolObjectInitAligned
 1550              	.LVL163:
 1551              		.loc 5 137 0
 1552 0038 3246     		mov	r2, r6
 1553 003a 2146     		mov	r1, r4
 1554 003c 3846     		mov	r0, r7
 1555 003e FFF7FEFF 		bl	chGuardedPoolLoadArray
 1556              	.LVL164:
 1557              		.loc 5 138 0
 1558 0042 3246     		mov	r2, r6
 1559 0044 05F15401 		add	r1, r5, #84
 1560              	.LVL165:
 1561 0048 05F12C00 		add	r0, r5, #44
 1562 004c FFF7FEFF 		bl	chMBObjectInit
 1563              	.LVL166:
 1564              	.L142:
 1565              	.LBE170:
 1566              	.LBE171:
 1567              		.loc 2 672 0
 1568 0050 0248     		ldr	r0, .L147
 1569 0052 FFF7FEFF 		bl	chMtxUnlock
 1570              	.LVL167:
 1571              		.loc 2 675 0
 1572 0056 2846     		mov	r0, r5
 1573 0058 BDE8F883 		pop	{r3, r4, r5, r6, r7, r8, r9, pc}
 1574              	.LVL168:
 1575              	.L148:
 1576              		.align	2
 1577              	.L147:
 1578 005c 00000000 		.word	.LANCHOR0
 1579 0060 40000000 		.word	.LANCHOR0+64
 1580              		.cfi_endproc
 1581              	.LFE302:
 1582              		.size	chFactoryCreateObjectsFIFO, .-chFactoryCreateObjectsFIFO
 1583              		.section	.text.chFactoryFindObjectsFIFO,"ax",%progbits
 1584              		.align	1
 1585              		.p2align 4,,15
 1586              		.global	chFactoryFindObjectsFIFO
 1587              		.syntax unified
 1588              		.thumb
 1589              		.thumb_func
 1590              		.fpu softvfp
 1591              		.type	chFactoryFindObjectsFIFO, %function
 1592              	chFactoryFindObjectsFIFO:
 1593              	.LFB303:
 1594              		.loc 2 691 0
 1595              		.cfi_startproc
 1596              		@ args = 0, pretend = 0, frame = 0
ARM GAS  /var/folders/vd/czx34qs52cd_f3nb04sxmghc0000gn/T//cch4Oj73.s 			page 29


 1597              		@ frame_needed = 0, uses_anonymous_args = 0
 1598              	.LVL169:
 1599 0000 38B5     		push	{r3, r4, r5, lr}
 1600              		.cfi_def_cfa_offset 16
 1601              		.cfi_offset 3, -16
 1602              		.cfi_offset 4, -12
 1603              		.cfi_offset 5, -8
 1604              		.cfi_offset 14, -4
 1605              		.loc 2 694 0
 1606 0002 084C     		ldr	r4, .L151
 1607              		.loc 2 691 0
 1608 0004 0546     		mov	r5, r0
 1609              		.loc 2 694 0
 1610 0006 2046     		mov	r0, r4
 1611              	.LVL170:
 1612 0008 FFF7FEFF 		bl	chMtxLock
 1613              	.LVL171:
 1614              		.loc 2 696 0
 1615 000c 04F14001 		add	r1, r4, #64
 1616 0010 2846     		mov	r0, r5
 1617 0012 FFF7FEFF 		bl	dyn_find_object
 1618              	.LVL172:
 1619 0016 0546     		mov	r5, r0
 1620              	.LVL173:
 1621              		.loc 2 698 0
 1622 0018 2046     		mov	r0, r4
 1623              	.LVL174:
 1624 001a FFF7FEFF 		bl	chMtxUnlock
 1625              	.LVL175:
 1626              		.loc 2 701 0
 1627 001e 2846     		mov	r0, r5
 1628 0020 38BD     		pop	{r3, r4, r5, pc}
 1629              	.LVL176:
 1630              	.L152:
 1631 0022 00BF     		.align	2
 1632              	.L151:
 1633 0024 00000000 		.word	.LANCHOR0
 1634              		.cfi_endproc
 1635              	.LFE303:
 1636              		.size	chFactoryFindObjectsFIFO, .-chFactoryFindObjectsFIFO
 1637              		.section	.text.chFactoryReleaseObjectsFIFO,"ax",%progbits
 1638              		.align	1
 1639              		.p2align 4,,15
 1640              		.global	chFactoryReleaseObjectsFIFO
 1641              		.syntax unified
 1642              		.thumb
 1643              		.thumb_func
 1644              		.fpu softvfp
 1645              		.type	chFactoryReleaseObjectsFIFO, %function
 1646              	chFactoryReleaseObjectsFIFO:
 1647              	.LFB304:
 1648              		.loc 2 713 0
 1649              		.cfi_startproc
 1650              		@ args = 0, pretend = 0, frame = 0
 1651              		@ frame_needed = 0, uses_anonymous_args = 0
 1652              	.LVL177:
 1653 0000 10B5     		push	{r4, lr}
ARM GAS  /var/folders/vd/czx34qs52cd_f3nb04sxmghc0000gn/T//cch4Oj73.s 			page 30


 1654              		.cfi_def_cfa_offset 8
 1655              		.cfi_offset 4, -8
 1656              		.cfi_offset 14, -4
 1657              		.loc 2 713 0
 1658 0002 0446     		mov	r4, r0
 1659              		.loc 2 715 0
 1660 0004 0748     		ldr	r0, .L156
 1661              	.LVL178:
 1662 0006 FFF7FEFF 		bl	chMtxLock
 1663              	.LVL179:
 1664              	.LBB172:
 1665              	.LBB173:
 1666              		.loc 2 164 0
 1667 000a 6368     		ldr	r3, [r4, #4]
 1668 000c 013B     		subs	r3, r3, #1
 1669 000e 6360     		str	r3, [r4, #4]
 1670              		.loc 2 165 0
 1671 0010 1BB9     		cbnz	r3, .L154
 1672 0012 2046     		mov	r0, r4
 1673 0014 0449     		ldr	r1, .L156+4
 1674 0016 FFF7FEFF 		bl	dyn_release_object_heap.part.3
 1675              	.LVL180:
 1676              	.L154:
 1677              	.LBE173:
 1678              	.LBE172:
 1679              		.loc 2 719 0
 1680 001a 0248     		ldr	r0, .L156
 1681              		.loc 2 720 0
 1682 001c BDE81040 		pop	{r4, lr}
 1683              		.cfi_restore 14
 1684              		.cfi_restore 4
 1685              		.cfi_def_cfa_offset 0
 1686              	.LVL181:
 1687              		.loc 2 719 0
 1688 0020 FFF7FEBF 		b	chMtxUnlock
 1689              	.LVL182:
 1690              	.L157:
 1691              		.align	2
 1692              	.L156:
 1693 0024 00000000 		.word	.LANCHOR0
 1694 0028 40000000 		.word	.LANCHOR0+64
 1695              		.cfi_endproc
 1696              	.LFE304:
 1697              		.size	chFactoryReleaseObjectsFIFO, .-chFactoryReleaseObjectsFIFO
 1698              		.global	ch_factory
 1699              		.section	.bss.ch_factory,"aw",%nobits
 1700              		.align	2
 1701              		.set	.LANCHOR0,. + 0
 1702              		.type	ch_factory, %object
 1703              		.size	ch_factory, 68
 1704              	ch_factory:
 1705 0000 00000000 		.space	68
 1705      00000000 
 1705      00000000 
 1705      00000000 
 1705      00000000 
 1706              		.text
ARM GAS  /var/folders/vd/czx34qs52cd_f3nb04sxmghc0000gn/T//cch4Oj73.s 			page 31


 1707              	.Letext0:
 1708              		.file 6 "/usr/local/Cellar/gcc-arm-none-eabi/20171218/lib/gcc/arm-none-eabi/7.2.1/include/stddef.h
 1709              		.file 7 "/usr/local/Cellar/gcc-arm-none-eabi/20171218/arm-none-eabi/include/machine/_default_types
 1710              		.file 8 "/usr/local/Cellar/gcc-arm-none-eabi/20171218/arm-none-eabi/include/sys/lock.h"
 1711              		.file 9 "/usr/local/Cellar/gcc-arm-none-eabi/20171218/arm-none-eabi/include/sys/_types.h"
 1712              		.file 10 "/usr/local/Cellar/gcc-arm-none-eabi/20171218/arm-none-eabi/include/sys/reent.h"
 1713              		.file 11 "/usr/local/Cellar/gcc-arm-none-eabi/20171218/arm-none-eabi/include/sys/_stdint.h"
 1714              		.file 12 "../os/common/ports/ARMCMx/compilers/GCC/chtypes.h"
 1715              		.file 13 "../os/rt/include/chsystypes.h"
 1716              		.file 14 "../os/rt/include/chschd.h"
 1717              		.file 15 "../os/rt/include/chtime.h"
 1718              		.file 16 "../os/common/ext/ARM/CMSIS/Core/Include/core_cm4.h"
 1719              		.file 17 "../os/common/ext/ST/STM32F4xx/system_stm32f4xx.h"
 1720              		.file 18 "../os/common/ports/ARMCMx/chcore.h"
 1721              		.file 19 "../os/common/ports/ARMCMx/chcore_v7m.h"
 1722              		.file 20 "../os/rt/include/chtm.h"
 1723              		.file 21 "../os/rt/include/chsem.h"
 1724              		.file 22 "../os/rt/include/chmtx.h"
 1725              		.file 23 "../os/rt/include/chsys.h"
 1726              		.file 24 "../os/rt/include/chregistry.h"
 1727              		.file 25 "../os/common/oslib/include/chmboxes.h"
 1728              		.file 26 "../os/common/oslib/include/chfactory.h"
 1729              		.file 27 "/usr/local/Cellar/gcc-arm-none-eabi/20171218/arm-none-eabi/include/string.h"
 1730              		.file 28 "<built-in>"