ARM GAS  /var/folders/vd/czx34qs52cd_f3nb04sxmghc0000gn/T//ccwRRx6X.s 			page 1


   1              		.cpu cortex-m4
   2              		.eabi_attribute 20, 1
   3              		.eabi_attribute 21, 1
   4              		.eabi_attribute 23, 3
   5              		.eabi_attribute 24, 1
   6              		.eabi_attribute 25, 1
   7              		.eabi_attribute 26, 1
   8              		.eabi_attribute 30, 2
   9              		.eabi_attribute 34, 1
  10              		.eabi_attribute 18, 4
  11              		.file	"chmboxes.c"
  12              		.text
  13              	.Ltext0:
  14              		.cfi_sections	.debug_frame
  15              		.section	.text.chMBObjectInit,"ax",%progbits
  16              		.align	1
  17              		.p2align 4,,15
  18              		.global	chMBObjectInit
  19              		.syntax unified
  20              		.thumb
  21              		.thumb_func
  22              		.fpu softvfp
  23              		.type	chMBObjectInit, %function
  24              	chMBObjectInit:
  25              	.LFB280:
  26              		.file 1 "../os/common/oslib/src/chmboxes.c"
  27              		.loc 1 87 0
  28              		.cfi_startproc
  29              		@ args = 0, pretend = 0, frame = 0
  30              		@ frame_needed = 0, uses_anonymous_args = 0
  31              		@ link register save eliminated.
  32              	.LVL0:
  33 0000 30B4     		push	{r4, r5}
  34              		.cfi_def_cfa_offset 8
  35              		.cfi_offset 4, -8
  36              		.cfi_offset 5, -4
  37              		.loc 1 95 0
  38 0002 0023     		movs	r3, #0
  39              		.loc 1 97 0
  40 0004 00F11805 		add	r5, r0, #24
  41              	.LVL1:
  42              		.loc 1 98 0
  43 0008 00F12004 		add	r4, r0, #32
  44              		.loc 1 94 0
  45 000c 01EB8202 		add	r2, r1, r2, lsl #2
  46              	.LVL2:
  47              	.LBB88:
  48              	.LBB89:
  49              	.LBB90:
  50              		.file 2 "../os/rt/include/chschd.h"
  51              		.loc 2 540 0
  52 0010 C0E90655 		strd	r5, r5, [r0, #24]
  53              	.LVL3:
  54              	.LBE90:
  55              	.LBE89:
  56              	.LBE88:
  57              	.LBB91:
ARM GAS  /var/folders/vd/czx34qs52cd_f3nb04sxmghc0000gn/T//ccwRRx6X.s 			page 2


  58              	.LBB92:
  59              	.LBB93:
  60 0014 C0E90844 		strd	r4, r4, [r0, #32]
  61              	.LVL4:
  62              	.LBE93:
  63              	.LBE92:
  64              	.LBE91:
  65              		.loc 1 91 0
  66 0018 C0E90012 		strd	r1, r2, [r0]
  67              		.loc 1 93 0
  68 001c C0E90211 		strd	r1, r1, [r0, #8]
  69              		.loc 1 95 0
  70 0020 0361     		str	r3, [r0, #16]
  71              		.loc 1 96 0
  72 0022 0375     		strb	r3, [r0, #20]
  73              		.loc 1 99 0
  74 0024 30BC     		pop	{r4, r5}
  75              		.cfi_restore 5
  76              		.cfi_restore 4
  77              		.cfi_def_cfa_offset 0
  78 0026 7047     		bx	lr
  79              		.cfi_endproc
  80              	.LFE280:
  81              		.size	chMBObjectInit, .-chMBObjectInit
  82              		.section	.text.chMBResetI,"ax",%progbits
  83              		.align	1
  84              		.p2align 4,,15
  85              		.global	chMBResetI
  86              		.syntax unified
  87              		.thumb
  88              		.thumb_func
  89              		.fpu softvfp
  90              		.type	chMBResetI, %function
  91              	chMBResetI:
  92              	.LFB282:
  93              		.loc 1 133 0
  94              		.cfi_startproc
  95              		@ args = 0, pretend = 0, frame = 0
  96              		@ frame_needed = 0, uses_anonymous_args = 0
  97              	.LVL5:
  98 0000 10B5     		push	{r4, lr}
  99              		.cfi_def_cfa_offset 8
 100              		.cfi_offset 4, -8
 101              		.cfi_offset 14, -4
 102              		.loc 1 138 0
 103 0002 0368     		ldr	r3, [r0]
 104              		.loc 1 140 0
 105 0004 0021     		movs	r1, #0
 106              		.loc 1 141 0
 107 0006 0122     		movs	r2, #1
 108              		.loc 1 140 0
 109 0008 0161     		str	r1, [r0, #16]
 110              		.loc 1 133 0
 111 000a 0446     		mov	r4, r0
 112              		.loc 1 141 0
 113 000c 0275     		strb	r2, [r0, #20]
 114              		.loc 1 139 0
ARM GAS  /var/folders/vd/czx34qs52cd_f3nb04sxmghc0000gn/T//ccwRRx6X.s 			page 3


 115 000e C0E90233 		strd	r3, r3, [r0, #8]
 116              		.loc 1 142 0
 117 0012 6FF00101 		mvn	r1, #1
 118 0016 1830     		adds	r0, r0, #24
 119              	.LVL6:
 120 0018 FFF7FEFF 		bl	chThdDequeueAllI
 121              	.LVL7:
 122              		.loc 1 143 0
 123 001c 04F12000 		add	r0, r4, #32
 124 0020 6FF00101 		mvn	r1, #1
 125              		.loc 1 144 0
 126 0024 BDE81040 		pop	{r4, lr}
 127              		.cfi_restore 14
 128              		.cfi_restore 4
 129              		.cfi_def_cfa_offset 0
 130              	.LVL8:
 131              		.loc 1 143 0
 132 0028 FFF7FEBF 		b	chThdDequeueAllI
 133              	.LVL9:
 134              		.cfi_endproc
 135              	.LFE282:
 136              		.size	chMBResetI, .-chMBResetI
 137              		.section	.text.chMBReset,"ax",%progbits
 138              		.align	1
 139              		.p2align 4,,15
 140              		.global	chMBReset
 141              		.syntax unified
 142              		.thumb
 143              		.thumb_func
 144              		.fpu softvfp
 145              		.type	chMBReset, %function
 146              	chMBReset:
 147              	.LFB281:
 148              		.loc 1 113 0
 149              		.cfi_startproc
 150              		@ args = 0, pretend = 0, frame = 0
 151              		@ frame_needed = 0, uses_anonymous_args = 0
 152              	.LVL10:
 153 0000 08B5     		push	{r3, lr}
 154              		.cfi_def_cfa_offset 8
 155              		.cfi_offset 3, -8
 156              		.cfi_offset 14, -4
 157              	.LBB94:
 158              	.LBB95:
 159              	.LBB96:
 160              	.LBB97:
 161              		.file 3 "../os/common/ext/ARM/CMSIS/Core/Include/cmsis_gcc.h"
 162              		.loc 3 490 0
 163 0002 2023     		movs	r3, #32
 164              		.syntax unified
 165              	@ 490 "../os/common/ext/ARM/CMSIS/Core/Include/cmsis_gcc.h" 1
 166 0004 83F31188 		MSR basepri, r3
 167              	@ 0 "" 2
 168              	.LVL11:
 169              		.thumb
 170              		.syntax unified
 171              	.LBE97:
ARM GAS  /var/folders/vd/czx34qs52cd_f3nb04sxmghc0000gn/T//ccwRRx6X.s 			page 4


 172              	.LBE96:
 173              	.LBE95:
 174              	.LBE94:
 175              		.loc 1 116 0
 176 0008 FFF7FEFF 		bl	chMBResetI
 177              	.LVL12:
 178              		.loc 1 117 0
 179 000c FFF7FEFF 		bl	chSchRescheduleS
 180              	.LVL13:
 181              	.LBB98:
 182              	.LBB99:
 183              	.LBB100:
 184              	.LBB101:
 185              	.LBB102:
 186              		.loc 3 490 0
 187 0010 0023     		movs	r3, #0
 188              		.syntax unified
 189              	@ 490 "../os/common/ext/ARM/CMSIS/Core/Include/cmsis_gcc.h" 1
 190 0012 83F31188 		MSR basepri, r3
 191              	@ 0 "" 2
 192              	.LVL14:
 193              		.thumb
 194              		.syntax unified
 195              	.LBE102:
 196              	.LBE101:
 197              	.LBE100:
 198              	.LBE99:
 199              	.LBE98:
 200              		.loc 1 119 0
 201 0016 08BD     		pop	{r3, pc}
 202              		.cfi_endproc
 203              	.LFE281:
 204              		.size	chMBReset, .-chMBReset
 205              		.section	.text.chMBPostTimeoutS,"ax",%progbits
 206              		.align	1
 207              		.p2align 4,,15
 208              		.global	chMBPostTimeoutS
 209              		.syntax unified
 210              		.thumb
 211              		.thumb_func
 212              		.fpu softvfp
 213              		.type	chMBPostTimeoutS, %function
 214              	chMBPostTimeoutS:
 215              	.LFB284:
 216              		.loc 1 194 0
 217              		.cfi_startproc
 218              		@ args = 0, pretend = 0, frame = 0
 219              		@ frame_needed = 0, uses_anonymous_args = 0
 220              	.LVL15:
 221 0000 2DE9F041 		push	{r4, r5, r6, r7, r8, lr}
 222              		.cfi_def_cfa_offset 24
 223              		.cfi_offset 4, -24
 224              		.cfi_offset 5, -20
 225              		.cfi_offset 6, -16
 226              		.cfi_offset 7, -12
 227              		.cfi_offset 8, -8
 228              		.cfi_offset 14, -4
ARM GAS  /var/folders/vd/czx34qs52cd_f3nb04sxmghc0000gn/T//ccwRRx6X.s 			page 5


 229              		.loc 1 194 0
 230 0004 0446     		mov	r4, r0
 231 0006 8846     		mov	r8, r1
 232 0008 1646     		mov	r6, r2
 233              		.loc 1 222 0
 234 000a 00F11805 		add	r5, r0, #24
 235 000e 0AE0     		b	.L12
 236              	.LVL16:
 237              	.L18:
 238 0010 D4E90072 		ldrd	r7, r2, [r4]
 239              	.LVL17:
 240 0014 2369     		ldr	r3, [r4, #16]
 241              	.LVL18:
 242              	.LBB103:
 243              	.LBB104:
 244              	.LBB105:
 245              		.file 4 "../os/common/oslib/include/chmboxes.h"
 246              		.loc 4 144 0
 247 0016 A2EB070E 		sub	lr, r2, r7
 248              	.LBE105:
 249              	.LBE104:
 250              	.LBE103:
 251              		.loc 1 207 0
 252 001a B3EBAE0F 		cmp	r3, lr, asr #2
 253 001e 0BD1     		bne	.L17
 254              		.loc 1 222 0
 255 0020 FFF7FEFF 		bl	chThdEnqueueTimeoutS
 256              	.LVL19:
 257              		.loc 1 223 0
 258 0024 30B9     		cbnz	r0, .L8
 259              	.LVL20:
 260              	.L12:
 261              		.loc 1 202 0
 262 0026 237D     		ldrb	r3, [r4, #20]	@ zero_extendqisi2
 263              		.loc 1 222 0
 264 0028 3146     		mov	r1, r6
 265 002a 2846     		mov	r0, r5
 266              		.loc 1 202 0
 267 002c 002B     		cmp	r3, #0
 268 002e EFD0     		beq	.L18
 269              	.LVL21:
 270              		.loc 1 203 0
 271 0030 6FF00100 		mvn	r0, #1
 272              	.LVL22:
 273              	.L8:
 274              		.loc 1 226 0
 275 0034 BDE8F081 		pop	{r4, r5, r6, r7, r8, pc}
 276              	.LVL23:
 277              	.L17:
 278              		.loc 1 208 0
 279 0038 A068     		ldr	r0, [r4, #8]
 280 003a 011D     		adds	r1, r0, #4
 281              	.LVL24:
 282              		.loc 1 209 0
 283 003c 9142     		cmp	r1, r2
 284              		.loc 1 212 0
 285 003e 03F10103 		add	r3, r3, #1
ARM GAS  /var/folders/vd/czx34qs52cd_f3nb04sxmghc0000gn/T//ccwRRx6X.s 			page 6


 286              		.loc 1 208 0
 287 0042 A160     		str	r1, [r4, #8]
 288 0044 C0F80080 		str	r8, [r0]
 289              		.loc 1 215 0
 290 0048 4FF00001 		mov	r1, #0
 291 004c 04F12000 		add	r0, r4, #32
 292              		.loc 1 210 0
 293 0050 28BF     		it	cs
 294 0052 A760     		strcs	r7, [r4, #8]
 295              		.loc 1 212 0
 296 0054 2361     		str	r3, [r4, #16]
 297              		.loc 1 215 0
 298 0056 FFF7FEFF 		bl	chThdDequeueNextI
 299              	.LVL25:
 300              		.loc 1 216 0
 301 005a FFF7FEFF 		bl	chSchRescheduleS
 302              	.LVL26:
 303              		.loc 1 218 0
 304 005e 0020     		movs	r0, #0
 305              		.loc 1 226 0
 306 0060 BDE8F081 		pop	{r4, r5, r6, r7, r8, pc}
 307              		.cfi_endproc
 308              	.LFE284:
 309              		.size	chMBPostTimeoutS, .-chMBPostTimeoutS
 310              		.section	.text.chMBPostTimeout,"ax",%progbits
 311              		.align	1
 312              		.p2align 4,,15
 313              		.global	chMBPostTimeout
 314              		.syntax unified
 315              		.thumb
 316              		.thumb_func
 317              		.fpu softvfp
 318              		.type	chMBPostTimeout, %function
 319              	chMBPostTimeout:
 320              	.LFB283:
 321              		.loc 1 165 0
 322              		.cfi_startproc
 323              		@ args = 0, pretend = 0, frame = 0
 324              		@ frame_needed = 0, uses_anonymous_args = 0
 325              	.LVL27:
 326 0000 08B5     		push	{r3, lr}
 327              		.cfi_def_cfa_offset 8
 328              		.cfi_offset 3, -8
 329              		.cfi_offset 14, -4
 330              	.LBB106:
 331              	.LBB107:
 332              	.LBB108:
 333              	.LBB109:
 334              		.loc 3 490 0
 335 0002 2023     		movs	r3, #32
 336              		.syntax unified
 337              	@ 490 "../os/common/ext/ARM/CMSIS/Core/Include/cmsis_gcc.h" 1
 338 0004 83F31188 		MSR basepri, r3
 339              	@ 0 "" 2
 340              	.LVL28:
 341              		.thumb
 342              		.syntax unified
ARM GAS  /var/folders/vd/czx34qs52cd_f3nb04sxmghc0000gn/T//ccwRRx6X.s 			page 7


 343              	.LBE109:
 344              	.LBE108:
 345              	.LBE107:
 346              	.LBE106:
 347              		.loc 1 169 0
 348 0008 FFF7FEFF 		bl	chMBPostTimeoutS
 349              	.LVL29:
 350              	.LBB110:
 351              	.LBB111:
 352              	.LBB112:
 353              	.LBB113:
 354              	.LBB114:
 355              		.loc 3 490 0
 356 000c 0023     		movs	r3, #0
 357              		.syntax unified
 358              	@ 490 "../os/common/ext/ARM/CMSIS/Core/Include/cmsis_gcc.h" 1
 359 000e 83F31188 		MSR basepri, r3
 360              	@ 0 "" 2
 361              	.LVL30:
 362              		.thumb
 363              		.syntax unified
 364              	.LBE114:
 365              	.LBE113:
 366              	.LBE112:
 367              	.LBE111:
 368              	.LBE110:
 369              		.loc 1 173 0
 370 0012 08BD     		pop	{r3, pc}
 371              		.cfi_endproc
 372              	.LFE283:
 373              		.size	chMBPostTimeout, .-chMBPostTimeout
 374              		.section	.text.chMBPostI,"ax",%progbits
 375              		.align	1
 376              		.p2align 4,,15
 377              		.global	chMBPostI
 378              		.syntax unified
 379              		.thumb
 380              		.thumb_func
 381              		.fpu softvfp
 382              		.type	chMBPostI, %function
 383              	chMBPostI:
 384              	.LFB285:
 385              		.loc 1 243 0
 386              		.cfi_startproc
 387              		@ args = 0, pretend = 0, frame = 0
 388              		@ frame_needed = 0, uses_anonymous_args = 0
 389              	.LVL31:
 390              		.loc 1 249 0
 391 0000 037D     		ldrb	r3, [r0, #20]	@ zero_extendqisi2
 392 0002 D3B9     		cbnz	r3, .L24
 393              	.LVL32:
 394              		.loc 1 243 0
 395 0004 70B5     		push	{r4, r5, r6, lr}
 396              		.cfi_def_cfa_offset 16
 397              		.cfi_offset 4, -16
 398              		.cfi_offset 5, -12
 399              		.cfi_offset 6, -8
ARM GAS  /var/folders/vd/czx34qs52cd_f3nb04sxmghc0000gn/T//ccwRRx6X.s 			page 8


 400              		.cfi_offset 14, -4
 401 0006 D0E90062 		ldrd	r6, r2, [r0]
 402              	.LVL33:
 403 000a 0369     		ldr	r3, [r0, #16]
 404              	.LVL34:
 405              	.LBB115:
 406              	.LBB116:
 407              	.LBB117:
 408              		.loc 4 144 0
 409 000c 941B     		subs	r4, r2, r6
 410              	.LBE117:
 411              	.LBE116:
 412              	.LBE115:
 413              		.loc 1 254 0
 414 000e B3EBA40F 		cmp	r3, r4, asr #2
 415 0012 15D0     		beq	.L25
 416              		.loc 1 255 0
 417 0014 8568     		ldr	r5, [r0, #8]
 418 0016 2C1D     		adds	r4, r5, #4
 419              		.loc 1 256 0
 420 0018 9442     		cmp	r4, r2
 421              		.loc 1 259 0
 422 001a 03F10103 		add	r3, r3, #1
 423              		.loc 1 255 0
 424 001e 8460     		str	r4, [r0, #8]
 425 0020 2960     		str	r1, [r5]
 426              		.loc 1 262 0
 427 0022 00F12000 		add	r0, r0, #32
 428              	.LVL35:
 429              		.loc 1 257 0
 430 0026 28BF     		it	cs
 431 0028 40F8186C 		strcs	r6, [r0, #-24]
 432              		.loc 1 259 0
 433 002c 40F8103C 		str	r3, [r0, #-16]
 434              		.loc 1 262 0
 435 0030 0021     		movs	r1, #0
 436              	.LVL36:
 437 0032 FFF7FEFF 		bl	chThdDequeueNextI
 438              	.LVL37:
 439              		.loc 1 264 0
 440 0036 0020     		movs	r0, #0
 441              		.loc 1 269 0
 442 0038 70BD     		pop	{r4, r5, r6, pc}
 443              	.LVL38:
 444              	.L24:
 445              		.cfi_def_cfa_offset 0
 446              		.cfi_restore 4
 447              		.cfi_restore 5
 448              		.cfi_restore 6
 449              		.cfi_restore 14
 450              		.loc 1 250 0
 451 003a 6FF00100 		mvn	r0, #1
 452              	.LVL39:
 453              		.loc 1 269 0
 454 003e 7047     		bx	lr
 455              	.LVL40:
 456              	.L25:
ARM GAS  /var/folders/vd/czx34qs52cd_f3nb04sxmghc0000gn/T//ccwRRx6X.s 			page 9


 457              		.cfi_def_cfa_offset 16
 458              		.cfi_offset 4, -16
 459              		.cfi_offset 5, -12
 460              		.cfi_offset 6, -8
 461              		.cfi_offset 14, -4
 462              		.loc 1 268 0
 463 0040 4FF0FF30 		mov	r0, #-1
 464              	.LVL41:
 465              		.loc 1 269 0
 466 0044 70BD     		pop	{r4, r5, r6, pc}
 467              		.cfi_endproc
 468              	.LFE285:
 469              		.size	chMBPostI, .-chMBPostI
 470 0046 00BF     		.section	.text.chMBPostAheadTimeoutS,"ax",%progbits
 471              		.align	1
 472              		.p2align 4,,15
 473              		.global	chMBPostAheadTimeoutS
 474              		.syntax unified
 475              		.thumb
 476              		.thumb_func
 477              		.fpu softvfp
 478              		.type	chMBPostAheadTimeoutS, %function
 479              	chMBPostAheadTimeoutS:
 480              	.LFB287:
 481              		.loc 1 319 0
 482              		.cfi_startproc
 483              		@ args = 0, pretend = 0, frame = 0
 484              		@ frame_needed = 0, uses_anonymous_args = 0
 485              	.LVL42:
 486 0000 2DE9F041 		push	{r4, r5, r6, r7, r8, lr}
 487              		.cfi_def_cfa_offset 24
 488              		.cfi_offset 4, -24
 489              		.cfi_offset 5, -20
 490              		.cfi_offset 6, -16
 491              		.cfi_offset 7, -12
 492              		.cfi_offset 8, -8
 493              		.cfi_offset 14, -4
 494              		.loc 1 319 0
 495 0004 0446     		mov	r4, r0
 496 0006 8846     		mov	r8, r1
 497 0008 1746     		mov	r7, r2
 498              		.loc 1 347 0
 499 000a 00F11805 		add	r5, r0, #24
 500 000e 0AE0     		b	.L35
 501              	.LVL43:
 502              	.L42:
 503 0010 D4E90026 		ldrd	r2, r6, [r4]
 504              	.LVL44:
 505 0014 2369     		ldr	r3, [r4, #16]
 506              	.LVL45:
 507              	.LBB118:
 508              	.LBB119:
 509              	.LBB120:
 510              		.loc 4 144 0
 511 0016 A6EB020E 		sub	lr, r6, r2
 512              	.LBE120:
 513              	.LBE119:
ARM GAS  /var/folders/vd/czx34qs52cd_f3nb04sxmghc0000gn/T//ccwRRx6X.s 			page 10


 514              	.LBE118:
 515              		.loc 1 332 0
 516 001a B3EBAE0F 		cmp	r3, lr, asr #2
 517 001e 0BD1     		bne	.L41
 518              		.loc 1 347 0
 519 0020 FFF7FEFF 		bl	chThdEnqueueTimeoutS
 520              	.LVL46:
 521              		.loc 1 348 0
 522 0024 30B9     		cbnz	r0, .L30
 523              	.LVL47:
 524              	.L35:
 525              		.loc 1 327 0
 526 0026 237D     		ldrb	r3, [r4, #20]	@ zero_extendqisi2
 527              		.loc 1 347 0
 528 0028 3946     		mov	r1, r7
 529 002a 2846     		mov	r0, r5
 530              		.loc 1 327 0
 531 002c 002B     		cmp	r3, #0
 532 002e EFD0     		beq	.L42
 533              	.LVL48:
 534              		.loc 1 328 0
 535 0030 6FF00100 		mvn	r0, #1
 536              	.LVL49:
 537              	.L30:
 538              		.loc 1 351 0
 539 0034 BDE8F081 		pop	{r4, r5, r6, r7, r8, pc}
 540              	.LVL50:
 541              	.L41:
 542              		.loc 1 333 0
 543 0038 E168     		ldr	r1, [r4, #12]
 544              	.LVL51:
 545 003a 0439     		subs	r1, r1, #4
 546 003c 9142     		cmp	r1, r2
 547              		.loc 1 334 0
 548 003e 38BF     		it	cc
 549 0040 311F     		subcc	r1, r6, #4
 550              		.loc 1 337 0
 551 0042 0133     		adds	r3, r3, #1
 552              		.loc 1 334 0
 553 0044 E160     		str	r1, [r4, #12]
 554              		.loc 1 340 0
 555 0046 04F12000 		add	r0, r4, #32
 556              		.loc 1 336 0
 557 004a C1F80080 		str	r8, [r1]
 558              		.loc 1 337 0
 559 004e 2361     		str	r3, [r4, #16]
 560              		.loc 1 340 0
 561 0050 0021     		movs	r1, #0
 562 0052 FFF7FEFF 		bl	chThdDequeueNextI
 563              	.LVL52:
 564              		.loc 1 341 0
 565 0056 FFF7FEFF 		bl	chSchRescheduleS
 566              	.LVL53:
 567              		.loc 1 343 0
 568 005a 0020     		movs	r0, #0
 569              		.loc 1 351 0
 570 005c BDE8F081 		pop	{r4, r5, r6, r7, r8, pc}
ARM GAS  /var/folders/vd/czx34qs52cd_f3nb04sxmghc0000gn/T//ccwRRx6X.s 			page 11


 571              		.cfi_endproc
 572              	.LFE287:
 573              		.size	chMBPostAheadTimeoutS, .-chMBPostAheadTimeoutS
 574              		.section	.text.chMBPostAheadTimeout,"ax",%progbits
 575              		.align	1
 576              		.p2align 4,,15
 577              		.global	chMBPostAheadTimeout
 578              		.syntax unified
 579              		.thumb
 580              		.thumb_func
 581              		.fpu softvfp
 582              		.type	chMBPostAheadTimeout, %function
 583              	chMBPostAheadTimeout:
 584              	.LFB286:
 585              		.loc 1 290 0
 586              		.cfi_startproc
 587              		@ args = 0, pretend = 0, frame = 0
 588              		@ frame_needed = 0, uses_anonymous_args = 0
 589              	.LVL54:
 590 0000 08B5     		push	{r3, lr}
 591              		.cfi_def_cfa_offset 8
 592              		.cfi_offset 3, -8
 593              		.cfi_offset 14, -4
 594              	.LBB121:
 595              	.LBB122:
 596              	.LBB123:
 597              	.LBB124:
 598              		.loc 3 490 0
 599 0002 2023     		movs	r3, #32
 600              		.syntax unified
 601              	@ 490 "../os/common/ext/ARM/CMSIS/Core/Include/cmsis_gcc.h" 1
 602 0004 83F31188 		MSR basepri, r3
 603              	@ 0 "" 2
 604              	.LVL55:
 605              		.thumb
 606              		.syntax unified
 607              	.LBE124:
 608              	.LBE123:
 609              	.LBE122:
 610              	.LBE121:
 611              		.loc 1 294 0
 612 0008 FFF7FEFF 		bl	chMBPostAheadTimeoutS
 613              	.LVL56:
 614              	.LBB125:
 615              	.LBB126:
 616              	.LBB127:
 617              	.LBB128:
 618              	.LBB129:
 619              		.loc 3 490 0
 620 000c 0023     		movs	r3, #0
 621              		.syntax unified
 622              	@ 490 "../os/common/ext/ARM/CMSIS/Core/Include/cmsis_gcc.h" 1
 623 000e 83F31188 		MSR basepri, r3
 624              	@ 0 "" 2
 625              	.LVL57:
 626              		.thumb
 627              		.syntax unified
ARM GAS  /var/folders/vd/czx34qs52cd_f3nb04sxmghc0000gn/T//ccwRRx6X.s 			page 12


 628              	.LBE129:
 629              	.LBE128:
 630              	.LBE127:
 631              	.LBE126:
 632              	.LBE125:
 633              		.loc 1 298 0
 634 0012 08BD     		pop	{r3, pc}
 635              		.cfi_endproc
 636              	.LFE286:
 637              		.size	chMBPostAheadTimeout, .-chMBPostAheadTimeout
 638              		.section	.text.chMBPostAheadI,"ax",%progbits
 639              		.align	1
 640              		.p2align 4,,15
 641              		.global	chMBPostAheadI
 642              		.syntax unified
 643              		.thumb
 644              		.thumb_func
 645              		.fpu softvfp
 646              		.type	chMBPostAheadI, %function
 647              	chMBPostAheadI:
 648              	.LFB288:
 649              		.loc 1 368 0
 650              		.cfi_startproc
 651              		@ args = 0, pretend = 0, frame = 0
 652              		@ frame_needed = 0, uses_anonymous_args = 0
 653              	.LVL58:
 654 0000 38B5     		push	{r3, r4, r5, lr}
 655              		.cfi_def_cfa_offset 16
 656              		.cfi_offset 3, -16
 657              		.cfi_offset 4, -12
 658              		.cfi_offset 5, -8
 659              		.cfi_offset 14, -4
 660              		.loc 1 374 0
 661 0002 037D     		ldrb	r3, [r0, #20]	@ zero_extendqisi2
 662 0004 B3B9     		cbnz	r3, .L49
 663              	.LVL59:
 664 0006 D0E90035 		ldrd	r3, r5, [r0]
 665              	.LVL60:
 666 000a 0469     		ldr	r4, [r0, #16]
 667              	.LVL61:
 668              	.LBB130:
 669              	.LBB131:
 670              	.LBB132:
 671              		.loc 4 144 0
 672 000c EA1A     		subs	r2, r5, r3
 673              	.LBE132:
 674              	.LBE131:
 675              	.LBE130:
 676              		.loc 1 379 0
 677 000e B4EBA20F 		cmp	r4, r2, asr #2
 678 0012 12D0     		beq	.L50
 679              		.loc 1 380 0
 680 0014 C268     		ldr	r2, [r0, #12]
 681 0016 043A     		subs	r2, r2, #4
 682 0018 9A42     		cmp	r2, r3
 683              		.loc 1 381 0
 684 001a 38BF     		it	cc
ARM GAS  /var/folders/vd/czx34qs52cd_f3nb04sxmghc0000gn/T//ccwRRx6X.s 			page 13


 685 001c 2A1F     		subcc	r2, r5, #4
 686 001e 0346     		mov	r3, r0
 687              		.loc 1 384 0
 688 0020 0134     		adds	r4, r4, #1
 689              		.loc 1 381 0
 690 0022 C260     		str	r2, [r0, #12]
 691              		.loc 1 383 0
 692 0024 1160     		str	r1, [r2]
 693              		.loc 1 387 0
 694 0026 2030     		adds	r0, r0, #32
 695              	.LVL62:
 696              		.loc 1 384 0
 697 0028 1C61     		str	r4, [r3, #16]
 698              		.loc 1 387 0
 699 002a 0021     		movs	r1, #0
 700              	.LVL63:
 701 002c FFF7FEFF 		bl	chThdDequeueNextI
 702              	.LVL64:
 703              		.loc 1 389 0
 704 0030 0020     		movs	r0, #0
 705              		.loc 1 394 0
 706 0032 38BD     		pop	{r3, r4, r5, pc}
 707              	.LVL65:
 708              	.L49:
 709              		.loc 1 375 0
 710 0034 6FF00100 		mvn	r0, #1
 711              	.LVL66:
 712              		.loc 1 394 0
 713 0038 38BD     		pop	{r3, r4, r5, pc}
 714              	.LVL67:
 715              	.L50:
 716              		.loc 1 393 0
 717 003a 4FF0FF30 		mov	r0, #-1
 718              	.LVL68:
 719              		.loc 1 394 0
 720 003e 38BD     		pop	{r3, r4, r5, pc}
 721              		.cfi_endproc
 722              	.LFE288:
 723              		.size	chMBPostAheadI, .-chMBPostAheadI
 724              		.section	.text.chMBFetchTimeoutS,"ax",%progbits
 725              		.align	1
 726              		.p2align 4,,15
 727              		.global	chMBFetchTimeoutS
 728              		.syntax unified
 729              		.thumb
 730              		.thumb_func
 731              		.fpu softvfp
 732              		.type	chMBFetchTimeoutS, %function
 733              	chMBFetchTimeoutS:
 734              	.LFB290:
 735              		.loc 1 444 0
 736              		.cfi_startproc
 737              		@ args = 0, pretend = 0, frame = 0
 738              		@ frame_needed = 0, uses_anonymous_args = 0
 739              	.LVL69:
 740 0000 F8B5     		push	{r3, r4, r5, r6, r7, lr}
 741              		.cfi_def_cfa_offset 24
ARM GAS  /var/folders/vd/czx34qs52cd_f3nb04sxmghc0000gn/T//ccwRRx6X.s 			page 14


 742              		.cfi_offset 3, -24
 743              		.cfi_offset 4, -20
 744              		.cfi_offset 5, -16
 745              		.cfi_offset 6, -12
 746              		.cfi_offset 7, -8
 747              		.cfi_offset 14, -4
 748              		.loc 1 444 0
 749 0002 0446     		mov	r4, r0
 750 0004 0F46     		mov	r7, r1
 751 0006 1646     		mov	r6, r2
 752              		.loc 1 472 0
 753 0008 00F12005 		add	r5, r0, #32
 754 000c 04E0     		b	.L57
 755              	.LVL70:
 756              	.L63:
 757 000e 2369     		ldr	r3, [r4, #16]
 758              	.LVL71:
 759              		.loc 1 457 0
 760 0010 53B9     		cbnz	r3, .L62
 761              		.loc 1 472 0
 762 0012 FFF7FEFF 		bl	chThdEnqueueTimeoutS
 763              	.LVL72:
 764              		.loc 1 473 0
 765 0016 30B9     		cbnz	r0, .L53
 766              	.LVL73:
 767              	.L57:
 768              		.loc 1 452 0
 769 0018 237D     		ldrb	r3, [r4, #20]	@ zero_extendqisi2
 770              		.loc 1 472 0
 771 001a 3146     		mov	r1, r6
 772 001c 2846     		mov	r0, r5
 773              		.loc 1 452 0
 774 001e 002B     		cmp	r3, #0
 775 0020 F5D0     		beq	.L63
 776              	.LVL74:
 777              		.loc 1 453 0
 778 0022 6FF00100 		mvn	r0, #1
 779              	.LVL75:
 780              	.L53:
 781              		.loc 1 476 0
 782 0026 F8BD     		pop	{r3, r4, r5, r6, r7, pc}
 783              	.LVL76:
 784              	.L62:
 785              		.loc 1 458 0
 786 0028 E268     		ldr	r2, [r4, #12]
 787              		.loc 1 459 0
 788 002a 6168     		ldr	r1, [r4, #4]
 789              	.LVL77:
 790              		.loc 1 458 0
 791 002c 1068     		ldr	r0, [r2]
 792 002e 0432     		adds	r2, r2, #4
 793              		.loc 1 459 0
 794 0030 8A42     		cmp	r2, r1
 795              		.loc 1 458 0
 796 0032 E260     		str	r2, [r4, #12]
 797              		.loc 1 462 0
 798 0034 03F1FF33 		add	r3, r3, #-1
ARM GAS  /var/folders/vd/czx34qs52cd_f3nb04sxmghc0000gn/T//ccwRRx6X.s 			page 15


 799              		.loc 1 460 0
 800 0038 28BF     		it	cs
 801 003a 2268     		ldrcs	r2, [r4]
 802              		.loc 1 458 0
 803 003c 3860     		str	r0, [r7]
 804              		.loc 1 465 0
 805 003e 4FF00001 		mov	r1, #0
 806 0042 04F11800 		add	r0, r4, #24
 807              		.loc 1 460 0
 808 0046 28BF     		it	cs
 809 0048 E260     		strcs	r2, [r4, #12]
 810              		.loc 1 462 0
 811 004a 2361     		str	r3, [r4, #16]
 812              		.loc 1 465 0
 813 004c FFF7FEFF 		bl	chThdDequeueNextI
 814              	.LVL78:
 815              		.loc 1 466 0
 816 0050 FFF7FEFF 		bl	chSchRescheduleS
 817              	.LVL79:
 818              		.loc 1 468 0
 819 0054 0020     		movs	r0, #0
 820              		.loc 1 476 0
 821 0056 F8BD     		pop	{r3, r4, r5, r6, r7, pc}
 822              		.cfi_endproc
 823              	.LFE290:
 824              		.size	chMBFetchTimeoutS, .-chMBFetchTimeoutS
 825              		.section	.text.chMBFetchTimeout,"ax",%progbits
 826              		.align	1
 827              		.p2align 4,,15
 828              		.global	chMBFetchTimeout
 829              		.syntax unified
 830              		.thumb
 831              		.thumb_func
 832              		.fpu softvfp
 833              		.type	chMBFetchTimeout, %function
 834              	chMBFetchTimeout:
 835              	.LFB289:
 836              		.loc 1 415 0
 837              		.cfi_startproc
 838              		@ args = 0, pretend = 0, frame = 0
 839              		@ frame_needed = 0, uses_anonymous_args = 0
 840              	.LVL80:
 841 0000 08B5     		push	{r3, lr}
 842              		.cfi_def_cfa_offset 8
 843              		.cfi_offset 3, -8
 844              		.cfi_offset 14, -4
 845              	.LBB133:
 846              	.LBB134:
 847              	.LBB135:
 848              	.LBB136:
 849              		.loc 3 490 0
 850 0002 2023     		movs	r3, #32
 851              		.syntax unified
 852              	@ 490 "../os/common/ext/ARM/CMSIS/Core/Include/cmsis_gcc.h" 1
 853 0004 83F31188 		MSR basepri, r3
 854              	@ 0 "" 2
 855              	.LVL81:
ARM GAS  /var/folders/vd/czx34qs52cd_f3nb04sxmghc0000gn/T//ccwRRx6X.s 			page 16


 856              		.thumb
 857              		.syntax unified
 858              	.LBE136:
 859              	.LBE135:
 860              	.LBE134:
 861              	.LBE133:
 862              		.loc 1 419 0
 863 0008 FFF7FEFF 		bl	chMBFetchTimeoutS
 864              	.LVL82:
 865              	.LBB137:
 866              	.LBB138:
 867              	.LBB139:
 868              	.LBB140:
 869              	.LBB141:
 870              		.loc 3 490 0
 871 000c 0023     		movs	r3, #0
 872              		.syntax unified
 873              	@ 490 "../os/common/ext/ARM/CMSIS/Core/Include/cmsis_gcc.h" 1
 874 000e 83F31188 		MSR basepri, r3
 875              	@ 0 "" 2
 876              	.LVL83:
 877              		.thumb
 878              		.syntax unified
 879              	.LBE141:
 880              	.LBE140:
 881              	.LBE139:
 882              	.LBE138:
 883              	.LBE137:
 884              		.loc 1 423 0
 885 0012 08BD     		pop	{r3, pc}
 886              		.cfi_endproc
 887              	.LFE289:
 888              		.size	chMBFetchTimeout, .-chMBFetchTimeout
 889              		.section	.text.chMBFetchI,"ax",%progbits
 890              		.align	1
 891              		.p2align 4,,15
 892              		.global	chMBFetchI
 893              		.syntax unified
 894              		.thumb
 895              		.thumb_func
 896              		.fpu softvfp
 897              		.type	chMBFetchI, %function
 898              	chMBFetchI:
 899              	.LFB291:
 900              		.loc 1 493 0
 901              		.cfi_startproc
 902              		@ args = 0, pretend = 0, frame = 0
 903              		@ frame_needed = 0, uses_anonymous_args = 0
 904              	.LVL84:
 905 0000 38B5     		push	{r3, r4, r5, lr}
 906              		.cfi_def_cfa_offset 16
 907              		.cfi_offset 3, -16
 908              		.cfi_offset 4, -12
 909              		.cfi_offset 5, -8
 910              		.cfi_offset 14, -4
 911              		.loc 1 499 0
 912 0002 037D     		ldrb	r3, [r0, #20]	@ zero_extendqisi2
ARM GAS  /var/folders/vd/czx34qs52cd_f3nb04sxmghc0000gn/T//ccwRRx6X.s 			page 17


 913 0004 C3B9     		cbnz	r3, .L69
 914 0006 0269     		ldr	r2, [r0, #16]
 915              	.LVL85:
 916              		.loc 1 504 0
 917 0008 CAB1     		cbz	r2, .L70
 918              		.loc 1 505 0
 919 000a C368     		ldr	r3, [r0, #12]
 920              		.loc 1 506 0
 921 000c 4468     		ldr	r4, [r0, #4]
 922              		.loc 1 505 0
 923 000e 1D68     		ldr	r5, [r3]
 924 0010 0433     		adds	r3, r3, #4
 925              		.loc 1 506 0
 926 0012 A342     		cmp	r3, r4
 927              		.loc 1 505 0
 928 0014 C360     		str	r3, [r0, #12]
 929              		.loc 1 509 0
 930 0016 02F1FF32 		add	r2, r2, #-1
 931              		.loc 1 507 0
 932 001a 28BF     		it	cs
 933 001c 0368     		ldrcs	r3, [r0]
 934              		.loc 1 505 0
 935 001e 0D60     		str	r5, [r1]
 936              		.loc 1 512 0
 937 0020 00F11800 		add	r0, r0, #24
 938              	.LVL86:
 939              		.loc 1 507 0
 940 0024 28BF     		it	cs
 941 0026 40F80C3C 		strcs	r3, [r0, #-12]
 942              		.loc 1 509 0
 943 002a 40F8082C 		str	r2, [r0, #-8]
 944              		.loc 1 512 0
 945 002e 0021     		movs	r1, #0
 946              	.LVL87:
 947 0030 FFF7FEFF 		bl	chThdDequeueNextI
 948              	.LVL88:
 949              		.loc 1 514 0
 950 0034 0020     		movs	r0, #0
 951              		.loc 1 519 0
 952 0036 38BD     		pop	{r3, r4, r5, pc}
 953              	.LVL89:
 954              	.L69:
 955              		.loc 1 500 0
 956 0038 6FF00100 		mvn	r0, #1
 957              	.LVL90:
 958              		.loc 1 519 0
 959 003c 38BD     		pop	{r3, r4, r5, pc}
 960              	.LVL91:
 961              	.L70:
 962              		.loc 1 518 0
 963 003e 4FF0FF30 		mov	r0, #-1
 964              	.LVL92:
 965              		.loc 1 519 0
 966 0042 38BD     		pop	{r3, r4, r5, pc}
 967              		.cfi_endproc
 968              	.LFE291:
 969              		.size	chMBFetchI, .-chMBFetchI
ARM GAS  /var/folders/vd/czx34qs52cd_f3nb04sxmghc0000gn/T//ccwRRx6X.s 			page 18


 970              		.text
 971              	.Letext0:
 972              		.file 5 "/usr/local/Cellar/gcc-arm-none-eabi/20171218/lib/gcc/arm-none-eabi/7.2.1/include/stddef.h
 973              		.file 6 "/usr/local/Cellar/gcc-arm-none-eabi/20171218/arm-none-eabi/include/machine/_default_types
 974              		.file 7 "/usr/local/Cellar/gcc-arm-none-eabi/20171218/arm-none-eabi/include/sys/_stdint.h"
 975              		.file 8 "../os/common/ports/ARMCMx/compilers/GCC/chtypes.h"
 976              		.file 9 "../os/rt/include/chsystypes.h"
 977              		.file 10 "../os/rt/include/chtime.h"
 978              		.file 11 "../os/common/ext/ARM/CMSIS/Core/Include/core_cm4.h"
 979              		.file 12 "../os/common/ext/ST/STM32F4xx/system_stm32f4xx.h"
 980              		.file 13 "../os/common/ports/ARMCMx/chcore.h"
 981              		.file 14 "../os/common/ports/ARMCMx/chcore_v7m.h"
 982              		.file 15 "../os/rt/include/chtm.h"
 983              		.file 16 "../os/rt/include/chsem.h"
 984              		.file 17 "../os/rt/include/chmtx.h"
 985              		.file 18 "../os/rt/include/chsys.h"
 986              		.file 19 "../os/rt/include/chregistry.h"
 987              		.file 20 "../os/common/oslib/include/chmemcore.h"
 988              		.file 21 "../os/common/oslib/include/chmempools.h"
 989              		.file 22 "../os/common/oslib/include/chfactory.h"
 990              		.file 23 "../os/rt/include/chthreads.h"