ARM GAS  /var/folders/vd/czx34qs52cd_f3nb04sxmghc0000gn/T//ccsLIAkY.s 			page 1


   1              		.cpu cortex-m4
   2              		.eabi_attribute 20, 1
   3              		.eabi_attribute 21, 1
   4              		.eabi_attribute 23, 3
   5              		.eabi_attribute 24, 1
   6              		.eabi_attribute 25, 1
   7              		.eabi_attribute 26, 1
   8              		.eabi_attribute 30, 2
   9              		.eabi_attribute 34, 1
  10              		.eabi_attribute 18, 4
  11              		.file	"chmemcore.c"
  12              		.text
  13              	.Ltext0:
  14              		.cfi_sections	.debug_frame
  15              		.section	.text._core_init,"ax",%progbits
  16              		.align	1
  17              		.p2align 4,,15
  18              		.global	_core_init
  19              		.syntax unified
  20              		.thumb
  21              		.thumb_func
  22              		.fpu softvfp
  23              		.type	_core_init, %function
  24              	_core_init:
  25              	.LFB280:
  26              		.file 1 "../os/common/oslib/src/chmemcore.c"
  27              		.loc 1 81 0
  28              		.cfi_startproc
  29              		@ args = 0, pretend = 0, frame = 0
  30              		@ frame_needed = 0, uses_anonymous_args = 0
  31              		@ link register save eliminated.
  32              		.loc 1 87 0
  33 0000 024B     		ldr	r3, .L3
  34 0002 0349     		ldr	r1, .L3+4
  35              		.loc 1 88 0
  36 0004 034A     		ldr	r2, .L3+8
  37 0006 C3E90012 		strd	r1, r2, [r3]
  38              		.loc 1 96 0
  39 000a 7047     		bx	lr
  40              	.L4:
  41              		.align	2
  42              	.L3:
  43 000c 00000000 		.word	.LANCHOR0
  44 0010 00000000 		.word	__heap_base__
  45 0014 00000000 		.word	__heap_end__
  46              		.cfi_endproc
  47              	.LFE280:
  48              		.size	_core_init, .-_core_init
  49              		.section	.text.chCoreAllocAlignedWithOffsetI,"ax",%progbits
  50              		.align	1
  51              		.p2align 4,,15
  52              		.global	chCoreAllocAlignedWithOffsetI
  53              		.syntax unified
  54              		.thumb
  55              		.thumb_func
  56              		.fpu softvfp
  57              		.type	chCoreAllocAlignedWithOffsetI, %function
ARM GAS  /var/folders/vd/czx34qs52cd_f3nb04sxmghc0000gn/T//ccsLIAkY.s 			page 2


  58              	chCoreAllocAlignedWithOffsetI:
  59              	.LFB281:
  60              		.loc 1 114 0
  61              		.cfi_startproc
  62              		@ args = 0, pretend = 0, frame = 0
  63              		@ frame_needed = 0, uses_anonymous_args = 0
  64              		@ link register save eliminated.
  65              	.LVL0:
  66 0000 70B4     		push	{r4, r5, r6}
  67              		.cfi_def_cfa_offset 12
  68              		.cfi_offset 4, -12
  69              		.cfi_offset 5, -8
  70              		.cfi_offset 6, -4
  71              		.loc 1 121 0
  72 0002 0B4D     		ldr	r5, .L10
  73              		.loc 1 125 0
  74 0004 D5E90064 		ldrd	r6, r4, [r5]
  75              		.loc 1 121 0
  76 0008 3244     		add	r2, r2, r6
  77              	.LVL1:
  78              		.loc 1 120 0
  79 000a 0138     		subs	r0, r0, #1
  80              	.LVL2:
  81              		.loc 1 121 0
  82 000c 013A     		subs	r2, r2, #1
  83              		.loc 1 120 0
  84 000e 4318     		adds	r3, r0, r1
  85              		.loc 1 121 0
  86 0010 5018     		adds	r0, r2, r1
  87              	.LVL3:
  88              		.loc 1 120 0
  89 0012 4942     		negs	r1, r1
  90              	.LVL4:
  91              		.loc 1 121 0
  92 0014 0840     		ands	r0, r0, r1
  93              	.LVL5:
  94              		.loc 1 120 0
  95 0016 1940     		ands	r1, r1, r3
  96              	.LVL6:
  97              		.loc 1 122 0
  98 0018 0144     		add	r1, r1, r0
  99              	.LVL7:
 100              		.loc 1 125 0
 101 001a 8C42     		cmp	r4, r1
 102 001c 04D3     		bcc	.L8
 103              		.loc 1 125 0 is_stmt 0 discriminator 1
 104 001e 8E42     		cmp	r6, r1
 105 0020 02D8     		bhi	.L8
 106              		.loc 1 129 0 is_stmt 1
 107 0022 2960     		str	r1, [r5]
 108              		.loc 1 132 0
 109 0024 70BC     		pop	{r4, r5, r6}
 110              		.cfi_remember_state
 111              		.cfi_restore 6
 112              		.cfi_restore 5
 113              		.cfi_restore 4
 114              		.cfi_def_cfa_offset 0
ARM GAS  /var/folders/vd/czx34qs52cd_f3nb04sxmghc0000gn/T//ccsLIAkY.s 			page 3


 115 0026 7047     		bx	lr
 116              	.L8:
 117              		.cfi_restore_state
 118              		.loc 1 126 0
 119 0028 0020     		movs	r0, #0
 120              	.LVL8:
 121              		.loc 1 132 0
 122 002a 70BC     		pop	{r4, r5, r6}
 123              		.cfi_restore 6
 124              		.cfi_restore 5
 125              		.cfi_restore 4
 126              		.cfi_def_cfa_offset 0
 127 002c 7047     		bx	lr
 128              	.L11:
 129 002e 00BF     		.align	2
 130              	.L10:
 131 0030 00000000 		.word	.LANCHOR0
 132              		.cfi_endproc
 133              	.LFE281:
 134              		.size	chCoreAllocAlignedWithOffsetI, .-chCoreAllocAlignedWithOffsetI
 135              		.section	.text.chCoreAllocAlignedWithOffset,"ax",%progbits
 136              		.align	1
 137              		.p2align 4,,15
 138              		.global	chCoreAllocAlignedWithOffset
 139              		.syntax unified
 140              		.thumb
 141              		.thumb_func
 142              		.fpu softvfp
 143              		.type	chCoreAllocAlignedWithOffset, %function
 144              	chCoreAllocAlignedWithOffset:
 145              	.LFB282:
 146              		.loc 1 150 0
 147              		.cfi_startproc
 148              		@ args = 0, pretend = 0, frame = 0
 149              		@ frame_needed = 0, uses_anonymous_args = 0
 150              		@ link register save eliminated.
 151              	.LVL9:
 152 0000 F0B4     		push	{r4, r5, r6, r7}
 153              		.cfi_def_cfa_offset 16
 154              		.cfi_offset 4, -16
 155              		.cfi_offset 5, -12
 156              		.cfi_offset 6, -8
 157              		.cfi_offset 7, -4
 158              	.LBB26:
 159              	.LBB27:
 160              	.LBB28:
 161              	.LBB29:
 162              		.file 2 "../os/common/ext/ARM/CMSIS/Core/Include/cmsis_gcc.h"
 163              		.loc 2 490 0
 164 0002 2023     		movs	r3, #32
 165              		.syntax unified
 166              	@ 490 "../os/common/ext/ARM/CMSIS/Core/Include/cmsis_gcc.h" 1
 167 0004 83F31188 		MSR basepri, r3
 168              	@ 0 "" 2
 169              	.LVL10:
 170              		.thumb
 171              		.syntax unified
ARM GAS  /var/folders/vd/czx34qs52cd_f3nb04sxmghc0000gn/T//ccsLIAkY.s 			page 4


 172              	.LBE29:
 173              	.LBE28:
 174              	.LBE27:
 175              	.LBE26:
 176              	.LBB30:
 177              	.LBB31:
 178              		.loc 1 121 0
 179 0008 0D4D     		ldr	r5, .L17
 180              		.loc 1 125 0
 181 000a D5E90074 		ldrd	r7, r4, [r5]
 182 000e 4E1E     		subs	r6, r1, #1
 183              		.loc 1 121 0
 184 0010 3A44     		add	r2, r2, r7
 185              	.LVL11:
 186              		.loc 1 120 0
 187 0012 8319     		adds	r3, r0, r6
 188 0014 4942     		negs	r1, r1
 189              	.LVL12:
 190              		.loc 1 121 0
 191 0016 9019     		adds	r0, r2, r6
 192              	.LVL13:
 193              		.loc 1 120 0
 194 0018 0B40     		ands	r3, r3, r1
 195              		.loc 1 121 0
 196 001a 0840     		ands	r0, r0, r1
 197              	.LVL14:
 198              		.loc 1 122 0
 199 001c 0344     		add	r3, r3, r0
 200              	.LVL15:
 201              		.loc 1 125 0
 202 001e A342     		cmp	r3, r4
 203 0020 07D8     		bhi	.L15
 204 0022 9F42     		cmp	r7, r3
 205 0024 05D8     		bhi	.L15
 206              		.loc 1 129 0
 207 0026 2B60     		str	r3, [r5]
 208              	.LVL16:
 209              	.LBE31:
 210              	.LBE30:
 211              	.LBB33:
 212              	.LBB34:
 213              	.LBB35:
 214              	.LBB36:
 215              	.LBB37:
 216              		.loc 2 490 0
 217 0028 0023     		movs	r3, #0
 218              		.syntax unified
 219              	@ 490 "../os/common/ext/ARM/CMSIS/Core/Include/cmsis_gcc.h" 1
 220 002a 83F31188 		MSR basepri, r3
 221              	@ 0 "" 2
 222              	.LVL17:
 223              		.thumb
 224              		.syntax unified
 225              	.LBE37:
 226              	.LBE36:
 227              	.LBE35:
 228              	.LBE34:
ARM GAS  /var/folders/vd/czx34qs52cd_f3nb04sxmghc0000gn/T//ccsLIAkY.s 			page 5


 229              	.LBE33:
 230              		.loc 1 158 0
 231 002e F0BC     		pop	{r4, r5, r6, r7}
 232              		.cfi_remember_state
 233              		.cfi_restore 7
 234              		.cfi_restore 6
 235              		.cfi_restore 5
 236              		.cfi_restore 4
 237              		.cfi_def_cfa_offset 0
 238 0030 7047     		bx	lr
 239              	.LVL18:
 240              	.L15:
 241              		.cfi_restore_state
 242              	.LBB42:
 243              	.LBB32:
 244              		.loc 1 126 0
 245 0032 0020     		movs	r0, #0
 246              	.LVL19:
 247              	.LBE32:
 248              	.LBE42:
 249              	.LBB43:
 250              	.LBB41:
 251              	.LBB40:
 252              	.LBB39:
 253              	.LBB38:
 254              		.loc 2 490 0
 255 0034 0023     		movs	r3, #0
 256              		.syntax unified
 257              	@ 490 "../os/common/ext/ARM/CMSIS/Core/Include/cmsis_gcc.h" 1
 258 0036 83F31188 		MSR basepri, r3
 259              	@ 0 "" 2
 260              	.LVL20:
 261              		.thumb
 262              		.syntax unified
 263              	.LBE38:
 264              	.LBE39:
 265              	.LBE40:
 266              	.LBE41:
 267              	.LBE43:
 268              		.loc 1 158 0
 269 003a F0BC     		pop	{r4, r5, r6, r7}
 270              		.cfi_restore 7
 271              		.cfi_restore 6
 272              		.cfi_restore 5
 273              		.cfi_restore 4
 274              		.cfi_def_cfa_offset 0
 275 003c 7047     		bx	lr
 276              	.L18:
 277 003e 00BF     		.align	2
 278              	.L17:
 279 0040 00000000 		.word	.LANCHOR0
 280              		.cfi_endproc
 281              	.LFE282:
 282              		.size	chCoreAllocAlignedWithOffset, .-chCoreAllocAlignedWithOffset
 283              		.section	.text.chCoreGetStatusX,"ax",%progbits
 284              		.align	1
 285              		.p2align 4,,15
ARM GAS  /var/folders/vd/czx34qs52cd_f3nb04sxmghc0000gn/T//ccsLIAkY.s 			page 6


 286              		.global	chCoreGetStatusX
 287              		.syntax unified
 288              		.thumb
 289              		.thumb_func
 290              		.fpu softvfp
 291              		.type	chCoreGetStatusX, %function
 292              	chCoreGetStatusX:
 293              	.LFB283:
 294              		.loc 1 167 0
 295              		.cfi_startproc
 296              		@ args = 0, pretend = 0, frame = 0
 297              		@ frame_needed = 0, uses_anonymous_args = 0
 298              		@ link register save eliminated.
 299              		.loc 1 170 0
 300 0000 024B     		ldr	r3, .L20
 301 0002 D3E90030 		ldrd	r3, r0, [r3]
 302              		.loc 1 172 0
 303 0006 C01A     		subs	r0, r0, r3
 304 0008 7047     		bx	lr
 305              	.L21:
 306 000a 00BF     		.align	2
 307              	.L20:
 308 000c 00000000 		.word	.LANCHOR0
 309              		.cfi_endproc
 310              	.LFE283:
 311              		.size	chCoreGetStatusX, .-chCoreGetStatusX
 312              		.global	ch_memcore
 313              		.section	.bss.ch_memcore,"aw",%nobits
 314              		.align	2
 315              		.set	.LANCHOR0,. + 0
 316              		.type	ch_memcore, %object
 317              		.size	ch_memcore, 8
 318              	ch_memcore:
 319 0000 00000000 		.space	8
 319      00000000 
 320              		.text
 321              	.Letext0:
 322              		.file 3 "/usr/local/Cellar/gcc-arm-none-eabi/20171218/lib/gcc/arm-none-eabi/7.2.1/include/stddef.h
 323              		.file 4 "/usr/local/Cellar/gcc-arm-none-eabi/20171218/arm-none-eabi/include/machine/_default_types
 324              		.file 5 "/usr/local/Cellar/gcc-arm-none-eabi/20171218/arm-none-eabi/include/sys/_stdint.h"
 325              		.file 6 "../os/common/ports/ARMCMx/compilers/GCC/chtypes.h"
 326              		.file 7 "../os/rt/include/chsystypes.h"
 327              		.file 8 "../os/rt/include/chschd.h"
 328              		.file 9 "../os/rt/include/chtime.h"
 329              		.file 10 "../os/common/ext/ARM/CMSIS/Core/Include/core_cm4.h"
 330              		.file 11 "../os/common/ext/ST/STM32F4xx/system_stm32f4xx.h"
 331              		.file 12 "../os/common/ports/ARMCMx/chcore.h"
 332              		.file 13 "../os/common/ports/ARMCMx/chcore_v7m.h"
 333              		.file 14 "../os/rt/include/chtm.h"
 334              		.file 15 "../os/rt/include/chsem.h"
 335              		.file 16 "../os/rt/include/chmtx.h"
 336              		.file 17 "../os/rt/include/chsys.h"
 337              		.file 18 "../os/rt/include/chregistry.h"
 338              		.file 19 "../os/common/oslib/include/chmemcore.h"
 339              		.file 20 "../os/common/oslib/include/chmempools.h"
 340              		.file 21 "../os/common/oslib/include/chfactory.h"