ARM GAS  /var/folders/vd/czx34qs52cd_f3nb04sxmghc0000gn/T//ccsLIAkY.s 			page 1


   1              		.cpu cortex-m4
   2              		.eabi_attribute 20, 1
   3              		.eabi_attribute 21, 1
   4              		.eabi_attribute 23, 3
   5              		.eabi_attribute 24, 1
   6              		.eabi_attribute 25, 1
   7              		.eabi_attribute 26, 1
   8              		.eabi_attribute 30, 2
   9              		.eabi_attribute 34, 1
  10              		.eabi_attribute 18, 4
  11              		.file	"chmemcore.c"
  12              		.text
  13              	.Ltext0:
  14              		.cfi_sections	.debug_frame
  15              		.section	.text._core_init,"ax",%progbits
  16              		.align	1
  17              		.p2align 4,,15
  18              		.global	_core_init
  19              		.syntax unified
  20              		.thumb
  21              		.thumb_func
  22              		.fpu softvfp
  23              		.type	_core_init, %function
  24              	_core_init:
  25              	.LFB280:
  26              		.file 1 "../os/common/oslib/src/chmemcore.c"
  27              		.loc 1 81 0
  28              		.cfi_startproc
  29              		@ args = 0, pretend = 0, frame = 0
  30              		@ frame_needed = 0, uses_anonymous_args = 0
  31              		@ link register save eliminated.
  32              		.loc 1 87 0
  33 0000 024B     		ldr	r3, .L3
  34 0002 0349     		ldr	r1, .L3+4
  35              		.loc 1 88 0
  36 0004 034A     		ldr	r2, .L3+8
  37 0006 C3E90012 		strd	r1, r2, [r3]
  38              		.loc 1 96 0
  39 000a 7047     		bx	lr
  40              	.L4:
  41              		.align	2
  42              	.L3:
  43 000c 00000000 		.word	.LANCHOR0
  44 0010 00000000 		.word	__heap_base__
  45 0014 00000000 		.word	__heap_end__
  46              		.cfi_endproc
  47              	.LFE280:
  48              		.size	_core_init, .-_core_init
  49              		.section	.text.chCoreAllocAlignedWithOffsetI,"ax",%progbits
  50              		.align	1
  51              		.p2align 4,,15
  52              		.global	chCoreAllocAlignedWithOffsetI
  53              		.syntax unified
  54              		.thumb
  55              		.thumb_func
  56              		.fpu softvfp
  57              		.type	chCoreAllocAlignedWithOffsetI, %function
ARM GAS  /var/folders/vd/czx34qs52cd_f3nb04sxmghc0000gn/T//ccsLIAkY.s 			page 2


  58              	chCoreAllocAlignedWithOffsetI:
  59              	.LFB281:
  60              		.loc 1 114 0
  61              		.cfi_startproc
  62              		@ args = 0, pretend = 0, frame = 0
  63              		@ frame_needed = 0, uses_anonymous_args = 0
  64              		@ link register save eliminated.
  65              	.LVL0:
  66 0000 70B4     		push	{r4, r5, r6}
  67              		.cfi_def_cfa_offset 12
  68              		.cfi_offset 4, -12
  69              		.cfi_offset 5, -8
  70              		.cfi_offset 6, -4
  71              		.loc 1 121 0
  72 0002 0B4D     		ldr	r5, .L10
  73              		.loc 1 125 0
  74 0004 D5E90064 		ldrd	r6, r4, [r5]
  75              		.loc 1 121 0
  76 0008 3244     		add	r2, r2, r6
  77              	.LVL1:
  78              		.loc 1 120 0
  79 000a 0138     		subs	r0, r0, #1
  80              	.LVL2:
  81              		.loc 1 121 0
  82 000c 013A     		subs	r2, r2, #1
  83              		.loc 1 120 0
  84 000e 4318     		adds	r3, r0, r1
  85              		.loc 1 121 0
  86 0010 5018     		adds	r0, r2, r1
  87              	.LVL3:
  88              		.loc 1 120 0
  89 0012 4942     		negs	r1, r1
  90              	.LVL4:
  91              		.loc 1 121 0
  92 0014 0840     		ands	r0, r0, r1
  93              	.LVL5:
  94              		.loc 1 120 0
  95 0016 1940     		ands	r1, r1, r3
  96              	.LVL6:
  97              		.loc 1 122 0
  98 0018 0144     		add	r1, r1, r0
  99              	.LVL7:
 100              		.loc 1 125 0
 101 001a 8C42     		cmp	r4, r1
 102 001c 04D3     		bcc	.L8
 103              		.loc 1 125 0 is_stmt 0 discriminator 1
 104 001e 8E42     		cmp	r6, r1
 105 0020 02D8     		bhi	.L8
 106              		.loc 1 129 0 is_stmt 1
 107 0022 2960     		str	r1, [r5]
 108              		.loc 1 132 0
 109 0024 70BC     		pop	{r4, r5, r6}
 110              		.cfi_remember_state
 111              		.cfi_restore 6
 112              		.cfi_restore 5
 113              		.cfi_restore 4
 114              		.cfi_def_cfa_offset 0
ARM GAS  /var/folders/vd/czx34qs52cd_f3nb04sxmghc0000gn/T//ccsLIAkY.s 			page 3


 115 0026 7047     		bx	lr
 116              	.L8:
 117              		.cfi_restore_state
 118              		.loc 1 126 0
 119 0028 0020     		movs	r0, #0
 120              	.LVL8:
 121              		.loc 1 132 0
 122 002a 70BC     		pop	{r4, r5, r6}
 123              		.cfi_restore 6
 124              		.cfi_restore 5
 125              		.cfi_restore 4
 126              		.cfi_def_cfa_offset 0
 127 002c 7047     		bx	lr
 128              	.L11:
 129 002e 00BF     		.align	2
 130              	.L10:
 131 0030 00000000 		.word	.LANCHOR0
 132              		.cfi_endproc
 133              	.LFE281:
 134              		.size	chCoreAllocAlignedWithOffsetI, .-chCoreAllocAlignedWithOffsetI
 135              		.section	.text.chCoreAllocAlignedWithOffset,"ax",%progbits
 136              		.align	1
 137              		.p2align 4,,15
 138              		.global	chCoreAllocAlignedWithOffset
 139              		.syntax unified
 140              		.thumb
 141              		.thumb_func
 142              		.fpu softvfp
 143              		.type	chCoreAllocAlignedWithOffset, %function
 144              	chCoreAllocAlignedWithOffset:
 145              	.LFB282:
 146              		.loc 1 150 0
 147              		.cfi_startproc
 148              		@ args = 0, pretend = 0, frame = 0
 149              		@ frame_needed = 0, uses_anonymous_args = 0
 150              		@ link register save eliminated.
 151              	.LVL9:
 152 0000 F0B4     		push	{r4, r5, r6, r7}
 153              		.cfi_def_cfa_offset 16
 154              		.cfi_offset 4, -16
 155              		.cfi_offset 5, -12
 156              		.cfi_offset 6, -8
 157              		.cfi_offset 7, -4
 158              	.LBB26:
 159              	.LBB27:
 160              	.LBB28:
 161              	.LBB29:
 162              		.file 2 "../os/common/ext/ARM/CMSIS/Core/Include/cmsis_gcc.h"
 163              		.loc 2 490 0
 164 0002 2023     		movs	r3, #32
 165              		.syntax unified
 166              	@ 490 "../os/common/ext/ARM/CMSIS/Core/Include/cmsis_gcc.h" 1
 167 0004 83F31188 		MSR basepri, r3
 168              	@ 0 "" 2
 169              	.LVL10:
 170              		.thumb
 171              		.syntax unified
ARM GAS  /var/folders/vd/czx34qs52cd_f3nb04sxmghc0000gn/T//ccsLIAkY.s 			page 4


 172              	.LBE29:
 173              	.LBE28:
 174              	.LBE27:
 175              	.LBE26:
 176              	.LBB30:
 177              	.LBB31:
 178              		.loc 1 121 0
 179 0008 0D4D     		ldr	r5, .L17
 180              		.loc 1 125 0
 181 000a D5E90074 		ldrd	r7, r4, [r5]
 182 000e 4E1E     		subs	r6, r1, #1
 183              		.loc 1 121 0
 184 0010 3A44     		add	r2, r2, r7
 185              	.LVL11:
 186              		.loc 1 120 0
 187 0012 8319     		adds	r3, r0, r6
 188 0014 4942     		negs	r1, r1
 189              	.LVL12:
 190              		.loc 1 121 0
 191 0016 9019     		adds	r0, r2, r6
 192              	.LVL13:
 193              		.loc 1 120 0
 194 0018 0B40     		ands	r3, r3, r1
 195              		.loc 1 121 0
 196 001a 0840     		ands	r0, r0, r1
 197              	.LVL14:
 198              		.loc 1 122 0
 199 001c 0344     		add	r3, r3, r0
 200              	.LVL15:
 201              		.loc 1 125 0
 202 001e A342     		cmp	r3, r4
 203 0020 07D8     		bhi	.L15
 204 0022 9F42     		cmp	r7, r3
 205 0024 05D8     		bhi	.L15
 206              		.loc 1 129 0
 207 0026 2B60     		str	r3, [r5]
 208              	.LVL16:
 209              	.LBE31:
 210              	.LBE30:
 211              	.LBB33:
 212              	.LBB34:
 213              	.LBB35:
 214              	.LBB36:
 215              	.LBB37:
 216              		.loc 2 490 0
 217 0028 0023     		movs	r3, #0
 218              		.syntax unified
 219              	@ 490 "../os/common/ext/ARM/CMSIS/Core/Include/cmsis_gcc.h" 1
 220 002a 83F31188 		MSR basepri, r3
 221              	@ 0 "" 2
 222              	.LVL17:
 223              		.thumb
 224              		.syntax unified
 225              	.LBE37:
 226              	.LBE36:
 227              	.LBE35:
 228              	.LBE34:
ARM GAS  /var/folders/vd/czx34qs52cd_f3nb04sxmghc0000gn/T//ccsLIAkY.s 			page 5


 229              	.LBE33:
 230              		.loc 1 158 0
 231 002e F0BC     		pop	{r4, r5, r6, r7}
 232              		.cfi_remember_state
 233              		.cfi_restore 7
 234              		.cfi_restore 6
 235              		.cfi_restore 5
 236              		.cfi_restore 4
 237              		.cfi_def_cfa_offset 0
 238 0030 7047     		bx	lr
 239              	.LVL18:
 240              	.L15:
 241              		.cfi_restore_state
 242              	.LBB42:
 243              	.LBB32:
 244              		.loc 1 126 0
 245 0032 0020     		movs	r0, #0
 246              	.LVL19:
 247              	.LBE32:
 248              	.LBE42:
 249              	.LBB43:
 250              	.LBB41:
 251              	.LBB40:
 252              	.LBB39:
 253              	.LBB38:
 254              		.loc 2 490 0
 255 0034 0023     		movs	r3, #0
 256              		.syntax unified
 257              	@ 490 "../os/common/ext/ARM/CMSIS/Core/Include/cmsis_gcc.h" 1
 258 0036 83F31188 		MSR basepri, r3
 259              	@ 0 "" 2
 260              	.LVL20:
 261              		.thumb
 262              		.syntax unified
 263              	.LBE38:
 264              	.LBE39:
 265              	.LBE40:
 266              	.LBE41:
 267              	.LBE43:
 268              		.loc 1 158 0
 269 003a F0BC     		pop	{r4, r5, r6, r7}
 270              		.cfi_restore 7
 271              		.cfi_restore 6
 272              		.cfi_restore 5
 273              		.cfi_restore 4
 274              		.cfi_def_cfa_offset 0
 275 003c 7047     		bx	lr
 276              	.L18:
 277 003e 00BF     		.align	2
 278              	.L17:
 279 0040 00000000 		.word	.LANCHOR0
 280              		.cfi_endproc
 281              	.LFE282:
 282              		.size	chCoreAllocAlignedWithOffset, .-chCoreAllocAlignedWithOffset
 283              		.section	.text.chCoreGetStatusX,"ax",%progbits
 284              		.align	1
 285              		.p2align 4,,15
ARM GAS  /var/folders/vd/czx34qs52cd_f3nb04sxmghc0000gn/T//ccsLIAkY.s 			page 6


 286              		.global	chCoreGetStatusX
 287              		.syntax unified
 288              		.thumb
 289              		.thumb_func
 290              		.fpu softvfp
 291              		.type	chCoreGetStatusX, %function
 292              	chCoreGetStatusX:
 293              	.LFB283:
 294              		.loc 1 167 0
 295              		.cfi_startproc
 296              		@ args = 0, pretend = 0, frame = 0
 297              		@ frame_needed = 0, uses_anonymous_args = 0
 298              		@ link register save eliminated.
 299              		.loc 1 170 0
 300 0000 024B     		ldr	r3, .L20
 301 0002 D3E90030 		ldrd	r3, r0, [r3]
 302              		.loc 1 172 0
 303 0006 C01A     		subs	r0, r0, r3
 304 0008 7047     		bx	lr
 305              	.L21:
 306 000a 00BF     		.align	2
 307              	.L20:
 308 000c 00000000 		.word	.LANCHOR0
 309              		.cfi_endproc
 310              	.LFE283:
 311              		.size	chCoreGetStatusX, .-chCoreGetStatusX
 312              		.global	ch_memcore
 313              		.section	.bss.ch_memcore,"aw",%nobits
 314              		.align	2
 315              		.set	.LANCHOR0,. + 0
 316              		.type	ch_memcore, %object
 317              		.size	ch_memcore, 8
 318              	ch_memcore:
 319 0000 00000000 		.space	8
 319      00000000 
 320              		.text
 321              	.Letext0:
 322              		.file 3 "/usr/local/Cellar/gcc-arm-none-eabi/20171218/lib/gcc/arm-none-eabi/7.2.1/include/stddef.h
 323              		.file 4 "/usr/local/Cellar/gcc-arm-none-eabi/20171218/arm-none-eabi/include/machine/_default_types
 324              		.file 5 "/usr/local/Cellar/gcc-arm-none-eabi/20171218/arm-none-eabi/include/sys/_stdint.h"
 325              		.file 6 "../os/common/ports/ARMCMx/compilers/GCC/chtypes.h"
 326              		.file 7 "../os/rt/include/chsystypes.h"
 327              		.file 8 "../os/rt/include/chschd.h"
 328              		.file 9 "../os/rt/include/chtime.h"
 329              		.file 10 "../os/common/ext/ARM/CMSIS/Core/Include/core_cm4.h"
 330              		.file 11 "../os/common/ext/ST/STM32F4xx/system_stm32f4xx.h"
 331              		.file 12 "../os/common/ports/ARMCMx/chcore.h"
 332              		.file 13 "../os/common/ports/ARMCMx/chcore_v7m.h"
 333              		.file 14 "../os/rt/include/chtm.h"
 334              		.file 15 "../os/rt/include/chsem.h"
 335              		.file 16 "../os/rt/include/chmtx.h"
 336              		.file 17 "../os/rt/include/chsys.h"
 337              		.file 18 "../os/rt/include/chregistry.h"
 338              		.file 19 "../os/common/oslib/include/chmemcore.h"
 339              		.file 20 "../os/common/oslib/include/chmempools.h"
 340              		.file 21 "../os/common/oslib/include/chfactory.h"
 341              		.section	.debug_info,"",%progbits
ARM GAS  /var/folders/vd/czx34qs52cd_f3nb04sxmghc0000gn/T//ccsLIAkY.s 			page 7


 342              	.Ldebug_info0:
 343 0000 0C0C0000 		.4byte	0xc0c
 344 0004 0400     		.2byte	0x4
 345 0006 00000000 		.4byte	.Ldebug_abbrev0
 346 000a 04       		.byte	0x4
 347 000b 01       		.uleb128 0x1
 348 000c FC000000 		.4byte	.LASF154
 349 0010 0C       		.byte	0xc
 350 0011 15070000 		.4byte	.LASF155
 351 0015 2A030000 		.4byte	.LASF156
 352 0019 30000000 		.4byte	.Ldebug_ranges0+0x30
 353 001d 00000000 		.4byte	0
 354 0021 00000000 		.4byte	.Ldebug_line0
 355 0025 02       		.uleb128 0x2
 356 0026 04       		.byte	0x4
 357 0027 05       		.byte	0x5
 358 0028 696E7400 		.ascii	"int\000"
 359 002c 03       		.uleb128 0x3
 360 002d 0D000000 		.4byte	.LASF4
 361 0031 03       		.byte	0x3
 362 0032 D8       		.byte	0xd8
 363 0033 37000000 		.4byte	0x37
 364 0037 04       		.uleb128 0x4
 365 0038 04       		.byte	0x4
 366 0039 07       		.byte	0x7
 367 003a 06030000 		.4byte	.LASF0
 368 003e 04       		.uleb128 0x4
 369 003f 08       		.byte	0x8
 370 0040 05       		.byte	0x5
 371 0041 D6010000 		.4byte	.LASF1
 372 0045 04       		.uleb128 0x4
 373 0046 08       		.byte	0x8
 374 0047 04       		.byte	0x4
 375 0048 73040000 		.4byte	.LASF2
 376 004c 04       		.uleb128 0x4
 377 004d 01       		.byte	0x1
 378 004e 06       		.byte	0x6
 379 004f E4010000 		.4byte	.LASF3
 380 0053 03       		.uleb128 0x3
 381 0054 2A000000 		.4byte	.LASF5
 382 0058 04       		.byte	0x4
 383 0059 2B       		.byte	0x2b
 384 005a 5E000000 		.4byte	0x5e
 385 005e 04       		.uleb128 0x4
 386 005f 01       		.byte	0x1
 387 0060 08       		.byte	0x8
 388 0061 49050000 		.4byte	.LASF6
 389 0065 04       		.uleb128 0x4
 390 0066 02       		.byte	0x2
 391 0067 05       		.byte	0x5
 392 0068 6B050000 		.4byte	.LASF7
 393 006c 03       		.uleb128 0x3
 394 006d 5B060000 		.4byte	.LASF8
 395 0071 04       		.byte	0x4
 396 0072 39       		.byte	0x39
 397 0073 77000000 		.4byte	0x77
 398 0077 04       		.uleb128 0x4
ARM GAS  /var/folders/vd/czx34qs52cd_f3nb04sxmghc0000gn/T//ccsLIAkY.s 			page 8


 399 0078 02       		.byte	0x2
 400 0079 07       		.byte	0x7
 401 007a BF060000 		.4byte	.LASF9
 402 007e 03       		.uleb128 0x3
 403 007f 15040000 		.4byte	.LASF10
 404 0083 04       		.byte	0x4
 405 0084 4D       		.byte	0x4d
 406 0085 89000000 		.4byte	0x89
 407 0089 04       		.uleb128 0x4
 408 008a 04       		.byte	0x4
 409 008b 05       		.byte	0x5
 410 008c 36020000 		.4byte	.LASF11
 411 0090 03       		.uleb128 0x3
 412 0091 9C020000 		.4byte	.LASF12
 413 0095 04       		.byte	0x4
 414 0096 4F       		.byte	0x4f
 415 0097 9B000000 		.4byte	0x9b
 416 009b 04       		.uleb128 0x4
 417 009c 04       		.byte	0x4
 418 009d 07       		.byte	0x7
 419 009e 2E060000 		.4byte	.LASF13
 420 00a2 03       		.uleb128 0x3
 421 00a3 C9040000 		.4byte	.LASF14
 422 00a7 04       		.byte	0x4
 423 00a8 69       		.byte	0x69
 424 00a9 AD000000 		.4byte	0xad
 425 00ad 04       		.uleb128 0x4
 426 00ae 08       		.byte	0x8
 427 00af 07       		.byte	0x7
 428 00b0 7D000000 		.4byte	.LASF15
 429 00b4 03       		.uleb128 0x3
 430 00b5 41070000 		.4byte	.LASF16
 431 00b9 05       		.byte	0x5
 432 00ba 18       		.byte	0x18
 433 00bb 53000000 		.4byte	0x53
 434 00bf 05       		.uleb128 0x5
 435 00c0 B4000000 		.4byte	0xb4
 436 00c4 03       		.uleb128 0x3
 437 00c5 70020000 		.4byte	.LASF17
 438 00c9 05       		.byte	0x5
 439 00ca 24       		.byte	0x24
 440 00cb 6C000000 		.4byte	0x6c
 441 00cf 03       		.uleb128 0x3
 442 00d0 41050000 		.4byte	.LASF18
 443 00d4 05       		.byte	0x5
 444 00d5 2C       		.byte	0x2c
 445 00d6 7E000000 		.4byte	0x7e
 446 00da 06       		.uleb128 0x6
 447 00db CF000000 		.4byte	0xcf
 448 00df 03       		.uleb128 0x3
 449 00e0 08060000 		.4byte	.LASF19
 450 00e4 05       		.byte	0x5
 451 00e5 30       		.byte	0x30
 452 00e6 90000000 		.4byte	0x90
 453 00ea 03       		.uleb128 0x3
 454 00eb 21000000 		.4byte	.LASF20
 455 00ef 05       		.byte	0x5
ARM GAS  /var/folders/vd/czx34qs52cd_f3nb04sxmghc0000gn/T//ccsLIAkY.s 			page 9


 456 00f0 3C       		.byte	0x3c
 457 00f1 A2000000 		.4byte	0xa2
 458 00f5 03       		.uleb128 0x3
 459 00f6 41040000 		.4byte	.LASF21
 460 00fa 06       		.byte	0x6
 461 00fb 39       		.byte	0x39
 462 00fc DF000000 		.4byte	0xdf
 463 0100 03       		.uleb128 0x3
 464 0101 DE030000 		.4byte	.LASF22
 465 0105 06       		.byte	0x6
 466 0106 3C       		.byte	0x3c
 467 0107 B4000000 		.4byte	0xb4
 468 010b 03       		.uleb128 0x3
 469 010c 3F020000 		.4byte	.LASF23
 470 0110 06       		.byte	0x6
 471 0111 3D       		.byte	0x3d
 472 0112 B4000000 		.4byte	0xb4
 473 0116 03       		.uleb128 0x3
 474 0117 DE040000 		.4byte	.LASF24
 475 011b 06       		.byte	0x6
 476 011c 3E       		.byte	0x3e
 477 011d B4000000 		.4byte	0xb4
 478 0121 03       		.uleb128 0x3
 479 0122 0A050000 		.4byte	.LASF25
 480 0126 06       		.byte	0x6
 481 0127 40       		.byte	0x40
 482 0128 DF000000 		.4byte	0xdf
 483 012c 03       		.uleb128 0x3
 484 012d A9030000 		.4byte	.LASF26
 485 0131 06       		.byte	0x6
 486 0132 41       		.byte	0x41
 487 0133 CF000000 		.4byte	0xcf
 488 0137 03       		.uleb128 0x3
 489 0138 F4030000 		.4byte	.LASF27
 490 013c 06       		.byte	0x6
 491 013d 43       		.byte	0x43
 492 013e DF000000 		.4byte	0xdf
 493 0142 03       		.uleb128 0x3
 494 0143 00030000 		.4byte	.LASF28
 495 0147 06       		.byte	0x6
 496 0148 45       		.byte	0x45
 497 0149 CF000000 		.4byte	0xcf
 498 014d 03       		.uleb128 0x3
 499 014e AF030000 		.4byte	.LASF29
 500 0152 06       		.byte	0x6
 501 0153 46       		.byte	0x46
 502 0154 DF000000 		.4byte	0xdf
 503 0158 03       		.uleb128 0x3
 504 0159 66060000 		.4byte	.LASF30
 505 015d 07       		.byte	0x7
 506 015e 34       		.byte	0x34
 507 015f 63010000 		.4byte	0x163
 508 0163 07       		.uleb128 0x7
 509 0164 9F030000 		.4byte	.LASF48
 510 0168 44       		.byte	0x44
 511 0169 08       		.byte	0x8
 512 016a 8E       		.byte	0x8e
ARM GAS  /var/folders/vd/czx34qs52cd_f3nb04sxmghc0000gn/T//ccsLIAkY.s 			page 10


 513 016b 41020000 		.4byte	0x241
 514 016f 08       		.uleb128 0x8
 515 0170 81030000 		.4byte	.LASF31
 516 0174 08       		.byte	0x8
 517 0175 8F       		.byte	0x8f
 518 0176 76020000 		.4byte	0x276
 519 017a 00       		.byte	0
 520 017b 08       		.uleb128 0x8
 521 017c B3040000 		.4byte	.LASF32
 522 0180 08       		.byte	0x8
 523 0181 90       		.byte	0x90
 524 0182 21010000 		.4byte	0x121
 525 0186 08       		.byte	0x8
 526 0187 09       		.uleb128 0x9
 527 0188 63747800 		.ascii	"ctx\000"
 528 018c 08       		.byte	0x8
 529 018d 91       		.byte	0x91
 530 018e D4040000 		.4byte	0x4d4
 531 0192 0C       		.byte	0xc
 532 0193 08       		.uleb128 0x8
 533 0194 2A040000 		.4byte	.LASF33
 534 0198 08       		.byte	0x8
 535 0199 93       		.byte	0x93
 536 019a 4C020000 		.4byte	0x24c
 537 019e 10       		.byte	0x10
 538 019f 08       		.uleb128 0x8
 539 01a0 4C060000 		.4byte	.LASF34
 540 01a4 08       		.byte	0x8
 541 01a5 94       		.byte	0x94
 542 01a6 4C020000 		.4byte	0x24c
 543 01aa 14       		.byte	0x14
 544 01ab 08       		.uleb128 0x8
 545 01ac 7C030000 		.4byte	.LASF35
 546 01b0 08       		.byte	0x8
 547 01b1 9B       		.byte	0x9b
 548 01b2 58060000 		.4byte	0x658
 549 01b6 18       		.byte	0x18
 550 01b7 08       		.uleb128 0x8
 551 01b8 40060000 		.4byte	.LASF36
 552 01bc 08       		.byte	0x8
 553 01bd A4       		.byte	0xa4
 554 01be 6F060000 		.4byte	0x66f
 555 01c2 1C       		.byte	0x1c
 556 01c3 08       		.uleb128 0x8
 557 01c4 30020000 		.4byte	.LASF37
 558 01c8 08       		.byte	0x8
 559 01c9 A9       		.byte	0xa9
 560 01ca 0B010000 		.4byte	0x10b
 561 01ce 20       		.byte	0x20
 562 01cf 08       		.uleb128 0x8
 563 01d0 49070000 		.4byte	.LASF38
 564 01d4 08       		.byte	0x8
 565 01d5 AD       		.byte	0xad
 566 01d6 00010000 		.4byte	0x100
 567 01da 21       		.byte	0x21
 568 01db 08       		.uleb128 0x8
 569 01dc E6040000 		.4byte	.LASF39
ARM GAS  /var/folders/vd/czx34qs52cd_f3nb04sxmghc0000gn/T//ccsLIAkY.s 			page 11


 570 01e0 08       		.byte	0x8
 571 01e1 B2       		.byte	0xb2
 572 01e2 16010000 		.4byte	0x116
 573 01e6 22       		.byte	0x22
 574 01e7 0A       		.uleb128 0xa
 575 01e8 7500     		.ascii	"u\000"
 576 01ea 08       		.byte	0x8
 577 01eb 0301     		.2byte	0x103
 578 01ed 8E050000 		.4byte	0x58e
 579 01f1 24       		.byte	0x24
 580 01f2 0B       		.uleb128 0xb
 581 01f3 C9020000 		.4byte	.LASF40
 582 01f7 08       		.byte	0x8
 583 01f8 0801     		.2byte	0x108
 584 01fa 52020000 		.4byte	0x252
 585 01fe 28       		.byte	0x28
 586 01ff 0B       		.uleb128 0xb
 587 0200 27020000 		.4byte	.LASF41
 588 0204 08       		.byte	0x8
 589 0205 0E01     		.2byte	0x10e
 590 0207 76020000 		.4byte	0x276
 591 020b 2C       		.byte	0x2c
 592 020c 0B       		.uleb128 0xb
 593 020d B6030000 		.4byte	.LASF42
 594 0211 08       		.byte	0x8
 595 0212 1401     		.2byte	0x114
 596 0214 37010000 		.4byte	0x137
 597 0218 34       		.byte	0x34
 598 0219 0B       		.uleb128 0xb
 599 021a A1070000 		.4byte	.LASF43
 600 021e 08       		.byte	0x8
 601 021f 1B01     		.2byte	0x11b
 602 0221 52060000 		.4byte	0x652
 603 0225 38       		.byte	0x38
 604 0226 0B       		.uleb128 0xb
 605 0227 30040000 		.4byte	.LASF44
 606 022b 08       		.byte	0x8
 607 022c 1F01     		.2byte	0x11f
 608 022e 21010000 		.4byte	0x121
 609 0232 3C       		.byte	0x3c
 610 0233 0B       		.uleb128 0xb
 611 0234 87030000 		.4byte	.LASF45
 612 0238 08       		.byte	0x8
 613 0239 2601     		.2byte	0x126
 614 023b 29030000 		.4byte	0x329
 615 023f 40       		.byte	0x40
 616 0240 00       		.byte	0
 617 0241 03       		.uleb128 0x3
 618 0242 49040000 		.4byte	.LASF46
 619 0246 07       		.byte	0x7
 620 0247 39       		.byte	0x39
 621 0248 4C020000 		.4byte	0x24c
 622 024c 0C       		.uleb128 0xc
 623 024d 04       		.byte	0x4
 624 024e 58010000 		.4byte	0x158
 625 0252 03       		.uleb128 0x3
 626 0253 60070000 		.4byte	.LASF47
ARM GAS  /var/folders/vd/czx34qs52cd_f3nb04sxmghc0000gn/T//ccsLIAkY.s 			page 12


 627 0257 07       		.byte	0x7
 628 0258 3E       		.byte	0x3e
 629 0259 5D020000 		.4byte	0x25d
 630 025d 07       		.uleb128 0x7
 631 025e 18060000 		.4byte	.LASF49
 632 0262 04       		.byte	0x4
 633 0263 08       		.byte	0x8
 634 0264 7C       		.byte	0x7c
 635 0265 76020000 		.4byte	0x276
 636 0269 08       		.uleb128 0x8
 637 026a E6000000 		.4byte	.LASF50
 638 026e 08       		.byte	0x8
 639 026f 7D       		.byte	0x7d
 640 0270 4C020000 		.4byte	0x24c
 641 0274 00       		.byte	0
 642 0275 00       		.byte	0
 643 0276 03       		.uleb128 0x3
 644 0277 F9060000 		.4byte	.LASF51
 645 027b 07       		.byte	0x7
 646 027c 45       		.byte	0x45
 647 027d 81020000 		.4byte	0x281
 648 0281 07       		.uleb128 0x7
 649 0282 EB000000 		.4byte	.LASF52
 650 0286 08       		.byte	0x8
 651 0287 08       		.byte	0x8
 652 0288 83       		.byte	0x83
 653 0289 A6020000 		.4byte	0x2a6
 654 028d 08       		.uleb128 0x8
 655 028e E6000000 		.4byte	.LASF50
 656 0292 08       		.byte	0x8
 657 0293 84       		.byte	0x84
 658 0294 4C020000 		.4byte	0x24c
 659 0298 00       		.byte	0
 660 0299 08       		.uleb128 0x8
 661 029a 34000000 		.4byte	.LASF53
 662 029e 08       		.byte	0x8
 663 029f 85       		.byte	0x85
 664 02a0 4C020000 		.4byte	0x24c
 665 02a4 04       		.byte	0x4
 666 02a5 00       		.byte	0
 667 02a6 03       		.uleb128 0x3
 668 02a7 00000000 		.4byte	.LASF54
 669 02ab 07       		.byte	0x7
 670 02ac 4C       		.byte	0x4c
 671 02ad B1020000 		.4byte	0x2b1
 672 02b1 0D       		.uleb128 0xd
 673 02b2 E6030000 		.4byte	.LASF55
 674 02b6 1C       		.byte	0x1c
 675 02b7 08       		.byte	0x8
 676 02b8 5E01     		.2byte	0x15e
 677 02ba 0D030000 		.4byte	0x30d
 678 02be 0B       		.uleb128 0xb
 679 02bf 81030000 		.4byte	.LASF31
 680 02c3 08       		.byte	0x8
 681 02c4 5F01     		.2byte	0x15f
 682 02c6 76020000 		.4byte	0x276
 683 02ca 00       		.byte	0
ARM GAS  /var/folders/vd/czx34qs52cd_f3nb04sxmghc0000gn/T//ccsLIAkY.s 			page 13


 684 02cb 0B       		.uleb128 0xb
 685 02cc B3040000 		.4byte	.LASF32
 686 02d0 08       		.byte	0x8
 687 02d1 6001     		.2byte	0x160
 688 02d3 21010000 		.4byte	0x121
 689 02d7 08       		.byte	0x8
 690 02d8 0A       		.uleb128 0xa
 691 02d9 63747800 		.ascii	"ctx\000"
 692 02dd 08       		.byte	0x8
 693 02de 6201     		.2byte	0x162
 694 02e0 D4040000 		.4byte	0x4d4
 695 02e4 0C       		.byte	0xc
 696 02e5 0B       		.uleb128 0xb
 697 02e6 2A040000 		.4byte	.LASF33
 698 02ea 08       		.byte	0x8
 699 02eb 6501     		.2byte	0x165
 700 02ed 4C020000 		.4byte	0x24c
 701 02f1 10       		.byte	0x10
 702 02f2 0B       		.uleb128 0xb
 703 02f3 4C060000 		.4byte	.LASF34
 704 02f7 08       		.byte	0x8
 705 02f8 6601     		.2byte	0x166
 706 02fa 4C020000 		.4byte	0x24c
 707 02fe 14       		.byte	0x14
 708 02ff 0B       		.uleb128 0xb
 709 0300 C1040000 		.4byte	.LASF56
 710 0304 08       		.byte	0x8
 711 0305 6901     		.2byte	0x169
 712 0307 4C020000 		.4byte	0x24c
 713 030b 18       		.byte	0x18
 714 030c 00       		.byte	0
 715 030d 03       		.uleb128 0x3
 716 030e 84060000 		.4byte	.LASF57
 717 0312 07       		.byte	0x7
 718 0313 51       		.byte	0x51
 719 0314 18030000 		.4byte	0x318
 720 0318 0C       		.uleb128 0xc
 721 0319 04       		.byte	0x4
 722 031a 1E030000 		.4byte	0x31e
 723 031e 0E       		.uleb128 0xe
 724 031f 29030000 		.4byte	0x329
 725 0323 0F       		.uleb128 0xf
 726 0324 29030000 		.4byte	0x329
 727 0328 00       		.byte	0
 728 0329 10       		.uleb128 0x10
 729 032a 04       		.byte	0x4
 730 032b 03       		.uleb128 0x3
 731 032c EB040000 		.4byte	.LASF58
 732 0330 07       		.byte	0x7
 733 0331 56       		.byte	0x56
 734 0332 36030000 		.4byte	0x336
 735 0336 0D       		.uleb128 0xd
 736 0337 C6050000 		.4byte	.LASF59
 737 033b 14       		.byte	0x14
 738 033c 08       		.byte	0x8
 739 033d 3901     		.2byte	0x139
 740 033f 85030000 		.4byte	0x385
ARM GAS  /var/folders/vd/czx34qs52cd_f3nb04sxmghc0000gn/T//ccsLIAkY.s 			page 14


 741 0343 0B       		.uleb128 0xb
 742 0344 E6000000 		.4byte	.LASF50
 743 0348 08       		.byte	0x8
 744 0349 3A01     		.2byte	0x13a
 745 034b 75060000 		.4byte	0x675
 746 034f 00       		.byte	0
 747 0350 0B       		.uleb128 0xb
 748 0351 34000000 		.4byte	.LASF53
 749 0355 08       		.byte	0x8
 750 0356 3B01     		.2byte	0x13b
 751 0358 75060000 		.4byte	0x675
 752 035c 04       		.byte	0x4
 753 035d 0B       		.uleb128 0xb
 754 035e 14000000 		.4byte	.LASF60
 755 0362 08       		.byte	0x8
 756 0363 3C01     		.2byte	0x13c
 757 0365 5C040000 		.4byte	0x45c
 758 0369 08       		.byte	0x8
 759 036a 0B       		.uleb128 0xb
 760 036b D3000000 		.4byte	.LASF61
 761 036f 08       		.byte	0x8
 762 0370 3D01     		.2byte	0x13d
 763 0372 0D030000 		.4byte	0x30d
 764 0376 0C       		.byte	0xc
 765 0377 0A       		.uleb128 0xa
 766 0378 70617200 		.ascii	"par\000"
 767 037c 08       		.byte	0x8
 768 037d 3F01     		.2byte	0x13f
 769 037f 29030000 		.4byte	0x329
 770 0383 10       		.byte	0x10
 771 0384 00       		.byte	0
 772 0385 03       		.uleb128 0x3
 773 0386 B0000000 		.4byte	.LASF62
 774 038a 07       		.byte	0x7
 775 038b 5B       		.byte	0x5b
 776 038c 90030000 		.4byte	0x390
 777 0390 0D       		.uleb128 0xd
 778 0391 5C040000 		.4byte	.LASF63
 779 0395 10       		.byte	0x10
 780 0396 08       		.byte	0x8
 781 0397 4901     		.2byte	0x149
 782 0399 D2030000 		.4byte	0x3d2
 783 039d 0B       		.uleb128 0xb
 784 039e E6000000 		.4byte	.LASF50
 785 03a2 08       		.byte	0x8
 786 03a3 4A01     		.2byte	0x14a
 787 03a5 75060000 		.4byte	0x675
 788 03a9 00       		.byte	0
 789 03aa 0B       		.uleb128 0xb
 790 03ab 34000000 		.4byte	.LASF53
 791 03af 08       		.byte	0x8
 792 03b0 4C01     		.2byte	0x14c
 793 03b2 75060000 		.4byte	0x675
 794 03b6 04       		.byte	0x4
 795 03b7 0B       		.uleb128 0xb
 796 03b8 14000000 		.4byte	.LASF60
 797 03bc 08       		.byte	0x8
ARM GAS  /var/folders/vd/czx34qs52cd_f3nb04sxmghc0000gn/T//ccsLIAkY.s 			page 15


 798 03bd 4E01     		.2byte	0x14e
 799 03bf 5C040000 		.4byte	0x45c
 800 03c3 08       		.byte	0x8
 801 03c4 0B       		.uleb128 0xb
 802 03c5 83050000 		.4byte	.LASF64
 803 03c9 08       		.byte	0x8
 804 03ca 5601     		.2byte	0x156
 805 03cc 51040000 		.4byte	0x451
 806 03d0 0C       		.byte	0xc
 807 03d1 00       		.byte	0
 808 03d2 03       		.uleb128 0x3
 809 03d3 45000000 		.4byte	.LASF65
 810 03d7 07       		.byte	0x7
 811 03d8 60       		.byte	0x60
 812 03d9 DD030000 		.4byte	0x3dd
 813 03dd 0D       		.uleb128 0xd
 814 03de B9020000 		.4byte	.LASF66
 815 03e2 04       		.byte	0x4
 816 03e3 08       		.byte	0x8
 817 03e4 7001     		.2byte	0x170
 818 03e6 F8030000 		.4byte	0x3f8
 819 03ea 0B       		.uleb128 0xb
 820 03eb 9B060000 		.4byte	.LASF67
 821 03ef 08       		.byte	0x8
 822 03f0 7801     		.2byte	0x178
 823 03f2 5E060000 		.4byte	0x65e
 824 03f6 00       		.byte	0
 825 03f7 00       		.byte	0
 826 03f8 03       		.uleb128 0x3
 827 03f9 CA030000 		.4byte	.LASF68
 828 03fd 07       		.byte	0x7
 829 03fe 65       		.byte	0x65
 830 03ff 03040000 		.4byte	0x403
 831 0403 0D       		.uleb128 0xd
 832 0404 A0050000 		.4byte	.LASF69
 833 0408 78       		.byte	0x78
 834 0409 08       		.byte	0x8
 835 040a 9001     		.2byte	0x190
 836 040c 51040000 		.4byte	0x451
 837 0410 0B       		.uleb128 0xb
 838 0411 F5010000 		.4byte	.LASF70
 839 0415 08       		.byte	0x8
 840 0416 9401     		.2byte	0x194
 841 0418 A6020000 		.4byte	0x2a6
 842 041c 00       		.byte	0
 843 041d 0B       		.uleb128 0xb
 844 041e 03020000 		.4byte	.LASF71
 845 0422 08       		.byte	0x8
 846 0423 9801     		.2byte	0x198
 847 0425 85030000 		.4byte	0x385
 848 0429 1C       		.byte	0x1c
 849 042a 0A       		.uleb128 0xa
 850 042b 64626700 		.ascii	"dbg\000"
 851 042f 08       		.byte	0x8
 852 0430 9C01     		.2byte	0x19c
 853 0432 D2030000 		.4byte	0x3d2
 854 0436 2C       		.byte	0x2c
ARM GAS  /var/folders/vd/czx34qs52cd_f3nb04sxmghc0000gn/T//ccsLIAkY.s 			page 16


 855 0437 0B       		.uleb128 0xb
 856 0438 9D000000 		.4byte	.LASF72
 857 043c 08       		.byte	0x8
 858 043d A001     		.2byte	0x1a0
 859 043f 58010000 		.4byte	0x158
 860 0443 30       		.byte	0x30
 861 0444 0A       		.uleb128 0xa
 862 0445 746D00   		.ascii	"tm\000"
 863 0448 08       		.byte	0x8
 864 0449 A501     		.2byte	0x1a5
 865 044b 83050000 		.4byte	0x583
 866 044f 74       		.byte	0x74
 867 0450 00       		.byte	0
 868 0451 03       		.uleb128 0x3
 869 0452 7A060000 		.4byte	.LASF73
 870 0456 09       		.byte	0x9
 871 0457 8C       		.byte	0x8c
 872 0458 DF000000 		.4byte	0xdf
 873 045c 03       		.uleb128 0x3
 874 045d F2020000 		.4byte	.LASF74
 875 0461 09       		.byte	0x9
 876 0462 98       		.byte	0x98
 877 0463 DF000000 		.4byte	0xdf
 878 0467 11       		.uleb128 0x11
 879 0468 C6000000 		.4byte	.LASF75
 880 046c 0A       		.byte	0xa
 881 046d F407     		.2byte	0x7f4
 882 046f DA000000 		.4byte	0xda
 883 0473 12       		.uleb128 0x12
 884 0474 13030000 		.4byte	.LASF76
 885 0478 0B       		.byte	0xb
 886 0479 4C       		.byte	0x4c
 887 047a DF000000 		.4byte	0xdf
 888 047e 13       		.uleb128 0x13
 889 047f BF000000 		.4byte	0xbf
 890 0483 8E040000 		.4byte	0x48e
 891 0487 14       		.uleb128 0x14
 892 0488 37000000 		.4byte	0x37
 893 048c 0F       		.byte	0xf
 894 048d 00       		.byte	0
 895 048e 05       		.uleb128 0x5
 896 048f 7E040000 		.4byte	0x47e
 897 0493 12       		.uleb128 0x12
 898 0494 00040000 		.4byte	.LASF77
 899 0498 0B       		.byte	0xb
 900 0499 4E       		.byte	0x4e
 901 049a 8E040000 		.4byte	0x48e
 902 049e 13       		.uleb128 0x13
 903 049f BF000000 		.4byte	0xbf
 904 04a3 AE040000 		.4byte	0x4ae
 905 04a7 14       		.uleb128 0x14
 906 04a8 37000000 		.4byte	0x37
 907 04ac 07       		.byte	0x7
 908 04ad 00       		.byte	0
 909 04ae 05       		.uleb128 0x5
 910 04af 9E040000 		.4byte	0x49e
 911 04b3 12       		.uleb128 0x12
ARM GAS  /var/folders/vd/czx34qs52cd_f3nb04sxmghc0000gn/T//ccsLIAkY.s 			page 17


 912 04b4 D1020000 		.4byte	.LASF78
 913 04b8 0B       		.byte	0xb
 914 04b9 4F       		.byte	0x4f
 915 04ba AE040000 		.4byte	0x4ae
 916 04be 03       		.uleb128 0x3
 917 04bf A7020000 		.4byte	.LASF79
 918 04c3 0C       		.byte	0xc
 919 04c4 65       		.byte	0x65
 920 04c5 29030000 		.4byte	0x329
 921 04c9 03       		.uleb128 0x3
 922 04ca 1F040000 		.4byte	.LASF80
 923 04ce 0C       		.byte	0xc
 924 04cf 6D       		.byte	0x6d
 925 04d0 EA000000 		.4byte	0xea
 926 04d4 07       		.uleb128 0x7
 927 04d5 95040000 		.4byte	.LASF81
 928 04d9 04       		.byte	0x4
 929 04da 0C       		.byte	0xc
 930 04db 89       		.byte	0x89
 931 04dc EC040000 		.4byte	0x4ec
 932 04e0 09       		.uleb128 0x9
 933 04e1 737000   		.ascii	"sp\000"
 934 04e4 0C       		.byte	0xc
 935 04e5 8A       		.byte	0x8a
 936 04e6 68050000 		.4byte	0x568
 937 04ea 00       		.byte	0
 938 04eb 00       		.byte	0
 939 04ec 0D       		.uleb128 0xd
 940 04ed 39000000 		.4byte	.LASF82
 941 04f1 24       		.byte	0x24
 942 04f2 0D       		.byte	0xd
 943 04f3 5901     		.2byte	0x159
 944 04f5 68050000 		.4byte	0x568
 945 04f9 0A       		.uleb128 0xa
 946 04fa 723400   		.ascii	"r4\000"
 947 04fd 0D       		.byte	0xd
 948 04fe 6C01     		.2byte	0x16c
 949 0500 BE040000 		.4byte	0x4be
 950 0504 00       		.byte	0
 951 0505 0A       		.uleb128 0xa
 952 0506 723500   		.ascii	"r5\000"
 953 0509 0D       		.byte	0xd
 954 050a 6D01     		.2byte	0x16d
 955 050c BE040000 		.4byte	0x4be
 956 0510 04       		.byte	0x4
 957 0511 0A       		.uleb128 0xa
 958 0512 723600   		.ascii	"r6\000"
 959 0515 0D       		.byte	0xd
 960 0516 6E01     		.2byte	0x16e
 961 0518 BE040000 		.4byte	0x4be
 962 051c 08       		.byte	0x8
 963 051d 0A       		.uleb128 0xa
 964 051e 723700   		.ascii	"r7\000"
 965 0521 0D       		.byte	0xd
 966 0522 6F01     		.2byte	0x16f
 967 0524 BE040000 		.4byte	0x4be
 968 0528 0C       		.byte	0xc
ARM GAS  /var/folders/vd/czx34qs52cd_f3nb04sxmghc0000gn/T//ccsLIAkY.s 			page 18


 969 0529 0A       		.uleb128 0xa
 970 052a 723800   		.ascii	"r8\000"
 971 052d 0D       		.byte	0xd
 972 052e 7001     		.2byte	0x170
 973 0530 BE040000 		.4byte	0x4be
 974 0534 10       		.byte	0x10
 975 0535 0A       		.uleb128 0xa
 976 0536 723900   		.ascii	"r9\000"
 977 0539 0D       		.byte	0xd
 978 053a 7101     		.2byte	0x171
 979 053c BE040000 		.4byte	0x4be
 980 0540 14       		.byte	0x14
 981 0541 0A       		.uleb128 0xa
 982 0542 72313000 		.ascii	"r10\000"
 983 0546 0D       		.byte	0xd
 984 0547 7201     		.2byte	0x172
 985 0549 BE040000 		.4byte	0x4be
 986 054d 18       		.byte	0x18
 987 054e 0A       		.uleb128 0xa
 988 054f 72313100 		.ascii	"r11\000"
 989 0553 0D       		.byte	0xd
 990 0554 7301     		.2byte	0x173
 991 0556 BE040000 		.4byte	0x4be
 992 055a 1C       		.byte	0x1c
 993 055b 0A       		.uleb128 0xa
 994 055c 6C7200   		.ascii	"lr\000"
 995 055f 0D       		.byte	0xd
 996 0560 7401     		.2byte	0x174
 997 0562 BE040000 		.4byte	0x4be
 998 0566 20       		.byte	0x20
 999 0567 00       		.byte	0
 1000 0568 0C       		.uleb128 0xc
 1001 0569 04       		.byte	0x4
 1002 056a EC040000 		.4byte	0x4ec
 1003 056e 15       		.uleb128 0x15
 1004 056f 04       		.byte	0x4
 1005 0570 0E       		.byte	0xe
 1006 0571 38       		.byte	0x38
 1007 0572 83050000 		.4byte	0x583
 1008 0576 08       		.uleb128 0x8
 1009 0577 A5060000 		.4byte	.LASF83
 1010 057b 0E       		.byte	0xe
 1011 057c 3C       		.byte	0x3c
 1012 057d F5000000 		.4byte	0xf5
 1013 0581 00       		.byte	0
 1014 0582 00       		.byte	0
 1015 0583 03       		.uleb128 0x3
 1016 0584 A2040000 		.4byte	.LASF84
 1017 0588 0E       		.byte	0xe
 1018 0589 3D       		.byte	0x3d
 1019 058a 6E050000 		.4byte	0x56e
 1020 058e 16       		.uleb128 0x16
 1021 058f 04       		.byte	0x4
 1022 0590 08       		.byte	0x8
 1023 0591 C6       		.byte	0xc6
 1024 0592 F0050000 		.4byte	0x5f0
 1025 0596 17       		.uleb128 0x17
ARM GAS  /var/folders/vd/czx34qs52cd_f3nb04sxmghc0000gn/T//ccsLIAkY.s 			page 19


 1026 0597 1A000000 		.4byte	.LASF85
 1027 059b 08       		.byte	0x8
 1028 059c CD       		.byte	0xcd
 1029 059d 2C010000 		.4byte	0x12c
 1030 05a1 17       		.uleb128 0x17
 1031 05a2 94000000 		.4byte	.LASF86
 1032 05a6 08       		.byte	0x8
 1033 05a7 D4       		.byte	0xd4
 1034 05a8 2C010000 		.4byte	0x12c
 1035 05ac 17       		.uleb128 0x17
 1036 05ad 59070000 		.4byte	.LASF87
 1037 05b1 08       		.byte	0x8
 1038 05b2 DB       		.byte	0xdb
 1039 05b3 29030000 		.4byte	0x329
 1040 05b7 17       		.uleb128 0x17
 1041 05b8 54030000 		.4byte	.LASF88
 1042 05bc 08       		.byte	0x8
 1043 05bd E2       		.byte	0xe2
 1044 05be F0050000 		.4byte	0x5f0
 1045 05c2 17       		.uleb128 0x17
 1046 05c3 A8000000 		.4byte	.LASF89
 1047 05c7 08       		.byte	0x8
 1048 05c8 E7       		.byte	0xe7
 1049 05c9 2C010000 		.4byte	0x12c
 1050 05cd 17       		.uleb128 0x17
 1051 05ce 23030000 		.4byte	.LASF90
 1052 05d2 08       		.byte	0x8
 1053 05d3 F0       		.byte	0xf0
 1054 05d4 1B060000 		.4byte	0x61b
 1055 05d8 17       		.uleb128 0x17
 1056 05d9 11060000 		.4byte	.LASF91
 1057 05dd 08       		.byte	0x8
 1058 05de F9       		.byte	0xf9
 1059 05df 52060000 		.4byte	0x652
 1060 05e3 18       		.uleb128 0x18
 1061 05e4 99050000 		.4byte	.LASF92
 1062 05e8 08       		.byte	0x8
 1063 05e9 0101     		.2byte	0x101
 1064 05eb 37010000 		.4byte	0x137
 1065 05ef 00       		.byte	0
 1066 05f0 0C       		.uleb128 0xc
 1067 05f1 04       		.byte	0x4
 1068 05f2 41020000 		.4byte	0x241
 1069 05f6 07       		.uleb128 0x7
 1070 05f7 D7050000 		.4byte	.LASF93
 1071 05fb 0C       		.byte	0xc
 1072 05fc 0F       		.byte	0xf
 1073 05fd 34       		.byte	0x34
 1074 05fe 1B060000 		.4byte	0x61b
 1075 0602 08       		.uleb128 0x8
 1076 0603 81030000 		.4byte	.LASF31
 1077 0607 0F       		.byte	0xf
 1078 0608 35       		.byte	0x35
 1079 0609 76020000 		.4byte	0x276
 1080 060d 00       		.byte	0
 1081 060e 09       		.uleb128 0x9
 1082 060f 636E7400 		.ascii	"cnt\000"
ARM GAS  /var/folders/vd/czx34qs52cd_f3nb04sxmghc0000gn/T//ccsLIAkY.s 			page 20


 1083 0613 0F       		.byte	0xf
 1084 0614 37       		.byte	0x37
 1085 0615 42010000 		.4byte	0x142
 1086 0619 08       		.byte	0x8
 1087 061a 00       		.byte	0
 1088 061b 0C       		.uleb128 0xc
 1089 061c 04       		.byte	0x4
 1090 061d F6050000 		.4byte	0x5f6
 1091 0621 07       		.uleb128 0x7
 1092 0622 AC060000 		.4byte	.LASF94
 1093 0626 10       		.byte	0x10
 1094 0627 10       		.byte	0x10
 1095 0628 39       		.byte	0x39
 1096 0629 52060000 		.4byte	0x652
 1097 062d 08       		.uleb128 0x8
 1098 062e 81030000 		.4byte	.LASF31
 1099 0632 10       		.byte	0x10
 1100 0633 3A       		.byte	0x3a
 1101 0634 76020000 		.4byte	0x276
 1102 0638 00       		.byte	0
 1103 0639 08       		.uleb128 0x8
 1104 063a 28060000 		.4byte	.LASF95
 1105 063e 10       		.byte	0x10
 1106 063f 3C       		.byte	0x3c
 1107 0640 4C020000 		.4byte	0x24c
 1108 0644 08       		.byte	0x8
 1109 0645 08       		.uleb128 0x8
 1110 0646 E6000000 		.4byte	.LASF50
 1111 064a 10       		.byte	0x10
 1112 064b 3E       		.byte	0x3e
 1113 064c B4070000 		.4byte	0x7b4
 1114 0650 0C       		.byte	0xc
 1115 0651 00       		.byte	0
 1116 0652 0C       		.uleb128 0xc
 1117 0653 04       		.byte	0x4
 1118 0654 21060000 		.4byte	0x621
 1119 0658 0C       		.uleb128 0xc
 1120 0659 04       		.byte	0x4
 1121 065a 6A060000 		.4byte	0x66a
 1122 065e 06       		.uleb128 0x6
 1123 065f 58060000 		.4byte	0x658
 1124 0663 04       		.uleb128 0x4
 1125 0664 01       		.byte	0x1
 1126 0665 08       		.byte	0x8
 1127 0666 47060000 		.4byte	.LASF96
 1128 066a 05       		.uleb128 0x5
 1129 066b 63060000 		.4byte	0x663
 1130 066f 0C       		.uleb128 0xc
 1131 0670 04       		.byte	0x4
 1132 0671 C9040000 		.4byte	0x4c9
 1133 0675 0C       		.uleb128 0xc
 1134 0676 04       		.byte	0x4
 1135 0677 2B030000 		.4byte	0x32b
 1136 067b 19       		.uleb128 0x19
 1137 067c 636800   		.ascii	"ch\000"
 1138 067f 08       		.byte	0x8
 1139 0680 C701     		.2byte	0x1c7
ARM GAS  /var/folders/vd/czx34qs52cd_f3nb04sxmghc0000gn/T//ccsLIAkY.s 			page 21


 1140 0682 F8030000 		.4byte	0x3f8
 1141 0686 13       		.uleb128 0x13
 1142 0687 C9040000 		.4byte	0x4c9
 1143 068b 91060000 		.4byte	0x691
 1144 068f 1A       		.uleb128 0x1a
 1145 0690 00       		.byte	0
 1146 0691 11       		.uleb128 0x11
 1147 0692 ED050000 		.4byte	.LASF97
 1148 0696 11       		.byte	0x11
 1149 0697 1701     		.2byte	0x117
 1150 0699 86060000 		.4byte	0x686
 1151 069d 15       		.uleb128 0x15
 1152 069e 16       		.byte	0x16
 1153 069f 12       		.byte	0x12
 1154 06a0 34       		.byte	0x34
 1155 06a1 7E070000 		.4byte	0x77e
 1156 06a5 08       		.uleb128 0x8
 1157 06a6 65020000 		.4byte	.LASF98
 1158 06aa 12       		.byte	0x12
 1159 06ab 35       		.byte	0x35
 1160 06ac 7E070000 		.4byte	0x77e
 1161 06b0 00       		.byte	0
 1162 06b1 08       		.uleb128 0x8
 1163 06b2 DF020000 		.4byte	.LASF99
 1164 06b6 12       		.byte	0x12
 1165 06b7 36       		.byte	0x36
 1166 06b8 B4000000 		.4byte	0xb4
 1167 06bc 04       		.byte	0x4
 1168 06bd 08       		.uleb128 0x8
 1169 06be F0010000 		.4byte	.LASF100
 1170 06c2 12       		.byte	0x12
 1171 06c3 37       		.byte	0x37
 1172 06c4 B4000000 		.4byte	0xb4
 1173 06c8 05       		.byte	0x5
 1174 06c9 08       		.uleb128 0x8
 1175 06ca 39040000 		.4byte	.LASF101
 1176 06ce 12       		.byte	0x12
 1177 06cf 38       		.byte	0x38
 1178 06d0 C4000000 		.4byte	0xc4
 1179 06d4 06       		.byte	0x6
 1180 06d5 08       		.uleb128 0x8
 1181 06d6 DE060000 		.4byte	.LASF102
 1182 06da 12       		.byte	0x12
 1183 06db 39       		.byte	0x39
 1184 06dc B4000000 		.4byte	0xb4
 1185 06e0 08       		.byte	0x8
 1186 06e1 08       		.uleb128 0x8
 1187 06e2 FF050000 		.4byte	.LASF103
 1188 06e6 12       		.byte	0x12
 1189 06e7 3A       		.byte	0x3a
 1190 06e8 B4000000 		.4byte	0xb4
 1191 06ec 09       		.byte	0x9
 1192 06ed 08       		.uleb128 0x8
 1193 06ee 30050000 		.4byte	.LASF104
 1194 06f2 12       		.byte	0x12
 1195 06f3 3B       		.byte	0x3b
 1196 06f4 B4000000 		.4byte	0xb4
ARM GAS  /var/folders/vd/czx34qs52cd_f3nb04sxmghc0000gn/T//ccsLIAkY.s 			page 22


 1197 06f8 0A       		.byte	0xa
 1198 06f9 08       		.uleb128 0x8
 1199 06fa 57050000 		.4byte	.LASF105
 1200 06fe 12       		.byte	0x12
 1201 06ff 3C       		.byte	0x3c
 1202 0700 B4000000 		.4byte	0xb4
 1203 0704 0B       		.byte	0xb
 1204 0705 08       		.uleb128 0x8
 1205 0706 D6030000 		.4byte	.LASF106
 1206 070a 12       		.byte	0x12
 1207 070b 3D       		.byte	0x3d
 1208 070c B4000000 		.4byte	0xb4
 1209 0710 0C       		.byte	0xc
 1210 0711 08       		.uleb128 0x8
 1211 0712 8B040000 		.4byte	.LASF107
 1212 0716 12       		.byte	0x12
 1213 0717 3E       		.byte	0x3e
 1214 0718 B4000000 		.4byte	0xb4
 1215 071c 0D       		.byte	0xd
 1216 071d 08       		.uleb128 0x8
 1217 071e B5060000 		.4byte	.LASF108
 1218 0722 12       		.byte	0x12
 1219 0723 3F       		.byte	0x3f
 1220 0724 B4000000 		.4byte	0xb4
 1221 0728 0E       		.byte	0xe
 1222 0729 08       		.uleb128 0x8
 1223 072a 38070000 		.4byte	.LASF109
 1224 072e 12       		.byte	0x12
 1225 072f 40       		.byte	0x40
 1226 0730 B4000000 		.4byte	0xb4
 1227 0734 0F       		.byte	0xf
 1228 0735 08       		.uleb128 0x8
 1229 0736 8F020000 		.4byte	.LASF110
 1230 073a 12       		.byte	0x12
 1231 073b 41       		.byte	0x41
 1232 073c B4000000 		.4byte	0xb4
 1233 0740 10       		.byte	0x10
 1234 0741 08       		.uleb128 0x8
 1235 0742 6F070000 		.4byte	.LASF111
 1236 0746 12       		.byte	0x12
 1237 0747 42       		.byte	0x42
 1238 0748 B4000000 		.4byte	0xb4
 1239 074c 11       		.byte	0x11
 1240 074d 08       		.uleb128 0x8
 1241 074e 97070000 		.4byte	.LASF112
 1242 0752 12       		.byte	0x12
 1243 0753 43       		.byte	0x43
 1244 0754 B4000000 		.4byte	0xb4
 1245 0758 12       		.byte	0x12
 1246 0759 08       		.uleb128 0x8
 1247 075a 8D030000 		.4byte	.LASF113
 1248 075e 12       		.byte	0x12
 1249 075f 44       		.byte	0x44
 1250 0760 B4000000 		.4byte	0xb4
 1251 0764 13       		.byte	0x13
 1252 0765 08       		.uleb128 0x8
 1253 0766 83020000 		.4byte	.LASF114
ARM GAS  /var/folders/vd/czx34qs52cd_f3nb04sxmghc0000gn/T//ccsLIAkY.s 			page 23


 1254 076a 12       		.byte	0x12
 1255 076b 45       		.byte	0x45
 1256 076c B4000000 		.4byte	0xb4
 1257 0770 14       		.byte	0x14
 1258 0771 08       		.uleb128 0x8
 1259 0772 E4050000 		.4byte	.LASF115
 1260 0776 12       		.byte	0x12
 1261 0777 46       		.byte	0x46
 1262 0778 B4000000 		.4byte	0xb4
 1263 077c 15       		.byte	0x15
 1264 077d 00       		.byte	0
 1265 077e 13       		.uleb128 0x13
 1266 077f 63060000 		.4byte	0x663
 1267 0783 8E070000 		.4byte	0x78e
 1268 0787 14       		.uleb128 0x14
 1269 0788 37000000 		.4byte	0x37
 1270 078c 03       		.byte	0x3
 1271 078d 00       		.byte	0
 1272 078e 03       		.uleb128 0x3
 1273 078f 79020000 		.4byte	.LASF116
 1274 0793 12       		.byte	0x12
 1275 0794 47       		.byte	0x47
 1276 0795 9D060000 		.4byte	0x69d
 1277 0799 05       		.uleb128 0x5
 1278 079a 8E070000 		.4byte	0x78e
 1279 079e 12       		.uleb128 0x12
 1280 079f 5A030000 		.4byte	.LASF117
 1281 07a3 12       		.byte	0x12
 1282 07a4 6C       		.byte	0x6c
 1283 07a5 99070000 		.4byte	0x799
 1284 07a9 03       		.uleb128 0x3
 1285 07aa E4020000 		.4byte	.LASF118
 1286 07ae 10       		.byte	0x10
 1287 07af 34       		.byte	0x34
 1288 07b0 21060000 		.4byte	0x621
 1289 07b4 0C       		.uleb128 0xc
 1290 07b5 04       		.byte	0x4
 1291 07b6 A9070000 		.4byte	0x7a9
 1292 07ba 04       		.uleb128 0x4
 1293 07bb 01       		.byte	0x1
 1294 07bc 02       		.byte	0x2
 1295 07bd 3B050000 		.4byte	.LASF119
 1296 07c1 03       		.uleb128 0x3
 1297 07c2 70000000 		.4byte	.LASF120
 1298 07c6 13       		.byte	0x13
 1299 07c7 4B       		.byte	0x4b
 1300 07c8 CC070000 		.4byte	0x7cc
 1301 07cc 0C       		.uleb128 0xc
 1302 07cd 04       		.byte	0x4
 1303 07ce D2070000 		.4byte	0x7d2
 1304 07d2 1B       		.uleb128 0x1b
 1305 07d3 29030000 		.4byte	0x329
 1306 07d7 E6070000 		.4byte	0x7e6
 1307 07db 0F       		.uleb128 0xf
 1308 07dc 2C000000 		.4byte	0x2c
 1309 07e0 0F       		.uleb128 0xf
 1310 07e1 37000000 		.4byte	0x37
ARM GAS  /var/folders/vd/czx34qs52cd_f3nb04sxmghc0000gn/T//ccsLIAkY.s 			page 24


 1311 07e5 00       		.byte	0
 1312 07e6 15       		.uleb128 0x15
 1313 07e7 08       		.byte	0x8
 1314 07e8 13       		.byte	0x13
 1315 07e9 55       		.byte	0x55
 1316 07ea 07080000 		.4byte	0x807
 1317 07ee 08       		.uleb128 0x8
 1318 07ef A9070000 		.4byte	.LASF121
 1319 07f3 13       		.byte	0x13
 1320 07f4 59       		.byte	0x59
 1321 07f5 07080000 		.4byte	0x807
 1322 07f9 00       		.byte	0
 1323 07fa 08       		.uleb128 0x8
 1324 07fb 0E040000 		.4byte	.LASF122
 1325 07ff 13       		.byte	0x13
 1326 0800 5D       		.byte	0x5d
 1327 0801 07080000 		.4byte	0x807
 1328 0805 04       		.byte	0x4
 1329 0806 00       		.byte	0
 1330 0807 0C       		.uleb128 0xc
 1331 0808 04       		.byte	0x4
 1332 0809 B4000000 		.4byte	0xb4
 1333 080d 03       		.uleb128 0x3
 1334 080e D4040000 		.4byte	.LASF123
 1335 0812 13       		.byte	0x13
 1336 0813 5E       		.byte	0x5e
 1337 0814 E6070000 		.4byte	0x7e6
 1338 0818 12       		.uleb128 0x12
 1339 0819 6F060000 		.4byte	.LASF124
 1340 081d 13       		.byte	0x13
 1341 081e 69       		.byte	0x69
 1342 081f 0D080000 		.4byte	0x80d
 1343 0823 07       		.uleb128 0x7
 1344 0824 09070000 		.4byte	.LASF125
 1345 0828 04       		.byte	0x4
 1346 0829 14       		.byte	0x14
 1347 082a 3C       		.byte	0x3c
 1348 082b 3C080000 		.4byte	0x83c
 1349 082f 08       		.uleb128 0x8
 1350 0830 E6000000 		.4byte	.LASF50
 1351 0834 14       		.byte	0x14
 1352 0835 3D       		.byte	0x3d
 1353 0836 3C080000 		.4byte	0x83c
 1354 083a 00       		.byte	0
 1355 083b 00       		.byte	0
 1356 083c 0C       		.uleb128 0xc
 1357 083d 04       		.byte	0x4
 1358 083e 23080000 		.4byte	0x823
 1359 0842 15       		.uleb128 0x15
 1360 0843 10       		.byte	0x10
 1361 0844 14       		.byte	0x14
 1362 0845 44       		.byte	0x44
 1363 0846 7B080000 		.4byte	0x87b
 1364 084a 08       		.uleb128 0x8
 1365 084b E6000000 		.4byte	.LASF50
 1366 084f 14       		.byte	0x14
 1367 0850 45       		.byte	0x45
ARM GAS  /var/folders/vd/czx34qs52cd_f3nb04sxmghc0000gn/T//ccsLIAkY.s 			page 25


 1368 0851 3C080000 		.4byte	0x83c
 1369 0855 00       		.byte	0
 1370 0856 08       		.uleb128 0x8
 1371 0857 D2060000 		.4byte	.LASF126
 1372 085b 14       		.byte	0x14
 1373 085c 46       		.byte	0x46
 1374 085d 2C000000 		.4byte	0x2c
 1375 0861 04       		.byte	0x4
 1376 0862 08       		.uleb128 0x8
 1377 0863 EC020000 		.4byte	.LASF127
 1378 0867 14       		.byte	0x14
 1379 0868 48       		.byte	0x48
 1380 0869 37000000 		.4byte	0x37
 1381 086d 08       		.byte	0x8
 1382 086e 08       		.uleb128 0x8
 1383 086f 54000000 		.4byte	.LASF128
 1384 0873 14       		.byte	0x14
 1385 0874 49       		.byte	0x49
 1386 0875 C1070000 		.4byte	0x7c1
 1387 0879 0C       		.byte	0xc
 1388 087a 00       		.byte	0
 1389 087b 03       		.uleb128 0x3
 1390 087c 6E030000 		.4byte	.LASF129
 1391 0880 14       		.byte	0x14
 1392 0881 4B       		.byte	0x4b
 1393 0882 42080000 		.4byte	0x842
 1394 0886 07       		.uleb128 0x7
 1395 0887 FB040000 		.4byte	.LASF130
 1396 088b 10       		.byte	0x10
 1397 088c 15       		.byte	0x15
 1398 088d 97       		.byte	0x97
 1399 088e B7080000 		.4byte	0x8b7
 1400 0892 08       		.uleb128 0x8
 1401 0893 E6000000 		.4byte	.LASF50
 1402 0897 15       		.byte	0x15
 1403 0898 9B       		.byte	0x9b
 1404 0899 B7080000 		.4byte	0x8b7
 1405 089d 00       		.byte	0
 1406 089e 08       		.uleb128 0x8
 1407 089f E6040000 		.4byte	.LASF39
 1408 08a3 15       		.byte	0x15
 1409 08a4 9F       		.byte	0x9f
 1410 08a5 4D010000 		.4byte	0x14d
 1411 08a9 04       		.byte	0x4
 1412 08aa 08       		.uleb128 0x8
 1413 08ab 7C030000 		.4byte	.LASF35
 1414 08af 15       		.byte	0x15
 1415 08b0 A1       		.byte	0xa1
 1416 08b1 BD080000 		.4byte	0x8bd
 1417 08b5 08       		.byte	0x8
 1418 08b6 00       		.byte	0
 1419 08b7 0C       		.uleb128 0xc
 1420 08b8 04       		.byte	0x4
 1421 08b9 86080000 		.4byte	0x886
 1422 08bd 13       		.uleb128 0x13
 1423 08be 63060000 		.4byte	0x663
 1424 08c2 CD080000 		.4byte	0x8cd
ARM GAS  /var/folders/vd/czx34qs52cd_f3nb04sxmghc0000gn/T//ccsLIAkY.s 			page 26


 1425 08c6 14       		.uleb128 0x14
 1426 08c7 37000000 		.4byte	0x37
 1427 08cb 07       		.byte	0x7
 1428 08cc 00       		.byte	0
 1429 08cd 03       		.uleb128 0x3
 1430 08ce D8000000 		.4byte	.LASF131
 1431 08d2 15       		.byte	0x15
 1432 08d3 A5       		.byte	0xa5
 1433 08d4 86080000 		.4byte	0x886
 1434 08d8 07       		.uleb128 0x7
 1435 08d9 7F040000 		.4byte	.LASF132
 1436 08dd 04       		.byte	0x4
 1437 08de 15       		.byte	0x15
 1438 08df AA       		.byte	0xaa
 1439 08e0 F1080000 		.4byte	0x8f1
 1440 08e4 08       		.uleb128 0x8
 1441 08e5 E6000000 		.4byte	.LASF50
 1442 08e9 15       		.byte	0x15
 1443 08ea AB       		.byte	0xab
 1444 08eb F1080000 		.4byte	0x8f1
 1445 08ef 00       		.byte	0
 1446 08f0 00       		.byte	0
 1447 08f1 0C       		.uleb128 0xc
 1448 08f2 04       		.byte	0x4
 1449 08f3 CD080000 		.4byte	0x8cd
 1450 08f7 03       		.uleb128 0x3
 1451 08f8 BF030000 		.4byte	.LASF133
 1452 08fc 15       		.byte	0x15
 1453 08fd AC       		.byte	0xac
 1454 08fe D8080000 		.4byte	0x8d8
 1455 0902 0D       		.uleb128 0xd
 1456 0903 E6060000 		.4byte	.LASF134
 1457 0907 44       		.byte	0x44
 1458 0908 15       		.byte	0x15
 1459 0909 1501     		.2byte	0x115
 1460 090b 78090000 		.4byte	0x978
 1461 090f 0A       		.uleb128 0xa
 1462 0910 6D747800 		.ascii	"mtx\000"
 1463 0914 15       		.byte	0x15
 1464 0915 1A01     		.2byte	0x11a
 1465 0917 A9070000 		.4byte	0x7a9
 1466 091b 00       		.byte	0
 1467 091c 0B       		.uleb128 0xb
 1468 091d 52060000 		.4byte	.LASF135
 1469 0921 15       		.byte	0x15
 1470 0922 2101     		.2byte	0x121
 1471 0924 F7080000 		.4byte	0x8f7
 1472 0928 10       		.byte	0x10
 1473 0929 0B       		.uleb128 0xb
 1474 092a BD050000 		.4byte	.LASF136
 1475 092e 15       		.byte	0x15
 1476 092f 2501     		.2byte	0x125
 1477 0931 7B080000 		.4byte	0x87b
 1478 0935 14       		.byte	0x14
 1479 0936 0B       		.uleb128 0xb
 1480 0937 96030000 		.4byte	.LASF137
 1481 093b 15       		.byte	0x15
ARM GAS  /var/folders/vd/czx34qs52cd_f3nb04sxmghc0000gn/T//ccsLIAkY.s 			page 27


 1482 093c 2A01     		.2byte	0x12a
 1483 093e F7080000 		.4byte	0x8f7
 1484 0942 24       		.byte	0x24
 1485 0943 0B       		.uleb128 0xb
 1486 0944 5D000000 		.4byte	.LASF138
 1487 0948 15       		.byte	0x15
 1488 0949 3001     		.2byte	0x130
 1489 094b F7080000 		.4byte	0x8f7
 1490 094f 28       		.byte	0x28
 1491 0950 0B       		.uleb128 0xb
 1492 0951 B8040000 		.4byte	.LASF139
 1493 0955 15       		.byte	0x15
 1494 0956 3401     		.2byte	0x134
 1495 0958 7B080000 		.4byte	0x87b
 1496 095c 2C       		.byte	0x2c
 1497 095d 0B       		.uleb128 0xb
 1498 095e B0020000 		.4byte	.LASF140
 1499 0962 15       		.byte	0x15
 1500 0963 3A01     		.2byte	0x13a
 1501 0965 F7080000 		.4byte	0x8f7
 1502 0969 3C       		.byte	0x3c
 1503 096a 0B       		.uleb128 0xb
 1504 096b 4F070000 		.4byte	.LASF141
 1505 096f 15       		.byte	0x15
 1506 0970 4001     		.2byte	0x140
 1507 0972 F7080000 		.4byte	0x8f7
 1508 0976 40       		.byte	0x40
 1509 0977 00       		.byte	0
 1510 0978 1C       		.uleb128 0x1c
 1511 0979 85070000 		.4byte	.LASF142
 1512 097d 15       		.byte	0x15
 1513 097e 4201     		.2byte	0x142
 1514 0980 02090000 		.4byte	0x902
 1515 0984 11       		.uleb128 0x11
 1516 0985 63030000 		.4byte	.LASF143
 1517 0989 15       		.byte	0x15
 1518 098a 4D01     		.2byte	0x14d
 1519 098c 78090000 		.4byte	0x978
 1520 0990 1D       		.uleb128 0x1d
 1521 0991 18080000 		.4byte	0x818
 1522 0995 01       		.byte	0x1
 1523 0996 3A       		.byte	0x3a
 1524 0997 05       		.uleb128 0x5
 1525 0998 03       		.byte	0x3
 1526 0999 00000000 		.4byte	ch_memcore
 1527 099d 1E       		.uleb128 0x1e
 1528 099e 16020000 		.4byte	.LASF157
 1529 09a2 01       		.byte	0x1
 1530 09a3 A7       		.byte	0xa7
 1531 09a4 2C000000 		.4byte	0x2c
 1532 09a8 00000000 		.4byte	.LFB283
 1533 09ac 10000000 		.4byte	.LFE283-.LFB283
 1534 09b0 01       		.uleb128 0x1
 1535 09b1 9C       		.byte	0x9c
 1536 09b2 1F       		.uleb128 0x1f
 1537 09b3 48020000 		.4byte	.LASF158
 1538 09b7 01       		.byte	0x1
ARM GAS  /var/folders/vd/czx34qs52cd_f3nb04sxmghc0000gn/T//ccsLIAkY.s 			page 28


 1539 09b8 94       		.byte	0x94
 1540 09b9 29030000 		.4byte	0x329
 1541 09bd 00000000 		.4byte	.LFB282
 1542 09c1 44000000 		.4byte	.LFE282-.LFB282
 1543 09c5 01       		.uleb128 0x1
 1544 09c6 9C       		.byte	0x9c
 1545 09c7 CB0A0000 		.4byte	0xacb
 1546 09cb 20       		.uleb128 0x20
 1547 09cc F0010000 		.4byte	.LASF100
 1548 09d0 01       		.byte	0x1
 1549 09d1 94       		.byte	0x94
 1550 09d2 2C000000 		.4byte	0x2c
 1551 09d6 00000000 		.4byte	.LLST4
 1552 09da 20       		.uleb128 0x20
 1553 09db EC020000 		.4byte	.LASF127
 1554 09df 01       		.byte	0x1
 1555 09e0 95       		.byte	0x95
 1556 09e1 37000000 		.4byte	0x37
 1557 09e5 21000000 		.4byte	.LLST5
 1558 09e9 20       		.uleb128 0x20
 1559 09ea A5060000 		.4byte	.LASF83
 1560 09ee 01       		.byte	0x1
 1561 09ef 96       		.byte	0x96
 1562 09f0 2C000000 		.4byte	0x2c
 1563 09f4 42000000 		.4byte	.LLST6
 1564 09f8 21       		.uleb128 0x21
 1565 09f9 7000     		.ascii	"p\000"
 1566 09fb 01       		.byte	0x1
 1567 09fc 97       		.byte	0x97
 1568 09fd 29030000 		.4byte	0x329
 1569 0a01 22       		.uleb128 0x22
 1570 0a02 9A0B0000 		.4byte	0xb9a
 1571 0a06 02000000 		.4byte	.LBB26
 1572 0a0a 06000000 		.4byte	.LBE26-.LBB26
 1573 0a0e 01       		.byte	0x1
 1574 0a0f 99       		.byte	0x99
 1575 0a10 400A0000 		.4byte	0xa40
 1576 0a14 23       		.uleb128 0x23
 1577 0a15 AC0B0000 		.4byte	0xbac
 1578 0a19 02000000 		.4byte	.LBB27
 1579 0a1d 06000000 		.4byte	.LBE27-.LBB27
 1580 0a21 11       		.byte	0x11
 1581 0a22 6301     		.2byte	0x163
 1582 0a24 23       		.uleb128 0x23
 1583 0a25 B50B0000 		.4byte	0xbb5
 1584 0a29 02000000 		.4byte	.LBB28
 1585 0a2d 06000000 		.4byte	.LBE28-.LBB28
 1586 0a31 0D       		.byte	0xd
 1587 0a32 5A02     		.2byte	0x25a
 1588 0a34 24       		.uleb128 0x24
 1589 0a35 C20B0000 		.4byte	0xbc2
 1590 0a39 63000000 		.4byte	.LLST7
 1591 0a3d 00       		.byte	0
 1592 0a3e 00       		.byte	0
 1593 0a3f 00       		.byte	0
 1594 0a40 25       		.uleb128 0x25
 1595 0a41 CB0A0000 		.4byte	0xacb
ARM GAS  /var/folders/vd/czx34qs52cd_f3nb04sxmghc0000gn/T//ccsLIAkY.s 			page 29


 1596 0a45 08000000 		.4byte	.LBB30
 1597 0a49 00000000 		.4byte	.Ldebug_ranges0+0
 1598 0a4d 01       		.byte	0x1
 1599 0a4e 9A       		.byte	0x9a
 1600 0a4f 840A0000 		.4byte	0xa84
 1601 0a53 24       		.uleb128 0x24
 1602 0a54 F10A0000 		.4byte	0xaf1
 1603 0a58 78000000 		.4byte	.LLST8
 1604 0a5c 24       		.uleb128 0x24
 1605 0a5d E60A0000 		.4byte	0xae6
 1606 0a61 A7000000 		.4byte	.LLST9
 1607 0a65 24       		.uleb128 0x24
 1608 0a66 DB0A0000 		.4byte	0xadb
 1609 0a6a D6000000 		.4byte	.LLST10
 1610 0a6e 26       		.uleb128 0x26
 1611 0a6f 00000000 		.4byte	.Ldebug_ranges0+0
 1612 0a73 27       		.uleb128 0x27
 1613 0a74 F90B0000 		.4byte	0xbf9
 1614 0a78 27       		.uleb128 0x27
 1615 0a79 020C0000 		.4byte	0xc02
 1616 0a7d 27       		.uleb128 0x27
 1617 0a7e 090C0000 		.4byte	0xc09
 1618 0a82 00       		.byte	0
 1619 0a83 00       		.byte	0
 1620 0a84 28       		.uleb128 0x28
 1621 0a85 6A0B0000 		.4byte	0xb6a
 1622 0a89 28000000 		.4byte	.LBB33
 1623 0a8d 18000000 		.4byte	.Ldebug_ranges0+0x18
 1624 0a91 01       		.byte	0x1
 1625 0a92 9B       		.byte	0x9b
 1626 0a93 26       		.uleb128 0x26
 1627 0a94 18000000 		.4byte	.Ldebug_ranges0+0x18
 1628 0a98 27       		.uleb128 0x27
 1629 0a99 770B0000 		.4byte	0xb77
 1630 0a9d 29       		.uleb128 0x29
 1631 0a9e A30B0000 		.4byte	0xba3
 1632 0aa2 28000000 		.4byte	.LBB35
 1633 0aa6 18000000 		.4byte	.Ldebug_ranges0+0x18
 1634 0aaa 11       		.byte	0x11
 1635 0aab 7A01     		.2byte	0x17a
 1636 0aad 29       		.uleb128 0x29
 1637 0aae B50B0000 		.4byte	0xbb5
 1638 0ab2 28000000 		.4byte	.LBB36
 1639 0ab6 18000000 		.4byte	.Ldebug_ranges0+0x18
 1640 0aba 0D       		.byte	0xd
 1641 0abb 6D02     		.2byte	0x26d
 1642 0abd 24       		.uleb128 0x24
 1643 0abe C20B0000 		.4byte	0xbc2
 1644 0ac2 24010000 		.4byte	.LLST11
 1645 0ac6 00       		.byte	0
 1646 0ac7 00       		.byte	0
 1647 0ac8 00       		.byte	0
 1648 0ac9 00       		.byte	0
 1649 0aca 00       		.byte	0
 1650 0acb 2A       		.uleb128 0x2a
 1651 0acc 12050000 		.4byte	.LASF147
 1652 0ad0 01       		.byte	0x1
ARM GAS  /var/folders/vd/czx34qs52cd_f3nb04sxmghc0000gn/T//ccsLIAkY.s 			page 30


 1653 0ad1 70       		.byte	0x70
 1654 0ad2 29030000 		.4byte	0x329
 1655 0ad6 01       		.byte	0x1
 1656 0ad7 1E0B0000 		.4byte	0xb1e
 1657 0adb 2B       		.uleb128 0x2b
 1658 0adc F0010000 		.4byte	.LASF100
 1659 0ae0 01       		.byte	0x1
 1660 0ae1 70       		.byte	0x70
 1661 0ae2 2C000000 		.4byte	0x2c
 1662 0ae6 2B       		.uleb128 0x2b
 1663 0ae7 EC020000 		.4byte	.LASF127
 1664 0aeb 01       		.byte	0x1
 1665 0aec 71       		.byte	0x71
 1666 0aed 37000000 		.4byte	0x37
 1667 0af1 2B       		.uleb128 0x2b
 1668 0af2 A5060000 		.4byte	.LASF83
 1669 0af6 01       		.byte	0x1
 1670 0af7 72       		.byte	0x72
 1671 0af8 2C000000 		.4byte	0x2c
 1672 0afc 21       		.uleb128 0x21
 1673 0afd 7000     		.ascii	"p\000"
 1674 0aff 01       		.byte	0x1
 1675 0b00 73       		.byte	0x73
 1676 0b01 07080000 		.4byte	0x807
 1677 0b05 2C       		.uleb128 0x2c
 1678 0b06 E6000000 		.4byte	.LASF50
 1679 0b0a 01       		.byte	0x1
 1680 0b0b 73       		.byte	0x73
 1681 0b0c 07080000 		.4byte	0x807
 1682 0b10 2D       		.uleb128 0x2d
 1683 0b11 AA050000 		.4byte	.LASF144
 1684 0b15 2E0B0000 		.4byte	0xb2e
 1685 0b19 12050000 		.4byte	.LASF147
 1686 0b1d 00       		.byte	0
 1687 0b1e 13       		.uleb128 0x13
 1688 0b1f 6A060000 		.4byte	0x66a
 1689 0b23 2E0B0000 		.4byte	0xb2e
 1690 0b27 14       		.uleb128 0x14
 1691 0b28 37000000 		.4byte	0x37
 1692 0b2c 1D       		.byte	0x1d
 1693 0b2d 00       		.byte	0
 1694 0b2e 05       		.uleb128 0x5
 1695 0b2f 1E0B0000 		.4byte	0xb1e
 1696 0b33 2E       		.uleb128 0x2e
 1697 0b34 60050000 		.4byte	.LASF159
 1698 0b38 01       		.byte	0x1
 1699 0b39 51       		.byte	0x51
 1700 0b3a 00000000 		.4byte	.LFB280
 1701 0b3e 18000000 		.4byte	.LFE280-.LFB280
 1702 0b42 01       		.uleb128 0x1
 1703 0b43 9C       		.byte	0x9c
 1704 0b44 5F0B0000 		.4byte	0xb5f
 1705 0b48 12       		.uleb128 0x12
 1706 0b49 75050000 		.4byte	.LASF145
 1707 0b4d 01       		.byte	0x1
 1708 0b4e 53       		.byte	0x53
 1709 0b4f 5F0B0000 		.4byte	0xb5f
ARM GAS  /var/folders/vd/czx34qs52cd_f3nb04sxmghc0000gn/T//ccsLIAkY.s 			page 31


 1710 0b53 12       		.uleb128 0x12
 1711 0b54 8C050000 		.4byte	.LASF146
 1712 0b58 01       		.byte	0x1
 1713 0b59 54       		.byte	0x54
 1714 0b5a 5F0B0000 		.4byte	0xb5f
 1715 0b5e 00       		.byte	0
 1716 0b5f 13       		.uleb128 0x13
 1717 0b60 B4000000 		.4byte	0xb4
 1718 0b64 6A0B0000 		.4byte	0xb6a
 1719 0b68 1A       		.uleb128 0x1a
 1720 0b69 00       		.byte	0
 1721 0b6a 2F       		.uleb128 0x2f
 1722 0b6b 79070000 		.4byte	.LASF148
 1723 0b6f 11       		.byte	0x11
 1724 0b70 6D01     		.2byte	0x16d
 1725 0b72 03       		.byte	0x3
 1726 0b73 850B0000 		.4byte	0xb85
 1727 0b77 2D       		.uleb128 0x2d
 1728 0b78 AA050000 		.4byte	.LASF144
 1729 0b7c 950B0000 		.4byte	0xb95
 1730 0b80 79070000 		.4byte	.LASF148
 1731 0b84 00       		.byte	0
 1732 0b85 13       		.uleb128 0x13
 1733 0b86 6A060000 		.4byte	0x66a
 1734 0b8a 950B0000 		.4byte	0xb95
 1735 0b8e 14       		.uleb128 0x14
 1736 0b8f 37000000 		.4byte	0x37
 1737 0b93 0B       		.byte	0xb
 1738 0b94 00       		.byte	0
 1739 0b95 05       		.uleb128 0x5
 1740 0b96 850B0000 		.4byte	0xb85
 1741 0b9a 30       		.uleb128 0x30
 1742 0b9b B3050000 		.4byte	.LASF149
 1743 0b9f 11       		.byte	0x11
 1744 0ba0 6101     		.2byte	0x161
 1745 0ba2 03       		.byte	0x3
 1746 0ba3 30       		.uleb128 0x30
 1747 0ba4 0A020000 		.4byte	.LASF150
 1748 0ba8 0D       		.byte	0xd
 1749 0ba9 6A02     		.2byte	0x26a
 1750 0bab 03       		.byte	0x3
 1751 0bac 30       		.uleb128 0x30
 1752 0bad 66000000 		.4byte	.LASF151
 1753 0bb1 0D       		.byte	0xd
 1754 0bb2 5202     		.2byte	0x252
 1755 0bb4 03       		.byte	0x3
 1756 0bb5 2F       		.uleb128 0x2f
 1757 0bb6 8D060000 		.4byte	.LASF152
 1758 0bba 02       		.byte	0x2
 1759 0bbb E801     		.2byte	0x1e8
 1760 0bbd 03       		.byte	0x3
 1761 0bbe CF0B0000 		.4byte	0xbcf
 1762 0bc2 31       		.uleb128 0x31
 1763 0bc3 FB010000 		.4byte	.LASF153
 1764 0bc7 02       		.byte	0x2
 1765 0bc8 E801     		.2byte	0x1e8
 1766 0bca DF000000 		.4byte	0xdf
ARM GAS  /var/folders/vd/czx34qs52cd_f3nb04sxmghc0000gn/T//ccsLIAkY.s 			page 32


 1767 0bce 00       		.byte	0
 1768 0bcf 32       		.uleb128 0x32
 1769 0bd0 CB0A0000 		.4byte	0xacb
 1770 0bd4 00000000 		.4byte	.LFB281
 1771 0bd8 34000000 		.4byte	.LFE281-.LFB281
 1772 0bdc 01       		.uleb128 0x1
 1773 0bdd 9C       		.byte	0x9c
 1774 0bde 24       		.uleb128 0x24
 1775 0bdf DB0A0000 		.4byte	0xadb
 1776 0be3 44010000 		.4byte	.LLST0
 1777 0be7 24       		.uleb128 0x24
 1778 0be8 E60A0000 		.4byte	0xae6
 1779 0bec 9F010000 		.4byte	.LLST1
 1780 0bf0 24       		.uleb128 0x24
 1781 0bf1 F10A0000 		.4byte	0xaf1
 1782 0bf5 CE010000 		.4byte	.LLST2
 1783 0bf9 33       		.uleb128 0x33
 1784 0bfa FC0A0000 		.4byte	0xafc
 1785 0bfe EF010000 		.4byte	.LLST3
 1786 0c02 34       		.uleb128 0x34
 1787 0c03 050B0000 		.4byte	0xb05
 1788 0c07 01       		.uleb128 0x1
 1789 0c08 51       		.byte	0x51
 1790 0c09 27       		.uleb128 0x27
 1791 0c0a 100B0000 		.4byte	0xb10
 1792 0c0e 00       		.byte	0
 1793 0c0f 00       		.byte	0
 1794              		.section	.debug_abbrev,"",%progbits
 1795              	.Ldebug_abbrev0:
 1796 0000 01       		.uleb128 0x1
 1797 0001 11       		.uleb128 0x11
 1798 0002 01       		.byte	0x1
 1799 0003 25       		.uleb128 0x25
 1800 0004 0E       		.uleb128 0xe
 1801 0005 13       		.uleb128 0x13
 1802 0006 0B       		.uleb128 0xb
 1803 0007 03       		.uleb128 0x3
 1804 0008 0E       		.uleb128 0xe
 1805 0009 1B       		.uleb128 0x1b
 1806 000a 0E       		.uleb128 0xe
 1807 000b 55       		.uleb128 0x55
 1808 000c 17       		.uleb128 0x17
 1809 000d 11       		.uleb128 0x11
 1810 000e 01       		.uleb128 0x1
 1811 000f 10       		.uleb128 0x10
 1812 0010 17       		.uleb128 0x17
 1813 0011 00       		.byte	0
 1814 0012 00       		.byte	0
 1815 0013 02       		.uleb128 0x2
 1816 0014 24       		.uleb128 0x24
 1817 0015 00       		.byte	0
 1818 0016 0B       		.uleb128 0xb
 1819 0017 0B       		.uleb128 0xb
 1820 0018 3E       		.uleb128 0x3e
 1821 0019 0B       		.uleb128 0xb
 1822 001a 03       		.uleb128 0x3
 1823 001b 08       		.uleb128 0x8
ARM GAS  /var/folders/vd/czx34qs52cd_f3nb04sxmghc0000gn/T//ccsLIAkY.s 			page 33


 1824 001c 00       		.byte	0
 1825 001d 00       		.byte	0
 1826 001e 03       		.uleb128 0x3
 1827 001f 16       		.uleb128 0x16
 1828 0020 00       		.byte	0
 1829 0021 03       		.uleb128 0x3
 1830 0022 0E       		.uleb128 0xe
 1831 0023 3A       		.uleb128 0x3a
 1832 0024 0B       		.uleb128 0xb
 1833 0025 3B       		.uleb128 0x3b
 1834 0026 0B       		.uleb128 0xb
 1835 0027 49       		.uleb128 0x49
 1836 0028 13       		.uleb128 0x13
 1837 0029 00       		.byte	0
 1838 002a 00       		.byte	0
 1839 002b 04       		.uleb128 0x4
 1840 002c 24       		.uleb128 0x24
 1841 002d 00       		.byte	0
 1842 002e 0B       		.uleb128 0xb
 1843 002f 0B       		.uleb128 0xb
 1844 0030 3E       		.uleb128 0x3e
 1845 0031 0B       		.uleb128 0xb
 1846 0032 03       		.uleb128 0x3
 1847 0033 0E       		.uleb128 0xe
 1848 0034 00       		.byte	0
 1849 0035 00       		.byte	0
 1850 0036 05       		.uleb128 0x5
 1851 0037 26       		.uleb128 0x26
 1852 0038 00       		.byte	0
 1853 0039 49       		.uleb128 0x49
 1854 003a 13       		.uleb128 0x13
 1855 003b 00       		.byte	0
 1856 003c 00       		.byte	0
 1857 003d 06       		.uleb128 0x6
 1858 003e 35       		.uleb128 0x35
 1859 003f 00       		.byte	0
 1860 0040 49       		.uleb128 0x49
 1861 0041 13       		.uleb128 0x13
 1862 0042 00       		.byte	0
 1863 0043 00       		.byte	0
 1864 0044 07       		.uleb128 0x7
 1865 0045 13       		.uleb128 0x13
 1866 0046 01       		.byte	0x1
 1867 0047 03       		.uleb128 0x3
 1868 0048 0E       		.uleb128 0xe
 1869 0049 0B       		.uleb128 0xb
 1870 004a 0B       		.uleb128 0xb
 1871 004b 3A       		.uleb128 0x3a
 1872 004c 0B       		.uleb128 0xb
 1873 004d 3B       		.uleb128 0x3b
 1874 004e 0B       		.uleb128 0xb
 1875 004f 01       		.uleb128 0x1
 1876 0050 13       		.uleb128 0x13
 1877 0051 00       		.byte	0
 1878 0052 00       		.byte	0
 1879 0053 08       		.uleb128 0x8
 1880 0054 0D       		.uleb128 0xd
ARM GAS  /var/folders/vd/czx34qs52cd_f3nb04sxmghc0000gn/T//ccsLIAkY.s 			page 34


 1881 0055 00       		.byte	0
 1882 0056 03       		.uleb128 0x3
 1883 0057 0E       		.uleb128 0xe
 1884 0058 3A       		.uleb128 0x3a
 1885 0059 0B       		.uleb128 0xb
 1886 005a 3B       		.uleb128 0x3b
 1887 005b 0B       		.uleb128 0xb
 1888 005c 49       		.uleb128 0x49
 1889 005d 13       		.uleb128 0x13
 1890 005e 38       		.uleb128 0x38
 1891 005f 0B       		.uleb128 0xb
 1892 0060 00       		.byte	0
 1893 0061 00       		.byte	0
 1894 0062 09       		.uleb128 0x9
 1895 0063 0D       		.uleb128 0xd
 1896 0064 00       		.byte	0
 1897 0065 03       		.uleb128 0x3
 1898 0066 08       		.uleb128 0x8
 1899 0067 3A       		.uleb128 0x3a
 1900 0068 0B       		.uleb128 0xb
 1901 0069 3B       		.uleb128 0x3b
 1902 006a 0B       		.uleb128 0xb
 1903 006b 49       		.uleb128 0x49
 1904 006c 13       		.uleb128 0x13
 1905 006d 38       		.uleb128 0x38
 1906 006e 0B       		.uleb128 0xb
 1907 006f 00       		.byte	0
 1908 0070 00       		.byte	0
 1909 0071 0A       		.uleb128 0xa
 1910 0072 0D       		.uleb128 0xd
 1911 0073 00       		.byte	0
 1912 0074 03       		.uleb128 0x3
 1913 0075 08       		.uleb128 0x8
 1914 0076 3A       		.uleb128 0x3a
 1915 0077 0B       		.uleb128 0xb
 1916 0078 3B       		.uleb128 0x3b
 1917 0079 05       		.uleb128 0x5
 1918 007a 49       		.uleb128 0x49
 1919 007b 13       		.uleb128 0x13
 1920 007c 38       		.uleb128 0x38
 1921 007d 0B       		.uleb128 0xb
 1922 007e 00       		.byte	0
 1923 007f 00       		.byte	0
 1924 0080 0B       		.uleb128 0xb
 1925 0081 0D       		.uleb128 0xd
 1926 0082 00       		.byte	0
 1927 0083 03       		.uleb128 0x3
 1928 0084 0E       		.uleb128 0xe
 1929 0085 3A       		.uleb128 0x3a
 1930 0086 0B       		.uleb128 0xb
 1931 0087 3B       		.uleb128 0x3b
 1932 0088 05       		.uleb128 0x5
 1933 0089 49       		.uleb128 0x49
 1934 008a 13       		.uleb128 0x13
 1935 008b 38       		.uleb128 0x38
 1936 008c 0B       		.uleb128 0xb
 1937 008d 00       		.byte	0
ARM GAS  /var/folders/vd/czx34qs52cd_f3nb04sxmghc0000gn/T//ccsLIAkY.s 			page 35


 1938 008e 00       		.byte	0
 1939 008f 0C       		.uleb128 0xc
 1940 0090 0F       		.uleb128 0xf
 1941 0091 00       		.byte	0
 1942 0092 0B       		.uleb128 0xb
 1943 0093 0B       		.uleb128 0xb
 1944 0094 49       		.uleb128 0x49
 1945 0095 13       		.uleb128 0x13
 1946 0096 00       		.byte	0
 1947 0097 00       		.byte	0
 1948 0098 0D       		.uleb128 0xd
 1949 0099 13       		.uleb128 0x13
 1950 009a 01       		.byte	0x1
 1951 009b 03       		.uleb128 0x3
 1952 009c 0E       		.uleb128 0xe
 1953 009d 0B       		.uleb128 0xb
 1954 009e 0B       		.uleb128 0xb
 1955 009f 3A       		.uleb128 0x3a
 1956 00a0 0B       		.uleb128 0xb
 1957 00a1 3B       		.uleb128 0x3b
 1958 00a2 05       		.uleb128 0x5
 1959 00a3 01       		.uleb128 0x1
 1960 00a4 13       		.uleb128 0x13
 1961 00a5 00       		.byte	0
 1962 00a6 00       		.byte	0
 1963 00a7 0E       		.uleb128 0xe
 1964 00a8 15       		.uleb128 0x15
 1965 00a9 01       		.byte	0x1
 1966 00aa 27       		.uleb128 0x27
 1967 00ab 19       		.uleb128 0x19
 1968 00ac 01       		.uleb128 0x1
 1969 00ad 13       		.uleb128 0x13
 1970 00ae 00       		.byte	0
 1971 00af 00       		.byte	0
 1972 00b0 0F       		.uleb128 0xf
 1973 00b1 05       		.uleb128 0x5
 1974 00b2 00       		.byte	0
 1975 00b3 49       		.uleb128 0x49
 1976 00b4 13       		.uleb128 0x13
 1977 00b5 00       		.byte	0
 1978 00b6 00       		.byte	0
 1979 00b7 10       		.uleb128 0x10
 1980 00b8 0F       		.uleb128 0xf
 1981 00b9 00       		.byte	0
 1982 00ba 0B       		.uleb128 0xb
 1983 00bb 0B       		.uleb128 0xb
 1984 00bc 00       		.byte	0
 1985 00bd 00       		.byte	0
 1986 00be 11       		.uleb128 0x11
 1987 00bf 34       		.uleb128 0x34
 1988 00c0 00       		.byte	0
 1989 00c1 03       		.uleb128 0x3
 1990 00c2 0E       		.uleb128 0xe
 1991 00c3 3A       		.uleb128 0x3a
 1992 00c4 0B       		.uleb128 0xb
 1993 00c5 3B       		.uleb128 0x3b
 1994 00c6 05       		.uleb128 0x5
ARM GAS  /var/folders/vd/czx34qs52cd_f3nb04sxmghc0000gn/T//ccsLIAkY.s 			page 36


 1995 00c7 49       		.uleb128 0x49
 1996 00c8 13       		.uleb128 0x13
 1997 00c9 3F       		.uleb128 0x3f
 1998 00ca 19       		.uleb128 0x19
 1999 00cb 3C       		.uleb128 0x3c
 2000 00cc 19       		.uleb128 0x19
 2001 00cd 00       		.byte	0
 2002 00ce 00       		.byte	0
 2003 00cf 12       		.uleb128 0x12
 2004 00d0 34       		.uleb128 0x34
 2005 00d1 00       		.byte	0
 2006 00d2 03       		.uleb128 0x3
 2007 00d3 0E       		.uleb128 0xe
 2008 00d4 3A       		.uleb128 0x3a
 2009 00d5 0B       		.uleb128 0xb
 2010 00d6 3B       		.uleb128 0x3b
 2011 00d7 0B       		.uleb128 0xb
 2012 00d8 49       		.uleb128 0x49
 2013 00d9 13       		.uleb128 0x13
 2014 00da 3F       		.uleb128 0x3f
 2015 00db 19       		.uleb128 0x19
 2016 00dc 3C       		.uleb128 0x3c
 2017 00dd 19       		.uleb128 0x19
 2018 00de 00       		.byte	0
 2019 00df 00       		.byte	0
 2020 00e0 13       		.uleb128 0x13
 2021 00e1 01       		.uleb128 0x1
 2022 00e2 01       		.byte	0x1
 2023 00e3 49       		.uleb128 0x49
 2024 00e4 13       		.uleb128 0x13
 2025 00e5 01       		.uleb128 0x1
 2026 00e6 13       		.uleb128 0x13
 2027 00e7 00       		.byte	0
 2028 00e8 00       		.byte	0
 2029 00e9 14       		.uleb128 0x14
 2030 00ea 21       		.uleb128 0x21
 2031 00eb 00       		.byte	0
 2032 00ec 49       		.uleb128 0x49
 2033 00ed 13       		.uleb128 0x13
 2034 00ee 2F       		.uleb128 0x2f
 2035 00ef 0B       		.uleb128 0xb
 2036 00f0 00       		.byte	0
 2037 00f1 00       		.byte	0
 2038 00f2 15       		.uleb128 0x15
 2039 00f3 13       		.uleb128 0x13
 2040 00f4 01       		.byte	0x1
 2041 00f5 0B       		.uleb128 0xb
 2042 00f6 0B       		.uleb128 0xb
 2043 00f7 3A       		.uleb128 0x3a
 2044 00f8 0B       		.uleb128 0xb
 2045 00f9 3B       		.uleb128 0x3b
 2046 00fa 0B       		.uleb128 0xb
 2047 00fb 01       		.uleb128 0x1
 2048 00fc 13       		.uleb128 0x13
 2049 00fd 00       		.byte	0
 2050 00fe 00       		.byte	0
 2051 00ff 16       		.uleb128 0x16
ARM GAS  /var/folders/vd/czx34qs52cd_f3nb04sxmghc0000gn/T//ccsLIAkY.s 			page 37


 2052 0100 17       		.uleb128 0x17
 2053 0101 01       		.byte	0x1
 2054 0102 0B       		.uleb128 0xb
 2055 0103 0B       		.uleb128 0xb
 2056 0104 3A       		.uleb128 0x3a
 2057 0105 0B       		.uleb128 0xb
 2058 0106 3B       		.uleb128 0x3b
 2059 0107 0B       		.uleb128 0xb
 2060 0108 01       		.uleb128 0x1
 2061 0109 13       		.uleb128 0x13
 2062 010a 00       		.byte	0
 2063 010b 00       		.byte	0
 2064 010c 17       		.uleb128 0x17
 2065 010d 0D       		.uleb128 0xd
 2066 010e 00       		.byte	0
 2067 010f 03       		.uleb128 0x3
 2068 0110 0E       		.uleb128 0xe
 2069 0111 3A       		.uleb128 0x3a
 2070 0112 0B       		.uleb128 0xb
 2071 0113 3B       		.uleb128 0x3b
 2072 0114 0B       		.uleb128 0xb
 2073 0115 49       		.uleb128 0x49
 2074 0116 13       		.uleb128 0x13
 2075 0117 00       		.byte	0
 2076 0118 00       		.byte	0
 2077 0119 18       		.uleb128 0x18
 2078 011a 0D       		.uleb128 0xd
 2079 011b 00       		.byte	0
 2080 011c 03       		.uleb128 0x3
 2081 011d 0E       		.uleb128 0xe
 2082 011e 3A       		.uleb128 0x3a
 2083 011f 0B       		.uleb128 0xb
 2084 0120 3B       		.uleb128 0x3b
 2085 0121 05       		.uleb128 0x5
 2086 0122 49       		.uleb128 0x49
 2087 0123 13       		.uleb128 0x13
 2088 0124 00       		.byte	0
 2089 0125 00       		.byte	0
 2090 0126 19       		.uleb128 0x19
 2091 0127 34       		.uleb128 0x34
 2092 0128 00       		.byte	0
 2093 0129 03       		.uleb128 0x3
 2094 012a 08       		.uleb128 0x8
 2095 012b 3A       		.uleb128 0x3a
 2096 012c 0B       		.uleb128 0xb
 2097 012d 3B       		.uleb128 0x3b
 2098 012e 05       		.uleb128 0x5
 2099 012f 49       		.uleb128 0x49
 2100 0130 13       		.uleb128 0x13
 2101 0131 3F       		.uleb128 0x3f
 2102 0132 19       		.uleb128 0x19
 2103 0133 3C       		.uleb128 0x3c
 2104 0134 19       		.uleb128 0x19
 2105 0135 00       		.byte	0
 2106 0136 00       		.byte	0
 2107 0137 1A       		.uleb128 0x1a
 2108 0138 21       		.uleb128 0x21
ARM GAS  /var/folders/vd/czx34qs52cd_f3nb04sxmghc0000gn/T//ccsLIAkY.s 			page 38


 2109 0139 00       		.byte	0
 2110 013a 00       		.byte	0
 2111 013b 00       		.byte	0
 2112 013c 1B       		.uleb128 0x1b
 2113 013d 15       		.uleb128 0x15
 2114 013e 01       		.byte	0x1
 2115 013f 27       		.uleb128 0x27
 2116 0140 19       		.uleb128 0x19
 2117 0141 49       		.uleb128 0x49
 2118 0142 13       		.uleb128 0x13
 2119 0143 01       		.uleb128 0x1
 2120 0144 13       		.uleb128 0x13
 2121 0145 00       		.byte	0
 2122 0146 00       		.byte	0
 2123 0147 1C       		.uleb128 0x1c
 2124 0148 16       		.uleb128 0x16
 2125 0149 00       		.byte	0
 2126 014a 03       		.uleb128 0x3
 2127 014b 0E       		.uleb128 0xe
 2128 014c 3A       		.uleb128 0x3a
 2129 014d 0B       		.uleb128 0xb
 2130 014e 3B       		.uleb128 0x3b
 2131 014f 05       		.uleb128 0x5
 2132 0150 49       		.uleb128 0x49
 2133 0151 13       		.uleb128 0x13
 2134 0152 00       		.byte	0
 2135 0153 00       		.byte	0
 2136 0154 1D       		.uleb128 0x1d
 2137 0155 34       		.uleb128 0x34
 2138 0156 00       		.byte	0
 2139 0157 47       		.uleb128 0x47
 2140 0158 13       		.uleb128 0x13
 2141 0159 3A       		.uleb128 0x3a
 2142 015a 0B       		.uleb128 0xb
 2143 015b 3B       		.uleb128 0x3b
 2144 015c 0B       		.uleb128 0xb
 2145 015d 02       		.uleb128 0x2
 2146 015e 18       		.uleb128 0x18
 2147 015f 00       		.byte	0
 2148 0160 00       		.byte	0
 2149 0161 1E       		.uleb128 0x1e
 2150 0162 2E       		.uleb128 0x2e
 2151 0163 00       		.byte	0
 2152 0164 3F       		.uleb128 0x3f
 2153 0165 19       		.uleb128 0x19
 2154 0166 03       		.uleb128 0x3
 2155 0167 0E       		.uleb128 0xe
 2156 0168 3A       		.uleb128 0x3a
 2157 0169 0B       		.uleb128 0xb
 2158 016a 3B       		.uleb128 0x3b
 2159 016b 0B       		.uleb128 0xb
 2160 016c 27       		.uleb128 0x27
 2161 016d 19       		.uleb128 0x19
 2162 016e 49       		.uleb128 0x49
 2163 016f 13       		.uleb128 0x13
 2164 0170 11       		.uleb128 0x11
 2165 0171 01       		.uleb128 0x1
ARM GAS  /var/folders/vd/czx34qs52cd_f3nb04sxmghc0000gn/T//ccsLIAkY.s 			page 39


 2166 0172 12       		.uleb128 0x12
 2167 0173 06       		.uleb128 0x6
 2168 0174 40       		.uleb128 0x40
 2169 0175 18       		.uleb128 0x18
 2170 0176 9742     		.uleb128 0x2117
 2171 0178 19       		.uleb128 0x19
 2172 0179 00       		.byte	0
 2173 017a 00       		.byte	0
 2174 017b 1F       		.uleb128 0x1f
 2175 017c 2E       		.uleb128 0x2e
 2176 017d 01       		.byte	0x1
 2177 017e 3F       		.uleb128 0x3f
 2178 017f 19       		.uleb128 0x19
 2179 0180 03       		.uleb128 0x3
 2180 0181 0E       		.uleb128 0xe
 2181 0182 3A       		.uleb128 0x3a
 2182 0183 0B       		.uleb128 0xb
 2183 0184 3B       		.uleb128 0x3b
 2184 0185 0B       		.uleb128 0xb
 2185 0186 27       		.uleb128 0x27
 2186 0187 19       		.uleb128 0x19
 2187 0188 49       		.uleb128 0x49
 2188 0189 13       		.uleb128 0x13
 2189 018a 11       		.uleb128 0x11
 2190 018b 01       		.uleb128 0x1
 2191 018c 12       		.uleb128 0x12
 2192 018d 06       		.uleb128 0x6
 2193 018e 40       		.uleb128 0x40
 2194 018f 18       		.uleb128 0x18
 2195 0190 9742     		.uleb128 0x2117
 2196 0192 19       		.uleb128 0x19
 2197 0193 01       		.uleb128 0x1
 2198 0194 13       		.uleb128 0x13
 2199 0195 00       		.byte	0
 2200 0196 00       		.byte	0
 2201 0197 20       		.uleb128 0x20
 2202 0198 05       		.uleb128 0x5
 2203 0199 00       		.byte	0
 2204 019a 03       		.uleb128 0x3
 2205 019b 0E       		.uleb128 0xe
 2206 019c 3A       		.uleb128 0x3a
 2207 019d 0B       		.uleb128 0xb
 2208 019e 3B       		.uleb128 0x3b
 2209 019f 0B       		.uleb128 0xb
 2210 01a0 49       		.uleb128 0x49
 2211 01a1 13       		.uleb128 0x13
 2212 01a2 02       		.uleb128 0x2
 2213 01a3 17       		.uleb128 0x17
 2214 01a4 00       		.byte	0
 2215 01a5 00       		.byte	0
 2216 01a6 21       		.uleb128 0x21
 2217 01a7 34       		.uleb128 0x34
 2218 01a8 00       		.byte	0
 2219 01a9 03       		.uleb128 0x3
 2220 01aa 08       		.uleb128 0x8
 2221 01ab 3A       		.uleb128 0x3a
 2222 01ac 0B       		.uleb128 0xb
ARM GAS  /var/folders/vd/czx34qs52cd_f3nb04sxmghc0000gn/T//ccsLIAkY.s 			page 40


 2223 01ad 3B       		.uleb128 0x3b
 2224 01ae 0B       		.uleb128 0xb
 2225 01af 49       		.uleb128 0x49
 2226 01b0 13       		.uleb128 0x13
 2227 01b1 00       		.byte	0
 2228 01b2 00       		.byte	0
 2229 01b3 22       		.uleb128 0x22
 2230 01b4 1D       		.uleb128 0x1d
 2231 01b5 01       		.byte	0x1
 2232 01b6 31       		.uleb128 0x31
 2233 01b7 13       		.uleb128 0x13
 2234 01b8 11       		.uleb128 0x11
 2235 01b9 01       		.uleb128 0x1
 2236 01ba 12       		.uleb128 0x12
 2237 01bb 06       		.uleb128 0x6
 2238 01bc 58       		.uleb128 0x58
 2239 01bd 0B       		.uleb128 0xb
 2240 01be 59       		.uleb128 0x59
 2241 01bf 0B       		.uleb128 0xb
 2242 01c0 01       		.uleb128 0x1
 2243 01c1 13       		.uleb128 0x13
 2244 01c2 00       		.byte	0
 2245 01c3 00       		.byte	0
 2246 01c4 23       		.uleb128 0x23
 2247 01c5 1D       		.uleb128 0x1d
 2248 01c6 01       		.byte	0x1
 2249 01c7 31       		.uleb128 0x31
 2250 01c8 13       		.uleb128 0x13
 2251 01c9 11       		.uleb128 0x11
 2252 01ca 01       		.uleb128 0x1
 2253 01cb 12       		.uleb128 0x12
 2254 01cc 06       		.uleb128 0x6
 2255 01cd 58       		.uleb128 0x58
 2256 01ce 0B       		.uleb128 0xb
 2257 01cf 59       		.uleb128 0x59
 2258 01d0 05       		.uleb128 0x5
 2259 01d1 00       		.byte	0
 2260 01d2 00       		.byte	0
 2261 01d3 24       		.uleb128 0x24
 2262 01d4 05       		.uleb128 0x5
 2263 01d5 00       		.byte	0
 2264 01d6 31       		.uleb128 0x31
 2265 01d7 13       		.uleb128 0x13
 2266 01d8 02       		.uleb128 0x2
 2267 01d9 17       		.uleb128 0x17
 2268 01da 00       		.byte	0
 2269 01db 00       		.byte	0
 2270 01dc 25       		.uleb128 0x25
 2271 01dd 1D       		.uleb128 0x1d
 2272 01de 01       		.byte	0x1
 2273 01df 31       		.uleb128 0x31
 2274 01e0 13       		.uleb128 0x13
 2275 01e1 52       		.uleb128 0x52
 2276 01e2 01       		.uleb128 0x1
 2277 01e3 55       		.uleb128 0x55
 2278 01e4 17       		.uleb128 0x17
 2279 01e5 58       		.uleb128 0x58
ARM GAS  /var/folders/vd/czx34qs52cd_f3nb04sxmghc0000gn/T//ccsLIAkY.s 			page 41


 2280 01e6 0B       		.uleb128 0xb
 2281 01e7 59       		.uleb128 0x59
 2282 01e8 0B       		.uleb128 0xb
 2283 01e9 01       		.uleb128 0x1
 2284 01ea 13       		.uleb128 0x13
 2285 01eb 00       		.byte	0
 2286 01ec 00       		.byte	0
 2287 01ed 26       		.uleb128 0x26
 2288 01ee 0B       		.uleb128 0xb
 2289 01ef 01       		.byte	0x1
 2290 01f0 55       		.uleb128 0x55
 2291 01f1 17       		.uleb128 0x17
 2292 01f2 00       		.byte	0
 2293 01f3 00       		.byte	0
 2294 01f4 27       		.uleb128 0x27
 2295 01f5 34       		.uleb128 0x34
 2296 01f6 00       		.byte	0
 2297 01f7 31       		.uleb128 0x31
 2298 01f8 13       		.uleb128 0x13
 2299 01f9 00       		.byte	0
 2300 01fa 00       		.byte	0
 2301 01fb 28       		.uleb128 0x28
 2302 01fc 1D       		.uleb128 0x1d
 2303 01fd 01       		.byte	0x1
 2304 01fe 31       		.uleb128 0x31
 2305 01ff 13       		.uleb128 0x13
 2306 0200 52       		.uleb128 0x52
 2307 0201 01       		.uleb128 0x1
 2308 0202 55       		.uleb128 0x55
 2309 0203 17       		.uleb128 0x17
 2310 0204 58       		.uleb128 0x58
 2311 0205 0B       		.uleb128 0xb
 2312 0206 59       		.uleb128 0x59
 2313 0207 0B       		.uleb128 0xb
 2314 0208 00       		.byte	0
 2315 0209 00       		.byte	0
 2316 020a 29       		.uleb128 0x29
 2317 020b 1D       		.uleb128 0x1d
 2318 020c 01       		.byte	0x1
 2319 020d 31       		.uleb128 0x31
 2320 020e 13       		.uleb128 0x13
 2321 020f 52       		.uleb128 0x52
 2322 0210 01       		.uleb128 0x1
 2323 0211 55       		.uleb128 0x55
 2324 0212 17       		.uleb128 0x17
 2325 0213 58       		.uleb128 0x58
 2326 0214 0B       		.uleb128 0xb
 2327 0215 59       		.uleb128 0x59
 2328 0216 05       		.uleb128 0x5
 2329 0217 00       		.byte	0
 2330 0218 00       		.byte	0
 2331 0219 2A       		.uleb128 0x2a
 2332 021a 2E       		.uleb128 0x2e
 2333 021b 01       		.byte	0x1
 2334 021c 3F       		.uleb128 0x3f
 2335 021d 19       		.uleb128 0x19
 2336 021e 03       		.uleb128 0x3
ARM GAS  /var/folders/vd/czx34qs52cd_f3nb04sxmghc0000gn/T//ccsLIAkY.s 			page 42


 2337 021f 0E       		.uleb128 0xe
 2338 0220 3A       		.uleb128 0x3a
 2339 0221 0B       		.uleb128 0xb
 2340 0222 3B       		.uleb128 0x3b
 2341 0223 0B       		.uleb128 0xb
 2342 0224 27       		.uleb128 0x27
 2343 0225 19       		.uleb128 0x19
 2344 0226 49       		.uleb128 0x49
 2345 0227 13       		.uleb128 0x13
 2346 0228 20       		.uleb128 0x20
 2347 0229 0B       		.uleb128 0xb
 2348 022a 01       		.uleb128 0x1
 2349 022b 13       		.uleb128 0x13
 2350 022c 00       		.byte	0
 2351 022d 00       		.byte	0
 2352 022e 2B       		.uleb128 0x2b
 2353 022f 05       		.uleb128 0x5
 2354 0230 00       		.byte	0
 2355 0231 03       		.uleb128 0x3
 2356 0232 0E       		.uleb128 0xe
 2357 0233 3A       		.uleb128 0x3a
 2358 0234 0B       		.uleb128 0xb
 2359 0235 3B       		.uleb128 0x3b
 2360 0236 0B       		.uleb128 0xb
 2361 0237 49       		.uleb128 0x49
 2362 0238 13       		.uleb128 0x13
 2363 0239 00       		.byte	0
 2364 023a 00       		.byte	0
 2365 023b 2C       		.uleb128 0x2c
 2366 023c 34       		.uleb128 0x34
 2367 023d 00       		.byte	0
 2368 023e 03       		.uleb128 0x3
 2369 023f 0E       		.uleb128 0xe
 2370 0240 3A       		.uleb128 0x3a
 2371 0241 0B       		.uleb128 0xb
 2372 0242 3B       		.uleb128 0x3b
 2373 0243 0B       		.uleb128 0xb
 2374 0244 49       		.uleb128 0x49
 2375 0245 13       		.uleb128 0x13
 2376 0246 00       		.byte	0
 2377 0247 00       		.byte	0
 2378 0248 2D       		.uleb128 0x2d
 2379 0249 34       		.uleb128 0x34
 2380 024a 00       		.byte	0
 2381 024b 03       		.uleb128 0x3
 2382 024c 0E       		.uleb128 0xe
 2383 024d 49       		.uleb128 0x49
 2384 024e 13       		.uleb128 0x13
 2385 024f 34       		.uleb128 0x34
 2386 0250 19       		.uleb128 0x19
 2387 0251 1C       		.uleb128 0x1c
 2388 0252 0E       		.uleb128 0xe
 2389 0253 00       		.byte	0
 2390 0254 00       		.byte	0
 2391 0255 2E       		.uleb128 0x2e
 2392 0256 2E       		.uleb128 0x2e
 2393 0257 01       		.byte	0x1
ARM GAS  /var/folders/vd/czx34qs52cd_f3nb04sxmghc0000gn/T//ccsLIAkY.s 			page 43


 2394 0258 3F       		.uleb128 0x3f
 2395 0259 19       		.uleb128 0x19
 2396 025a 03       		.uleb128 0x3
 2397 025b 0E       		.uleb128 0xe
 2398 025c 3A       		.uleb128 0x3a
 2399 025d 0B       		.uleb128 0xb
 2400 025e 3B       		.uleb128 0x3b
 2401 025f 0B       		.uleb128 0xb
 2402 0260 27       		.uleb128 0x27
 2403 0261 19       		.uleb128 0x19
 2404 0262 11       		.uleb128 0x11
 2405 0263 01       		.uleb128 0x1
 2406 0264 12       		.uleb128 0x12
 2407 0265 06       		.uleb128 0x6
 2408 0266 40       		.uleb128 0x40
 2409 0267 18       		.uleb128 0x18
 2410 0268 9742     		.uleb128 0x2117
 2411 026a 19       		.uleb128 0x19
 2412 026b 01       		.uleb128 0x1
 2413 026c 13       		.uleb128 0x13
 2414 026d 00       		.byte	0
 2415 026e 00       		.byte	0
 2416 026f 2F       		.uleb128 0x2f
 2417 0270 2E       		.uleb128 0x2e
 2418 0271 01       		.byte	0x1
 2419 0272 03       		.uleb128 0x3
 2420 0273 0E       		.uleb128 0xe
 2421 0274 3A       		.uleb128 0x3a
 2422 0275 0B       		.uleb128 0xb
 2423 0276 3B       		.uleb128 0x3b
 2424 0277 05       		.uleb128 0x5
 2425 0278 27       		.uleb128 0x27
 2426 0279 19       		.uleb128 0x19
 2427 027a 20       		.uleb128 0x20
 2428 027b 0B       		.uleb128 0xb
 2429 027c 01       		.uleb128 0x1
 2430 027d 13       		.uleb128 0x13
 2431 027e 00       		.byte	0
 2432 027f 00       		.byte	0
 2433 0280 30       		.uleb128 0x30
 2434 0281 2E       		.uleb128 0x2e
 2435 0282 00       		.byte	0
 2436 0283 03       		.uleb128 0x3
 2437 0284 0E       		.uleb128 0xe
 2438 0285 3A       		.uleb128 0x3a
 2439 0286 0B       		.uleb128 0xb
 2440 0287 3B       		.uleb128 0x3b
 2441 0288 05       		.uleb128 0x5
 2442 0289 27       		.uleb128 0x27
 2443 028a 19       		.uleb128 0x19
 2444 028b 20       		.uleb128 0x20
 2445 028c 0B       		.uleb128 0xb
 2446 028d 00       		.byte	0
 2447 028e 00       		.byte	0
 2448 028f 31       		.uleb128 0x31
 2449 0290 05       		.uleb128 0x5
 2450 0291 00       		.byte	0
ARM GAS  /var/folders/vd/czx34qs52cd_f3nb04sxmghc0000gn/T//ccsLIAkY.s 			page 44


 2451 0292 03       		.uleb128 0x3
 2452 0293 0E       		.uleb128 0xe
 2453 0294 3A       		.uleb128 0x3a
 2454 0295 0B       		.uleb128 0xb
 2455 0296 3B       		.uleb128 0x3b
 2456 0297 05       		.uleb128 0x5
 2457 0298 49       		.uleb128 0x49
 2458 0299 13       		.uleb128 0x13
 2459 029a 00       		.byte	0
 2460 029b 00       		.byte	0
 2461 029c 32       		.uleb128 0x32
 2462 029d 2E       		.uleb128 0x2e
 2463 029e 01       		.byte	0x1
 2464 029f 31       		.uleb128 0x31
 2465 02a0 13       		.uleb128 0x13
 2466 02a1 11       		.uleb128 0x11
 2467 02a2 01       		.uleb128 0x1
 2468 02a3 12       		.uleb128 0x12
 2469 02a4 06       		.uleb128 0x6
 2470 02a5 40       		.uleb128 0x40
 2471 02a6 18       		.uleb128 0x18
 2472 02a7 9742     		.uleb128 0x2117
 2473 02a9 19       		.uleb128 0x19
 2474 02aa 00       		.byte	0
 2475 02ab 00       		.byte	0
 2476 02ac 33       		.uleb128 0x33
 2477 02ad 34       		.uleb128 0x34
 2478 02ae 00       		.byte	0
 2479 02af 31       		.uleb128 0x31
 2480 02b0 13       		.uleb128 0x13
 2481 02b1 02       		.uleb128 0x2
 2482 02b2 17       		.uleb128 0x17
 2483 02b3 00       		.byte	0
 2484 02b4 00       		.byte	0
 2485 02b5 34       		.uleb128 0x34
 2486 02b6 34       		.uleb128 0x34
 2487 02b7 00       		.byte	0
 2488 02b8 31       		.uleb128 0x31
 2489 02b9 13       		.uleb128 0x13
 2490 02ba 02       		.uleb128 0x2
 2491 02bb 18       		.uleb128 0x18
 2492 02bc 00       		.byte	0
 2493 02bd 00       		.byte	0
 2494 02be 00       		.byte	0
 2495              		.section	.debug_loc,"",%progbits
 2496              	.Ldebug_loc0:
 2497              	.LLST4:
 2498 0000 00000000 		.4byte	.LVL9
 2499 0004 18000000 		.4byte	.LVL13
 2500 0008 0100     		.2byte	0x1
 2501 000a 50       		.byte	0x50
 2502 000b 18000000 		.4byte	.LVL13
 2503 000f 44000000 		.4byte	.LFE282
 2504 0013 0400     		.2byte	0x4
 2505 0015 F3       		.byte	0xf3
 2506 0016 01       		.uleb128 0x1
 2507 0017 50       		.byte	0x50
ARM GAS  /var/folders/vd/czx34qs52cd_f3nb04sxmghc0000gn/T//ccsLIAkY.s 			page 45


 2508 0018 9F       		.byte	0x9f
 2509 0019 00000000 		.4byte	0
 2510 001d 00000000 		.4byte	0
 2511              	.LLST5:
 2512 0021 00000000 		.4byte	.LVL9
 2513 0025 16000000 		.4byte	.LVL12
 2514 0029 0100     		.2byte	0x1
 2515 002b 51       		.byte	0x51
 2516 002c 16000000 		.4byte	.LVL12
 2517 0030 44000000 		.4byte	.LFE282
 2518 0034 0400     		.2byte	0x4
 2519 0036 71       		.byte	0x71
 2520 0037 00       		.sleb128 0
 2521 0038 1F       		.byte	0x1f
 2522 0039 9F       		.byte	0x9f
 2523 003a 00000000 		.4byte	0
 2524 003e 00000000 		.4byte	0
 2525              	.LLST6:
 2526 0042 00000000 		.4byte	.LVL9
 2527 0046 12000000 		.4byte	.LVL11
 2528 004a 0100     		.2byte	0x1
 2529 004c 52       		.byte	0x52
 2530 004d 12000000 		.4byte	.LVL11
 2531 0051 44000000 		.4byte	.LFE282
 2532 0055 0400     		.2byte	0x4
 2533 0057 F3       		.byte	0xf3
 2534 0058 01       		.uleb128 0x1
 2535 0059 52       		.byte	0x52
 2536 005a 9F       		.byte	0x9f
 2537 005b 00000000 		.4byte	0
 2538 005f 00000000 		.4byte	0
 2539              	.LLST7:
 2540 0063 00000000 		.4byte	.LVL9
 2541 0067 08000000 		.4byte	.LVL10
 2542 006b 0300     		.2byte	0x3
 2543 006d 08       		.byte	0x8
 2544 006e 20       		.byte	0x20
 2545 006f 9F       		.byte	0x9f
 2546 0070 00000000 		.4byte	0
 2547 0074 00000000 		.4byte	0
 2548              	.LLST8:
 2549 0078 08000000 		.4byte	.LVL10
 2550 007c 12000000 		.4byte	.LVL11
 2551 0080 0100     		.2byte	0x1
 2552 0082 52       		.byte	0x52
 2553 0083 12000000 		.4byte	.LVL11
 2554 0087 28000000 		.4byte	.LVL16
 2555 008b 0400     		.2byte	0x4
 2556 008d F3       		.byte	0xf3
 2557 008e 01       		.uleb128 0x1
 2558 008f 52       		.byte	0x52
 2559 0090 9F       		.byte	0x9f
 2560 0091 32000000 		.4byte	.LVL18
 2561 0095 34000000 		.4byte	.LVL19
 2562 0099 0400     		.2byte	0x4
 2563 009b F3       		.byte	0xf3
 2564 009c 01       		.uleb128 0x1
ARM GAS  /var/folders/vd/czx34qs52cd_f3nb04sxmghc0000gn/T//ccsLIAkY.s 			page 46


 2565 009d 52       		.byte	0x52
 2566 009e 9F       		.byte	0x9f
 2567 009f 00000000 		.4byte	0
 2568 00a3 00000000 		.4byte	0
 2569              	.LLST9:
 2570 00a7 08000000 		.4byte	.LVL10
 2571 00ab 16000000 		.4byte	.LVL12
 2572 00af 0100     		.2byte	0x1
 2573 00b1 51       		.byte	0x51
 2574 00b2 16000000 		.4byte	.LVL12
 2575 00b6 28000000 		.4byte	.LVL16
 2576 00ba 0400     		.2byte	0x4
 2577 00bc 71       		.byte	0x71
 2578 00bd 00       		.sleb128 0
 2579 00be 1F       		.byte	0x1f
 2580 00bf 9F       		.byte	0x9f
 2581 00c0 32000000 		.4byte	.LVL18
 2582 00c4 34000000 		.4byte	.LVL19
 2583 00c8 0400     		.2byte	0x4
 2584 00ca 71       		.byte	0x71
 2585 00cb 00       		.sleb128 0
 2586 00cc 1F       		.byte	0x1f
 2587 00cd 9F       		.byte	0x9f
 2588 00ce 00000000 		.4byte	0
 2589 00d2 00000000 		.4byte	0
 2590              	.LLST10:
 2591 00d6 08000000 		.4byte	.LVL10
 2592 00da 16000000 		.4byte	.LVL12
 2593 00de 0100     		.2byte	0x1
 2594 00e0 50       		.byte	0x50
 2595 00e1 16000000 		.4byte	.LVL12
 2596 00e5 18000000 		.4byte	.LVL13
 2597 00e9 0900     		.2byte	0x9
 2598 00eb 70       		.byte	0x70
 2599 00ec 00       		.sleb128 0
 2600 00ed 76       		.byte	0x76
 2601 00ee 00       		.sleb128 0
 2602 00ef 22       		.byte	0x22
 2603 00f0 71       		.byte	0x71
 2604 00f1 00       		.sleb128 0
 2605 00f2 1A       		.byte	0x1a
 2606 00f3 9F       		.byte	0x9f
 2607 00f4 18000000 		.4byte	.LVL13
 2608 00f8 28000000 		.4byte	.LVL16
 2609 00fc 0A00     		.2byte	0xa
 2610 00fe F3       		.byte	0xf3
 2611 00ff 01       		.uleb128 0x1
 2612 0100 50       		.byte	0x50
 2613 0101 76       		.byte	0x76
 2614 0102 00       		.sleb128 0
 2615 0103 22       		.byte	0x22
 2616 0104 71       		.byte	0x71
 2617 0105 00       		.sleb128 0
 2618 0106 1A       		.byte	0x1a
 2619 0107 9F       		.byte	0x9f
 2620 0108 32000000 		.4byte	.LVL18
 2621 010c 34000000 		.4byte	.LVL19
ARM GAS  /var/folders/vd/czx34qs52cd_f3nb04sxmghc0000gn/T//ccsLIAkY.s 			page 47


 2622 0110 0A00     		.2byte	0xa
 2623 0112 F3       		.byte	0xf3
 2624 0113 01       		.uleb128 0x1
 2625 0114 50       		.byte	0x50
 2626 0115 76       		.byte	0x76
 2627 0116 00       		.sleb128 0
 2628 0117 22       		.byte	0x22
 2629 0118 71       		.byte	0x71
 2630 0119 00       		.sleb128 0
 2631 011a 1A       		.byte	0x1a
 2632 011b 9F       		.byte	0x9f
 2633 011c 00000000 		.4byte	0
 2634 0120 00000000 		.4byte	0
 2635              	.LLST11:
 2636 0124 28000000 		.4byte	.LVL16
 2637 0128 2E000000 		.4byte	.LVL17
 2638 012c 0200     		.2byte	0x2
 2639 012e 30       		.byte	0x30
 2640 012f 9F       		.byte	0x9f
 2641 0130 34000000 		.4byte	.LVL19
 2642 0134 3A000000 		.4byte	.LVL20
 2643 0138 0200     		.2byte	0x2
 2644 013a 30       		.byte	0x30
 2645 013b 9F       		.byte	0x9f
 2646 013c 00000000 		.4byte	0
 2647 0140 00000000 		.4byte	0
 2648              	.LLST0:
 2649 0144 00000000 		.4byte	.LVL0
 2650 0148 0C000000 		.4byte	.LVL2
 2651 014c 0100     		.2byte	0x1
 2652 014e 50       		.byte	0x50
 2653 014f 0C000000 		.4byte	.LVL2
 2654 0153 12000000 		.4byte	.LVL3
 2655 0157 0300     		.2byte	0x3
 2656 0159 70       		.byte	0x70
 2657 015a 01       		.sleb128 1
 2658 015b 9F       		.byte	0x9f
 2659 015c 12000000 		.4byte	.LVL3
 2660 0160 14000000 		.4byte	.LVL4
 2661 0164 0400     		.2byte	0x4
 2662 0166 F3       		.byte	0xf3
 2663 0167 01       		.uleb128 0x1
 2664 0168 50       		.byte	0x50
 2665 0169 9F       		.byte	0x9f
 2666 016a 14000000 		.4byte	.LVL4
 2667 016e 18000000 		.4byte	.LVL6
 2668 0172 0600     		.2byte	0x6
 2669 0174 73       		.byte	0x73
 2670 0175 00       		.sleb128 0
 2671 0176 71       		.byte	0x71
 2672 0177 00       		.sleb128 0
 2673 0178 1A       		.byte	0x1a
 2674 0179 9F       		.byte	0x9f
 2675 017a 18000000 		.4byte	.LVL6
 2676 017e 1A000000 		.4byte	.LVL7
 2677 0182 0100     		.2byte	0x1
 2678 0184 51       		.byte	0x51
ARM GAS  /var/folders/vd/czx34qs52cd_f3nb04sxmghc0000gn/T//ccsLIAkY.s 			page 48


 2679 0185 1A000000 		.4byte	.LVL7
 2680 0189 34000000 		.4byte	.LFE281
 2681 018d 0800     		.2byte	0x8
 2682 018f F3       		.byte	0xf3
 2683 0190 01       		.uleb128 0x1
 2684 0191 51       		.byte	0x51
 2685 0192 1F       		.byte	0x1f
 2686 0193 73       		.byte	0x73
 2687 0194 00       		.sleb128 0
 2688 0195 1A       		.byte	0x1a
 2689 0196 9F       		.byte	0x9f
 2690 0197 00000000 		.4byte	0
 2691 019b 00000000 		.4byte	0
 2692              	.LLST1:
 2693 019f 00000000 		.4byte	.LVL0
 2694 01a3 14000000 		.4byte	.LVL4
 2695 01a7 0100     		.2byte	0x1
 2696 01a9 51       		.byte	0x51
 2697 01aa 14000000 		.4byte	.LVL4
 2698 01ae 18000000 		.4byte	.LVL6
 2699 01b2 0400     		.2byte	0x4
 2700 01b4 71       		.byte	0x71
 2701 01b5 00       		.sleb128 0
 2702 01b6 1F       		.byte	0x1f
 2703 01b7 9F       		.byte	0x9f
 2704 01b8 18000000 		.4byte	.LVL6
 2705 01bc 34000000 		.4byte	.LFE281
 2706 01c0 0400     		.2byte	0x4
 2707 01c2 F3       		.byte	0xf3
 2708 01c3 01       		.uleb128 0x1
 2709 01c4 51       		.byte	0x51
 2710 01c5 9F       		.byte	0x9f
 2711 01c6 00000000 		.4byte	0
 2712 01ca 00000000 		.4byte	0
 2713              	.LLST2:
 2714 01ce 00000000 		.4byte	.LVL0
 2715 01d2 0A000000 		.4byte	.LVL1
 2716 01d6 0100     		.2byte	0x1
 2717 01d8 52       		.byte	0x52
 2718 01d9 0A000000 		.4byte	.LVL1
 2719 01dd 34000000 		.4byte	.LFE281
 2720 01e1 0400     		.2byte	0x4
 2721 01e3 F3       		.byte	0xf3
 2722 01e4 01       		.uleb128 0x1
 2723 01e5 52       		.byte	0x52
 2724 01e6 9F       		.byte	0x9f
 2725 01e7 00000000 		.4byte	0
 2726 01eb 00000000 		.4byte	0
 2727              	.LLST3:
 2728 01ef 16000000 		.4byte	.LVL5
 2729 01f3 2A000000 		.4byte	.LVL8
 2730 01f7 0100     		.2byte	0x1
 2731 01f9 50       		.byte	0x50
 2732 01fa 2A000000 		.4byte	.LVL8
 2733 01fe 34000000 		.4byte	.LFE281
 2734 0202 0C00     		.2byte	0xc
 2735 0204 72       		.byte	0x72
ARM GAS  /var/folders/vd/czx34qs52cd_f3nb04sxmghc0000gn/T//ccsLIAkY.s 			page 49


 2736 0205 00       		.sleb128 0
 2737 0206 F3       		.byte	0xf3
 2738 0207 01       		.uleb128 0x1
 2739 0208 51       		.byte	0x51
 2740 0209 22       		.byte	0x22
 2741 020a F3       		.byte	0xf3
 2742 020b 01       		.uleb128 0x1
 2743 020c 51       		.byte	0x51
 2744 020d 1F       		.byte	0x1f
 2745 020e 1A       		.byte	0x1a
 2746 020f 9F       		.byte	0x9f
 2747 0210 00000000 		.4byte	0
 2748 0214 00000000 		.4byte	0
 2749              		.section	.debug_aranges,"",%progbits
 2750 0000 34000000 		.4byte	0x34
 2751 0004 0200     		.2byte	0x2
 2752 0006 00000000 		.4byte	.Ldebug_info0
 2753 000a 04       		.byte	0x4
 2754 000b 00       		.byte	0
 2755 000c 0000     		.2byte	0
 2756 000e 0000     		.2byte	0
 2757 0010 00000000 		.4byte	.LFB280
 2758 0014 18000000 		.4byte	.LFE280-.LFB280
 2759 0018 00000000 		.4byte	.LFB281
 2760 001c 34000000 		.4byte	.LFE281-.LFB281
 2761 0020 00000000 		.4byte	.LFB282
 2762 0024 44000000 		.4byte	.LFE282-.LFB282
 2763 0028 00000000 		.4byte	.LFB283
 2764 002c 10000000 		.4byte	.LFE283-.LFB283
 2765 0030 00000000 		.4byte	0
 2766 0034 00000000 		.4byte	0
 2767              		.section	.debug_ranges,"",%progbits
 2768              	.Ldebug_ranges0:
 2769 0000 08000000 		.4byte	.LBB30
 2770 0004 28000000 		.4byte	.LBE30
 2771 0008 32000000 		.4byte	.LBB42
 2772 000c 34000000 		.4byte	.LBE42
 2773 0010 00000000 		.4byte	0
 2774 0014 00000000 		.4byte	0
 2775 0018 28000000 		.4byte	.LBB33
 2776 001c 2E000000 		.4byte	.LBE33
 2777 0020 34000000 		.4byte	.LBB43
 2778 0024 3A000000 		.4byte	.LBE43
 2779 0028 00000000 		.4byte	0
 2780 002c 00000000 		.4byte	0
 2781 0030 00000000 		.4byte	.LFB280
 2782 0034 18000000 		.4byte	.LFE280
 2783 0038 00000000 		.4byte	.LFB281
 2784 003c 34000000 		.4byte	.LFE281
 2785 0040 00000000 		.4byte	.LFB282
 2786 0044 44000000 		.4byte	.LFE282
 2787 0048 00000000 		.4byte	.LFB283
 2788 004c 10000000 		.4byte	.LFE283
 2789 0050 00000000 		.4byte	0
 2790 0054 00000000 		.4byte	0
 2791              		.section	.debug_line,"",%progbits
 2792              	.Ldebug_line0:
ARM GAS  /var/folders/vd/czx34qs52cd_f3nb04sxmghc0000gn/T//ccsLIAkY.s 			page 50


 2793 0000 7E030000 		.section	.debug_str,"MS",%progbits,1
 2793      0200EA02 
 2793      00000201 
 2793      FB0E0D00 
 2793      01010101 
 2794              	.LASF54:
 2795 0000 72656164 		.ascii	"ready_list_t\000"
 2795      795F6C69 
 2795      73745F74 
 2795      00
 2796              	.LASF4:
 2797 000d 73697A65 		.ascii	"size_t\000"
 2797      5F7400
 2798              	.LASF60:
 2799 0014 64656C74 		.ascii	"delta\000"
 2799      6100
 2800              	.LASF85:
 2801 001a 7264796D 		.ascii	"rdymsg\000"
 2801      736700
 2802              	.LASF20:
 2803 0021 75696E74 		.ascii	"uint64_t\000"
 2803      36345F74 
 2803      00
 2804              	.LASF5:
 2805 002a 5F5F7569 		.ascii	"__uint8_t\000"
 2805      6E74385F 
 2805      7400
 2806              	.LASF53:
 2807 0034 70726576 		.ascii	"prev\000"
 2807      00
 2808              	.LASF82:
 2809 0039 706F7274 		.ascii	"port_intctx\000"
 2809      5F696E74 
 2809      63747800 
 2810              	.LASF65:
 2811 0045 73797374 		.ascii	"system_debug_t\000"
 2811      656D5F64 
 2811      65627567 
 2811      5F7400
 2812              	.LASF128:
 2813 0054 70726F76 		.ascii	"provider\000"
 2813      69646572 
 2813      00
 2814              	.LASF138:
 2815 005d 73656D5F 		.ascii	"sem_list\000"
 2815      6C697374 
 2815      00
 2816              	.LASF151:
 2817 0066 706F7274 		.ascii	"port_lock\000"
 2817      5F6C6F63 
 2817      6B00
 2818              	.LASF120:
 2819 0070 6D656D67 		.ascii	"memgetfunc_t\000"
 2819      65746675 
 2819      6E635F74 
 2819      00
 2820              	.LASF15:
ARM GAS  /var/folders/vd/czx34qs52cd_f3nb04sxmghc0000gn/T//ccsLIAkY.s 			page 51


 2821 007d 6C6F6E67 		.ascii	"long long unsigned int\000"
 2821      206C6F6E 
 2821      6720756E 
 2821      7369676E 
 2821      65642069 
 2822              	.LASF86:
 2823 0094 65786974 		.ascii	"exitcode\000"
 2823      636F6465 
 2823      00
 2824              	.LASF72:
 2825 009d 6D61696E 		.ascii	"mainthread\000"
 2825      74687265 
 2825      616400
 2826              	.LASF89:
 2827 00a8 73656E74 		.ascii	"sentmsg\000"
 2827      6D736700 
 2828              	.LASF62:
 2829 00b0 76697274 		.ascii	"virtual_timers_list_t\000"
 2829      75616C5F 
 2829      74696D65 
 2829      72735F6C 
 2829      6973745F 
 2830              	.LASF75:
 2831 00c6 49544D5F 		.ascii	"ITM_RxBuffer\000"
 2831      52784275 
 2831      66666572 
 2831      00
 2832              	.LASF61:
 2833 00d3 66756E63 		.ascii	"func\000"
 2833      00
 2834              	.LASF131:
 2835 00d8 64796E5F 		.ascii	"dyn_element_t\000"
 2835      656C656D 
 2835      656E745F 
 2835      7400
 2836              	.LASF50:
 2837 00e6 6E657874 		.ascii	"next\000"
 2837      00
 2838              	.LASF52:
 2839 00eb 63685F74 		.ascii	"ch_threads_queue\000"
 2839      68726561 
 2839      64735F71 
 2839      75657565 
 2839      00
 2840              	.LASF154:
 2841 00fc 474E5520 		.ascii	"GNU C11 7.2.1 20170904 (release) [ARM/embedded-7-br"
 2841      43313120 
 2841      372E322E 
 2841      31203230 
 2841      31373039 
 2842 012f 616E6368 		.ascii	"anch revision 255204] -mcpu=cortex-m4 -mno-thumb-in"
 2842      20726576 
 2842      6973696F 
 2842      6E203235 
 2842      35323034 
 2843 0162 74657277 		.ascii	"terwork -mthumb -ggdb -O2 -fomit-frame-pointer -fal"
 2843      6F726B20 
ARM GAS  /var/folders/vd/czx34qs52cd_f3nb04sxmghc0000gn/T//ccsLIAkY.s 			page 52


 2843      2D6D7468 
 2843      756D6220 
 2843      2D676764 
 2844 0195 69676E2D 		.ascii	"ign-functions=16 -ffunction-sections -fdata-section"
 2844      66756E63 
 2844      74696F6E 
 2844      733D3136 
 2844      202D6666 
 2845 01c8 73202D66 		.ascii	"s -fno-common\000"
 2845      6E6F2D63 
 2845      6F6D6D6F 
 2845      6E00
 2846              	.LASF1:
 2847 01d6 6C6F6E67 		.ascii	"long long int\000"
 2847      206C6F6E 
 2847      6720696E 
 2847      7400
 2848              	.LASF3:
 2849 01e4 7369676E 		.ascii	"signed char\000"
 2849      65642063 
 2849      68617200 
 2850              	.LASF100:
 2851 01f0 73697A65 		.ascii	"size\000"
 2851      00
 2852              	.LASF70:
 2853 01f5 726C6973 		.ascii	"rlist\000"
 2853      7400
 2854              	.LASF153:
 2855 01fb 62617365 		.ascii	"basePri\000"
 2855      50726900 
 2856              	.LASF71:
 2857 0203 76746C69 		.ascii	"vtlist\000"
 2857      737400
 2858              	.LASF150:
 2859 020a 706F7274 		.ascii	"port_unlock\000"
 2859      5F756E6C 
 2859      6F636B00 
 2860              	.LASF157:
 2861 0216 6368436F 		.ascii	"chCoreGetStatusX\000"
 2861      72654765 
 2861      74537461 
 2861      74757358 
 2861      00
 2862              	.LASF41:
 2863 0227 6D736771 		.ascii	"msgqueue\000"
 2863      75657565 
 2863      00
 2864              	.LASF37:
 2865 0230 73746174 		.ascii	"state\000"
 2865      6500
 2866              	.LASF11:
 2867 0236 6C6F6E67 		.ascii	"long int\000"
 2867      20696E74 
 2867      00
 2868              	.LASF23:
 2869 023f 74737461 		.ascii	"tstate_t\000"
 2869      74655F74 
ARM GAS  /var/folders/vd/czx34qs52cd_f3nb04sxmghc0000gn/T//ccsLIAkY.s 			page 53


 2869      00
 2870              	.LASF158:
 2871 0248 6368436F 		.ascii	"chCoreAllocAlignedWithOffset\000"
 2871      7265416C 
 2871      6C6F6341 
 2871      6C69676E 
 2871      65645769 
 2872              	.LASF98:
 2873 0265 6964656E 		.ascii	"identifier\000"
 2873      74696669 
 2873      657200
 2874              	.LASF17:
 2875 0270 75696E74 		.ascii	"uint16_t\000"
 2875      31365F74 
 2875      00
 2876              	.LASF116:
 2877 0279 63686465 		.ascii	"chdebug_t\000"
 2877      6275675F 
 2877      7400
 2878              	.LASF114:
 2879 0283 6F66665F 		.ascii	"off_preempt\000"
 2879      70726565 
 2879      6D707400 
 2880              	.LASF110:
 2881 028f 6F66665F 		.ascii	"off_stklimit\000"
 2881      73746B6C 
 2881      696D6974 
 2881      00
 2882              	.LASF12:
 2883 029c 5F5F7569 		.ascii	"__uint32_t\000"
 2883      6E743332 
 2883      5F7400
 2884              	.LASF79:
 2885 02a7 72656761 		.ascii	"regarm_t\000"
 2885      726D5F74 
 2885      00
 2886              	.LASF140:
 2887 02b0 6D62785F 		.ascii	"mbx_list\000"
 2887      6C697374 
 2887      00
 2888              	.LASF66:
 2889 02b9 63685F73 		.ascii	"ch_system_debug\000"
 2889      79737465 
 2889      6D5F6465 
 2889      62756700 
 2890              	.LASF40:
 2891 02c9 77616974 		.ascii	"waiting\000"
 2891      696E6700 
 2892              	.LASF78:
 2893 02d1 41504250 		.ascii	"APBPrescTable\000"
 2893      72657363 
 2893      5461626C 
 2893      6500
 2894              	.LASF99:
 2895 02df 7A65726F 		.ascii	"zero\000"
 2895      00
 2896              	.LASF118:
ARM GAS  /var/folders/vd/czx34qs52cd_f3nb04sxmghc0000gn/T//ccsLIAkY.s 			page 54


 2897 02e4 6D757465 		.ascii	"mutex_t\000"
 2897      785F7400 
 2898              	.LASF127:
 2899 02ec 616C6967 		.ascii	"align\000"
 2899      6E00
 2900              	.LASF74:
 2901 02f2 73797369 		.ascii	"sysinterval_t\000"
 2901      6E746572 
 2901      76616C5F 
 2901      7400
 2902              	.LASF28:
 2903 0300 636E745F 		.ascii	"cnt_t\000"
 2903      7400
 2904              	.LASF0:
 2905 0306 756E7369 		.ascii	"unsigned int\000"
 2905      676E6564 
 2905      20696E74 
 2905      00
 2906              	.LASF76:
 2907 0313 53797374 		.ascii	"SystemCoreClock\000"
 2907      656D436F 
 2907      7265436C 
 2907      6F636B00 
 2908              	.LASF90:
 2909 0323 77747365 		.ascii	"wtsemp\000"
 2909      6D7000
 2910              	.LASF156:
 2911 032a 2F557365 		.ascii	"/Users/lantian/Projects/stm32f407vet6/dev\000"
 2911      72732F6C 
 2911      616E7469 
 2911      616E2F50 
 2911      726F6A65 
 2912              	.LASF88:
 2913 0354 77747472 		.ascii	"wttrp\000"
 2913      7000
 2914              	.LASF117:
 2915 035a 63685F64 		.ascii	"ch_debug\000"
 2915      65627567 
 2915      00
 2916              	.LASF143:
 2917 0363 63685F66 		.ascii	"ch_factory\000"
 2917      6163746F 
 2917      727900
 2918              	.LASF129:
 2919 036e 6D656D6F 		.ascii	"memory_pool_t\000"
 2919      72795F70 
 2919      6F6F6C5F 
 2919      7400
 2920              	.LASF35:
 2921 037c 6E616D65 		.ascii	"name\000"
 2921      00
 2922              	.LASF31:
 2923 0381 71756575 		.ascii	"queue\000"
 2923      6500
 2924              	.LASF45:
 2925 0387 6D706F6F 		.ascii	"mpool\000"
 2925      6C00
ARM GAS  /var/folders/vd/czx34qs52cd_f3nb04sxmghc0000gn/T//ccsLIAkY.s 			page 55


 2926              	.LASF113:
 2927 038d 6F66665F 		.ascii	"off_refs\000"
 2927      72656673 
 2927      00
 2928              	.LASF137:
 2929 0396 6275665F 		.ascii	"buf_list\000"
 2929      6C697374 
 2929      00
 2930              	.LASF48:
 2931 039f 63685F74 		.ascii	"ch_thread\000"
 2931      68726561 
 2931      6400
 2932              	.LASF26:
 2933 03a9 6D73675F 		.ascii	"msg_t\000"
 2933      7400
 2934              	.LASF29:
 2935 03af 75636E74 		.ascii	"ucnt_t\000"
 2935      5F7400
 2936              	.LASF42:
 2937 03b6 6570656E 		.ascii	"epending\000"
 2937      64696E67 
 2937      00
 2938              	.LASF133:
 2939 03bf 64796E5F 		.ascii	"dyn_list_t\000"
 2939      6C697374 
 2939      5F7400
 2940              	.LASF68:
 2941 03ca 63685F73 		.ascii	"ch_system_t\000"
 2941      79737465 
 2941      6D5F7400 
 2942              	.LASF106:
 2943 03d6 6F66665F 		.ascii	"off_ctx\000"
 2943      63747800 
 2944              	.LASF22:
 2945 03de 746D6F64 		.ascii	"tmode_t\000"
 2945      655F7400 
 2946              	.LASF55:
 2947 03e6 63685F72 		.ascii	"ch_ready_list\000"
 2947      65616479 
 2947      5F6C6973 
 2947      7400
 2948              	.LASF27:
 2949 03f4 6576656E 		.ascii	"eventmask_t\000"
 2949      746D6173 
 2949      6B5F7400 
 2950              	.LASF77:
 2951 0400 41484250 		.ascii	"AHBPrescTable\000"
 2951      72657363 
 2951      5461626C 
 2951      6500
 2952              	.LASF122:
 2953 040e 656E646D 		.ascii	"endmem\000"
 2953      656D00
 2954              	.LASF10:
 2955 0415 5F5F696E 		.ascii	"__int32_t\000"
 2955      7433325F 
 2955      7400
ARM GAS  /var/folders/vd/czx34qs52cd_f3nb04sxmghc0000gn/T//ccsLIAkY.s 			page 56


 2956              	.LASF80:
 2957 041f 73746B61 		.ascii	"stkalign_t\000"
 2957      6C69676E 
 2957      5F7400
 2958              	.LASF33:
 2959 042a 6E657765 		.ascii	"newer\000"
 2959      7200
 2960              	.LASF44:
 2961 0430 7265616C 		.ascii	"realprio\000"
 2961      7072696F 
 2961      00
 2962              	.LASF101:
 2963 0439 76657273 		.ascii	"version\000"
 2963      696F6E00 
 2964              	.LASF21:
 2965 0441 7274636E 		.ascii	"rtcnt_t\000"
 2965      745F7400 
 2966              	.LASF46:
 2967 0449 74687265 		.ascii	"thread_reference_t\000"
 2967      61645F72 
 2967      65666572 
 2967      656E6365 
 2967      5F7400
 2968              	.LASF63:
 2969 045c 63685F76 		.ascii	"ch_virtual_timers_list\000"
 2969      69727475 
 2969      616C5F74 
 2969      696D6572 
 2969      735F6C69 
 2970              	.LASF2:
 2971 0473 6C6F6E67 		.ascii	"long double\000"
 2971      20646F75 
 2971      626C6500 
 2972              	.LASF132:
 2973 047f 63685F64 		.ascii	"ch_dyn_list\000"
 2973      796E5F6C 
 2973      69737400 
 2974              	.LASF107:
 2975 048b 6F66665F 		.ascii	"off_newer\000"
 2975      6E657765 
 2975      7200
 2976              	.LASF81:
 2977 0495 706F7274 		.ascii	"port_context\000"
 2977      5F636F6E 
 2977      74657874 
 2977      00
 2978              	.LASF84:
 2979 04a2 746D5F63 		.ascii	"tm_calibration_t\000"
 2979      616C6962 
 2979      72617469 
 2979      6F6E5F74 
 2979      00
 2980              	.LASF32:
 2981 04b3 7072696F 		.ascii	"prio\000"
 2981      00
 2982              	.LASF139:
 2983 04b8 73656D5F 		.ascii	"sem_pool\000"
ARM GAS  /var/folders/vd/czx34qs52cd_f3nb04sxmghc0000gn/T//ccsLIAkY.s 			page 57


 2983      706F6F6C 
 2983      00
 2984              	.LASF56:
 2985 04c1 63757272 		.ascii	"current\000"
 2985      656E7400 
 2986              	.LASF14:
 2987 04c9 5F5F7569 		.ascii	"__uint64_t\000"
 2987      6E743634 
 2987      5F7400
 2988              	.LASF123:
 2989 04d4 6D656D63 		.ascii	"memcore_t\000"
 2989      6F72655F 
 2989      7400
 2990              	.LASF24:
 2991 04de 74726566 		.ascii	"trefs_t\000"
 2991      735F7400 
 2992              	.LASF39:
 2993 04e6 72656673 		.ascii	"refs\000"
 2993      00
 2994              	.LASF58:
 2995 04eb 76697274 		.ascii	"virtual_timer_t\000"
 2995      75616C5F 
 2995      74696D65 
 2995      725F7400 
 2996              	.LASF130:
 2997 04fb 63685F64 		.ascii	"ch_dyn_element\000"
 2997      796E5F65 
 2997      6C656D65 
 2997      6E7400
 2998              	.LASF25:
 2999 050a 74707269 		.ascii	"tprio_t\000"
 2999      6F5F7400 
 3000              	.LASF147:
 3001 0512 6368436F 		.ascii	"chCoreAllocAlignedWithOffsetI\000"
 3001      7265416C 
 3001      6C6F6341 
 3001      6C69676E 
 3001      65645769 
 3002              	.LASF104:
 3003 0530 74687265 		.ascii	"threadsize\000"
 3003      61647369 
 3003      7A6500
 3004              	.LASF119:
 3005 053b 5F426F6F 		.ascii	"_Bool\000"
 3005      6C00
 3006              	.LASF18:
 3007 0541 696E7433 		.ascii	"int32_t\000"
 3007      325F7400 
 3008              	.LASF6:
 3009 0549 756E7369 		.ascii	"unsigned char\000"
 3009      676E6564 
 3009      20636861 
 3009      7200
 3010              	.LASF105:
 3011 0557 6F66665F 		.ascii	"off_prio\000"
 3011      7072696F 
 3011      00
ARM GAS  /var/folders/vd/czx34qs52cd_f3nb04sxmghc0000gn/T//ccsLIAkY.s 			page 58


 3012              	.LASF159:
 3013 0560 5F636F72 		.ascii	"_core_init\000"
 3013      655F696E 
 3013      697400
 3014              	.LASF7:
 3015 056b 73686F72 		.ascii	"short int\000"
 3015      7420696E 
 3015      7400
 3016              	.LASF145:
 3017 0575 5F5F6865 		.ascii	"__heap_base__\000"
 3017      61705F62 
 3017      6173655F 
 3017      5F00
 3018              	.LASF64:
 3019 0583 6C617374 		.ascii	"lasttime\000"
 3019      74696D65 
 3019      00
 3020              	.LASF146:
 3021 058c 5F5F6865 		.ascii	"__heap_end__\000"
 3021      61705F65 
 3021      6E645F5F 
 3021      00
 3022              	.LASF92:
 3023 0599 65776D61 		.ascii	"ewmask\000"
 3023      736B00
 3024              	.LASF69:
 3025 05a0 63685F73 		.ascii	"ch_system\000"
 3025      79737465 
 3025      6D00
 3026              	.LASF144:
 3027 05aa 5F5F6675 		.ascii	"__func__\000"
 3027      6E635F5F 
 3027      00
 3028              	.LASF149:
 3029 05b3 63685379 		.ascii	"chSysLock\000"
 3029      734C6F63 
 3029      6B00
 3030              	.LASF136:
 3031 05bd 6F626A5F 		.ascii	"obj_pool\000"
 3031      706F6F6C 
 3031      00
 3032              	.LASF59:
 3033 05c6 63685F76 		.ascii	"ch_virtual_timer\000"
 3033      69727475 
 3033      616C5F74 
 3033      696D6572 
 3033      00
 3034              	.LASF93:
 3035 05d7 63685F73 		.ascii	"ch_semaphore\000"
 3035      656D6170 
 3035      686F7265 
 3035      00
 3036              	.LASF115:
 3037 05e4 6F66665F 		.ascii	"off_time\000"
 3037      74696D65 
 3037      00
 3038              	.LASF97:
ARM GAS  /var/folders/vd/czx34qs52cd_f3nb04sxmghc0000gn/T//ccsLIAkY.s 			page 59


 3039 05ed 63685F69 		.ascii	"ch_idle_thread_wa\000"
 3039      646C655F 
 3039      74687265 
 3039      61645F77 
 3039      6100
 3040              	.LASF103:
 3041 05ff 74696D65 		.ascii	"timesize\000"
 3041      73697A65 
 3041      00
 3042              	.LASF19:
 3043 0608 75696E74 		.ascii	"uint32_t\000"
 3043      33325F74 
 3043      00
 3044              	.LASF91:
 3045 0611 77746D74 		.ascii	"wtmtxp\000"
 3045      787000
 3046              	.LASF49:
 3047 0618 63685F74 		.ascii	"ch_threads_list\000"
 3047      68726561 
 3047      64735F6C 
 3047      69737400 
 3048              	.LASF95:
 3049 0628 6F776E65 		.ascii	"owner\000"
 3049      7200
 3050              	.LASF13:
 3051 062e 6C6F6E67 		.ascii	"long unsigned int\000"
 3051      20756E73 
 3051      69676E65 
 3051      6420696E 
 3051      7400
 3052              	.LASF36:
 3053 0640 77616261 		.ascii	"wabase\000"
 3053      736500
 3054              	.LASF96:
 3055 0647 63686172 		.ascii	"char\000"
 3055      00
 3056              	.LASF34:
 3057 064c 6F6C6465 		.ascii	"older\000"
 3057      7200
 3058              	.LASF135:
 3059 0652 6F626A5F 		.ascii	"obj_list\000"
 3059      6C697374 
 3059      00
 3060              	.LASF8:
 3061 065b 5F5F7569 		.ascii	"__uint16_t\000"
 3061      6E743136 
 3061      5F7400
 3062              	.LASF30:
 3063 0666 74687265 		.ascii	"thread_t\000"
 3063      61645F74 
 3063      00
 3064              	.LASF124:
 3065 066f 63685F6D 		.ascii	"ch_memcore\000"
 3065      656D636F 
 3065      726500
 3066              	.LASF73:
 3067 067a 73797374 		.ascii	"systime_t\000"
ARM GAS  /var/folders/vd/czx34qs52cd_f3nb04sxmghc0000gn/T//ccsLIAkY.s 			page 60


 3067      696D655F 
 3067      7400
 3068              	.LASF57:
 3069 0684 76746675 		.ascii	"vtfunc_t\000"
 3069      6E635F74 
 3069      00
 3070              	.LASF152:
 3071 068d 5F5F7365 		.ascii	"__set_BASEPRI\000"
 3071      745F4241 
 3071      53455052 
 3071      4900
 3072              	.LASF67:
 3073 069b 70616E69 		.ascii	"panic_msg\000"
 3073      635F6D73 
 3073      6700
 3074              	.LASF83:
 3075 06a5 6F666673 		.ascii	"offset\000"
 3075      657400
 3076              	.LASF94:
 3077 06ac 63685F6D 		.ascii	"ch_mutex\000"
 3077      75746578 
 3077      00
 3078              	.LASF108:
 3079 06b5 6F66665F 		.ascii	"off_older\000"
 3079      6F6C6465 
 3079      7200
 3080              	.LASF9:
 3081 06bf 73686F72 		.ascii	"short unsigned int\000"
 3081      7420756E 
 3081      7369676E 
 3081      65642069 
 3081      6E7400
 3082              	.LASF126:
 3083 06d2 6F626A65 		.ascii	"object_size\000"
 3083      63745F73 
 3083      697A6500 
 3084              	.LASF102:
 3085 06de 70747273 		.ascii	"ptrsize\000"
 3085      697A6500 
 3086              	.LASF134:
 3087 06e6 63685F6F 		.ascii	"ch_objects_factory\000"
 3087      626A6563 
 3087      74735F66 
 3087      6163746F 
 3087      727900
 3088              	.LASF51:
 3089 06f9 74687265 		.ascii	"threads_queue_t\000"
 3089      6164735F 
 3089      71756575 
 3089      655F7400 
 3090              	.LASF125:
 3091 0709 706F6F6C 		.ascii	"pool_header\000"
 3091      5F686561 
 3091      64657200 
 3092              	.LASF155:
 3093 0715 2E2E2F6F 		.ascii	"../os/common/oslib/src/chmemcore.c\000"
 3093      732F636F 
ARM GAS  /var/folders/vd/czx34qs52cd_f3nb04sxmghc0000gn/T//ccsLIAkY.s 			page 61


 3093      6D6D6F6E 
 3093      2F6F736C 
 3093      69622F73 
 3094              	.LASF109:
 3095 0738 6F66665F 		.ascii	"off_name\000"
 3095      6E616D65 
 3095      00
 3096              	.LASF16:
 3097 0741 75696E74 		.ascii	"uint8_t\000"
 3097      385F7400 
 3098              	.LASF38:
 3099 0749 666C6167 		.ascii	"flags\000"
 3099      7300
 3100              	.LASF141:
 3101 074f 6669666F 		.ascii	"fifo_list\000"
 3101      5F6C6973 
 3101      7400
 3102              	.LASF87:
 3103 0759 77746F62 		.ascii	"wtobjp\000"
 3103      6A7000
 3104              	.LASF47:
 3105 0760 74687265 		.ascii	"threads_list_t\000"
 3105      6164735F 
 3105      6C697374 
 3105      5F7400
 3106              	.LASF111:
 3107 076f 6F66665F 		.ascii	"off_state\000"
 3107      73746174 
 3107      6500
 3108              	.LASF148:
 3109 0779 63685379 		.ascii	"chSysUnlock\000"
 3109      73556E6C 
 3109      6F636B00 
 3110              	.LASF142:
 3111 0785 6F626A65 		.ascii	"objects_factory_t\000"
 3111      6374735F 
 3111      66616374 
 3111      6F72795F 
 3111      7400
 3112              	.LASF112:
 3113 0797 6F66665F 		.ascii	"off_flags\000"
 3113      666C6167 
 3113      7300
 3114              	.LASF43:
 3115 07a1 6D74786C 		.ascii	"mtxlist\000"
 3115      69737400 
 3116              	.LASF121:
 3117 07a9 6E657874 		.ascii	"nextmem\000"
 3117      6D656D00 
 3118              		.ident	"GCC: (GNU Tools for Arm Embedded Processors 7-2017-q4-major) 7.2.1 20170904 (release) [ARM
ARM GAS  /var/folders/vd/czx34qs52cd_f3nb04sxmghc0000gn/T//ccsLIAkY.s 			page 62


DEFINED SYMBOLS
                            *ABS*:0000000000000000 chmemcore.c
/var/folders/vd/czx34qs52cd_f3nb04sxmghc0000gn/T//ccsLIAkY.s:16     .text._core_init:0000000000000000 $t
/var/folders/vd/czx34qs52cd_f3nb04sxmghc0000gn/T//ccsLIAkY.s:24     .text._core_init:0000000000000000 _core_init
/var/folders/vd/czx34qs52cd_f3nb04sxmghc0000gn/T//ccsLIAkY.s:43     .text._core_init:000000000000000c $d
/var/folders/vd/czx34qs52cd_f3nb04sxmghc0000gn/T//ccsLIAkY.s:50     .text.chCoreAllocAlignedWithOffsetI:0000000000000000 $t
/var/folders/vd/czx34qs52cd_f3nb04sxmghc0000gn/T//ccsLIAkY.s:58     .text.chCoreAllocAlignedWithOffsetI:0000000000000000 chCoreAllocAlignedWithOffsetI
/var/folders/vd/czx34qs52cd_f3nb04sxmghc0000gn/T//ccsLIAkY.s:131    .text.chCoreAllocAlignedWithOffsetI:0000000000000030 $d
/var/folders/vd/czx34qs52cd_f3nb04sxmghc0000gn/T//ccsLIAkY.s:136    .text.chCoreAllocAlignedWithOffset:0000000000000000 $t
/var/folders/vd/czx34qs52cd_f3nb04sxmghc0000gn/T//ccsLIAkY.s:144    .text.chCoreAllocAlignedWithOffset:0000000000000000 chCoreAllocAlignedWithOffset
/var/folders/vd/czx34qs52cd_f3nb04sxmghc0000gn/T//ccsLIAkY.s:279    .text.chCoreAllocAlignedWithOffset:0000000000000040 $d
/var/folders/vd/czx34qs52cd_f3nb04sxmghc0000gn/T//ccsLIAkY.s:284    .text.chCoreGetStatusX:0000000000000000 $t
/var/folders/vd/czx34qs52cd_f3nb04sxmghc0000gn/T//ccsLIAkY.s:292    .text.chCoreGetStatusX:0000000000000000 chCoreGetStatusX
/var/folders/vd/czx34qs52cd_f3nb04sxmghc0000gn/T//ccsLIAkY.s:308    .text.chCoreGetStatusX:000000000000000c $d
/var/folders/vd/czx34qs52cd_f3nb04sxmghc0000gn/T//ccsLIAkY.s:318    .bss.ch_memcore:0000000000000000 ch_memcore
/var/folders/vd/czx34qs52cd_f3nb04sxmghc0000gn/T//ccsLIAkY.s:314    .bss.ch_memcore:0000000000000000 $d

UNDEFINED SYMBOLS
__heap_base__
__heap_end__
