ARM GAS  /var/folders/vd/czx34qs52cd_f3nb04sxmghc0000gn/T//ccJNpbcy.s 			page 1


   1              		.cpu cortex-m4
   2              		.eabi_attribute 20, 1
   3              		.eabi_attribute 21, 1
   4              		.eabi_attribute 23, 3
   5              		.eabi_attribute 24, 1
   6              		.eabi_attribute 25, 1
   7              		.eabi_attribute 26, 1
   8              		.eabi_attribute 30, 2
   9              		.eabi_attribute 34, 1
  10              		.eabi_attribute 18, 4
  11              		.file	"chmempools.c"
  12              		.text
  13              	.Ltext0:
  14              		.cfi_sections	.debug_frame
  15              		.section	.text.chPoolAllocI.part.0,"ax",%progbits
  16              		.align	1
  17              		.p2align 4,,15
  18              		.syntax unified
  19              		.thumb
  20              		.thumb_func
  21              		.fpu softvfp
  22              		.type	chPoolAllocI.part.0, %function
  23              	chPoolAllocI.part.0:
  24              	.LFB292:
  25              		.file 1 "../os/common/oslib/src/chmempools.c"
  26              		.loc 1 126 0
  27              		.cfi_startproc
  28              		@ args = 0, pretend = 0, frame = 0
  29              		@ frame_needed = 0, uses_anonymous_args = 0
  30              		@ link register save eliminated.
  31              	.LVL0:
  32              		.loc 1 137 0
  33 0000 C368     		ldr	r3, [r0, #12]
  34 0002 13B1     		cbz	r3, .L2
  35              		.loc 1 138 0
  36 0004 D0E90101 		ldrd	r0, r1, [r0, #4]
  37              	.LVL1:
  38 0008 1847     		bx	r3
  39              	.LVL2:
  40              	.L2:
  41              		.loc 1 143 0
  42 000a 1846     		mov	r0, r3
  43              	.LVL3:
  44 000c 7047     		bx	lr
  45              		.cfi_endproc
  46              	.LFE292:
  47              		.size	chPoolAllocI.part.0, .-chPoolAllocI.part.0
  48 000e 00BF     		.section	.text.chPoolObjectInitAligned,"ax",%progbits
  49              		.align	1
  50              		.p2align 4,,15
  51              		.global	chPoolObjectInitAligned
  52              		.syntax unified
  53              		.thumb
  54              		.thumb_func
  55              		.fpu softvfp
  56              		.type	chPoolObjectInitAligned, %function
  57              	chPoolObjectInitAligned:
ARM GAS  /var/folders/vd/czx34qs52cd_f3nb04sxmghc0000gn/T//ccJNpbcy.s 			page 2


  58              	.LFB280:
  59              		.loc 1 78 0
  60              		.cfi_startproc
  61              		@ args = 0, pretend = 0, frame = 0
  62              		@ frame_needed = 0, uses_anonymous_args = 0
  63              		@ link register save eliminated.
  64              	.LVL4:
  65 0000 10B4     		push	{r4}
  66              		.cfi_def_cfa_offset 4
  67              		.cfi_offset 4, -4
  68              		.loc 1 82 0
  69 0002 0024     		movs	r4, #0
  70 0004 0460     		str	r4, [r0]
  71              		.loc 1 84 0
  72 0006 C0E90112 		strd	r1, r2, [r0, #4]
  73              		.loc 1 85 0
  74 000a C360     		str	r3, [r0, #12]
  75              		.loc 1 86 0
  76 000c 10BC     		pop	{r4}
  77              		.cfi_restore 4
  78              		.cfi_def_cfa_offset 0
  79 000e 7047     		bx	lr
  80              		.cfi_endproc
  81              	.LFE280:
  82              		.size	chPoolObjectInitAligned, .-chPoolObjectInitAligned
  83              		.section	.text.chPoolLoadArray,"ax",%progbits
  84              		.align	1
  85              		.p2align 4,,15
  86              		.global	chPoolLoadArray
  87              		.syntax unified
  88              		.thumb
  89              		.thumb_func
  90              		.fpu softvfp
  91              		.type	chPoolLoadArray, %function
  92              	chPoolLoadArray:
  93              	.LFB281:
  94              		.loc 1 103 0
  95              		.cfi_startproc
  96              		@ args = 0, pretend = 0, frame = 0
  97              		@ frame_needed = 0, uses_anonymous_args = 0
  98              		@ link register save eliminated.
  99              	.LVL5:
 100              		.loc 1 107 0
 101 0000 7AB1     		cbz	r2, .L14
 102              		.loc 1 103 0
 103 0002 30B4     		push	{r4, r5}
 104              		.cfi_def_cfa_offset 8
 105              		.cfi_offset 4, -8
 106              		.cfi_offset 5, -4
 107              	.LBB139:
 108              	.LBB140:
 109              	.LBB141:
 110              	.LBB142:
 111              	.LBB143:
 112              	.LBB144:
 113              		.file 2 "../os/common/ext/ARM/CMSIS/Core/Include/cmsis_gcc.h"
 114              		.loc 2 490 0
ARM GAS  /var/folders/vd/czx34qs52cd_f3nb04sxmghc0000gn/T//ccJNpbcy.s 			page 3


 115 0004 2025     		movs	r5, #32
 116              	.LBE144:
 117              	.LBE143:
 118              	.LBE142:
 119              	.LBE141:
 120              	.LBB148:
 121              	.LBB149:
 122              	.LBB150:
 123              	.LBB151:
 124              	.LBB152:
 125 0006 0024     		movs	r4, #0
 126              	.LVL6:
 127              	.L8:
 128              	.LBE152:
 129              	.LBE151:
 130              	.LBE150:
 131              	.LBE149:
 132              	.LBE148:
 133              	.LBB157:
 134              	.LBB147:
 135              	.LBB146:
 136              	.LBB145:
 137              		.syntax unified
 138              	@ 490 "../os/common/ext/ARM/CMSIS/Core/Include/cmsis_gcc.h" 1
 139 0008 85F31188 		MSR basepri, r5
 140              	@ 0 "" 2
 141              	.LVL7:
 142              		.thumb
 143              		.syntax unified
 144              	.LBE145:
 145              	.LBE146:
 146              	.LBE147:
 147              	.LBE157:
 148              	.LBB158:
 149              	.LBB159:
 150              		.loc 1 186 0
 151 000c 0368     		ldr	r3, [r0]
 152 000e 0B60     		str	r3, [r1]
 153              		.loc 1 187 0
 154 0010 0160     		str	r1, [r0]
 155              	.LVL8:
 156              	.LBE159:
 157              	.LBE158:
 158              	.LBB160:
 159              	.LBB156:
 160              	.LBB155:
 161              	.LBB154:
 162              	.LBB153:
 163              		.loc 2 490 0
 164              		.syntax unified
 165              	@ 490 "../os/common/ext/ARM/CMSIS/Core/Include/cmsis_gcc.h" 1
 166 0012 84F31188 		MSR basepri, r4
 167              	@ 0 "" 2
 168              	.LVL9:
 169              		.thumb
 170              		.syntax unified
 171              	.LBE153:
ARM GAS  /var/folders/vd/czx34qs52cd_f3nb04sxmghc0000gn/T//ccJNpbcy.s 			page 4


 172              	.LBE154:
 173              	.LBE155:
 174              	.LBE156:
 175              	.LBE160:
 176              	.LBE140:
 177              	.LBE139:
 178              		.loc 1 110 0
 179 0016 4368     		ldr	r3, [r0, #4]
 180              		.loc 1 107 0
 181 0018 013A     		subs	r2, r2, #1
 182              	.LVL10:
 183              		.loc 1 110 0
 184 001a 1944     		add	r1, r1, r3
 185              	.LVL11:
 186              		.loc 1 107 0
 187 001c F4D1     		bne	.L8
 188              		.loc 1 114 0
 189 001e 30BC     		pop	{r4, r5}
 190              		.cfi_restore 5
 191              		.cfi_restore 4
 192              		.cfi_def_cfa_offset 0
 193 0020 7047     		bx	lr
 194              	.LVL12:
 195              	.L14:
 196 0022 7047     		bx	lr
 197              		.cfi_endproc
 198              	.LFE281:
 199              		.size	chPoolLoadArray, .-chPoolLoadArray
 200              		.section	.text.chPoolAllocI,"ax",%progbits
 201              		.align	1
 202              		.p2align 4,,15
 203              		.global	chPoolAllocI
 204              		.syntax unified
 205              		.thumb
 206              		.thumb_func
 207              		.fpu softvfp
 208              		.type	chPoolAllocI, %function
 209              	chPoolAllocI:
 210              	.LFB282:
 211              		.loc 1 126 0
 212              		.cfi_startproc
 213              		@ args = 0, pretend = 0, frame = 0
 214              		@ frame_needed = 0, uses_anonymous_args = 0
 215              		@ link register save eliminated.
 216              	.LVL13:
 217              		.loc 1 132 0
 218 0000 0368     		ldr	r3, [r0]
 219              	.LVL14:
 220              		.loc 1 134 0
 221 0002 1BB1     		cbz	r3, .L22
 222              		.loc 1 135 0
 223 0004 1968     		ldr	r1, [r3]
 224 0006 0160     		str	r1, [r0]
 225              		.loc 1 143 0
 226 0008 1846     		mov	r0, r3
 227              	.LVL15:
 228 000a 7047     		bx	lr
ARM GAS  /var/folders/vd/czx34qs52cd_f3nb04sxmghc0000gn/T//ccJNpbcy.s 			page 5


 229              	.LVL16:
 230              	.L22:
 231 000c FFF7FEBF 		b	chPoolAllocI.part.0
 232              	.LVL17:
 233              		.cfi_endproc
 234              	.LFE282:
 235              		.size	chPoolAllocI, .-chPoolAllocI
 236              		.section	.text.chPoolAlloc,"ax",%progbits
 237              		.align	1
 238              		.p2align 4,,15
 239              		.global	chPoolAlloc
 240              		.syntax unified
 241              		.thumb
 242              		.thumb_func
 243              		.fpu softvfp
 244              		.type	chPoolAlloc, %function
 245              	chPoolAlloc:
 246              	.LFB283:
 247              		.loc 1 155 0
 248              		.cfi_startproc
 249              		@ args = 0, pretend = 0, frame = 0
 250              		@ frame_needed = 0, uses_anonymous_args = 0
 251              	.LVL18:
 252 0000 08B5     		push	{r3, lr}
 253              		.cfi_def_cfa_offset 8
 254              		.cfi_offset 3, -8
 255              		.cfi_offset 14, -4
 256              	.LBB161:
 257              	.LBB162:
 258              	.LBB163:
 259              	.LBB164:
 260              		.loc 2 490 0
 261 0002 2023     		movs	r3, #32
 262              		.syntax unified
 263              	@ 490 "../os/common/ext/ARM/CMSIS/Core/Include/cmsis_gcc.h" 1
 264 0004 83F31188 		MSR basepri, r3
 265              	@ 0 "" 2
 266              	.LVL19:
 267              		.thumb
 268              		.syntax unified
 269              	.LBE164:
 270              	.LBE163:
 271              	.LBE162:
 272              	.LBE161:
 273              	.LBB165:
 274              	.LBB166:
 275              		.loc 1 132 0
 276 0008 0368     		ldr	r3, [r0]
 277              	.LVL20:
 278              		.loc 1 134 0
 279 000a 33B1     		cbz	r3, .L24
 280              		.loc 1 135 0
 281 000c 1968     		ldr	r1, [r3]
 282 000e 0160     		str	r1, [r0]
 283              	.LVL21:
 284              	.LBE166:
 285              	.LBE165:
ARM GAS  /var/folders/vd/czx34qs52cd_f3nb04sxmghc0000gn/T//ccJNpbcy.s 			page 6


 286              	.LBB169:
 287              	.LBB170:
 288              	.LBB171:
 289              	.LBB172:
 290              	.LBB173:
 291              		.loc 2 490 0
 292 0010 0022     		movs	r2, #0
 293              		.syntax unified
 294              	@ 490 "../os/common/ext/ARM/CMSIS/Core/Include/cmsis_gcc.h" 1
 295 0012 82F31188 		MSR basepri, r2
 296              	@ 0 "" 2
 297              	.LVL22:
 298              		.thumb
 299              		.syntax unified
 300              	.LBE173:
 301              	.LBE172:
 302              	.LBE171:
 303              	.LBE170:
 304              	.LBE169:
 305              		.loc 1 163 0
 306 0016 1846     		mov	r0, r3
 307              	.LVL23:
 308 0018 08BD     		pop	{r3, pc}
 309              	.LVL24:
 310              	.L24:
 311              	.LBB182:
 312              	.LBB167:
 313 001a FFF7FEFF 		bl	chPoolAllocI.part.0
 314              	.LVL25:
 315              	.LBE167:
 316              	.LBE182:
 317              	.LBB183:
 318              	.LBB180:
 319              	.LBB178:
 320              	.LBB176:
 321              	.LBB174:
 322              		.loc 2 490 0
 323 001e 0022     		movs	r2, #0
 324              	.LBE174:
 325              	.LBE176:
 326              	.LBE178:
 327              	.LBE180:
 328              	.LBE183:
 329              	.LBB184:
 330              	.LBB168:
 331 0020 0346     		mov	r3, r0
 332              	.LVL26:
 333              	.LBE168:
 334              	.LBE184:
 335              	.LBB185:
 336              	.LBB181:
 337              	.LBB179:
 338              	.LBB177:
 339              	.LBB175:
 340              		.syntax unified
 341              	@ 490 "../os/common/ext/ARM/CMSIS/Core/Include/cmsis_gcc.h" 1
 342 0022 82F31188 		MSR basepri, r2
ARM GAS  /var/folders/vd/czx34qs52cd_f3nb04sxmghc0000gn/T//ccJNpbcy.s 			page 7


 343              	@ 0 "" 2
 344              	.LVL27:
 345              		.thumb
 346              		.syntax unified
 347              	.LBE175:
 348              	.LBE177:
 349              	.LBE179:
 350              	.LBE181:
 351              	.LBE185:
 352              		.loc 1 163 0
 353 0026 1846     		mov	r0, r3
 354 0028 08BD     		pop	{r3, pc}
 355              		.cfi_endproc
 356              	.LFE283:
 357              		.size	chPoolAlloc, .-chPoolAlloc
 358 002a 00BF     		.section	.text.chPoolFreeI,"ax",%progbits
 359              		.align	1
 360              		.p2align 4,,15
 361              		.global	chPoolFreeI
 362              		.syntax unified
 363              		.thumb
 364              		.thumb_func
 365              		.fpu softvfp
 366              		.type	chPoolFreeI, %function
 367              	chPoolFreeI:
 368              	.LFB284:
 369              		.loc 1 177 0
 370              		.cfi_startproc
 371              		@ args = 0, pretend = 0, frame = 0
 372              		@ frame_needed = 0, uses_anonymous_args = 0
 373              		@ link register save eliminated.
 374              	.LVL28:
 375              		.loc 1 186 0
 376 0000 0368     		ldr	r3, [r0]
 377 0002 0B60     		str	r3, [r1]
 378              		.loc 1 187 0
 379 0004 0160     		str	r1, [r0]
 380              		.loc 1 188 0
 381 0006 7047     		bx	lr
 382              		.cfi_endproc
 383              	.LFE284:
 384              		.size	chPoolFreeI, .-chPoolFreeI
 385              		.section	.text.chPoolFree,"ax",%progbits
 386              		.align	1
 387              		.p2align 4,,15
 388              		.global	chPoolFree
 389              		.syntax unified
 390              		.thumb
 391              		.thumb_func
 392              		.fpu softvfp
 393              		.type	chPoolFree, %function
 394              	chPoolFree:
 395              	.LFB285:
 396              		.loc 1 202 0
 397              		.cfi_startproc
 398              		@ args = 0, pretend = 0, frame = 0
 399              		@ frame_needed = 0, uses_anonymous_args = 0
ARM GAS  /var/folders/vd/czx34qs52cd_f3nb04sxmghc0000gn/T//ccJNpbcy.s 			page 8


 400              		@ link register save eliminated.
 401              	.LVL29:
 402              	.LBB186:
 403              	.LBB187:
 404              	.LBB188:
 405              	.LBB189:
 406              		.loc 2 490 0
 407 0000 2023     		movs	r3, #32
 408              		.syntax unified
 409              	@ 490 "../os/common/ext/ARM/CMSIS/Core/Include/cmsis_gcc.h" 1
 410 0002 83F31188 		MSR basepri, r3
 411              	@ 0 "" 2
 412              	.LVL30:
 413              		.thumb
 414              		.syntax unified
 415              	.LBE189:
 416              	.LBE188:
 417              	.LBE187:
 418              	.LBE186:
 419              	.LBB190:
 420              	.LBB191:
 421              		.loc 1 186 0
 422 0006 0368     		ldr	r3, [r0]
 423 0008 0B60     		str	r3, [r1]
 424              	.LBE191:
 425              	.LBE190:
 426              	.LBB193:
 427              	.LBB194:
 428              	.LBB195:
 429              	.LBB196:
 430              	.LBB197:
 431              		.loc 2 490 0
 432 000a 0023     		movs	r3, #0
 433              	.LBE197:
 434              	.LBE196:
 435              	.LBE195:
 436              	.LBE194:
 437              	.LBE193:
 438              	.LBB202:
 439              	.LBB192:
 440              		.loc 1 187 0
 441 000c 0160     		str	r1, [r0]
 442              	.LVL31:
 443              	.LBE192:
 444              	.LBE202:
 445              	.LBB203:
 446              	.LBB201:
 447              	.LBB200:
 448              	.LBB199:
 449              	.LBB198:
 450              		.loc 2 490 0
 451              		.syntax unified
 452              	@ 490 "../os/common/ext/ARM/CMSIS/Core/Include/cmsis_gcc.h" 1
 453 000e 83F31188 		MSR basepri, r3
 454              	@ 0 "" 2
 455              	.LVL32:
 456              		.thumb
ARM GAS  /var/folders/vd/czx34qs52cd_f3nb04sxmghc0000gn/T//ccJNpbcy.s 			page 9


 457              		.syntax unified
 458              	.LBE198:
 459              	.LBE199:
 460              	.LBE200:
 461              	.LBE201:
 462              	.LBE203:
 463              		.loc 1 207 0
 464 0012 7047     		bx	lr
 465              		.cfi_endproc
 466              	.LFE285:
 467              		.size	chPoolFree, .-chPoolFree
 468              		.section	.text.chGuardedPoolObjectInitAligned,"ax",%progbits
 469              		.align	1
 470              		.p2align 4,,15
 471              		.global	chGuardedPoolObjectInitAligned
 472              		.syntax unified
 473              		.thumb
 474              		.thumb_func
 475              		.fpu softvfp
 476              		.type	chGuardedPoolObjectInitAligned, %function
 477              	chGuardedPoolObjectInitAligned:
 478              	.LFB286:
 479              		.loc 1 223 0
 480              		.cfi_startproc
 481              		@ args = 0, pretend = 0, frame = 0
 482              		@ frame_needed = 0, uses_anonymous_args = 0
 483              		@ link register save eliminated.
 484              	.LVL33:
 485 0000 10B4     		push	{r4}
 486              		.cfi_def_cfa_offset 4
 487              		.cfi_offset 4, -4
 488              	.LBB204:
 489              	.LBB205:
 490              		.loc 1 82 0
 491 0002 0024     		movs	r4, #0
 492              		.loc 1 84 0
 493 0004 C0E90412 		strd	r1, r2, [r0, #16]
 494              		.loc 1 82 0
 495 0008 C460     		str	r4, [r0, #12]
 496              		.loc 1 85 0
 497 000a 8461     		str	r4, [r0, #24]
 498              	.LVL34:
 499              	.LBE205:
 500              	.LBE204:
 501              		.loc 1 226 0
 502 000c 2146     		mov	r1, r4
 503              	.LVL35:
 504              		.loc 1 227 0
 505 000e 10BC     		pop	{r4}
 506              		.cfi_restore 4
 507              		.cfi_def_cfa_offset 0
 508              		.loc 1 226 0
 509 0010 FFF7FEBF 		b	chSemObjectInit
 510              	.LVL36:
 511              		.cfi_endproc
 512              	.LFE286:
 513              		.size	chGuardedPoolObjectInitAligned, .-chGuardedPoolObjectInitAligned
ARM GAS  /var/folders/vd/czx34qs52cd_f3nb04sxmghc0000gn/T//ccJNpbcy.s 			page 10


 514              		.section	.text.chGuardedPoolLoadArray,"ax",%progbits
 515              		.align	1
 516              		.p2align 4,,15
 517              		.global	chGuardedPoolLoadArray
 518              		.syntax unified
 519              		.thumb
 520              		.thumb_func
 521              		.fpu softvfp
 522              		.type	chGuardedPoolLoadArray, %function
 523              	chGuardedPoolLoadArray:
 524              	.LFB287:
 525              		.loc 1 242 0
 526              		.cfi_startproc
 527              		@ args = 0, pretend = 0, frame = 0
 528              		@ frame_needed = 0, uses_anonymous_args = 0
 529              	.LVL37:
 530              		.loc 1 246 0
 531 0000 CAB1     		cbz	r2, .L39
 532              		.loc 1 242 0
 533 0002 2DE9F041 		push	{r4, r5, r6, r7, r8, lr}
 534              		.cfi_def_cfa_offset 24
 535              		.cfi_offset 4, -24
 536              		.cfi_offset 5, -20
 537              		.cfi_offset 6, -16
 538              		.cfi_offset 7, -12
 539              		.cfi_offset 8, -8
 540              		.cfi_offset 14, -4
 541 0006 0446     		mov	r4, r0
 542 0008 0D46     		mov	r5, r1
 543 000a 1646     		mov	r6, r2
 544              	.LBB206:
 545              	.LBB207:
 546              	.LBB208:
 547              	.LBB209:
 548              	.LBB210:
 549              	.LBB211:
 550              	.LBB212:
 551              		.loc 2 490 0
 552 000c 4FF02008 		mov	r8, #32
 553              	.LBE212:
 554              	.LBE211:
 555              	.LBE210:
 556              	.LBE209:
 557              	.LBB216:
 558              	.LBB217:
 559              	.LBB218:
 560              	.LBB219:
 561              	.LBB220:
 562 0010 0027     		movs	r7, #0
 563              	.LVL38:
 564              	.L33:
 565              	.LBE220:
 566              	.LBE219:
 567              	.LBE218:
 568              	.LBE217:
 569              	.LBE216:
 570              	.LBB225:
ARM GAS  /var/folders/vd/czx34qs52cd_f3nb04sxmghc0000gn/T//ccJNpbcy.s 			page 11


 571              	.LBB215:
 572              	.LBB214:
 573              	.LBB213:
 574              		.syntax unified
 575              	@ 490 "../os/common/ext/ARM/CMSIS/Core/Include/cmsis_gcc.h" 1
 576 0012 88F31188 		MSR basepri, r8
 577              	@ 0 "" 2
 578              	.LVL39:
 579              		.thumb
 580              		.syntax unified
 581              	.LBE213:
 582              	.LBE214:
 583              	.LBE215:
 584              	.LBE225:
 585              	.LBB226:
 586              	.LBB227:
 587              	.LBB228:
 588              	.LBB229:
 589              		.loc 1 186 0
 590 0016 E368     		ldr	r3, [r4, #12]
 591 0018 2B60     		str	r3, [r5]
 592              	.LBE229:
 593              	.LBE228:
 594              		.loc 1 323 0
 595 001a 2046     		mov	r0, r4
 596              	.LBB231:
 597              	.LBB230:
 598              		.loc 1 187 0
 599 001c E560     		str	r5, [r4, #12]
 600              	.LVL40:
 601              	.LBE230:
 602              	.LBE231:
 603              		.loc 1 323 0
 604 001e FFF7FEFF 		bl	chSemSignalI
 605              	.LVL41:
 606              	.LBE227:
 607              	.LBE226:
 608              		.loc 1 342 0
 609 0022 FFF7FEFF 		bl	chSchRescheduleS
 610              	.LVL42:
 611              	.LBB232:
 612              	.LBB224:
 613              	.LBB223:
 614              	.LBB222:
 615              	.LBB221:
 616              		.loc 2 490 0
 617              		.syntax unified
 618              	@ 490 "../os/common/ext/ARM/CMSIS/Core/Include/cmsis_gcc.h" 1
 619 0026 87F31188 		MSR basepri, r7
 620              	@ 0 "" 2
 621              	.LVL43:
 622              		.thumb
 623              		.syntax unified
 624              	.LBE221:
 625              	.LBE222:
 626              	.LBE223:
 627              	.LBE224:
ARM GAS  /var/folders/vd/czx34qs52cd_f3nb04sxmghc0000gn/T//ccJNpbcy.s 			page 12


 628              	.LBE232:
 629              	.LBE208:
 630              	.LBE207:
 631              	.LBE206:
 632              		.loc 1 249 0
 633 002a 2369     		ldr	r3, [r4, #16]
 634              		.loc 1 246 0
 635 002c 013E     		subs	r6, r6, #1
 636              	.LVL44:
 637              		.loc 1 249 0
 638 002e 1D44     		add	r5, r5, r3
 639              	.LVL45:
 640              		.loc 1 246 0
 641 0030 EFD1     		bne	.L33
 642              		.loc 1 253 0
 643 0032 BDE8F081 		pop	{r4, r5, r6, r7, r8, pc}
 644              	.LVL46:
 645              	.L39:
 646              		.cfi_def_cfa_offset 0
 647              		.cfi_restore 4
 648              		.cfi_restore 5
 649              		.cfi_restore 6
 650              		.cfi_restore 7
 651              		.cfi_restore 8
 652              		.cfi_restore 14
 653 0036 7047     		bx	lr
 654              		.cfi_endproc
 655              	.LFE287:
 656              		.size	chGuardedPoolLoadArray, .-chGuardedPoolLoadArray
 657              		.section	.text.chGuardedPoolAllocTimeoutS,"ax",%progbits
 658              		.align	1
 659              		.p2align 4,,15
 660              		.global	chGuardedPoolAllocTimeoutS
 661              		.syntax unified
 662              		.thumb
 663              		.thumb_func
 664              		.fpu softvfp
 665              		.type	chGuardedPoolAllocTimeoutS, %function
 666              	chGuardedPoolAllocTimeoutS:
 667              	.LFB288:
 668              		.loc 1 271 0
 669              		.cfi_startproc
 670              		@ args = 0, pretend = 0, frame = 0
 671              		@ frame_needed = 0, uses_anonymous_args = 0
 672              	.LVL47:
 673 0000 10B5     		push	{r4, lr}
 674              		.cfi_def_cfa_offset 8
 675              		.cfi_offset 4, -8
 676              		.cfi_offset 14, -4
 677              		.loc 1 271 0
 678 0002 0446     		mov	r4, r0
 679              		.loc 1 274 0
 680 0004 FFF7FEFF 		bl	chSemWaitTimeoutS
 681              	.LVL48:
 682              		.loc 1 275 0
 683 0008 50B9     		cbnz	r0, .L45
 684              	.LVL49:
ARM GAS  /var/folders/vd/czx34qs52cd_f3nb04sxmghc0000gn/T//ccJNpbcy.s 			page 13


 685              	.LBB233:
 686              	.LBB234:
 687              		.loc 1 132 0
 688 000a E068     		ldr	r0, [r4, #12]
 689              	.LVL50:
 690              		.loc 1 134 0
 691 000c 10B1     		cbz	r0, .L44
 692              		.loc 1 135 0
 693 000e 0368     		ldr	r3, [r0]
 694 0010 E360     		str	r3, [r4, #12]
 695              	.LBE234:
 696              	.LBE233:
 697              		.loc 1 280 0
 698 0012 10BD     		pop	{r4, pc}
 699              	.LVL51:
 700              	.L44:
 701              	.LBB237:
 702              	.LBB235:
 703 0014 04F10C00 		add	r0, r4, #12
 704              	.LVL52:
 705              	.LBE235:
 706              	.LBE237:
 707 0018 BDE81040 		pop	{r4, lr}
 708              		.cfi_remember_state
 709              		.cfi_restore 14
 710              		.cfi_restore 4
 711              		.cfi_def_cfa_offset 0
 712              	.LVL53:
 713              	.LBB238:
 714              	.LBB236:
 715 001c FFF7FEBF 		b	chPoolAllocI.part.0
 716              	.LVL54:
 717              	.L45:
 718              		.cfi_restore_state
 719              	.LBE236:
 720              	.LBE238:
 721              		.loc 1 276 0
 722 0020 0020     		movs	r0, #0
 723              	.LVL55:
 724              		.loc 1 280 0
 725 0022 10BD     		pop	{r4, pc}
 726              		.cfi_endproc
 727              	.LFE288:
 728              		.size	chGuardedPoolAllocTimeoutS, .-chGuardedPoolAllocTimeoutS
 729              		.section	.text.chGuardedPoolAllocTimeout,"ax",%progbits
 730              		.align	1
 731              		.p2align 4,,15
 732              		.global	chGuardedPoolAllocTimeout
 733              		.syntax unified
 734              		.thumb
 735              		.thumb_func
 736              		.fpu softvfp
 737              		.type	chGuardedPoolAllocTimeout, %function
 738              	chGuardedPoolAllocTimeout:
 739              	.LFB289:
 740              		.loc 1 298 0
 741              		.cfi_startproc
ARM GAS  /var/folders/vd/czx34qs52cd_f3nb04sxmghc0000gn/T//ccJNpbcy.s 			page 14


 742              		@ args = 0, pretend = 0, frame = 0
 743              		@ frame_needed = 0, uses_anonymous_args = 0
 744              	.LVL56:
 745 0000 08B5     		push	{r3, lr}
 746              		.cfi_def_cfa_offset 8
 747              		.cfi_offset 3, -8
 748              		.cfi_offset 14, -4
 749              	.LBB239:
 750              	.LBB240:
 751              	.LBB241:
 752              	.LBB242:
 753              		.loc 2 490 0
 754 0002 2023     		movs	r3, #32
 755              		.syntax unified
 756              	@ 490 "../os/common/ext/ARM/CMSIS/Core/Include/cmsis_gcc.h" 1
 757 0004 83F31188 		MSR basepri, r3
 758              	@ 0 "" 2
 759              	.LVL57:
 760              		.thumb
 761              		.syntax unified
 762              	.LBE242:
 763              	.LBE241:
 764              	.LBE240:
 765              	.LBE239:
 766              		.loc 1 302 0
 767 0008 FFF7FEFF 		bl	chGuardedPoolAllocTimeoutS
 768              	.LVL58:
 769              	.LBB243:
 770              	.LBB244:
 771              	.LBB245:
 772              	.LBB246:
 773              	.LBB247:
 774              		.loc 2 490 0
 775 000c 0023     		movs	r3, #0
 776              		.syntax unified
 777              	@ 490 "../os/common/ext/ARM/CMSIS/Core/Include/cmsis_gcc.h" 1
 778 000e 83F31188 		MSR basepri, r3
 779              	@ 0 "" 2
 780              	.LVL59:
 781              		.thumb
 782              		.syntax unified
 783              	.LBE247:
 784              	.LBE246:
 785              	.LBE245:
 786              	.LBE244:
 787              	.LBE243:
 788              		.loc 1 306 0
 789 0012 08BD     		pop	{r3, pc}
 790              		.cfi_endproc
 791              	.LFE289:
 792              		.size	chGuardedPoolAllocTimeout, .-chGuardedPoolAllocTimeout
 793              		.section	.text.chGuardedPoolFreeI,"ax",%progbits
 794              		.align	1
 795              		.p2align 4,,15
 796              		.global	chGuardedPoolFreeI
 797              		.syntax unified
 798              		.thumb
ARM GAS  /var/folders/vd/czx34qs52cd_f3nb04sxmghc0000gn/T//ccJNpbcy.s 			page 15


 799              		.thumb_func
 800              		.fpu softvfp
 801              		.type	chGuardedPoolFreeI, %function
 802              	chGuardedPoolFreeI:
 803              	.LFB290:
 804              		.loc 1 320 0
 805              		.cfi_startproc
 806              		@ args = 0, pretend = 0, frame = 0
 807              		@ frame_needed = 0, uses_anonymous_args = 0
 808              		@ link register save eliminated.
 809              	.LVL60:
 810              	.LBB248:
 811              	.LBB249:
 812              		.loc 1 186 0
 813 0000 C268     		ldr	r2, [r0, #12]
 814 0002 0A60     		str	r2, [r1]
 815              		.loc 1 187 0
 816 0004 C160     		str	r1, [r0, #12]
 817              	.LVL61:
 818              	.LBE249:
 819              	.LBE248:
 820              		.loc 1 323 0
 821 0006 FFF7FEBF 		b	chSemSignalI
 822              	.LVL62:
 823              		.cfi_endproc
 824              	.LFE290:
 825              		.size	chGuardedPoolFreeI, .-chGuardedPoolFreeI
 826 000a 00BF     		.section	.text.chGuardedPoolFree,"ax",%progbits
 827              		.align	1
 828              		.p2align 4,,15
 829              		.global	chGuardedPoolFree
 830              		.syntax unified
 831              		.thumb
 832              		.thumb_func
 833              		.fpu softvfp
 834              		.type	chGuardedPoolFree, %function
 835              	chGuardedPoolFree:
 836              	.LFB291:
 837              		.loc 1 338 0
 838              		.cfi_startproc
 839              		@ args = 0, pretend = 0, frame = 0
 840              		@ frame_needed = 0, uses_anonymous_args = 0
 841              	.LVL63:
 842 0000 08B5     		push	{r3, lr}
 843              		.cfi_def_cfa_offset 8
 844              		.cfi_offset 3, -8
 845              		.cfi_offset 14, -4
 846              	.LBB250:
 847              	.LBB251:
 848              	.LBB252:
 849              	.LBB253:
 850              		.loc 2 490 0
 851 0002 2022     		movs	r2, #32
 852              		.syntax unified
 853              	@ 490 "../os/common/ext/ARM/CMSIS/Core/Include/cmsis_gcc.h" 1
 854 0004 82F31188 		MSR basepri, r2
 855              	@ 0 "" 2
ARM GAS  /var/folders/vd/czx34qs52cd_f3nb04sxmghc0000gn/T//ccJNpbcy.s 			page 16


 856              	.LVL64:
 857              		.thumb
 858              		.syntax unified
 859              	.LBE253:
 860              	.LBE252:
 861              	.LBE251:
 862              	.LBE250:
 863              	.LBB254:
 864              	.LBB255:
 865              	.LBB256:
 866              	.LBB257:
 867              		.loc 1 186 0
 868 0008 C268     		ldr	r2, [r0, #12]
 869 000a 0A60     		str	r2, [r1]
 870              		.loc 1 187 0
 871 000c C160     		str	r1, [r0, #12]
 872              	.LVL65:
 873              	.LBE257:
 874              	.LBE256:
 875              		.loc 1 323 0
 876 000e FFF7FEFF 		bl	chSemSignalI
 877              	.LVL66:
 878              	.LBE255:
 879              	.LBE254:
 880              		.loc 1 342 0
 881 0012 FFF7FEFF 		bl	chSchRescheduleS
 882              	.LVL67:
 883              	.LBB258:
 884              	.LBB259:
 885              	.LBB260:
 886              	.LBB261:
 887              	.LBB262:
 888              		.loc 2 490 0
 889 0016 0023     		movs	r3, #0
 890              		.syntax unified
 891              	@ 490 "../os/common/ext/ARM/CMSIS/Core/Include/cmsis_gcc.h" 1
 892 0018 83F31188 		MSR basepri, r3
 893              	@ 0 "" 2
 894              	.LVL68:
 895              		.thumb
 896              		.syntax unified
 897              	.LBE262:
 898              	.LBE261:
 899              	.LBE260:
 900              	.LBE259:
 901              	.LBE258:
 902              		.loc 1 344 0
 903 001c 08BD     		pop	{r3, pc}
 904              		.cfi_endproc
 905              	.LFE291:
 906              		.size	chGuardedPoolFree, .-chGuardedPoolFree
 907 001e 00BF     		.text
 908              	.Letext0:
 909              		.file 3 "/usr/local/Cellar/gcc-arm-none-eabi/20171218/lib/gcc/arm-none-eabi/7.2.1/include/stddef.h
 910              		.file 4 "/usr/local/Cellar/gcc-arm-none-eabi/20171218/arm-none-eabi/include/machine/_default_types
 911              		.file 5 "/usr/local/Cellar/gcc-arm-none-eabi/20171218/arm-none-eabi/include/sys/_stdint.h"
 912              		.file 6 "../os/common/ports/ARMCMx/compilers/GCC/chtypes.h"
ARM GAS  /var/folders/vd/czx34qs52cd_f3nb04sxmghc0000gn/T//ccJNpbcy.s 			page 17


 913              		.file 7 "../os/rt/include/chsystypes.h"
 914              		.file 8 "../os/rt/include/chschd.h"
 915              		.file 9 "../os/rt/include/chtime.h"
 916              		.file 10 "../os/common/ext/ARM/CMSIS/Core/Include/core_cm4.h"
 917              		.file 11 "../os/common/ext/ST/STM32F4xx/system_stm32f4xx.h"
 918              		.file 12 "../os/common/ports/ARMCMx/chcore.h"
 919              		.file 13 "../os/common/ports/ARMCMx/chcore_v7m.h"
 920              		.file 14 "../os/rt/include/chtm.h"
 921              		.file 15 "../os/rt/include/chsem.h"
 922              		.file 16 "../os/rt/include/chmtx.h"
 923              		.file 17 "../os/rt/include/chsys.h"
 924              		.file 18 "../os/rt/include/chregistry.h"
 925              		.file 19 "../os/common/oslib/include/chmemcore.h"
 926              		.file 20 "../os/common/oslib/include/chmempools.h"
 927              		.file 21 "../os/common/oslib/include/chfactory.h"