ARM GAS  /var/folders/vd/czx34qs52cd_f3nb04sxmghc0000gn/T//ccXcIPPt.s 			page 1


   1              		.cpu cortex-m4
   2              		.eabi_attribute 20, 1
   3              		.eabi_attribute 21, 1
   4              		.eabi_attribute 23, 3
   5              		.eabi_attribute 24, 1
   6              		.eabi_attribute 25, 1
   7              		.eabi_attribute 26, 1
   8              		.eabi_attribute 30, 2
   9              		.eabi_attribute 34, 1
  10              		.eabi_attribute 18, 4
  11              		.file	"chmsg.c"
  12              		.text
  13              	.Ltext0:
  14              		.cfi_sections	.debug_frame
  15              		.section	.text.chMsgSend,"ax",%progbits
  16              		.align	1
  17              		.p2align 4,,15
  18              		.global	chMsgSend
  19              		.syntax unified
  20              		.thumb
  21              		.thumb_func
  22              		.fpu softvfp
  23              		.type	chMsgSend, %function
  24              	chMsgSend:
  25              	.LFB280:
  26              		.file 1 "../os/rt/src/chmsg.c"
  27              		.loc 1 87 0
  28              		.cfi_startproc
  29              		@ args = 0, pretend = 0, frame = 0
  30              		@ frame_needed = 0, uses_anonymous_args = 0
  31              	.LVL0:
  32              		.loc 1 88 0
  33 0000 0E4B     		ldr	r3, .L6
  34              		.loc 1 87 0
  35 0002 10B5     		push	{r4, lr}
  36              		.cfi_def_cfa_offset 8
  37              		.cfi_offset 4, -8
  38              		.cfi_offset 14, -4
  39              	.LBB52:
  40              	.LBB53:
  41              	.LBB54:
  42              	.LBB55:
  43              		.file 2 "../os/common/ext/ARM/CMSIS/Core/Include/cmsis_gcc.h"
  44              		.loc 2 490 0
  45 0004 2022     		movs	r2, #32
  46              	.LBE55:
  47              	.LBE54:
  48              	.LBE53:
  49              	.LBE52:
  50              		.loc 1 88 0
  51 0006 9C69     		ldr	r4, [r3, #24]
  52              	.LVL1:
  53              	.LBB59:
  54              	.LBB58:
  55              	.LBB57:
  56              	.LBB56:
  57              		.loc 2 490 0
ARM GAS  /var/folders/vd/czx34qs52cd_f3nb04sxmghc0000gn/T//ccXcIPPt.s 			page 2


  58              		.syntax unified
  59              	@ 490 "../os/common/ext/ARM/CMSIS/Core/Include/cmsis_gcc.h" 1
  60 0008 82F31188 		MSR basepri, r2
  61              	@ 0 "" 2
  62              	.LVL2:
  63              		.thumb
  64              		.syntax unified
  65              	.LBE56:
  66              	.LBE57:
  67              	.LBE58:
  68              	.LBE59:
  69              	.LBB60:
  70              	.LBB61:
  71              		.file 3 "../os/rt/include/chschd.h"
  72              		.loc 3 601 0
  73 000c 026B     		ldr	r2, [r0, #48]
  74              	.LBE61:
  75              	.LBE60:
  76              		.loc 1 93 0
  77 000e 6162     		str	r1, [r4, #36]
  78              	.LVL3:
  79              		.loc 1 94 0
  80 0010 00F12C01 		add	r1, r0, #44
  81              	.LVL4:
  82              	.LBB64:
  83              	.LBB62:
  84              		.loc 3 601 0
  85 0014 C4E90012 		strd	r1, r2, [r4]
  86              		.loc 3 602 0
  87 0018 1460     		str	r4, [r2]
  88              	.LBE62:
  89              	.LBE64:
  90              		.loc 1 95 0
  91 001a 90F82020 		ldrb	r2, [r0, #32]	@ zero_extendqisi2
  92              	.LBB65:
  93              	.LBB63:
  94              		.loc 3 603 0
  95 001e 0463     		str	r4, [r0, #48]
  96              	.LVL5:
  97              	.LBE63:
  98              	.LBE65:
  99              		.loc 1 95 0
 100 0020 0E2A     		cmp	r2, #14
 101 0022 07D0     		beq	.L5
 102              	.LVL6:
 103              	.L2:
 104              		.loc 1 98 0
 105 0024 0C20     		movs	r0, #12
 106 0026 FFF7FEFF 		bl	chSchGoSleepS
 107              	.LVL7:
 108              		.loc 1 99 0
 109 002a 606A     		ldr	r0, [r4, #36]
 110              	.LVL8:
 111              	.LBB66:
 112              	.LBB67:
 113              	.LBB68:
 114              	.LBB69:
ARM GAS  /var/folders/vd/czx34qs52cd_f3nb04sxmghc0000gn/T//ccXcIPPt.s 			page 3


 115              	.LBB70:
 116              		.loc 2 490 0
 117 002c 0023     		movs	r3, #0
 118              		.syntax unified
 119              	@ 490 "../os/common/ext/ARM/CMSIS/Core/Include/cmsis_gcc.h" 1
 120 002e 83F31188 		MSR basepri, r3
 121              	@ 0 "" 2
 122              	.LVL9:
 123              		.thumb
 124              		.syntax unified
 125              	.LBE70:
 126              	.LBE69:
 127              	.LBE68:
 128              	.LBE67:
 129              	.LBE66:
 130              		.loc 1 103 0
 131 0032 10BD     		pop	{r4, pc}
 132              	.LVL10:
 133              	.L5:
 134              		.loc 1 96 0
 135 0034 FFF7FEFF 		bl	chSchReadyI
 136              	.LVL11:
 137 0038 F4E7     		b	.L2
 138              	.L7:
 139 003a 00BF     		.align	2
 140              	.L6:
 141 003c 00000000 		.word	ch
 142              		.cfi_endproc
 143              	.LFE280:
 144              		.size	chMsgSend, .-chMsgSend
 145              		.section	.text.chMsgWait,"ax",%progbits
 146              		.align	1
 147              		.p2align 4,,15
 148              		.global	chMsgWait
 149              		.syntax unified
 150              		.thumb
 151              		.thumb_func
 152              		.fpu softvfp
 153              		.type	chMsgWait, %function
 154              	chMsgWait:
 155              	.LFB281:
 156              		.loc 1 119 0
 157              		.cfi_startproc
 158              		@ args = 0, pretend = 0, frame = 0
 159              		@ frame_needed = 0, uses_anonymous_args = 0
 160              	.LVL12:
 161 0000 10B5     		push	{r4, lr}
 162              		.cfi_def_cfa_offset 8
 163              		.cfi_offset 4, -8
 164              		.cfi_offset 14, -4
 165              	.LBB71:
 166              	.LBB72:
 167              	.LBB73:
 168              	.LBB74:
 169              		.loc 2 490 0
 170 0002 2023     		movs	r3, #32
 171              		.syntax unified
ARM GAS  /var/folders/vd/czx34qs52cd_f3nb04sxmghc0000gn/T//ccXcIPPt.s 			page 4


 172              	@ 490 "../os/common/ext/ARM/CMSIS/Core/Include/cmsis_gcc.h" 1
 173 0004 83F31188 		MSR basepri, r3
 174              	@ 0 "" 2
 175              	.LVL13:
 176              		.thumb
 177              		.syntax unified
 178              	.LBE74:
 179              	.LBE73:
 180              	.LBE72:
 181              	.LBE71:
 182              		.loc 1 123 0
 183 0008 0C4C     		ldr	r4, .L12
 184 000a A269     		ldr	r2, [r4, #24]
 185              	.LVL14:
 186              	.LBB75:
 187              	.LBB76:
 188              		.file 4 "../os/rt/include/chmsg.h"
 189              		.loc 4 83 0
 190 000c 1346     		mov	r3, r2
 191 000e 53F82C0F 		ldr	r0, [r3, #44]!
 192              	.LVL15:
 193              	.LBE76:
 194              	.LBE75:
 195              		.loc 1 123 0
 196 0012 9842     		cmp	r0, r3
 197 0014 09D0     		beq	.L11
 198              	.L9:
 199              	.LVL16:
 200              	.LBB77:
 201              	.LBB78:
 202              		.loc 3 609 0
 203 0016 0168     		ldr	r1, [r0]
 204 0018 D162     		str	r1, [r2, #44]
 205              	.LVL17:
 206              	.LBE78:
 207              	.LBE77:
 208              		.loc 1 127 0
 209 001a 0D22     		movs	r2, #13
 210              	.LBB80:
 211              	.LBB79:
 212              		.loc 3 610 0
 213 001c 4B60     		str	r3, [r1, #4]
 214              	.LVL18:
 215              	.LBE79:
 216              	.LBE80:
 217              	.LBB81:
 218              	.LBB82:
 219              	.LBB83:
 220              	.LBB84:
 221              	.LBB85:
 222              		.loc 2 490 0
 223 001e 0023     		movs	r3, #0
 224              	.LBE85:
 225              	.LBE84:
 226              	.LBE83:
 227              	.LBE82:
 228              	.LBE81:
ARM GAS  /var/folders/vd/czx34qs52cd_f3nb04sxmghc0000gn/T//ccXcIPPt.s 			page 5


 229              		.loc 1 127 0
 230 0020 80F82020 		strb	r2, [r0, #32]
 231              	.LVL19:
 232              	.LBB90:
 233              	.LBB89:
 234              	.LBB88:
 235              	.LBB87:
 236              	.LBB86:
 237              		.loc 2 490 0
 238              		.syntax unified
 239              	@ 490 "../os/common/ext/ARM/CMSIS/Core/Include/cmsis_gcc.h" 1
 240 0024 83F31188 		MSR basepri, r3
 241              	@ 0 "" 2
 242              	.LVL20:
 243              		.thumb
 244              		.syntax unified
 245              	.LBE86:
 246              	.LBE87:
 247              	.LBE88:
 248              	.LBE89:
 249              	.LBE90:
 250              		.loc 1 131 0
 251 0028 10BD     		pop	{r4, pc}
 252              	.L11:
 253              		.loc 1 124 0
 254 002a 0E20     		movs	r0, #14
 255 002c FFF7FEFF 		bl	chSchGoSleepS
 256              	.LVL21:
 257 0030 A269     		ldr	r2, [r4, #24]
 258 0032 D06A     		ldr	r0, [r2, #44]
 259 0034 02F12C03 		add	r3, r2, #44
 260 0038 EDE7     		b	.L9
 261              	.L13:
 262 003a 00BF     		.align	2
 263              	.L12:
 264 003c 00000000 		.word	ch
 265              		.cfi_endproc
 266              	.LFE281:
 267              		.size	chMsgWait, .-chMsgWait
 268              		.section	.text.chMsgRelease,"ax",%progbits
 269              		.align	1
 270              		.p2align 4,,15
 271              		.global	chMsgRelease
 272              		.syntax unified
 273              		.thumb
 274              		.thumb_func
 275              		.fpu softvfp
 276              		.type	chMsgRelease, %function
 277              	chMsgRelease:
 278              	.LFB282:
 279              		.loc 1 143 0
 280              		.cfi_startproc
 281              		@ args = 0, pretend = 0, frame = 0
 282              		@ frame_needed = 0, uses_anonymous_args = 0
 283              	.LVL22:
 284 0000 08B5     		push	{r3, lr}
 285              		.cfi_def_cfa_offset 8
ARM GAS  /var/folders/vd/czx34qs52cd_f3nb04sxmghc0000gn/T//ccXcIPPt.s 			page 6


 286              		.cfi_offset 3, -8
 287              		.cfi_offset 14, -4
 288              	.LBB91:
 289              	.LBB92:
 290              	.LBB93:
 291              	.LBB94:
 292              		.loc 2 490 0
 293 0002 2023     		movs	r3, #32
 294              		.syntax unified
 295              	@ 490 "../os/common/ext/ARM/CMSIS/Core/Include/cmsis_gcc.h" 1
 296 0004 83F31188 		MSR basepri, r3
 297              	@ 0 "" 2
 298              	.LVL23:
 299              		.thumb
 300              		.syntax unified
 301              	.LBE94:
 302              	.LBE93:
 303              	.LBE92:
 304              	.LBE91:
 305              	.LBB95:
 306              	.LBB96:
 307              		.loc 4 117 0
 308 0008 FFF7FEFF 		bl	chSchWakeupS
 309              	.LVL24:
 310              	.LBE96:
 311              	.LBE95:
 312              	.LBB97:
 313              	.LBB98:
 314              	.LBB99:
 315              	.LBB100:
 316              	.LBB101:
 317              		.loc 2 490 0
 318 000c 0023     		movs	r3, #0
 319              		.syntax unified
 320              	@ 490 "../os/common/ext/ARM/CMSIS/Core/Include/cmsis_gcc.h" 1
 321 000e 83F31188 		MSR basepri, r3
 322              	@ 0 "" 2
 323              	.LVL25:
 324              		.thumb
 325              		.syntax unified
 326              	.LBE101:
 327              	.LBE100:
 328              	.LBE99:
 329              	.LBE98:
 330              	.LBE97:
 331              		.loc 1 149 0
 332 0012 08BD     		pop	{r3, pc}
 333              		.cfi_endproc
 334              	.LFE282:
 335              		.size	chMsgRelease, .-chMsgRelease
 336              		.text
 337              	.Letext0:
 338              		.file 5 "/usr/local/Cellar/gcc-arm-none-eabi/20171218/lib/gcc/arm-none-eabi/7.2.1/include/stddef.h
 339              		.file 6 "/usr/local/Cellar/gcc-arm-none-eabi/20171218/arm-none-eabi/include/machine/_default_types
 340              		.file 7 "/usr/local/Cellar/gcc-arm-none-eabi/20171218/arm-none-eabi/include/sys/_stdint.h"
 341              		.file 8 "../os/common/ports/ARMCMx/compilers/GCC/chtypes.h"
 342              		.file 9 "../os/rt/include/chsystypes.h"
ARM GAS  /var/folders/vd/czx34qs52cd_f3nb04sxmghc0000gn/T//ccXcIPPt.s 			page 7


 343              		.file 10 "../os/rt/include/chtime.h"
 344              		.file 11 "../os/common/ext/ARM/CMSIS/Core/Include/core_cm4.h"
 345              		.file 12 "../os/common/ext/ST/STM32F4xx/system_stm32f4xx.h"
 346              		.file 13 "../os/common/ports/ARMCMx/chcore.h"
 347              		.file 14 "../os/common/ports/ARMCMx/chcore_v7m.h"
 348              		.file 15 "../os/rt/include/chtm.h"
 349              		.file 16 "../os/rt/include/chsem.h"
 350              		.file 17 "../os/rt/include/chmtx.h"
 351              		.file 18 "../os/rt/include/chsys.h"
 352              		.file 19 "../os/rt/include/chregistry.h"
 353              		.file 20 "../os/common/oslib/include/chmemcore.h"
 354              		.file 21 "../os/common/oslib/include/chmempools.h"
 355              		.file 22 "../os/common/oslib/include/chfactory.h"
 356              		.section	.debug_info,"",%progbits
 357              	.Ldebug_info0:
 358 0000 ED0D0000 		.4byte	0xded
 359 0004 0400     		.2byte	0x4
 360 0006 00000000 		.4byte	.Ldebug_abbrev0
 361 000a 04       		.byte	0x4
 362 000b 01       		.uleb128 0x1
 363 000c 04010000 		.4byte	.LASF160
 364 0010 0C       		.byte	0xc
 365 0011 FE060000 		.4byte	.LASF161
 366 0015 06030000 		.4byte	.LASF162
 367 0019 68000000 		.4byte	.Ldebug_ranges0+0x68
 368 001d 00000000 		.4byte	0
 369 0021 00000000 		.4byte	.Ldebug_line0
 370 0025 02       		.uleb128 0x2
 371 0026 04       		.byte	0x4
 372 0027 05       		.byte	0x5
 373 0028 696E7400 		.ascii	"int\000"
 374 002c 03       		.uleb128 0x3
 375 002d 1A000000 		.4byte	.LASF4
 376 0031 05       		.byte	0x5
 377 0032 D8       		.byte	0xd8
 378 0033 37000000 		.4byte	0x37
 379 0037 04       		.uleb128 0x4
 380 0038 04       		.byte	0x4
 381 0039 07       		.byte	0x7
 382 003a E2020000 		.4byte	.LASF0
 383 003e 04       		.uleb128 0x4
 384 003f 08       		.byte	0x8
 385 0040 05       		.byte	0x5
 386 0041 DE010000 		.4byte	.LASF1
 387 0045 04       		.uleb128 0x4
 388 0046 08       		.byte	0x8
 389 0047 04       		.byte	0x4
 390 0048 44040000 		.4byte	.LASF2
 391 004c 04       		.uleb128 0x4
 392 004d 01       		.byte	0x1
 393 004e 06       		.byte	0x6
 394 004f EC010000 		.4byte	.LASF3
 395 0053 03       		.uleb128 0x3
 396 0054 37000000 		.4byte	.LASF5
 397 0058 06       		.byte	0x6
 398 0059 2B       		.byte	0x2b
 399 005a 5E000000 		.4byte	0x5e
ARM GAS  /var/folders/vd/czx34qs52cd_f3nb04sxmghc0000gn/T//ccXcIPPt.s 			page 8


 400 005e 04       		.uleb128 0x4
 401 005f 01       		.byte	0x1
 402 0060 08       		.byte	0x8
 403 0061 0A050000 		.4byte	.LASF6
 404 0065 04       		.uleb128 0x4
 405 0066 02       		.byte	0x2
 406 0067 05       		.byte	0x5
 407 0068 2E050000 		.4byte	.LASF7
 408 006c 03       		.uleb128 0x3
 409 006d 3A060000 		.4byte	.LASF8
 410 0071 06       		.byte	0x6
 411 0072 39       		.byte	0x39
 412 0073 77000000 		.4byte	0x77
 413 0077 04       		.uleb128 0x4
 414 0078 02       		.byte	0x2
 415 0079 07       		.byte	0x7
 416 007a C0060000 		.4byte	.LASF9
 417 007e 03       		.uleb128 0x3
 418 007f E6030000 		.4byte	.LASF10
 419 0083 06       		.byte	0x6
 420 0084 4D       		.byte	0x4d
 421 0085 89000000 		.4byte	0x89
 422 0089 04       		.uleb128 0x4
 423 008a 04       		.byte	0x4
 424 008b 05       		.byte	0x5
 425 008c 2D020000 		.4byte	.LASF11
 426 0090 03       		.uleb128 0x3
 427 0091 78020000 		.4byte	.LASF12
 428 0095 06       		.byte	0x6
 429 0096 4F       		.byte	0x4f
 430 0097 9B000000 		.4byte	0x9b
 431 009b 04       		.uleb128 0x4
 432 009c 04       		.byte	0x4
 433 009d 07       		.byte	0x7
 434 009e 0D060000 		.4byte	.LASF13
 435 00a2 03       		.uleb128 0x3
 436 00a3 9A040000 		.4byte	.LASF14
 437 00a7 06       		.byte	0x6
 438 00a8 69       		.byte	0x69
 439 00a9 AD000000 		.4byte	0xad
 440 00ad 04       		.uleb128 0x4
 441 00ae 08       		.byte	0x8
 442 00af 07       		.byte	0x7
 443 00b0 8A000000 		.4byte	.LASF15
 444 00b4 03       		.uleb128 0x3
 445 00b5 38070000 		.4byte	.LASF16
 446 00b9 07       		.byte	0x7
 447 00ba 18       		.byte	0x18
 448 00bb 53000000 		.4byte	0x53
 449 00bf 05       		.uleb128 0x5
 450 00c0 B4000000 		.4byte	0xb4
 451 00c4 03       		.uleb128 0x3
 452 00c5 59020000 		.4byte	.LASF17
 453 00c9 07       		.byte	0x7
 454 00ca 24       		.byte	0x24
 455 00cb 6C000000 		.4byte	0x6c
 456 00cf 03       		.uleb128 0x3
ARM GAS  /var/folders/vd/czx34qs52cd_f3nb04sxmghc0000gn/T//ccXcIPPt.s 			page 9


 457 00d0 02050000 		.4byte	.LASF18
 458 00d4 07       		.byte	0x7
 459 00d5 2C       		.byte	0x2c
 460 00d6 7E000000 		.4byte	0x7e
 461 00da 06       		.uleb128 0x6
 462 00db CF000000 		.4byte	0xcf
 463 00df 03       		.uleb128 0x3
 464 00e0 DB050000 		.4byte	.LASF19
 465 00e4 07       		.byte	0x7
 466 00e5 30       		.byte	0x30
 467 00e6 90000000 		.4byte	0x90
 468 00ea 03       		.uleb128 0x3
 469 00eb 2E000000 		.4byte	.LASF20
 470 00ef 07       		.byte	0x7
 471 00f0 3C       		.byte	0x3c
 472 00f1 A2000000 		.4byte	0xa2
 473 00f5 03       		.uleb128 0x3
 474 00f6 12040000 		.4byte	.LASF21
 475 00fa 08       		.byte	0x8
 476 00fb 39       		.byte	0x39
 477 00fc DF000000 		.4byte	0xdf
 478 0100 03       		.uleb128 0x3
 479 0101 AF030000 		.4byte	.LASF22
 480 0105 08       		.byte	0x8
 481 0106 3C       		.byte	0x3c
 482 0107 B4000000 		.4byte	0xb4
 483 010b 03       		.uleb128 0x3
 484 010c 40020000 		.4byte	.LASF23
 485 0110 08       		.byte	0x8
 486 0111 3D       		.byte	0x3d
 487 0112 B4000000 		.4byte	0xb4
 488 0116 03       		.uleb128 0x3
 489 0117 AF040000 		.4byte	.LASF24
 490 011b 08       		.byte	0x8
 491 011c 3E       		.byte	0x3e
 492 011d B4000000 		.4byte	0xb4
 493 0121 03       		.uleb128 0x3
 494 0122 DB040000 		.4byte	.LASF25
 495 0126 08       		.byte	0x8
 496 0127 40       		.byte	0x40
 497 0128 DF000000 		.4byte	0xdf
 498 012c 03       		.uleb128 0x3
 499 012d 7A030000 		.4byte	.LASF26
 500 0131 08       		.byte	0x8
 501 0132 41       		.byte	0x41
 502 0133 CF000000 		.4byte	0xcf
 503 0137 03       		.uleb128 0x3
 504 0138 C5030000 		.4byte	.LASF27
 505 013c 08       		.byte	0x8
 506 013d 43       		.byte	0x43
 507 013e DF000000 		.4byte	0xdf
 508 0142 03       		.uleb128 0x3
 509 0143 DC020000 		.4byte	.LASF28
 510 0147 08       		.byte	0x8
 511 0148 45       		.byte	0x45
 512 0149 CF000000 		.4byte	0xcf
 513 014d 03       		.uleb128 0x3
ARM GAS  /var/folders/vd/czx34qs52cd_f3nb04sxmghc0000gn/T//ccXcIPPt.s 			page 10


 514 014e 80030000 		.4byte	.LASF29
 515 0152 08       		.byte	0x8
 516 0153 46       		.byte	0x46
 517 0154 DF000000 		.4byte	0xdf
 518 0158 03       		.uleb128 0x3
 519 0159 45060000 		.4byte	.LASF30
 520 015d 09       		.byte	0x9
 521 015e 34       		.byte	0x34
 522 015f 63010000 		.4byte	0x163
 523 0163 07       		.uleb128 0x7
 524 0164 70030000 		.4byte	.LASF48
 525 0168 44       		.byte	0x44
 526 0169 03       		.byte	0x3
 527 016a 8E       		.byte	0x8e
 528 016b 41020000 		.4byte	0x241
 529 016f 08       		.uleb128 0x8
 530 0170 52030000 		.4byte	.LASF31
 531 0174 03       		.byte	0x3
 532 0175 8F       		.byte	0x8f
 533 0176 76020000 		.4byte	0x276
 534 017a 00       		.byte	0
 535 017b 08       		.uleb128 0x8
 536 017c 84040000 		.4byte	.LASF32
 537 0180 03       		.byte	0x3
 538 0181 90       		.byte	0x90
 539 0182 21010000 		.4byte	0x121
 540 0186 08       		.byte	0x8
 541 0187 09       		.uleb128 0x9
 542 0188 63747800 		.ascii	"ctx\000"
 543 018c 03       		.byte	0x3
 544 018d 91       		.byte	0x91
 545 018e D4040000 		.4byte	0x4d4
 546 0192 0C       		.byte	0xc
 547 0193 08       		.uleb128 0x8
 548 0194 FB030000 		.4byte	.LASF33
 549 0198 03       		.byte	0x3
 550 0199 93       		.byte	0x93
 551 019a 4C020000 		.4byte	0x24c
 552 019e 10       		.byte	0x10
 553 019f 08       		.uleb128 0x8
 554 01a0 2B060000 		.4byte	.LASF34
 555 01a4 03       		.byte	0x3
 556 01a5 94       		.byte	0x94
 557 01a6 4C020000 		.4byte	0x24c
 558 01aa 14       		.byte	0x14
 559 01ab 08       		.uleb128 0x8
 560 01ac 4D030000 		.4byte	.LASF35
 561 01b0 03       		.byte	0x3
 562 01b1 9B       		.byte	0x9b
 563 01b2 58060000 		.4byte	0x658
 564 01b6 18       		.byte	0x18
 565 01b7 08       		.uleb128 0x8
 566 01b8 1F060000 		.4byte	.LASF36
 567 01bc 03       		.byte	0x3
 568 01bd A4       		.byte	0xa4
 569 01be 6F060000 		.4byte	0x66f
 570 01c2 1C       		.byte	0x1c
ARM GAS  /var/folders/vd/czx34qs52cd_f3nb04sxmghc0000gn/T//ccXcIPPt.s 			page 11


 571 01c3 08       		.uleb128 0x8
 572 01c4 27020000 		.4byte	.LASF37
 573 01c8 03       		.byte	0x3
 574 01c9 A9       		.byte	0xa9
 575 01ca 0B010000 		.4byte	0x10b
 576 01ce 20       		.byte	0x20
 577 01cf 08       		.uleb128 0x8
 578 01d0 40070000 		.4byte	.LASF38
 579 01d4 03       		.byte	0x3
 580 01d5 AD       		.byte	0xad
 581 01d6 00010000 		.4byte	0x100
 582 01da 21       		.byte	0x21
 583 01db 08       		.uleb128 0x8
 584 01dc B7040000 		.4byte	.LASF39
 585 01e0 03       		.byte	0x3
 586 01e1 B2       		.byte	0xb2
 587 01e2 16010000 		.4byte	0x116
 588 01e6 22       		.byte	0x22
 589 01e7 0A       		.uleb128 0xa
 590 01e8 7500     		.ascii	"u\000"
 591 01ea 03       		.byte	0x3
 592 01eb 0301     		.2byte	0x103
 593 01ed 8E050000 		.4byte	0x58e
 594 01f1 24       		.byte	0x24
 595 01f2 0B       		.uleb128 0xb
 596 01f3 A5020000 		.4byte	.LASF40
 597 01f7 03       		.byte	0x3
 598 01f8 0801     		.2byte	0x108
 599 01fa 52020000 		.4byte	0x252
 600 01fe 28       		.byte	0x28
 601 01ff 0B       		.uleb128 0xb
 602 0200 1E020000 		.4byte	.LASF41
 603 0204 03       		.byte	0x3
 604 0205 0E01     		.2byte	0x10e
 605 0207 76020000 		.4byte	0x276
 606 020b 2C       		.byte	0x2c
 607 020c 0B       		.uleb128 0xb
 608 020d 87030000 		.4byte	.LASF42
 609 0211 03       		.byte	0x3
 610 0212 1401     		.2byte	0x114
 611 0214 37010000 		.4byte	0x137
 612 0218 34       		.byte	0x34
 613 0219 0B       		.uleb128 0xb
 614 021a A6070000 		.4byte	.LASF43
 615 021e 03       		.byte	0x3
 616 021f 1B01     		.2byte	0x11b
 617 0221 52060000 		.4byte	0x652
 618 0225 38       		.byte	0x38
 619 0226 0B       		.uleb128 0xb
 620 0227 01040000 		.4byte	.LASF44
 621 022b 03       		.byte	0x3
 622 022c 1F01     		.2byte	0x11f
 623 022e 21010000 		.4byte	0x121
 624 0232 3C       		.byte	0x3c
 625 0233 0B       		.uleb128 0xb
 626 0234 58030000 		.4byte	.LASF45
 627 0238 03       		.byte	0x3
ARM GAS  /var/folders/vd/czx34qs52cd_f3nb04sxmghc0000gn/T//ccXcIPPt.s 			page 12


 628 0239 2601     		.2byte	0x126
 629 023b 29030000 		.4byte	0x329
 630 023f 40       		.byte	0x40
 631 0240 00       		.byte	0
 632 0241 03       		.uleb128 0x3
 633 0242 1A040000 		.4byte	.LASF46
 634 0246 09       		.byte	0x9
 635 0247 39       		.byte	0x39
 636 0248 4C020000 		.4byte	0x24c
 637 024c 0C       		.uleb128 0xc
 638 024d 04       		.byte	0x4
 639 024e 58010000 		.4byte	0x158
 640 0252 03       		.uleb128 0x3
 641 0253 57070000 		.4byte	.LASF47
 642 0257 09       		.byte	0x9
 643 0258 3E       		.byte	0x3e
 644 0259 5D020000 		.4byte	0x25d
 645 025d 07       		.uleb128 0x7
 646 025e F7050000 		.4byte	.LASF49
 647 0262 04       		.byte	0x4
 648 0263 03       		.byte	0x3
 649 0264 7C       		.byte	0x7c
 650 0265 76020000 		.4byte	0x276
 651 0269 08       		.uleb128 0x8
 652 026a EE000000 		.4byte	.LASF50
 653 026e 03       		.byte	0x3
 654 026f 7D       		.byte	0x7d
 655 0270 4C020000 		.4byte	0x24c
 656 0274 00       		.byte	0
 657 0275 00       		.byte	0
 658 0276 03       		.uleb128 0x3
 659 0277 13070000 		.4byte	.LASF51
 660 027b 09       		.byte	0x9
 661 027c 45       		.byte	0x45
 662 027d 81020000 		.4byte	0x281
 663 0281 07       		.uleb128 0x7
 664 0282 F3000000 		.4byte	.LASF52
 665 0286 08       		.byte	0x8
 666 0287 03       		.byte	0x3
 667 0288 83       		.byte	0x83
 668 0289 A6020000 		.4byte	0x2a6
 669 028d 08       		.uleb128 0x8
 670 028e EE000000 		.4byte	.LASF50
 671 0292 03       		.byte	0x3
 672 0293 84       		.byte	0x84
 673 0294 4C020000 		.4byte	0x24c
 674 0298 00       		.byte	0
 675 0299 08       		.uleb128 0x8
 676 029a 41000000 		.4byte	.LASF53
 677 029e 03       		.byte	0x3
 678 029f 85       		.byte	0x85
 679 02a0 4C020000 		.4byte	0x24c
 680 02a4 04       		.byte	0x4
 681 02a5 00       		.byte	0
 682 02a6 03       		.uleb128 0x3
 683 02a7 00000000 		.4byte	.LASF54
 684 02ab 09       		.byte	0x9
ARM GAS  /var/folders/vd/czx34qs52cd_f3nb04sxmghc0000gn/T//ccXcIPPt.s 			page 13


 685 02ac 4C       		.byte	0x4c
 686 02ad B1020000 		.4byte	0x2b1
 687 02b1 0D       		.uleb128 0xd
 688 02b2 B7030000 		.4byte	.LASF55
 689 02b6 1C       		.byte	0x1c
 690 02b7 03       		.byte	0x3
 691 02b8 5E01     		.2byte	0x15e
 692 02ba 0D030000 		.4byte	0x30d
 693 02be 0B       		.uleb128 0xb
 694 02bf 52030000 		.4byte	.LASF31
 695 02c3 03       		.byte	0x3
 696 02c4 5F01     		.2byte	0x15f
 697 02c6 76020000 		.4byte	0x276
 698 02ca 00       		.byte	0
 699 02cb 0B       		.uleb128 0xb
 700 02cc 84040000 		.4byte	.LASF32
 701 02d0 03       		.byte	0x3
 702 02d1 6001     		.2byte	0x160
 703 02d3 21010000 		.4byte	0x121
 704 02d7 08       		.byte	0x8
 705 02d8 0A       		.uleb128 0xa
 706 02d9 63747800 		.ascii	"ctx\000"
 707 02dd 03       		.byte	0x3
 708 02de 6201     		.2byte	0x162
 709 02e0 D4040000 		.4byte	0x4d4
 710 02e4 0C       		.byte	0xc
 711 02e5 0B       		.uleb128 0xb
 712 02e6 FB030000 		.4byte	.LASF33
 713 02ea 03       		.byte	0x3
 714 02eb 6501     		.2byte	0x165
 715 02ed 4C020000 		.4byte	0x24c
 716 02f1 10       		.byte	0x10
 717 02f2 0B       		.uleb128 0xb
 718 02f3 2B060000 		.4byte	.LASF34
 719 02f7 03       		.byte	0x3
 720 02f8 6601     		.2byte	0x166
 721 02fa 4C020000 		.4byte	0x24c
 722 02fe 14       		.byte	0x14
 723 02ff 0B       		.uleb128 0xb
 724 0300 92040000 		.4byte	.LASF56
 725 0304 03       		.byte	0x3
 726 0305 6901     		.2byte	0x169
 727 0307 4C020000 		.4byte	0x24c
 728 030b 18       		.byte	0x18
 729 030c 00       		.byte	0
 730 030d 03       		.uleb128 0x3
 731 030e 75060000 		.4byte	.LASF57
 732 0312 09       		.byte	0x9
 733 0313 51       		.byte	0x51
 734 0314 18030000 		.4byte	0x318
 735 0318 0C       		.uleb128 0xc
 736 0319 04       		.byte	0x4
 737 031a 1E030000 		.4byte	0x31e
 738 031e 0E       		.uleb128 0xe
 739 031f 29030000 		.4byte	0x329
 740 0323 0F       		.uleb128 0xf
 741 0324 29030000 		.4byte	0x329
ARM GAS  /var/folders/vd/czx34qs52cd_f3nb04sxmghc0000gn/T//ccXcIPPt.s 			page 14


 742 0328 00       		.byte	0
 743 0329 10       		.uleb128 0x10
 744 032a 04       		.byte	0x4
 745 032b 03       		.uleb128 0x3
 746 032c BC040000 		.4byte	.LASF58
 747 0330 09       		.byte	0x9
 748 0331 56       		.byte	0x56
 749 0332 36030000 		.4byte	0x336
 750 0336 0D       		.uleb128 0xd
 751 0337 8C050000 		.4byte	.LASF59
 752 033b 14       		.byte	0x14
 753 033c 03       		.byte	0x3
 754 033d 3901     		.2byte	0x139
 755 033f 85030000 		.4byte	0x385
 756 0343 0B       		.uleb128 0xb
 757 0344 EE000000 		.4byte	.LASF50
 758 0348 03       		.byte	0x3
 759 0349 3A01     		.2byte	0x13a
 760 034b 75060000 		.4byte	0x675
 761 034f 00       		.byte	0
 762 0350 0B       		.uleb128 0xb
 763 0351 41000000 		.4byte	.LASF53
 764 0355 03       		.byte	0x3
 765 0356 3B01     		.2byte	0x13b
 766 0358 75060000 		.4byte	0x675
 767 035c 04       		.byte	0x4
 768 035d 0B       		.uleb128 0xb
 769 035e 21000000 		.4byte	.LASF60
 770 0362 03       		.byte	0x3
 771 0363 3C01     		.2byte	0x13c
 772 0365 5C040000 		.4byte	0x45c
 773 0369 08       		.byte	0x8
 774 036a 0B       		.uleb128 0xb
 775 036b 49020000 		.4byte	.LASF61
 776 036f 03       		.byte	0x3
 777 0370 3D01     		.2byte	0x13d
 778 0372 0D030000 		.4byte	0x30d
 779 0376 0C       		.byte	0xc
 780 0377 0A       		.uleb128 0xa
 781 0378 70617200 		.ascii	"par\000"
 782 037c 03       		.byte	0x3
 783 037d 3F01     		.2byte	0x13f
 784 037f 29030000 		.4byte	0x329
 785 0383 10       		.byte	0x10
 786 0384 00       		.byte	0
 787 0385 03       		.uleb128 0x3
 788 0386 BD000000 		.4byte	.LASF62
 789 038a 09       		.byte	0x9
 790 038b 5B       		.byte	0x5b
 791 038c 90030000 		.4byte	0x390
 792 0390 0D       		.uleb128 0xd
 793 0391 2D040000 		.4byte	.LASF63
 794 0395 10       		.byte	0x10
 795 0396 03       		.byte	0x3
 796 0397 4901     		.2byte	0x149
 797 0399 D2030000 		.4byte	0x3d2
 798 039d 0B       		.uleb128 0xb
ARM GAS  /var/folders/vd/czx34qs52cd_f3nb04sxmghc0000gn/T//ccXcIPPt.s 			page 15


 799 039e EE000000 		.4byte	.LASF50
 800 03a2 03       		.byte	0x3
 801 03a3 4A01     		.2byte	0x14a
 802 03a5 75060000 		.4byte	0x675
 803 03a9 00       		.byte	0
 804 03aa 0B       		.uleb128 0xb
 805 03ab 41000000 		.4byte	.LASF53
 806 03af 03       		.byte	0x3
 807 03b0 4C01     		.2byte	0x14c
 808 03b2 75060000 		.4byte	0x675
 809 03b6 04       		.byte	0x4
 810 03b7 0B       		.uleb128 0xb
 811 03b8 21000000 		.4byte	.LASF60
 812 03bc 03       		.byte	0x3
 813 03bd 4E01     		.2byte	0x14e
 814 03bf 5C040000 		.4byte	0x45c
 815 03c3 08       		.byte	0x8
 816 03c4 0B       		.uleb128 0xb
 817 03c5 38050000 		.4byte	.LASF64
 818 03c9 03       		.byte	0x3
 819 03ca 5601     		.2byte	0x156
 820 03cc 51040000 		.4byte	0x451
 821 03d0 0C       		.byte	0xc
 822 03d1 00       		.byte	0
 823 03d2 03       		.uleb128 0x3
 824 03d3 52000000 		.4byte	.LASF65
 825 03d7 09       		.byte	0x9
 826 03d8 60       		.byte	0x60
 827 03d9 DD030000 		.4byte	0x3dd
 828 03dd 0D       		.uleb128 0xd
 829 03de 95020000 		.4byte	.LASF66
 830 03e2 04       		.byte	0x4
 831 03e3 03       		.byte	0x3
 832 03e4 7001     		.2byte	0x170
 833 03e6 F8030000 		.4byte	0x3f8
 834 03ea 0B       		.uleb128 0xb
 835 03eb 9C060000 		.4byte	.LASF67
 836 03ef 03       		.byte	0x3
 837 03f0 7801     		.2byte	0x178
 838 03f2 5E060000 		.4byte	0x65e
 839 03f6 00       		.byte	0
 840 03f7 00       		.byte	0
 841 03f8 03       		.uleb128 0x3
 842 03f9 9B030000 		.4byte	.LASF68
 843 03fd 09       		.byte	0x9
 844 03fe 65       		.byte	0x65
 845 03ff 03040000 		.4byte	0x403
 846 0403 0D       		.uleb128 0xd
 847 0404 48050000 		.4byte	.LASF69
 848 0408 78       		.byte	0x78
 849 0409 03       		.byte	0x3
 850 040a 9001     		.2byte	0x190
 851 040c 51040000 		.4byte	0x451
 852 0410 0B       		.uleb128 0xb
 853 0411 FD010000 		.4byte	.LASF70
 854 0415 03       		.byte	0x3
 855 0416 9401     		.2byte	0x194
ARM GAS  /var/folders/vd/czx34qs52cd_f3nb04sxmghc0000gn/T//ccXcIPPt.s 			page 16


 856 0418 A6020000 		.4byte	0x2a6
 857 041c 00       		.byte	0
 858 041d 0B       		.uleb128 0xb
 859 041e 0B020000 		.4byte	.LASF71
 860 0422 03       		.byte	0x3
 861 0423 9801     		.2byte	0x198
 862 0425 85030000 		.4byte	0x385
 863 0429 1C       		.byte	0x1c
 864 042a 0A       		.uleb128 0xa
 865 042b 64626700 		.ascii	"dbg\000"
 866 042f 03       		.byte	0x3
 867 0430 9C01     		.2byte	0x19c
 868 0432 D2030000 		.4byte	0x3d2
 869 0436 2C       		.byte	0x2c
 870 0437 0B       		.uleb128 0xb
 871 0438 AA000000 		.4byte	.LASF72
 872 043c 03       		.byte	0x3
 873 043d A001     		.2byte	0x1a0
 874 043f 58010000 		.4byte	0x158
 875 0443 30       		.byte	0x30
 876 0444 0A       		.uleb128 0xa
 877 0445 746D00   		.ascii	"tm\000"
 878 0448 03       		.byte	0x3
 879 0449 A501     		.2byte	0x1a5
 880 044b 83050000 		.4byte	0x583
 881 044f 74       		.byte	0x74
 882 0450 00       		.byte	0
 883 0451 03       		.uleb128 0x3
 884 0452 6B060000 		.4byte	.LASF73
 885 0456 0A       		.byte	0xa
 886 0457 8C       		.byte	0x8c
 887 0458 DF000000 		.4byte	0xdf
 888 045c 03       		.uleb128 0x3
 889 045d CE020000 		.4byte	.LASF74
 890 0461 0A       		.byte	0xa
 891 0462 98       		.byte	0x98
 892 0463 DF000000 		.4byte	0xdf
 893 0467 11       		.uleb128 0x11
 894 0468 D3000000 		.4byte	.LASF75
 895 046c 0B       		.byte	0xb
 896 046d F407     		.2byte	0x7f4
 897 046f DA000000 		.4byte	0xda
 898 0473 12       		.uleb128 0x12
 899 0474 EF020000 		.4byte	.LASF76
 900 0478 0C       		.byte	0xc
 901 0479 4C       		.byte	0x4c
 902 047a DF000000 		.4byte	0xdf
 903 047e 13       		.uleb128 0x13
 904 047f BF000000 		.4byte	0xbf
 905 0483 8E040000 		.4byte	0x48e
 906 0487 14       		.uleb128 0x14
 907 0488 37000000 		.4byte	0x37
 908 048c 0F       		.byte	0xf
 909 048d 00       		.byte	0
 910 048e 05       		.uleb128 0x5
 911 048f 7E040000 		.4byte	0x47e
 912 0493 12       		.uleb128 0x12
ARM GAS  /var/folders/vd/czx34qs52cd_f3nb04sxmghc0000gn/T//ccXcIPPt.s 			page 17


 913 0494 D1030000 		.4byte	.LASF77
 914 0498 0C       		.byte	0xc
 915 0499 4E       		.byte	0x4e
 916 049a 8E040000 		.4byte	0x48e
 917 049e 13       		.uleb128 0x13
 918 049f BF000000 		.4byte	0xbf
 919 04a3 AE040000 		.4byte	0x4ae
 920 04a7 14       		.uleb128 0x14
 921 04a8 37000000 		.4byte	0x37
 922 04ac 07       		.byte	0x7
 923 04ad 00       		.byte	0
 924 04ae 05       		.uleb128 0x5
 925 04af 9E040000 		.4byte	0x49e
 926 04b3 12       		.uleb128 0x12
 927 04b4 AD020000 		.4byte	.LASF78
 928 04b8 0C       		.byte	0xc
 929 04b9 4F       		.byte	0x4f
 930 04ba AE040000 		.4byte	0x4ae
 931 04be 03       		.uleb128 0x3
 932 04bf 83020000 		.4byte	.LASF79
 933 04c3 0D       		.byte	0xd
 934 04c4 65       		.byte	0x65
 935 04c5 29030000 		.4byte	0x329
 936 04c9 03       		.uleb128 0x3
 937 04ca F0030000 		.4byte	.LASF80
 938 04ce 0D       		.byte	0xd
 939 04cf 6D       		.byte	0x6d
 940 04d0 EA000000 		.4byte	0xea
 941 04d4 07       		.uleb128 0x7
 942 04d5 66040000 		.4byte	.LASF81
 943 04d9 04       		.byte	0x4
 944 04da 0D       		.byte	0xd
 945 04db 89       		.byte	0x89
 946 04dc EC040000 		.4byte	0x4ec
 947 04e0 09       		.uleb128 0x9
 948 04e1 737000   		.ascii	"sp\000"
 949 04e4 0D       		.byte	0xd
 950 04e5 8A       		.byte	0x8a
 951 04e6 68050000 		.4byte	0x568
 952 04ea 00       		.byte	0
 953 04eb 00       		.byte	0
 954 04ec 0D       		.uleb128 0xd
 955 04ed 46000000 		.4byte	.LASF82
 956 04f1 24       		.byte	0x24
 957 04f2 0E       		.byte	0xe
 958 04f3 5901     		.2byte	0x159
 959 04f5 68050000 		.4byte	0x568
 960 04f9 0A       		.uleb128 0xa
 961 04fa 723400   		.ascii	"r4\000"
 962 04fd 0E       		.byte	0xe
 963 04fe 6C01     		.2byte	0x16c
 964 0500 BE040000 		.4byte	0x4be
 965 0504 00       		.byte	0
 966 0505 0A       		.uleb128 0xa
 967 0506 723500   		.ascii	"r5\000"
 968 0509 0E       		.byte	0xe
 969 050a 6D01     		.2byte	0x16d
ARM GAS  /var/folders/vd/czx34qs52cd_f3nb04sxmghc0000gn/T//ccXcIPPt.s 			page 18


 970 050c BE040000 		.4byte	0x4be
 971 0510 04       		.byte	0x4
 972 0511 0A       		.uleb128 0xa
 973 0512 723600   		.ascii	"r6\000"
 974 0515 0E       		.byte	0xe
 975 0516 6E01     		.2byte	0x16e
 976 0518 BE040000 		.4byte	0x4be
 977 051c 08       		.byte	0x8
 978 051d 0A       		.uleb128 0xa
 979 051e 723700   		.ascii	"r7\000"
 980 0521 0E       		.byte	0xe
 981 0522 6F01     		.2byte	0x16f
 982 0524 BE040000 		.4byte	0x4be
 983 0528 0C       		.byte	0xc
 984 0529 0A       		.uleb128 0xa
 985 052a 723800   		.ascii	"r8\000"
 986 052d 0E       		.byte	0xe
 987 052e 7001     		.2byte	0x170
 988 0530 BE040000 		.4byte	0x4be
 989 0534 10       		.byte	0x10
 990 0535 0A       		.uleb128 0xa
 991 0536 723900   		.ascii	"r9\000"
 992 0539 0E       		.byte	0xe
 993 053a 7101     		.2byte	0x171
 994 053c BE040000 		.4byte	0x4be
 995 0540 14       		.byte	0x14
 996 0541 0A       		.uleb128 0xa
 997 0542 72313000 		.ascii	"r10\000"
 998 0546 0E       		.byte	0xe
 999 0547 7201     		.2byte	0x172
 1000 0549 BE040000 		.4byte	0x4be
 1001 054d 18       		.byte	0x18
 1002 054e 0A       		.uleb128 0xa
 1003 054f 72313100 		.ascii	"r11\000"
 1004 0553 0E       		.byte	0xe
 1005 0554 7301     		.2byte	0x173
 1006 0556 BE040000 		.4byte	0x4be
 1007 055a 1C       		.byte	0x1c
 1008 055b 0A       		.uleb128 0xa
 1009 055c 6C7200   		.ascii	"lr\000"
 1010 055f 0E       		.byte	0xe
 1011 0560 7401     		.2byte	0x174
 1012 0562 BE040000 		.4byte	0x4be
 1013 0566 20       		.byte	0x20
 1014 0567 00       		.byte	0
 1015 0568 0C       		.uleb128 0xc
 1016 0569 04       		.byte	0x4
 1017 056a EC040000 		.4byte	0x4ec
 1018 056e 15       		.uleb128 0x15
 1019 056f 04       		.byte	0x4
 1020 0570 0F       		.byte	0xf
 1021 0571 38       		.byte	0x38
 1022 0572 83050000 		.4byte	0x583
 1023 0576 08       		.uleb128 0x8
 1024 0577 A6060000 		.4byte	.LASF83
 1025 057b 0F       		.byte	0xf
 1026 057c 3C       		.byte	0x3c
ARM GAS  /var/folders/vd/czx34qs52cd_f3nb04sxmghc0000gn/T//ccXcIPPt.s 			page 19


 1027 057d F5000000 		.4byte	0xf5
 1028 0581 00       		.byte	0
 1029 0582 00       		.byte	0
 1030 0583 03       		.uleb128 0x3
 1031 0584 73040000 		.4byte	.LASF84
 1032 0588 0F       		.byte	0xf
 1033 0589 3D       		.byte	0x3d
 1034 058a 6E050000 		.4byte	0x56e
 1035 058e 16       		.uleb128 0x16
 1036 058f 04       		.byte	0x4
 1037 0590 03       		.byte	0x3
 1038 0591 C6       		.byte	0xc6
 1039 0592 F0050000 		.4byte	0x5f0
 1040 0596 17       		.uleb128 0x17
 1041 0597 27000000 		.4byte	.LASF85
 1042 059b 03       		.byte	0x3
 1043 059c CD       		.byte	0xcd
 1044 059d 2C010000 		.4byte	0x12c
 1045 05a1 17       		.uleb128 0x17
 1046 05a2 A1000000 		.4byte	.LASF86
 1047 05a6 03       		.byte	0x3
 1048 05a7 D4       		.byte	0xd4
 1049 05a8 2C010000 		.4byte	0x12c
 1050 05ac 17       		.uleb128 0x17
 1051 05ad 50070000 		.4byte	.LASF87
 1052 05b1 03       		.byte	0x3
 1053 05b2 DB       		.byte	0xdb
 1054 05b3 29030000 		.4byte	0x329
 1055 05b7 17       		.uleb128 0x17
 1056 05b8 30030000 		.4byte	.LASF88
 1057 05bc 03       		.byte	0x3
 1058 05bd E2       		.byte	0xe2
 1059 05be F0050000 		.4byte	0x5f0
 1060 05c2 17       		.uleb128 0x17
 1061 05c3 B5000000 		.4byte	.LASF89
 1062 05c7 03       		.byte	0x3
 1063 05c8 E7       		.byte	0xe7
 1064 05c9 2C010000 		.4byte	0x12c
 1065 05cd 17       		.uleb128 0x17
 1066 05ce FF020000 		.4byte	.LASF90
 1067 05d2 03       		.byte	0x3
 1068 05d3 F0       		.byte	0xf0
 1069 05d4 1B060000 		.4byte	0x61b
 1070 05d8 17       		.uleb128 0x17
 1071 05d9 E4050000 		.4byte	.LASF91
 1072 05dd 03       		.byte	0x3
 1073 05de F9       		.byte	0xf9
 1074 05df 52060000 		.4byte	0x652
 1075 05e3 18       		.uleb128 0x18
 1076 05e4 41050000 		.4byte	.LASF92
 1077 05e8 03       		.byte	0x3
 1078 05e9 0101     		.2byte	0x101
 1079 05eb 37010000 		.4byte	0x137
 1080 05ef 00       		.byte	0
 1081 05f0 0C       		.uleb128 0xc
 1082 05f1 04       		.byte	0x4
 1083 05f2 41020000 		.4byte	0x241
ARM GAS  /var/folders/vd/czx34qs52cd_f3nb04sxmghc0000gn/T//ccXcIPPt.s 			page 20


 1084 05f6 07       		.uleb128 0x7
 1085 05f7 AA050000 		.4byte	.LASF93
 1086 05fb 0C       		.byte	0xc
 1087 05fc 10       		.byte	0x10
 1088 05fd 34       		.byte	0x34
 1089 05fe 1B060000 		.4byte	0x61b
 1090 0602 08       		.uleb128 0x8
 1091 0603 52030000 		.4byte	.LASF31
 1092 0607 10       		.byte	0x10
 1093 0608 35       		.byte	0x35
 1094 0609 76020000 		.4byte	0x276
 1095 060d 00       		.byte	0
 1096 060e 09       		.uleb128 0x9
 1097 060f 636E7400 		.ascii	"cnt\000"
 1098 0613 10       		.byte	0x10
 1099 0614 37       		.byte	0x37
 1100 0615 42010000 		.4byte	0x142
 1101 0619 08       		.byte	0x8
 1102 061a 00       		.byte	0
 1103 061b 0C       		.uleb128 0xc
 1104 061c 04       		.byte	0x4
 1105 061d F6050000 		.4byte	0x5f6
 1106 0621 07       		.uleb128 0x7
 1107 0622 AD060000 		.4byte	.LASF94
 1108 0626 10       		.byte	0x10
 1109 0627 11       		.byte	0x11
 1110 0628 39       		.byte	0x39
 1111 0629 52060000 		.4byte	0x652
 1112 062d 08       		.uleb128 0x8
 1113 062e 52030000 		.4byte	.LASF31
 1114 0632 11       		.byte	0x11
 1115 0633 3A       		.byte	0x3a
 1116 0634 76020000 		.4byte	0x276
 1117 0638 00       		.byte	0
 1118 0639 08       		.uleb128 0x8
 1119 063a 07060000 		.4byte	.LASF95
 1120 063e 11       		.byte	0x11
 1121 063f 3C       		.byte	0x3c
 1122 0640 4C020000 		.4byte	0x24c
 1123 0644 08       		.byte	0x8
 1124 0645 08       		.uleb128 0x8
 1125 0646 EE000000 		.4byte	.LASF50
 1126 064a 11       		.byte	0x11
 1127 064b 3E       		.byte	0x3e
 1128 064c B4070000 		.4byte	0x7b4
 1129 0650 0C       		.byte	0xc
 1130 0651 00       		.byte	0
 1131 0652 0C       		.uleb128 0xc
 1132 0653 04       		.byte	0x4
 1133 0654 21060000 		.4byte	0x621
 1134 0658 0C       		.uleb128 0xc
 1135 0659 04       		.byte	0x4
 1136 065a 6A060000 		.4byte	0x66a
 1137 065e 06       		.uleb128 0x6
 1138 065f 58060000 		.4byte	0x658
 1139 0663 04       		.uleb128 0x4
 1140 0664 01       		.byte	0x1
ARM GAS  /var/folders/vd/czx34qs52cd_f3nb04sxmghc0000gn/T//ccXcIPPt.s 			page 21


 1141 0665 08       		.byte	0x8
 1142 0666 26060000 		.4byte	.LASF96
 1143 066a 05       		.uleb128 0x5
 1144 066b 63060000 		.4byte	0x663
 1145 066f 0C       		.uleb128 0xc
 1146 0670 04       		.byte	0x4
 1147 0671 C9040000 		.4byte	0x4c9
 1148 0675 0C       		.uleb128 0xc
 1149 0676 04       		.byte	0x4
 1150 0677 2B030000 		.4byte	0x32b
 1151 067b 19       		.uleb128 0x19
 1152 067c 636800   		.ascii	"ch\000"
 1153 067f 03       		.byte	0x3
 1154 0680 C701     		.2byte	0x1c7
 1155 0682 F8030000 		.4byte	0x3f8
 1156 0686 13       		.uleb128 0x13
 1157 0687 C9040000 		.4byte	0x4c9
 1158 068b 91060000 		.4byte	0x691
 1159 068f 1A       		.uleb128 0x1a
 1160 0690 00       		.byte	0
 1161 0691 11       		.uleb128 0x11
 1162 0692 C0050000 		.4byte	.LASF97
 1163 0696 12       		.byte	0x12
 1164 0697 1701     		.2byte	0x117
 1165 0699 86060000 		.4byte	0x686
 1166 069d 15       		.uleb128 0x15
 1167 069e 16       		.byte	0x16
 1168 069f 13       		.byte	0x13
 1169 06a0 34       		.byte	0x34
 1170 06a1 7E070000 		.4byte	0x77e
 1171 06a5 08       		.uleb128 0x8
 1172 06a6 4E020000 		.4byte	.LASF98
 1173 06aa 13       		.byte	0x13
 1174 06ab 35       		.byte	0x35
 1175 06ac 7E070000 		.4byte	0x77e
 1176 06b0 00       		.byte	0
 1177 06b1 08       		.uleb128 0x8
 1178 06b2 BB020000 		.4byte	.LASF99
 1179 06b6 13       		.byte	0x13
 1180 06b7 36       		.byte	0x36
 1181 06b8 B4000000 		.4byte	0xb4
 1182 06bc 04       		.byte	0x4
 1183 06bd 08       		.uleb128 0x8
 1184 06be F8010000 		.4byte	.LASF100
 1185 06c2 13       		.byte	0x13
 1186 06c3 37       		.byte	0x37
 1187 06c4 B4000000 		.4byte	0xb4
 1188 06c8 05       		.byte	0x5
 1189 06c9 08       		.uleb128 0x8
 1190 06ca 0A040000 		.4byte	.LASF101
 1191 06ce 13       		.byte	0x13
 1192 06cf 38       		.byte	0x38
 1193 06d0 C4000000 		.4byte	0xc4
 1194 06d4 06       		.byte	0x6
 1195 06d5 08       		.uleb128 0x8
 1196 06d6 F6060000 		.4byte	.LASF102
 1197 06da 13       		.byte	0x13
ARM GAS  /var/folders/vd/czx34qs52cd_f3nb04sxmghc0000gn/T//ccXcIPPt.s 			page 22


 1198 06db 39       		.byte	0x39
 1199 06dc B4000000 		.4byte	0xb4
 1200 06e0 08       		.byte	0x8
 1201 06e1 08       		.uleb128 0x8
 1202 06e2 D2050000 		.4byte	.LASF103
 1203 06e6 13       		.byte	0x13
 1204 06e7 3A       		.byte	0x3a
 1205 06e8 B4000000 		.4byte	0xb4
 1206 06ec 09       		.byte	0x9
 1207 06ed 08       		.uleb128 0x8
 1208 06ee F1040000 		.4byte	.LASF104
 1209 06f2 13       		.byte	0x13
 1210 06f3 3B       		.byte	0x3b
 1211 06f4 B4000000 		.4byte	0xb4
 1212 06f8 0A       		.byte	0xa
 1213 06f9 08       		.uleb128 0x8
 1214 06fa 18050000 		.4byte	.LASF105
 1215 06fe 13       		.byte	0x13
 1216 06ff 3C       		.byte	0x3c
 1217 0700 B4000000 		.4byte	0xb4
 1218 0704 0B       		.byte	0xb
 1219 0705 08       		.uleb128 0x8
 1220 0706 A7030000 		.4byte	.LASF106
 1221 070a 13       		.byte	0x13
 1222 070b 3D       		.byte	0x3d
 1223 070c B4000000 		.4byte	0xb4
 1224 0710 0C       		.byte	0xc
 1225 0711 08       		.uleb128 0x8
 1226 0712 5C040000 		.4byte	.LASF107
 1227 0716 13       		.byte	0x13
 1228 0717 3E       		.byte	0x3e
 1229 0718 B4000000 		.4byte	0xb4
 1230 071c 0D       		.byte	0xd
 1231 071d 08       		.uleb128 0x8
 1232 071e B6060000 		.4byte	.LASF108
 1233 0722 13       		.byte	0x13
 1234 0723 3F       		.byte	0x3f
 1235 0724 B4000000 		.4byte	0xb4
 1236 0728 0E       		.byte	0xe
 1237 0729 08       		.uleb128 0x8
 1238 072a 2F070000 		.4byte	.LASF109
 1239 072e 13       		.byte	0x13
 1240 072f 40       		.byte	0x40
 1241 0730 B4000000 		.4byte	0xb4
 1242 0734 0F       		.byte	0xf
 1243 0735 08       		.uleb128 0x8
 1244 0736 21050000 		.4byte	.LASF110
 1245 073a 13       		.byte	0x13
 1246 073b 41       		.byte	0x41
 1247 073c B4000000 		.4byte	0xb4
 1248 0740 10       		.byte	0x10
 1249 0741 08       		.uleb128 0x8
 1250 0742 66070000 		.4byte	.LASF111
 1251 0746 13       		.byte	0x13
 1252 0747 42       		.byte	0x42
 1253 0748 B4000000 		.4byte	0xb4
 1254 074c 11       		.byte	0x11
ARM GAS  /var/folders/vd/czx34qs52cd_f3nb04sxmghc0000gn/T//ccXcIPPt.s 			page 23


 1255 074d 08       		.uleb128 0x8
 1256 074e 9C070000 		.4byte	.LASF112
 1257 0752 13       		.byte	0x13
 1258 0753 43       		.byte	0x43
 1259 0754 B4000000 		.4byte	0xb4
 1260 0758 12       		.byte	0x12
 1261 0759 08       		.uleb128 0x8
 1262 075a 5E030000 		.4byte	.LASF113
 1263 075e 13       		.byte	0x13
 1264 075f 44       		.byte	0x44
 1265 0760 B4000000 		.4byte	0xb4
 1266 0764 13       		.byte	0x13
 1267 0765 08       		.uleb128 0x8
 1268 0766 6C020000 		.4byte	.LASF114
 1269 076a 13       		.byte	0x13
 1270 076b 45       		.byte	0x45
 1271 076c B4000000 		.4byte	0xb4
 1272 0770 14       		.byte	0x14
 1273 0771 08       		.uleb128 0x8
 1274 0772 B7050000 		.4byte	.LASF115
 1275 0776 13       		.byte	0x13
 1276 0777 46       		.byte	0x46
 1277 0778 B4000000 		.4byte	0xb4
 1278 077c 15       		.byte	0x15
 1279 077d 00       		.byte	0
 1280 077e 13       		.uleb128 0x13
 1281 077f 63060000 		.4byte	0x663
 1282 0783 8E070000 		.4byte	0x78e
 1283 0787 14       		.uleb128 0x14
 1284 0788 37000000 		.4byte	0x37
 1285 078c 03       		.byte	0x3
 1286 078d 00       		.byte	0
 1287 078e 03       		.uleb128 0x3
 1288 078f 62020000 		.4byte	.LASF116
 1289 0793 13       		.byte	0x13
 1290 0794 47       		.byte	0x47
 1291 0795 9D060000 		.4byte	0x69d
 1292 0799 05       		.uleb128 0x5
 1293 079a 8E070000 		.4byte	0x78e
 1294 079e 12       		.uleb128 0x12
 1295 079f 36030000 		.4byte	.LASF117
 1296 07a3 13       		.byte	0x13
 1297 07a4 6C       		.byte	0x6c
 1298 07a5 99070000 		.4byte	0x799
 1299 07a9 03       		.uleb128 0x3
 1300 07aa C0020000 		.4byte	.LASF118
 1301 07ae 11       		.byte	0x11
 1302 07af 34       		.byte	0x34
 1303 07b0 21060000 		.4byte	0x621
 1304 07b4 0C       		.uleb128 0xc
 1305 07b5 04       		.byte	0x4
 1306 07b6 A9070000 		.4byte	0x7a9
 1307 07ba 04       		.uleb128 0x4
 1308 07bb 01       		.byte	0x1
 1309 07bc 02       		.byte	0x2
 1310 07bd FC040000 		.4byte	.LASF119
 1311 07c1 03       		.uleb128 0x3
ARM GAS  /var/folders/vd/czx34qs52cd_f3nb04sxmghc0000gn/T//ccXcIPPt.s 			page 24


 1312 07c2 7D000000 		.4byte	.LASF120
 1313 07c6 14       		.byte	0x14
 1314 07c7 4B       		.byte	0x4b
 1315 07c8 CC070000 		.4byte	0x7cc
 1316 07cc 0C       		.uleb128 0xc
 1317 07cd 04       		.byte	0x4
 1318 07ce D2070000 		.4byte	0x7d2
 1319 07d2 1B       		.uleb128 0x1b
 1320 07d3 29030000 		.4byte	0x329
 1321 07d7 E6070000 		.4byte	0x7e6
 1322 07db 0F       		.uleb128 0xf
 1323 07dc 2C000000 		.4byte	0x2c
 1324 07e0 0F       		.uleb128 0xf
 1325 07e1 37000000 		.4byte	0x37
 1326 07e5 00       		.byte	0
 1327 07e6 15       		.uleb128 0x15
 1328 07e7 08       		.byte	0x8
 1329 07e8 14       		.byte	0x14
 1330 07e9 55       		.byte	0x55
 1331 07ea 07080000 		.4byte	0x807
 1332 07ee 08       		.uleb128 0x8
 1333 07ef AE070000 		.4byte	.LASF121
 1334 07f3 14       		.byte	0x14
 1335 07f4 59       		.byte	0x59
 1336 07f5 07080000 		.4byte	0x807
 1337 07f9 00       		.byte	0
 1338 07fa 08       		.uleb128 0x8
 1339 07fb DF030000 		.4byte	.LASF122
 1340 07ff 14       		.byte	0x14
 1341 0800 5D       		.byte	0x5d
 1342 0801 07080000 		.4byte	0x807
 1343 0805 04       		.byte	0x4
 1344 0806 00       		.byte	0
 1345 0807 0C       		.uleb128 0xc
 1346 0808 04       		.byte	0x4
 1347 0809 B4000000 		.4byte	0xb4
 1348 080d 03       		.uleb128 0x3
 1349 080e A5040000 		.4byte	.LASF123
 1350 0812 14       		.byte	0x14
 1351 0813 5E       		.byte	0x5e
 1352 0814 E6070000 		.4byte	0x7e6
 1353 0818 12       		.uleb128 0x12
 1354 0819 4E060000 		.4byte	.LASF124
 1355 081d 14       		.byte	0x14
 1356 081e 69       		.byte	0x69
 1357 081f 0D080000 		.4byte	0x80d
 1358 0823 07       		.uleb128 0x7
 1359 0824 23070000 		.4byte	.LASF125
 1360 0828 04       		.byte	0x4
 1361 0829 15       		.byte	0x15
 1362 082a 3C       		.byte	0x3c
 1363 082b 3C080000 		.4byte	0x83c
 1364 082f 08       		.uleb128 0x8
 1365 0830 EE000000 		.4byte	.LASF50
 1366 0834 15       		.byte	0x15
 1367 0835 3D       		.byte	0x3d
 1368 0836 3C080000 		.4byte	0x83c
ARM GAS  /var/folders/vd/czx34qs52cd_f3nb04sxmghc0000gn/T//ccXcIPPt.s 			page 25


 1369 083a 00       		.byte	0
 1370 083b 00       		.byte	0
 1371 083c 0C       		.uleb128 0xc
 1372 083d 04       		.byte	0x4
 1373 083e 23080000 		.4byte	0x823
 1374 0842 15       		.uleb128 0x15
 1375 0843 10       		.byte	0x10
 1376 0844 15       		.byte	0x15
 1377 0845 44       		.byte	0x44
 1378 0846 7B080000 		.4byte	0x87b
 1379 084a 08       		.uleb128 0x8
 1380 084b EE000000 		.4byte	.LASF50
 1381 084f 15       		.byte	0x15
 1382 0850 45       		.byte	0x45
 1383 0851 3C080000 		.4byte	0x83c
 1384 0855 00       		.byte	0
 1385 0856 08       		.uleb128 0x8
 1386 0857 EA060000 		.4byte	.LASF126
 1387 085b 15       		.byte	0x15
 1388 085c 46       		.byte	0x46
 1389 085d 2C000000 		.4byte	0x2c
 1390 0861 04       		.byte	0x4
 1391 0862 08       		.uleb128 0x8
 1392 0863 C8020000 		.4byte	.LASF127
 1393 0867 15       		.byte	0x15
 1394 0868 48       		.byte	0x48
 1395 0869 37000000 		.4byte	0x37
 1396 086d 08       		.byte	0x8
 1397 086e 08       		.uleb128 0x8
 1398 086f 61000000 		.4byte	.LASF128
 1399 0873 15       		.byte	0x15
 1400 0874 49       		.byte	0x49
 1401 0875 C1070000 		.4byte	0x7c1
 1402 0879 0C       		.byte	0xc
 1403 087a 00       		.byte	0
 1404 087b 03       		.uleb128 0x3
 1405 087c 3F030000 		.4byte	.LASF129
 1406 0880 15       		.byte	0x15
 1407 0881 4B       		.byte	0x4b
 1408 0882 42080000 		.4byte	0x842
 1409 0886 07       		.uleb128 0x7
 1410 0887 CC040000 		.4byte	.LASF130
 1411 088b 10       		.byte	0x10
 1412 088c 16       		.byte	0x16
 1413 088d 97       		.byte	0x97
 1414 088e B7080000 		.4byte	0x8b7
 1415 0892 08       		.uleb128 0x8
 1416 0893 EE000000 		.4byte	.LASF50
 1417 0897 16       		.byte	0x16
 1418 0898 9B       		.byte	0x9b
 1419 0899 B7080000 		.4byte	0x8b7
 1420 089d 00       		.byte	0
 1421 089e 08       		.uleb128 0x8
 1422 089f B7040000 		.4byte	.LASF39
 1423 08a3 16       		.byte	0x16
 1424 08a4 9F       		.byte	0x9f
 1425 08a5 4D010000 		.4byte	0x14d
ARM GAS  /var/folders/vd/czx34qs52cd_f3nb04sxmghc0000gn/T//ccXcIPPt.s 			page 26


 1426 08a9 04       		.byte	0x4
 1427 08aa 08       		.uleb128 0x8
 1428 08ab 4D030000 		.4byte	.LASF35
 1429 08af 16       		.byte	0x16
 1430 08b0 A1       		.byte	0xa1
 1431 08b1 BD080000 		.4byte	0x8bd
 1432 08b5 08       		.byte	0x8
 1433 08b6 00       		.byte	0
 1434 08b7 0C       		.uleb128 0xc
 1435 08b8 04       		.byte	0x4
 1436 08b9 86080000 		.4byte	0x886
 1437 08bd 13       		.uleb128 0x13
 1438 08be 63060000 		.4byte	0x663
 1439 08c2 CD080000 		.4byte	0x8cd
 1440 08c6 14       		.uleb128 0x14
 1441 08c7 37000000 		.4byte	0x37
 1442 08cb 07       		.byte	0x7
 1443 08cc 00       		.byte	0
 1444 08cd 03       		.uleb128 0x3
 1445 08ce E0000000 		.4byte	.LASF131
 1446 08d2 16       		.byte	0x16
 1447 08d3 A5       		.byte	0xa5
 1448 08d4 86080000 		.4byte	0x886
 1449 08d8 07       		.uleb128 0x7
 1450 08d9 50040000 		.4byte	.LASF132
 1451 08dd 04       		.byte	0x4
 1452 08de 16       		.byte	0x16
 1453 08df AA       		.byte	0xaa
 1454 08e0 F1080000 		.4byte	0x8f1
 1455 08e4 08       		.uleb128 0x8
 1456 08e5 EE000000 		.4byte	.LASF50
 1457 08e9 16       		.byte	0x16
 1458 08ea AB       		.byte	0xab
 1459 08eb F1080000 		.4byte	0x8f1
 1460 08ef 00       		.byte	0
 1461 08f0 00       		.byte	0
 1462 08f1 0C       		.uleb128 0xc
 1463 08f2 04       		.byte	0x4
 1464 08f3 CD080000 		.4byte	0x8cd
 1465 08f7 03       		.uleb128 0x3
 1466 08f8 90030000 		.4byte	.LASF133
 1467 08fc 16       		.byte	0x16
 1468 08fd AC       		.byte	0xac
 1469 08fe D8080000 		.4byte	0x8d8
 1470 0902 0D       		.uleb128 0xd
 1471 0903 79050000 		.4byte	.LASF134
 1472 0907 44       		.byte	0x44
 1473 0908 16       		.byte	0x16
 1474 0909 1501     		.2byte	0x115
 1475 090b 78090000 		.4byte	0x978
 1476 090f 0A       		.uleb128 0xa
 1477 0910 6D747800 		.ascii	"mtx\000"
 1478 0914 16       		.byte	0x16
 1479 0915 1A01     		.2byte	0x11a
 1480 0917 A9070000 		.4byte	0x7a9
 1481 091b 00       		.byte	0
 1482 091c 0B       		.uleb128 0xb
ARM GAS  /var/folders/vd/czx34qs52cd_f3nb04sxmghc0000gn/T//ccXcIPPt.s 			page 27


 1483 091d 31060000 		.4byte	.LASF135
 1484 0921 16       		.byte	0x16
 1485 0922 2101     		.2byte	0x121
 1486 0924 F7080000 		.4byte	0x8f7
 1487 0928 10       		.byte	0x10
 1488 0929 0B       		.uleb128 0xb
 1489 092a 70050000 		.4byte	.LASF136
 1490 092e 16       		.byte	0x16
 1491 092f 2501     		.2byte	0x125
 1492 0931 7B080000 		.4byte	0x87b
 1493 0935 14       		.byte	0x14
 1494 0936 0B       		.uleb128 0xb
 1495 0937 67030000 		.4byte	.LASF137
 1496 093b 16       		.byte	0x16
 1497 093c 2A01     		.2byte	0x12a
 1498 093e F7080000 		.4byte	0x8f7
 1499 0942 24       		.byte	0x24
 1500 0943 0B       		.uleb128 0xb
 1501 0944 6A000000 		.4byte	.LASF138
 1502 0948 16       		.byte	0x16
 1503 0949 3001     		.2byte	0x130
 1504 094b F7080000 		.4byte	0x8f7
 1505 094f 28       		.byte	0x28
 1506 0950 0B       		.uleb128 0xb
 1507 0951 89040000 		.4byte	.LASF139
 1508 0955 16       		.byte	0x16
 1509 0956 3401     		.2byte	0x134
 1510 0958 7B080000 		.4byte	0x87b
 1511 095c 2C       		.byte	0x2c
 1512 095d 0B       		.uleb128 0xb
 1513 095e 8C020000 		.4byte	.LASF140
 1514 0962 16       		.byte	0x16
 1515 0963 3A01     		.2byte	0x13a
 1516 0965 F7080000 		.4byte	0x8f7
 1517 0969 3C       		.byte	0x3c
 1518 096a 0B       		.uleb128 0xb
 1519 096b 46070000 		.4byte	.LASF141
 1520 096f 16       		.byte	0x16
 1521 0970 4001     		.2byte	0x140
 1522 0972 F7080000 		.4byte	0x8f7
 1523 0976 40       		.byte	0x40
 1524 0977 00       		.byte	0
 1525 0978 1C       		.uleb128 0x1c
 1526 0979 7C070000 		.4byte	.LASF142
 1527 097d 16       		.byte	0x16
 1528 097e 4201     		.2byte	0x142
 1529 0980 02090000 		.4byte	0x902
 1530 0984 11       		.uleb128 0x11
 1531 0985 5B050000 		.4byte	.LASF143
 1532 0989 16       		.byte	0x16
 1533 098a 4D01     		.2byte	0x14d
 1534 098c 78090000 		.4byte	0x978
 1535 0990 1D       		.uleb128 0x1d
 1536 0991 9D050000 		.4byte	.LASF163
 1537 0995 01       		.byte	0x1
 1538 0996 8F       		.byte	0x8f
 1539 0997 00000000 		.4byte	.LFB282
ARM GAS  /var/folders/vd/czx34qs52cd_f3nb04sxmghc0000gn/T//ccXcIPPt.s 			page 28


 1540 099b 14000000 		.4byte	.LFE282-.LFB282
 1541 099f 01       		.uleb128 0x1
 1542 09a0 9C       		.byte	0x9c
 1543 09a1 930A0000 		.4byte	0xa93
 1544 09a5 1E       		.uleb128 0x1e
 1545 09a6 747000   		.ascii	"tp\000"
 1546 09a9 01       		.byte	0x1
 1547 09aa 8F       		.byte	0x8f
 1548 09ab 4C020000 		.4byte	0x24c
 1549 09af 00000000 		.4byte	.LLST9
 1550 09b3 1E       		.uleb128 0x1e
 1551 09b4 6D736700 		.ascii	"msg\000"
 1552 09b8 01       		.byte	0x1
 1553 09b9 8F       		.byte	0x8f
 1554 09ba 2C010000 		.4byte	0x12c
 1555 09be 21000000 		.4byte	.LLST10
 1556 09c2 1F       		.uleb128 0x1f
 1557 09c3 52050000 		.4byte	.LASF146
 1558 09c7 A30A0000 		.4byte	0xaa3
 1559 09cb 20       		.uleb128 0x20
 1560 09cc 430D0000 		.4byte	0xd43
 1561 09d0 02000000 		.4byte	.LBB91
 1562 09d4 06000000 		.4byte	.LBE91-.LBB91
 1563 09d8 01       		.byte	0x1
 1564 09d9 91       		.byte	0x91
 1565 09da 0A0A0000 		.4byte	0xa0a
 1566 09de 21       		.uleb128 0x21
 1567 09df A90D0000 		.4byte	0xda9
 1568 09e3 02000000 		.4byte	.LBB92
 1569 09e7 06000000 		.4byte	.LBE92-.LBB92
 1570 09eb 12       		.byte	0x12
 1571 09ec 6301     		.2byte	0x163
 1572 09ee 21       		.uleb128 0x21
 1573 09ef B20D0000 		.4byte	0xdb2
 1574 09f3 02000000 		.4byte	.LBB93
 1575 09f7 06000000 		.4byte	.LBE93-.LBB93
 1576 09fb 0E       		.byte	0xe
 1577 09fc 5A02     		.2byte	0x25a
 1578 09fe 22       		.uleb128 0x22
 1579 09ff BF0D0000 		.4byte	0xdbf
 1580 0a03 42000000 		.4byte	.LLST11
 1581 0a07 00       		.byte	0
 1582 0a08 00       		.byte	0
 1583 0a09 00       		.byte	0
 1584 0a0a 20       		.uleb128 0x20
 1585 0a0b D60C0000 		.4byte	0xcd6
 1586 0a0f 08000000 		.4byte	.LBB95
 1587 0a13 04000000 		.4byte	.LBE95-.LBB95
 1588 0a17 01       		.byte	0x1
 1589 0a18 93       		.byte	0x93
 1590 0a19 480A0000 		.4byte	0xa48
 1591 0a1d 22       		.uleb128 0x22
 1592 0a1e EC0C0000 		.4byte	0xcec
 1593 0a22 57000000 		.4byte	.LLST12
 1594 0a26 22       		.uleb128 0x22
 1595 0a27 E20C0000 		.4byte	0xce2
 1596 0a2b 78000000 		.4byte	.LLST13
ARM GAS  /var/folders/vd/czx34qs52cd_f3nb04sxmghc0000gn/T//ccXcIPPt.s 			page 29


 1597 0a2f 23       		.uleb128 0x23
 1598 0a30 0C000000 		.4byte	.LVL24
 1599 0a34 CC0D0000 		.4byte	0xdcc
 1600 0a38 24       		.uleb128 0x24
 1601 0a39 01       		.uleb128 0x1
 1602 0a3a 50       		.byte	0x50
 1603 0a3b 03       		.uleb128 0x3
 1604 0a3c F3       		.byte	0xf3
 1605 0a3d 01       		.uleb128 0x1
 1606 0a3e 50       		.byte	0x50
 1607 0a3f 24       		.uleb128 0x24
 1608 0a40 01       		.uleb128 0x1
 1609 0a41 51       		.byte	0x51
 1610 0a42 03       		.uleb128 0x3
 1611 0a43 F3       		.byte	0xf3
 1612 0a44 01       		.uleb128 0x1
 1613 0a45 51       		.byte	0x51
 1614 0a46 00       		.byte	0
 1615 0a47 00       		.byte	0
 1616 0a48 25       		.uleb128 0x25
 1617 0a49 130D0000 		.4byte	0xd13
 1618 0a4d 0C000000 		.4byte	.LBB97
 1619 0a51 06000000 		.4byte	.LBE97-.LBB97
 1620 0a55 01       		.byte	0x1
 1621 0a56 94       		.byte	0x94
 1622 0a57 26       		.uleb128 0x26
 1623 0a58 0C000000 		.4byte	.LBB98
 1624 0a5c 06000000 		.4byte	.LBE98-.LBB98
 1625 0a60 27       		.uleb128 0x27
 1626 0a61 200D0000 		.4byte	0xd20
 1627 0a65 21       		.uleb128 0x21
 1628 0a66 A00D0000 		.4byte	0xda0
 1629 0a6a 0C000000 		.4byte	.LBB99
 1630 0a6e 06000000 		.4byte	.LBE99-.LBB99
 1631 0a72 12       		.byte	0x12
 1632 0a73 7A01     		.2byte	0x17a
 1633 0a75 21       		.uleb128 0x21
 1634 0a76 B20D0000 		.4byte	0xdb2
 1635 0a7a 0C000000 		.4byte	.LBB100
 1636 0a7e 06000000 		.4byte	.LBE100-.LBB100
 1637 0a82 0E       		.byte	0xe
 1638 0a83 6D02     		.2byte	0x26d
 1639 0a85 22       		.uleb128 0x22
 1640 0a86 BF0D0000 		.4byte	0xdbf
 1641 0a8a 99000000 		.4byte	.LLST14
 1642 0a8e 00       		.byte	0
 1643 0a8f 00       		.byte	0
 1644 0a90 00       		.byte	0
 1645 0a91 00       		.byte	0
 1646 0a92 00       		.byte	0
 1647 0a93 13       		.uleb128 0x13
 1648 0a94 6A060000 		.4byte	0x66a
 1649 0a98 A30A0000 		.4byte	0xaa3
 1650 0a9c 14       		.uleb128 0x14
 1651 0a9d 37000000 		.4byte	0x37
 1652 0aa1 0C       		.byte	0xc
 1653 0aa2 00       		.byte	0
ARM GAS  /var/folders/vd/czx34qs52cd_f3nb04sxmghc0000gn/T//ccXcIPPt.s 			page 30


 1654 0aa3 05       		.uleb128 0x5
 1655 0aa4 930A0000 		.4byte	0xa93
 1656 0aa8 28       		.uleb128 0x28
 1657 0aa9 E0060000 		.4byte	.LASF144
 1658 0aad 01       		.byte	0x1
 1659 0aae 77       		.byte	0x77
 1660 0aaf 4C020000 		.4byte	0x24c
 1661 0ab3 00000000 		.4byte	.LFB281
 1662 0ab7 40000000 		.4byte	.LFE281-.LFB281
 1663 0abb 01       		.uleb128 0x1
 1664 0abc 9C       		.byte	0x9c
 1665 0abd A50B0000 		.4byte	0xba5
 1666 0ac1 29       		.uleb128 0x29
 1667 0ac2 747000   		.ascii	"tp\000"
 1668 0ac5 01       		.byte	0x1
 1669 0ac6 78       		.byte	0x78
 1670 0ac7 4C020000 		.4byte	0x24c
 1671 0acb 20       		.uleb128 0x20
 1672 0acc 430D0000 		.4byte	0xd43
 1673 0ad0 02000000 		.4byte	.LBB71
 1674 0ad4 06000000 		.4byte	.LBE71-.LBB71
 1675 0ad8 01       		.byte	0x1
 1676 0ad9 7A       		.byte	0x7a
 1677 0ada 0A0B0000 		.4byte	0xb0a
 1678 0ade 21       		.uleb128 0x21
 1679 0adf A90D0000 		.4byte	0xda9
 1680 0ae3 02000000 		.4byte	.LBB72
 1681 0ae7 06000000 		.4byte	.LBE72-.LBB72
 1682 0aeb 12       		.byte	0x12
 1683 0aec 6301     		.2byte	0x163
 1684 0aee 21       		.uleb128 0x21
 1685 0aef B20D0000 		.4byte	0xdb2
 1686 0af3 02000000 		.4byte	.LBB73
 1687 0af7 06000000 		.4byte	.LBE73-.LBB73
 1688 0afb 0E       		.byte	0xe
 1689 0afc 5A02     		.2byte	0x25a
 1690 0afe 22       		.uleb128 0x22
 1691 0aff BF0D0000 		.4byte	0xdbf
 1692 0b03 AD000000 		.4byte	.LLST6
 1693 0b07 00       		.byte	0
 1694 0b08 00       		.byte	0
 1695 0b09 00       		.byte	0
 1696 0b0a 20       		.uleb128 0x20
 1697 0b0b F80C0000 		.4byte	0xcf8
 1698 0b0f 0C000000 		.4byte	.LBB75
 1699 0b13 06000000 		.4byte	.LBE75-.LBB75
 1700 0b17 01       		.byte	0x1
 1701 0b18 7B       		.byte	0x7b
 1702 0b19 270B0000 		.4byte	0xb27
 1703 0b1d 22       		.uleb128 0x22
 1704 0b1e 080D0000 		.4byte	0xd08
 1705 0b22 C2000000 		.4byte	.LLST7
 1706 0b26 00       		.byte	0
 1707 0b27 2A       		.uleb128 0x2a
 1708 0b28 4C0D0000 		.4byte	0xd4c
 1709 0b2c 16000000 		.4byte	.LBB77
 1710 0b30 38000000 		.4byte	.Ldebug_ranges0+0x38
ARM GAS  /var/folders/vd/czx34qs52cd_f3nb04sxmghc0000gn/T//ccXcIPPt.s 			page 31


 1711 0b34 01       		.byte	0x1
 1712 0b35 7E       		.byte	0x7e
 1713 0b36 4B0B0000 		.4byte	0xb4b
 1714 0b3a 2B       		.uleb128 0x2b
 1715 0b3b 5D0D0000 		.4byte	0xd5d
 1716 0b3f 2C       		.uleb128 0x2c
 1717 0b40 38000000 		.4byte	.Ldebug_ranges0+0x38
 1718 0b44 27       		.uleb128 0x27
 1719 0b45 690D0000 		.4byte	0xd69
 1720 0b49 00       		.byte	0
 1721 0b4a 00       		.byte	0
 1722 0b4b 2A       		.uleb128 0x2a
 1723 0b4c 130D0000 		.4byte	0xd13
 1724 0b50 1E000000 		.4byte	.LBB81
 1725 0b54 50000000 		.4byte	.Ldebug_ranges0+0x50
 1726 0b58 01       		.byte	0x1
 1727 0b59 80       		.byte	0x80
 1728 0b5a 950B0000 		.4byte	0xb95
 1729 0b5e 2C       		.uleb128 0x2c
 1730 0b5f 50000000 		.4byte	.Ldebug_ranges0+0x50
 1731 0b63 27       		.uleb128 0x27
 1732 0b64 200D0000 		.4byte	0xd20
 1733 0b68 2D       		.uleb128 0x2d
 1734 0b69 A00D0000 		.4byte	0xda0
 1735 0b6d 1E000000 		.4byte	.LBB83
 1736 0b71 50000000 		.4byte	.Ldebug_ranges0+0x50
 1737 0b75 12       		.byte	0x12
 1738 0b76 7A01     		.2byte	0x17a
 1739 0b78 2D       		.uleb128 0x2d
 1740 0b79 B20D0000 		.4byte	0xdb2
 1741 0b7d 1E000000 		.4byte	.LBB84
 1742 0b81 50000000 		.4byte	.Ldebug_ranges0+0x50
 1743 0b85 0E       		.byte	0xe
 1744 0b86 6D02     		.2byte	0x26d
 1745 0b88 22       		.uleb128 0x22
 1746 0b89 BF0D0000 		.4byte	0xdbf
 1747 0b8d D5000000 		.4byte	.LLST8
 1748 0b91 00       		.byte	0
 1749 0b92 00       		.byte	0
 1750 0b93 00       		.byte	0
 1751 0b94 00       		.byte	0
 1752 0b95 23       		.uleb128 0x23
 1753 0b96 30000000 		.4byte	.LVL21
 1754 0b9a D80D0000 		.4byte	0xdd8
 1755 0b9e 24       		.uleb128 0x24
 1756 0b9f 01       		.uleb128 0x1
 1757 0ba0 50       		.byte	0x50
 1758 0ba1 01       		.uleb128 0x1
 1759 0ba2 3E       		.byte	0x3e
 1760 0ba3 00       		.byte	0
 1761 0ba4 00       		.byte	0
 1762 0ba5 28       		.uleb128 0x28
 1763 0ba6 36020000 		.4byte	.LASF145
 1764 0baa 01       		.byte	0x1
 1765 0bab 57       		.byte	0x57
 1766 0bac 2C010000 		.4byte	0x12c
 1767 0bb0 00000000 		.4byte	.LFB280
ARM GAS  /var/folders/vd/czx34qs52cd_f3nb04sxmghc0000gn/T//ccXcIPPt.s 			page 32


 1768 0bb4 40000000 		.4byte	.LFE280-.LFB280
 1769 0bb8 01       		.uleb128 0x1
 1770 0bb9 9C       		.byte	0x9c
 1771 0bba C10C0000 		.4byte	0xcc1
 1772 0bbe 1E       		.uleb128 0x1e
 1773 0bbf 747000   		.ascii	"tp\000"
 1774 0bc2 01       		.byte	0x1
 1775 0bc3 57       		.byte	0x57
 1776 0bc4 4C020000 		.4byte	0x24c
 1777 0bc8 E9000000 		.4byte	.LLST0
 1778 0bcc 1E       		.uleb128 0x1e
 1779 0bcd 6D736700 		.ascii	"msg\000"
 1780 0bd1 01       		.byte	0x1
 1781 0bd2 57       		.byte	0x57
 1782 0bd3 2C010000 		.4byte	0x12c
 1783 0bd7 23010000 		.4byte	.LLST1
 1784 0bdb 2E       		.uleb128 0x2e
 1785 0bdc 63747000 		.ascii	"ctp\000"
 1786 0be0 01       		.byte	0x1
 1787 0be1 58       		.byte	0x58
 1788 0be2 4C020000 		.4byte	0x24c
 1789 0be6 01       		.uleb128 0x1
 1790 0be7 54       		.byte	0x54
 1791 0be8 1F       		.uleb128 0x1f
 1792 0be9 52050000 		.4byte	.LASF146
 1793 0bed D10C0000 		.4byte	0xcd1
 1794 0bf1 2A       		.uleb128 0x2a
 1795 0bf2 430D0000 		.4byte	0xd43
 1796 0bf6 04000000 		.4byte	.LBB52
 1797 0bfa 00000000 		.4byte	.Ldebug_ranges0+0
 1798 0bfe 01       		.byte	0x1
 1799 0bff 5C       		.byte	0x5c
 1800 0c00 300C0000 		.4byte	0xc30
 1801 0c04 2D       		.uleb128 0x2d
 1802 0c05 A90D0000 		.4byte	0xda9
 1803 0c09 04000000 		.4byte	.LBB53
 1804 0c0d 00000000 		.4byte	.Ldebug_ranges0+0
 1805 0c11 12       		.byte	0x12
 1806 0c12 6301     		.2byte	0x163
 1807 0c14 2D       		.uleb128 0x2d
 1808 0c15 B20D0000 		.4byte	0xdb2
 1809 0c19 04000000 		.4byte	.LBB54
 1810 0c1d 00000000 		.4byte	.Ldebug_ranges0+0
 1811 0c21 0E       		.byte	0xe
 1812 0c22 5A02     		.2byte	0x25a
 1813 0c24 22       		.uleb128 0x22
 1814 0c25 BF0D0000 		.4byte	0xdbf
 1815 0c29 75010000 		.4byte	.LLST2
 1816 0c2d 00       		.byte	0
 1817 0c2e 00       		.byte	0
 1818 0c2f 00       		.byte	0
 1819 0c30 2A       		.uleb128 0x2a
 1820 0c31 7B0D0000 		.4byte	0xd7b
 1821 0c35 0C000000 		.4byte	.LBB60
 1822 0c39 18000000 		.4byte	.Ldebug_ranges0+0x18
 1823 0c3d 01       		.byte	0x1
 1824 0c3e 5E       		.byte	0x5e
ARM GAS  /var/folders/vd/czx34qs52cd_f3nb04sxmghc0000gn/T//ccXcIPPt.s 			page 33


 1825 0c3f 560C0000 		.4byte	0xc56
 1826 0c43 22       		.uleb128 0x22
 1827 0c44 930D0000 		.4byte	0xd93
 1828 0c48 8A010000 		.4byte	.LLST3
 1829 0c4c 22       		.uleb128 0x22
 1830 0c4d 880D0000 		.4byte	0xd88
 1831 0c51 9F010000 		.4byte	.LLST4
 1832 0c55 00       		.byte	0
 1833 0c56 20       		.uleb128 0x20
 1834 0c57 130D0000 		.4byte	0xd13
 1835 0c5b 2C000000 		.4byte	.LBB66
 1836 0c5f 06000000 		.4byte	.LBE66-.LBB66
 1837 0c63 01       		.byte	0x1
 1838 0c64 64       		.byte	0x64
 1839 0c65 A40C0000 		.4byte	0xca4
 1840 0c69 26       		.uleb128 0x26
 1841 0c6a 2C000000 		.4byte	.LBB67
 1842 0c6e 06000000 		.4byte	.LBE67-.LBB67
 1843 0c72 27       		.uleb128 0x27
 1844 0c73 200D0000 		.4byte	0xd20
 1845 0c77 21       		.uleb128 0x21
 1846 0c78 A00D0000 		.4byte	0xda0
 1847 0c7c 2C000000 		.4byte	.LBB68
 1848 0c80 06000000 		.4byte	.LBE68-.LBB68
 1849 0c84 12       		.byte	0x12
 1850 0c85 7A01     		.2byte	0x17a
 1851 0c87 21       		.uleb128 0x21
 1852 0c88 B20D0000 		.4byte	0xdb2
 1853 0c8c 2C000000 		.4byte	.LBB69
 1854 0c90 06000000 		.4byte	.LBE69-.LBB69
 1855 0c94 0E       		.byte	0xe
 1856 0c95 6D02     		.2byte	0x26d
 1857 0c97 22       		.uleb128 0x22
 1858 0c98 BF0D0000 		.4byte	0xdbf
 1859 0c9c B2010000 		.4byte	.LLST5
 1860 0ca0 00       		.byte	0
 1861 0ca1 00       		.byte	0
 1862 0ca2 00       		.byte	0
 1863 0ca3 00       		.byte	0
 1864 0ca4 2F       		.uleb128 0x2f
 1865 0ca5 2A000000 		.4byte	.LVL7
 1866 0ca9 D80D0000 		.4byte	0xdd8
 1867 0cad B70C0000 		.4byte	0xcb7
 1868 0cb1 24       		.uleb128 0x24
 1869 0cb2 01       		.uleb128 0x1
 1870 0cb3 50       		.byte	0x50
 1871 0cb4 01       		.uleb128 0x1
 1872 0cb5 3C       		.byte	0x3c
 1873 0cb6 00       		.byte	0
 1874 0cb7 30       		.uleb128 0x30
 1875 0cb8 38000000 		.4byte	.LVL11
 1876 0cbc E40D0000 		.4byte	0xde4
 1877 0cc0 00       		.byte	0
 1878 0cc1 13       		.uleb128 0x13
 1879 0cc2 6A060000 		.4byte	0x66a
 1880 0cc6 D10C0000 		.4byte	0xcd1
 1881 0cca 14       		.uleb128 0x14
ARM GAS  /var/folders/vd/czx34qs52cd_f3nb04sxmghc0000gn/T//ccXcIPPt.s 			page 34


 1882 0ccb 37000000 		.4byte	0x37
 1883 0ccf 09       		.byte	0x9
 1884 0cd0 00       		.byte	0
 1885 0cd1 05       		.uleb128 0x5
 1886 0cd2 C10C0000 		.4byte	0xcc1
 1887 0cd6 31       		.uleb128 0x31
 1888 0cd7 8E070000 		.4byte	.LASF147
 1889 0cdb 04       		.byte	0x4
 1890 0cdc 71       		.byte	0x71
 1891 0cdd 03       		.byte	0x3
 1892 0cde F80C0000 		.4byte	0xcf8
 1893 0ce2 32       		.uleb128 0x32
 1894 0ce3 747000   		.ascii	"tp\000"
 1895 0ce6 04       		.byte	0x4
 1896 0ce7 71       		.byte	0x71
 1897 0ce8 4C020000 		.4byte	0x24c
 1898 0cec 32       		.uleb128 0x32
 1899 0ced 6D736700 		.ascii	"msg\000"
 1900 0cf1 04       		.byte	0x4
 1901 0cf2 71       		.byte	0x71
 1902 0cf3 2C010000 		.4byte	0x12c
 1903 0cf7 00       		.byte	0
 1904 0cf8 33       		.uleb128 0x33
 1905 0cf9 7E060000 		.4byte	.LASF149
 1906 0cfd 04       		.byte	0x4
 1907 0cfe 4F       		.byte	0x4f
 1908 0cff BA070000 		.4byte	0x7ba
 1909 0d03 03       		.byte	0x3
 1910 0d04 130D0000 		.4byte	0xd13
 1911 0d08 32       		.uleb128 0x32
 1912 0d09 747000   		.ascii	"tp\000"
 1913 0d0c 04       		.byte	0x4
 1914 0d0d 4F       		.byte	0x4f
 1915 0d0e 4C020000 		.4byte	0x24c
 1916 0d12 00       		.byte	0
 1917 0d13 34       		.uleb128 0x34
 1918 0d14 70070000 		.4byte	.LASF148
 1919 0d18 12       		.byte	0x12
 1920 0d19 6D01     		.2byte	0x16d
 1921 0d1b 03       		.byte	0x3
 1922 0d1c 2E0D0000 		.4byte	0xd2e
 1923 0d20 35       		.uleb128 0x35
 1924 0d21 52050000 		.4byte	.LASF146
 1925 0d25 3E0D0000 		.4byte	0xd3e
 1926 0d29 70070000 		.4byte	.LASF148
 1927 0d2d 00       		.byte	0
 1928 0d2e 13       		.uleb128 0x13
 1929 0d2f 6A060000 		.4byte	0x66a
 1930 0d33 3E0D0000 		.4byte	0xd3e
 1931 0d37 14       		.uleb128 0x14
 1932 0d38 37000000 		.4byte	0x37
 1933 0d3c 0B       		.byte	0xb
 1934 0d3d 00       		.byte	0
 1935 0d3e 05       		.uleb128 0x5
 1936 0d3f 2E0D0000 		.4byte	0xd2e
 1937 0d43 36       		.uleb128 0x36
 1938 0d44 66050000 		.4byte	.LASF152
ARM GAS  /var/folders/vd/czx34qs52cd_f3nb04sxmghc0000gn/T//ccXcIPPt.s 			page 35


 1939 0d48 12       		.byte	0x12
 1940 0d49 6101     		.2byte	0x161
 1941 0d4b 03       		.byte	0x3
 1942 0d4c 37       		.uleb128 0x37
 1943 0d4d 59060000 		.4byte	.LASF150
 1944 0d51 03       		.byte	0x3
 1945 0d52 5E02     		.2byte	0x25e
 1946 0d54 4C020000 		.4byte	0x24c
 1947 0d58 03       		.byte	0x3
 1948 0d59 750D0000 		.4byte	0xd75
 1949 0d5d 38       		.uleb128 0x38
 1950 0d5e 74717000 		.ascii	"tqp\000"
 1951 0d62 03       		.byte	0x3
 1952 0d63 5E02     		.2byte	0x25e
 1953 0d65 750D0000 		.4byte	0xd75
 1954 0d69 39       		.uleb128 0x39
 1955 0d6a 747000   		.ascii	"tp\000"
 1956 0d6d 03       		.byte	0x3
 1957 0d6e 5F02     		.2byte	0x25f
 1958 0d70 4C020000 		.4byte	0x24c
 1959 0d74 00       		.byte	0
 1960 0d75 0C       		.uleb128 0xc
 1961 0d76 04       		.byte	0x4
 1962 0d77 76020000 		.4byte	0x276
 1963 0d7b 34       		.uleb128 0x34
 1964 0d7c 0D000000 		.4byte	.LASF151
 1965 0d80 03       		.byte	0x3
 1966 0d81 5602     		.2byte	0x256
 1967 0d83 03       		.byte	0x3
 1968 0d84 A00D0000 		.4byte	0xda0
 1969 0d88 38       		.uleb128 0x38
 1970 0d89 747000   		.ascii	"tp\000"
 1971 0d8c 03       		.byte	0x3
 1972 0d8d 5602     		.2byte	0x256
 1973 0d8f 4C020000 		.4byte	0x24c
 1974 0d93 38       		.uleb128 0x38
 1975 0d94 74717000 		.ascii	"tqp\000"
 1976 0d98 03       		.byte	0x3
 1977 0d99 5602     		.2byte	0x256
 1978 0d9b 750D0000 		.4byte	0xd75
 1979 0d9f 00       		.byte	0
 1980 0da0 36       		.uleb128 0x36
 1981 0da1 12020000 		.4byte	.LASF153
 1982 0da5 0E       		.byte	0xe
 1983 0da6 6A02     		.2byte	0x26a
 1984 0da8 03       		.byte	0x3
 1985 0da9 36       		.uleb128 0x36
 1986 0daa 73000000 		.4byte	.LASF154
 1987 0dae 0E       		.byte	0xe
 1988 0daf 5202     		.2byte	0x252
 1989 0db1 03       		.byte	0x3
 1990 0db2 34       		.uleb128 0x34
 1991 0db3 8E060000 		.4byte	.LASF155
 1992 0db7 02       		.byte	0x2
 1993 0db8 E801     		.2byte	0x1e8
 1994 0dba 03       		.byte	0x3
 1995 0dbb CC0D0000 		.4byte	0xdcc
ARM GAS  /var/folders/vd/czx34qs52cd_f3nb04sxmghc0000gn/T//ccXcIPPt.s 			page 36


 1996 0dbf 3A       		.uleb128 0x3a
 1997 0dc0 03020000 		.4byte	.LASF156
 1998 0dc4 02       		.byte	0x2
 1999 0dc5 E801     		.2byte	0x1e8
 2000 0dc7 DF000000 		.4byte	0xdf
 2001 0dcb 00       		.byte	0
 2002 0dcc 3B       		.uleb128 0x3b
 2003 0dcd D3060000 		.4byte	.LASF157
 2004 0dd1 D3060000 		.4byte	.LASF157
 2005 0dd5 03       		.byte	0x3
 2006 0dd6 D501     		.2byte	0x1d5
 2007 0dd8 3B       		.uleb128 0x3b
 2008 0dd9 E3040000 		.4byte	.LASF158
 2009 0ddd E3040000 		.4byte	.LASF158
 2010 0de1 03       		.byte	0x3
 2011 0de2 D301     		.2byte	0x1d3
 2012 0de4 3B       		.uleb128 0x3b
 2013 0de5 EB050000 		.4byte	.LASF159
 2014 0de9 EB050000 		.4byte	.LASF159
 2015 0ded 03       		.byte	0x3
 2016 0dee D101     		.2byte	0x1d1
 2017 0df0 00       		.byte	0
 2018              		.section	.debug_abbrev,"",%progbits
 2019              	.Ldebug_abbrev0:
 2020 0000 01       		.uleb128 0x1
 2021 0001 11       		.uleb128 0x11
 2022 0002 01       		.byte	0x1
 2023 0003 25       		.uleb128 0x25
 2024 0004 0E       		.uleb128 0xe
 2025 0005 13       		.uleb128 0x13
 2026 0006 0B       		.uleb128 0xb
 2027 0007 03       		.uleb128 0x3
 2028 0008 0E       		.uleb128 0xe
 2029 0009 1B       		.uleb128 0x1b
 2030 000a 0E       		.uleb128 0xe
 2031 000b 55       		.uleb128 0x55
 2032 000c 17       		.uleb128 0x17
 2033 000d 11       		.uleb128 0x11
 2034 000e 01       		.uleb128 0x1
 2035 000f 10       		.uleb128 0x10
 2036 0010 17       		.uleb128 0x17
 2037 0011 00       		.byte	0
 2038 0012 00       		.byte	0
 2039 0013 02       		.uleb128 0x2
 2040 0014 24       		.uleb128 0x24
 2041 0015 00       		.byte	0
 2042 0016 0B       		.uleb128 0xb
 2043 0017 0B       		.uleb128 0xb
 2044 0018 3E       		.uleb128 0x3e
 2045 0019 0B       		.uleb128 0xb
 2046 001a 03       		.uleb128 0x3
 2047 001b 08       		.uleb128 0x8
 2048 001c 00       		.byte	0
 2049 001d 00       		.byte	0
 2050 001e 03       		.uleb128 0x3
 2051 001f 16       		.uleb128 0x16
 2052 0020 00       		.byte	0
ARM GAS  /var/folders/vd/czx34qs52cd_f3nb04sxmghc0000gn/T//ccXcIPPt.s 			page 37


 2053 0021 03       		.uleb128 0x3
 2054 0022 0E       		.uleb128 0xe
 2055 0023 3A       		.uleb128 0x3a
 2056 0024 0B       		.uleb128 0xb
 2057 0025 3B       		.uleb128 0x3b
 2058 0026 0B       		.uleb128 0xb
 2059 0027 49       		.uleb128 0x49
 2060 0028 13       		.uleb128 0x13
 2061 0029 00       		.byte	0
 2062 002a 00       		.byte	0
 2063 002b 04       		.uleb128 0x4
 2064 002c 24       		.uleb128 0x24
 2065 002d 00       		.byte	0
 2066 002e 0B       		.uleb128 0xb
 2067 002f 0B       		.uleb128 0xb
 2068 0030 3E       		.uleb128 0x3e
 2069 0031 0B       		.uleb128 0xb
 2070 0032 03       		.uleb128 0x3
 2071 0033 0E       		.uleb128 0xe
 2072 0034 00       		.byte	0
 2073 0035 00       		.byte	0
 2074 0036 05       		.uleb128 0x5
 2075 0037 26       		.uleb128 0x26
 2076 0038 00       		.byte	0
 2077 0039 49       		.uleb128 0x49
 2078 003a 13       		.uleb128 0x13
 2079 003b 00       		.byte	0
 2080 003c 00       		.byte	0
 2081 003d 06       		.uleb128 0x6
 2082 003e 35       		.uleb128 0x35
 2083 003f 00       		.byte	0
 2084 0040 49       		.uleb128 0x49
 2085 0041 13       		.uleb128 0x13
 2086 0042 00       		.byte	0
 2087 0043 00       		.byte	0
 2088 0044 07       		.uleb128 0x7
 2089 0045 13       		.uleb128 0x13
 2090 0046 01       		.byte	0x1
 2091 0047 03       		.uleb128 0x3
 2092 0048 0E       		.uleb128 0xe
 2093 0049 0B       		.uleb128 0xb
 2094 004a 0B       		.uleb128 0xb
 2095 004b 3A       		.uleb128 0x3a
 2096 004c 0B       		.uleb128 0xb
 2097 004d 3B       		.uleb128 0x3b
 2098 004e 0B       		.uleb128 0xb
 2099 004f 01       		.uleb128 0x1
 2100 0050 13       		.uleb128 0x13
 2101 0051 00       		.byte	0
 2102 0052 00       		.byte	0
 2103 0053 08       		.uleb128 0x8
 2104 0054 0D       		.uleb128 0xd
 2105 0055 00       		.byte	0
 2106 0056 03       		.uleb128 0x3
 2107 0057 0E       		.uleb128 0xe
 2108 0058 3A       		.uleb128 0x3a
 2109 0059 0B       		.uleb128 0xb
ARM GAS  /var/folders/vd/czx34qs52cd_f3nb04sxmghc0000gn/T//ccXcIPPt.s 			page 38


 2110 005a 3B       		.uleb128 0x3b
 2111 005b 0B       		.uleb128 0xb
 2112 005c 49       		.uleb128 0x49
 2113 005d 13       		.uleb128 0x13
 2114 005e 38       		.uleb128 0x38
 2115 005f 0B       		.uleb128 0xb
 2116 0060 00       		.byte	0
 2117 0061 00       		.byte	0
 2118 0062 09       		.uleb128 0x9
 2119 0063 0D       		.uleb128 0xd
 2120 0064 00       		.byte	0
 2121 0065 03       		.uleb128 0x3
 2122 0066 08       		.uleb128 0x8
 2123 0067 3A       		.uleb128 0x3a
 2124 0068 0B       		.uleb128 0xb
 2125 0069 3B       		.uleb128 0x3b
 2126 006a 0B       		.uleb128 0xb
 2127 006b 49       		.uleb128 0x49
 2128 006c 13       		.uleb128 0x13
 2129 006d 38       		.uleb128 0x38
 2130 006e 0B       		.uleb128 0xb
 2131 006f 00       		.byte	0
 2132 0070 00       		.byte	0
 2133 0071 0A       		.uleb128 0xa
 2134 0072 0D       		.uleb128 0xd
 2135 0073 00       		.byte	0
 2136 0074 03       		.uleb128 0x3
 2137 0075 08       		.uleb128 0x8
 2138 0076 3A       		.uleb128 0x3a
 2139 0077 0B       		.uleb128 0xb
 2140 0078 3B       		.uleb128 0x3b
 2141 0079 05       		.uleb128 0x5
 2142 007a 49       		.uleb128 0x49
 2143 007b 13       		.uleb128 0x13
 2144 007c 38       		.uleb128 0x38
 2145 007d 0B       		.uleb128 0xb
 2146 007e 00       		.byte	0
 2147 007f 00       		.byte	0
 2148 0080 0B       		.uleb128 0xb
 2149 0081 0D       		.uleb128 0xd
 2150 0082 00       		.byte	0
 2151 0083 03       		.uleb128 0x3
 2152 0084 0E       		.uleb128 0xe
 2153 0085 3A       		.uleb128 0x3a
 2154 0086 0B       		.uleb128 0xb
 2155 0087 3B       		.uleb128 0x3b
 2156 0088 05       		.uleb128 0x5
 2157 0089 49       		.uleb128 0x49
 2158 008a 13       		.uleb128 0x13
 2159 008b 38       		.uleb128 0x38
 2160 008c 0B       		.uleb128 0xb
 2161 008d 00       		.byte	0
 2162 008e 00       		.byte	0
 2163 008f 0C       		.uleb128 0xc
 2164 0090 0F       		.uleb128 0xf
 2165 0091 00       		.byte	0
 2166 0092 0B       		.uleb128 0xb
ARM GAS  /var/folders/vd/czx34qs52cd_f3nb04sxmghc0000gn/T//ccXcIPPt.s 			page 39


 2167 0093 0B       		.uleb128 0xb
 2168 0094 49       		.uleb128 0x49
 2169 0095 13       		.uleb128 0x13
 2170 0096 00       		.byte	0
 2171 0097 00       		.byte	0
 2172 0098 0D       		.uleb128 0xd
 2173 0099 13       		.uleb128 0x13
 2174 009a 01       		.byte	0x1
 2175 009b 03       		.uleb128 0x3
 2176 009c 0E       		.uleb128 0xe
 2177 009d 0B       		.uleb128 0xb
 2178 009e 0B       		.uleb128 0xb
 2179 009f 3A       		.uleb128 0x3a
 2180 00a0 0B       		.uleb128 0xb
 2181 00a1 3B       		.uleb128 0x3b
 2182 00a2 05       		.uleb128 0x5
 2183 00a3 01       		.uleb128 0x1
 2184 00a4 13       		.uleb128 0x13
 2185 00a5 00       		.byte	0
 2186 00a6 00       		.byte	0
 2187 00a7 0E       		.uleb128 0xe
 2188 00a8 15       		.uleb128 0x15
 2189 00a9 01       		.byte	0x1
 2190 00aa 27       		.uleb128 0x27
 2191 00ab 19       		.uleb128 0x19
 2192 00ac 01       		.uleb128 0x1
 2193 00ad 13       		.uleb128 0x13
 2194 00ae 00       		.byte	0
 2195 00af 00       		.byte	0
 2196 00b0 0F       		.uleb128 0xf
 2197 00b1 05       		.uleb128 0x5
 2198 00b2 00       		.byte	0
 2199 00b3 49       		.uleb128 0x49
 2200 00b4 13       		.uleb128 0x13
 2201 00b5 00       		.byte	0
 2202 00b6 00       		.byte	0
 2203 00b7 10       		.uleb128 0x10
 2204 00b8 0F       		.uleb128 0xf
 2205 00b9 00       		.byte	0
 2206 00ba 0B       		.uleb128 0xb
 2207 00bb 0B       		.uleb128 0xb
 2208 00bc 00       		.byte	0
 2209 00bd 00       		.byte	0
 2210 00be 11       		.uleb128 0x11
 2211 00bf 34       		.uleb128 0x34
 2212 00c0 00       		.byte	0
 2213 00c1 03       		.uleb128 0x3
 2214 00c2 0E       		.uleb128 0xe
 2215 00c3 3A       		.uleb128 0x3a
 2216 00c4 0B       		.uleb128 0xb
 2217 00c5 3B       		.uleb128 0x3b
 2218 00c6 05       		.uleb128 0x5
 2219 00c7 49       		.uleb128 0x49
 2220 00c8 13       		.uleb128 0x13
 2221 00c9 3F       		.uleb128 0x3f
 2222 00ca 19       		.uleb128 0x19
 2223 00cb 3C       		.uleb128 0x3c
ARM GAS  /var/folders/vd/czx34qs52cd_f3nb04sxmghc0000gn/T//ccXcIPPt.s 			page 40


 2224 00cc 19       		.uleb128 0x19
 2225 00cd 00       		.byte	0
 2226 00ce 00       		.byte	0
 2227 00cf 12       		.uleb128 0x12
 2228 00d0 34       		.uleb128 0x34
 2229 00d1 00       		.byte	0
 2230 00d2 03       		.uleb128 0x3
 2231 00d3 0E       		.uleb128 0xe
 2232 00d4 3A       		.uleb128 0x3a
 2233 00d5 0B       		.uleb128 0xb
 2234 00d6 3B       		.uleb128 0x3b
 2235 00d7 0B       		.uleb128 0xb
 2236 00d8 49       		.uleb128 0x49
 2237 00d9 13       		.uleb128 0x13
 2238 00da 3F       		.uleb128 0x3f
 2239 00db 19       		.uleb128 0x19
 2240 00dc 3C       		.uleb128 0x3c
 2241 00dd 19       		.uleb128 0x19
 2242 00de 00       		.byte	0
 2243 00df 00       		.byte	0
 2244 00e0 13       		.uleb128 0x13
 2245 00e1 01       		.uleb128 0x1
 2246 00e2 01       		.byte	0x1
 2247 00e3 49       		.uleb128 0x49
 2248 00e4 13       		.uleb128 0x13
 2249 00e5 01       		.uleb128 0x1
 2250 00e6 13       		.uleb128 0x13
 2251 00e7 00       		.byte	0
 2252 00e8 00       		.byte	0
 2253 00e9 14       		.uleb128 0x14
 2254 00ea 21       		.uleb128 0x21
 2255 00eb 00       		.byte	0
 2256 00ec 49       		.uleb128 0x49
 2257 00ed 13       		.uleb128 0x13
 2258 00ee 2F       		.uleb128 0x2f
 2259 00ef 0B       		.uleb128 0xb
 2260 00f0 00       		.byte	0
 2261 00f1 00       		.byte	0
 2262 00f2 15       		.uleb128 0x15
 2263 00f3 13       		.uleb128 0x13
 2264 00f4 01       		.byte	0x1
 2265 00f5 0B       		.uleb128 0xb
 2266 00f6 0B       		.uleb128 0xb
 2267 00f7 3A       		.uleb128 0x3a
 2268 00f8 0B       		.uleb128 0xb
 2269 00f9 3B       		.uleb128 0x3b
 2270 00fa 0B       		.uleb128 0xb
 2271 00fb 01       		.uleb128 0x1
 2272 00fc 13       		.uleb128 0x13
 2273 00fd 00       		.byte	0
 2274 00fe 00       		.byte	0
 2275 00ff 16       		.uleb128 0x16
 2276 0100 17       		.uleb128 0x17
 2277 0101 01       		.byte	0x1
 2278 0102 0B       		.uleb128 0xb
 2279 0103 0B       		.uleb128 0xb
 2280 0104 3A       		.uleb128 0x3a
ARM GAS  /var/folders/vd/czx34qs52cd_f3nb04sxmghc0000gn/T//ccXcIPPt.s 			page 41


 2281 0105 0B       		.uleb128 0xb
 2282 0106 3B       		.uleb128 0x3b
 2283 0107 0B       		.uleb128 0xb
 2284 0108 01       		.uleb128 0x1
 2285 0109 13       		.uleb128 0x13
 2286 010a 00       		.byte	0
 2287 010b 00       		.byte	0
 2288 010c 17       		.uleb128 0x17
 2289 010d 0D       		.uleb128 0xd
 2290 010e 00       		.byte	0
 2291 010f 03       		.uleb128 0x3
 2292 0110 0E       		.uleb128 0xe
 2293 0111 3A       		.uleb128 0x3a
 2294 0112 0B       		.uleb128 0xb
 2295 0113 3B       		.uleb128 0x3b
 2296 0114 0B       		.uleb128 0xb
 2297 0115 49       		.uleb128 0x49
 2298 0116 13       		.uleb128 0x13
 2299 0117 00       		.byte	0
 2300 0118 00       		.byte	0
 2301 0119 18       		.uleb128 0x18
 2302 011a 0D       		.uleb128 0xd
 2303 011b 00       		.byte	0
 2304 011c 03       		.uleb128 0x3
 2305 011d 0E       		.uleb128 0xe
 2306 011e 3A       		.uleb128 0x3a
 2307 011f 0B       		.uleb128 0xb
 2308 0120 3B       		.uleb128 0x3b
 2309 0121 05       		.uleb128 0x5
 2310 0122 49       		.uleb128 0x49
 2311 0123 13       		.uleb128 0x13
 2312 0124 00       		.byte	0
 2313 0125 00       		.byte	0
 2314 0126 19       		.uleb128 0x19
 2315 0127 34       		.uleb128 0x34
 2316 0128 00       		.byte	0
 2317 0129 03       		.uleb128 0x3
 2318 012a 08       		.uleb128 0x8
 2319 012b 3A       		.uleb128 0x3a
 2320 012c 0B       		.uleb128 0xb
 2321 012d 3B       		.uleb128 0x3b
 2322 012e 05       		.uleb128 0x5
 2323 012f 49       		.uleb128 0x49
 2324 0130 13       		.uleb128 0x13
 2325 0131 3F       		.uleb128 0x3f
 2326 0132 19       		.uleb128 0x19
 2327 0133 3C       		.uleb128 0x3c
 2328 0134 19       		.uleb128 0x19
 2329 0135 00       		.byte	0
 2330 0136 00       		.byte	0
 2331 0137 1A       		.uleb128 0x1a
 2332 0138 21       		.uleb128 0x21
 2333 0139 00       		.byte	0
 2334 013a 00       		.byte	0
 2335 013b 00       		.byte	0
 2336 013c 1B       		.uleb128 0x1b
 2337 013d 15       		.uleb128 0x15
ARM GAS  /var/folders/vd/czx34qs52cd_f3nb04sxmghc0000gn/T//ccXcIPPt.s 			page 42


 2338 013e 01       		.byte	0x1
 2339 013f 27       		.uleb128 0x27
 2340 0140 19       		.uleb128 0x19
 2341 0141 49       		.uleb128 0x49
 2342 0142 13       		.uleb128 0x13
 2343 0143 01       		.uleb128 0x1
 2344 0144 13       		.uleb128 0x13
 2345 0145 00       		.byte	0
 2346 0146 00       		.byte	0
 2347 0147 1C       		.uleb128 0x1c
 2348 0148 16       		.uleb128 0x16
 2349 0149 00       		.byte	0
 2350 014a 03       		.uleb128 0x3
 2351 014b 0E       		.uleb128 0xe
 2352 014c 3A       		.uleb128 0x3a
 2353 014d 0B       		.uleb128 0xb
 2354 014e 3B       		.uleb128 0x3b
 2355 014f 05       		.uleb128 0x5
 2356 0150 49       		.uleb128 0x49
 2357 0151 13       		.uleb128 0x13
 2358 0152 00       		.byte	0
 2359 0153 00       		.byte	0
 2360 0154 1D       		.uleb128 0x1d
 2361 0155 2E       		.uleb128 0x2e
 2362 0156 01       		.byte	0x1
 2363 0157 3F       		.uleb128 0x3f
 2364 0158 19       		.uleb128 0x19
 2365 0159 03       		.uleb128 0x3
 2366 015a 0E       		.uleb128 0xe
 2367 015b 3A       		.uleb128 0x3a
 2368 015c 0B       		.uleb128 0xb
 2369 015d 3B       		.uleb128 0x3b
 2370 015e 0B       		.uleb128 0xb
 2371 015f 27       		.uleb128 0x27
 2372 0160 19       		.uleb128 0x19
 2373 0161 11       		.uleb128 0x11
 2374 0162 01       		.uleb128 0x1
 2375 0163 12       		.uleb128 0x12
 2376 0164 06       		.uleb128 0x6
 2377 0165 40       		.uleb128 0x40
 2378 0166 18       		.uleb128 0x18
 2379 0167 9742     		.uleb128 0x2117
 2380 0169 19       		.uleb128 0x19
 2381 016a 01       		.uleb128 0x1
 2382 016b 13       		.uleb128 0x13
 2383 016c 00       		.byte	0
 2384 016d 00       		.byte	0
 2385 016e 1E       		.uleb128 0x1e
 2386 016f 05       		.uleb128 0x5
 2387 0170 00       		.byte	0
 2388 0171 03       		.uleb128 0x3
 2389 0172 08       		.uleb128 0x8
 2390 0173 3A       		.uleb128 0x3a
 2391 0174 0B       		.uleb128 0xb
 2392 0175 3B       		.uleb128 0x3b
 2393 0176 0B       		.uleb128 0xb
 2394 0177 49       		.uleb128 0x49
ARM GAS  /var/folders/vd/czx34qs52cd_f3nb04sxmghc0000gn/T//ccXcIPPt.s 			page 43


 2395 0178 13       		.uleb128 0x13
 2396 0179 02       		.uleb128 0x2
 2397 017a 17       		.uleb128 0x17
 2398 017b 00       		.byte	0
 2399 017c 00       		.byte	0
 2400 017d 1F       		.uleb128 0x1f
 2401 017e 34       		.uleb128 0x34
 2402 017f 00       		.byte	0
 2403 0180 03       		.uleb128 0x3
 2404 0181 0E       		.uleb128 0xe
 2405 0182 49       		.uleb128 0x49
 2406 0183 13       		.uleb128 0x13
 2407 0184 34       		.uleb128 0x34
 2408 0185 19       		.uleb128 0x19
 2409 0186 00       		.byte	0
 2410 0187 00       		.byte	0
 2411 0188 20       		.uleb128 0x20
 2412 0189 1D       		.uleb128 0x1d
 2413 018a 01       		.byte	0x1
 2414 018b 31       		.uleb128 0x31
 2415 018c 13       		.uleb128 0x13
 2416 018d 11       		.uleb128 0x11
 2417 018e 01       		.uleb128 0x1
 2418 018f 12       		.uleb128 0x12
 2419 0190 06       		.uleb128 0x6
 2420 0191 58       		.uleb128 0x58
 2421 0192 0B       		.uleb128 0xb
 2422 0193 59       		.uleb128 0x59
 2423 0194 0B       		.uleb128 0xb
 2424 0195 01       		.uleb128 0x1
 2425 0196 13       		.uleb128 0x13
 2426 0197 00       		.byte	0
 2427 0198 00       		.byte	0
 2428 0199 21       		.uleb128 0x21
 2429 019a 1D       		.uleb128 0x1d
 2430 019b 01       		.byte	0x1
 2431 019c 31       		.uleb128 0x31
 2432 019d 13       		.uleb128 0x13
 2433 019e 11       		.uleb128 0x11
 2434 019f 01       		.uleb128 0x1
 2435 01a0 12       		.uleb128 0x12
 2436 01a1 06       		.uleb128 0x6
 2437 01a2 58       		.uleb128 0x58
 2438 01a3 0B       		.uleb128 0xb
 2439 01a4 59       		.uleb128 0x59
 2440 01a5 05       		.uleb128 0x5
 2441 01a6 00       		.byte	0
 2442 01a7 00       		.byte	0
 2443 01a8 22       		.uleb128 0x22
 2444 01a9 05       		.uleb128 0x5
 2445 01aa 00       		.byte	0
 2446 01ab 31       		.uleb128 0x31
 2447 01ac 13       		.uleb128 0x13
 2448 01ad 02       		.uleb128 0x2
 2449 01ae 17       		.uleb128 0x17
 2450 01af 00       		.byte	0
 2451 01b0 00       		.byte	0
ARM GAS  /var/folders/vd/czx34qs52cd_f3nb04sxmghc0000gn/T//ccXcIPPt.s 			page 44


 2452 01b1 23       		.uleb128 0x23
 2453 01b2 898201   		.uleb128 0x4109
 2454 01b5 01       		.byte	0x1
 2455 01b6 11       		.uleb128 0x11
 2456 01b7 01       		.uleb128 0x1
 2457 01b8 31       		.uleb128 0x31
 2458 01b9 13       		.uleb128 0x13
 2459 01ba 00       		.byte	0
 2460 01bb 00       		.byte	0
 2461 01bc 24       		.uleb128 0x24
 2462 01bd 8A8201   		.uleb128 0x410a
 2463 01c0 00       		.byte	0
 2464 01c1 02       		.uleb128 0x2
 2465 01c2 18       		.uleb128 0x18
 2466 01c3 9142     		.uleb128 0x2111
 2467 01c5 18       		.uleb128 0x18
 2468 01c6 00       		.byte	0
 2469 01c7 00       		.byte	0
 2470 01c8 25       		.uleb128 0x25
 2471 01c9 1D       		.uleb128 0x1d
 2472 01ca 01       		.byte	0x1
 2473 01cb 31       		.uleb128 0x31
 2474 01cc 13       		.uleb128 0x13
 2475 01cd 11       		.uleb128 0x11
 2476 01ce 01       		.uleb128 0x1
 2477 01cf 12       		.uleb128 0x12
 2478 01d0 06       		.uleb128 0x6
 2479 01d1 58       		.uleb128 0x58
 2480 01d2 0B       		.uleb128 0xb
 2481 01d3 59       		.uleb128 0x59
 2482 01d4 0B       		.uleb128 0xb
 2483 01d5 00       		.byte	0
 2484 01d6 00       		.byte	0
 2485 01d7 26       		.uleb128 0x26
 2486 01d8 0B       		.uleb128 0xb
 2487 01d9 01       		.byte	0x1
 2488 01da 11       		.uleb128 0x11
 2489 01db 01       		.uleb128 0x1
 2490 01dc 12       		.uleb128 0x12
 2491 01dd 06       		.uleb128 0x6
 2492 01de 00       		.byte	0
 2493 01df 00       		.byte	0
 2494 01e0 27       		.uleb128 0x27
 2495 01e1 34       		.uleb128 0x34
 2496 01e2 00       		.byte	0
 2497 01e3 31       		.uleb128 0x31
 2498 01e4 13       		.uleb128 0x13
 2499 01e5 00       		.byte	0
 2500 01e6 00       		.byte	0
 2501 01e7 28       		.uleb128 0x28
 2502 01e8 2E       		.uleb128 0x2e
 2503 01e9 01       		.byte	0x1
 2504 01ea 3F       		.uleb128 0x3f
 2505 01eb 19       		.uleb128 0x19
 2506 01ec 03       		.uleb128 0x3
 2507 01ed 0E       		.uleb128 0xe
 2508 01ee 3A       		.uleb128 0x3a
ARM GAS  /var/folders/vd/czx34qs52cd_f3nb04sxmghc0000gn/T//ccXcIPPt.s 			page 45


 2509 01ef 0B       		.uleb128 0xb
 2510 01f0 3B       		.uleb128 0x3b
 2511 01f1 0B       		.uleb128 0xb
 2512 01f2 27       		.uleb128 0x27
 2513 01f3 19       		.uleb128 0x19
 2514 01f4 49       		.uleb128 0x49
 2515 01f5 13       		.uleb128 0x13
 2516 01f6 11       		.uleb128 0x11
 2517 01f7 01       		.uleb128 0x1
 2518 01f8 12       		.uleb128 0x12
 2519 01f9 06       		.uleb128 0x6
 2520 01fa 40       		.uleb128 0x40
 2521 01fb 18       		.uleb128 0x18
 2522 01fc 9742     		.uleb128 0x2117
 2523 01fe 19       		.uleb128 0x19
 2524 01ff 01       		.uleb128 0x1
 2525 0200 13       		.uleb128 0x13
 2526 0201 00       		.byte	0
 2527 0202 00       		.byte	0
 2528 0203 29       		.uleb128 0x29
 2529 0204 34       		.uleb128 0x34
 2530 0205 00       		.byte	0
 2531 0206 03       		.uleb128 0x3
 2532 0207 08       		.uleb128 0x8
 2533 0208 3A       		.uleb128 0x3a
 2534 0209 0B       		.uleb128 0xb
 2535 020a 3B       		.uleb128 0x3b
 2536 020b 0B       		.uleb128 0xb
 2537 020c 49       		.uleb128 0x49
 2538 020d 13       		.uleb128 0x13
 2539 020e 00       		.byte	0
 2540 020f 00       		.byte	0
 2541 0210 2A       		.uleb128 0x2a
 2542 0211 1D       		.uleb128 0x1d
 2543 0212 01       		.byte	0x1
 2544 0213 31       		.uleb128 0x31
 2545 0214 13       		.uleb128 0x13
 2546 0215 52       		.uleb128 0x52
 2547 0216 01       		.uleb128 0x1
 2548 0217 55       		.uleb128 0x55
 2549 0218 17       		.uleb128 0x17
 2550 0219 58       		.uleb128 0x58
 2551 021a 0B       		.uleb128 0xb
 2552 021b 59       		.uleb128 0x59
 2553 021c 0B       		.uleb128 0xb
 2554 021d 01       		.uleb128 0x1
 2555 021e 13       		.uleb128 0x13
 2556 021f 00       		.byte	0
 2557 0220 00       		.byte	0
 2558 0221 2B       		.uleb128 0x2b
 2559 0222 05       		.uleb128 0x5
 2560 0223 00       		.byte	0
 2561 0224 31       		.uleb128 0x31
 2562 0225 13       		.uleb128 0x13
 2563 0226 00       		.byte	0
 2564 0227 00       		.byte	0
 2565 0228 2C       		.uleb128 0x2c
ARM GAS  /var/folders/vd/czx34qs52cd_f3nb04sxmghc0000gn/T//ccXcIPPt.s 			page 46


 2566 0229 0B       		.uleb128 0xb
 2567 022a 01       		.byte	0x1
 2568 022b 55       		.uleb128 0x55
 2569 022c 17       		.uleb128 0x17
 2570 022d 00       		.byte	0
 2571 022e 00       		.byte	0
 2572 022f 2D       		.uleb128 0x2d
 2573 0230 1D       		.uleb128 0x1d
 2574 0231 01       		.byte	0x1
 2575 0232 31       		.uleb128 0x31
 2576 0233 13       		.uleb128 0x13
 2577 0234 52       		.uleb128 0x52
 2578 0235 01       		.uleb128 0x1
 2579 0236 55       		.uleb128 0x55
 2580 0237 17       		.uleb128 0x17
 2581 0238 58       		.uleb128 0x58
 2582 0239 0B       		.uleb128 0xb
 2583 023a 59       		.uleb128 0x59
 2584 023b 05       		.uleb128 0x5
 2585 023c 00       		.byte	0
 2586 023d 00       		.byte	0
 2587 023e 2E       		.uleb128 0x2e
 2588 023f 34       		.uleb128 0x34
 2589 0240 00       		.byte	0
 2590 0241 03       		.uleb128 0x3
 2591 0242 08       		.uleb128 0x8
 2592 0243 3A       		.uleb128 0x3a
 2593 0244 0B       		.uleb128 0xb
 2594 0245 3B       		.uleb128 0x3b
 2595 0246 0B       		.uleb128 0xb
 2596 0247 49       		.uleb128 0x49
 2597 0248 13       		.uleb128 0x13
 2598 0249 02       		.uleb128 0x2
 2599 024a 18       		.uleb128 0x18
 2600 024b 00       		.byte	0
 2601 024c 00       		.byte	0
 2602 024d 2F       		.uleb128 0x2f
 2603 024e 898201   		.uleb128 0x4109
 2604 0251 01       		.byte	0x1
 2605 0252 11       		.uleb128 0x11
 2606 0253 01       		.uleb128 0x1
 2607 0254 31       		.uleb128 0x31
 2608 0255 13       		.uleb128 0x13
 2609 0256 01       		.uleb128 0x1
 2610 0257 13       		.uleb128 0x13
 2611 0258 00       		.byte	0
 2612 0259 00       		.byte	0
 2613 025a 30       		.uleb128 0x30
 2614 025b 898201   		.uleb128 0x4109
 2615 025e 00       		.byte	0
 2616 025f 11       		.uleb128 0x11
 2617 0260 01       		.uleb128 0x1
 2618 0261 31       		.uleb128 0x31
 2619 0262 13       		.uleb128 0x13
 2620 0263 00       		.byte	0
 2621 0264 00       		.byte	0
 2622 0265 31       		.uleb128 0x31
ARM GAS  /var/folders/vd/czx34qs52cd_f3nb04sxmghc0000gn/T//ccXcIPPt.s 			page 47


 2623 0266 2E       		.uleb128 0x2e
 2624 0267 01       		.byte	0x1
 2625 0268 03       		.uleb128 0x3
 2626 0269 0E       		.uleb128 0xe
 2627 026a 3A       		.uleb128 0x3a
 2628 026b 0B       		.uleb128 0xb
 2629 026c 3B       		.uleb128 0x3b
 2630 026d 0B       		.uleb128 0xb
 2631 026e 27       		.uleb128 0x27
 2632 026f 19       		.uleb128 0x19
 2633 0270 20       		.uleb128 0x20
 2634 0271 0B       		.uleb128 0xb
 2635 0272 01       		.uleb128 0x1
 2636 0273 13       		.uleb128 0x13
 2637 0274 00       		.byte	0
 2638 0275 00       		.byte	0
 2639 0276 32       		.uleb128 0x32
 2640 0277 05       		.uleb128 0x5
 2641 0278 00       		.byte	0
 2642 0279 03       		.uleb128 0x3
 2643 027a 08       		.uleb128 0x8
 2644 027b 3A       		.uleb128 0x3a
 2645 027c 0B       		.uleb128 0xb
 2646 027d 3B       		.uleb128 0x3b
 2647 027e 0B       		.uleb128 0xb
 2648 027f 49       		.uleb128 0x49
 2649 0280 13       		.uleb128 0x13
 2650 0281 00       		.byte	0
 2651 0282 00       		.byte	0
 2652 0283 33       		.uleb128 0x33
 2653 0284 2E       		.uleb128 0x2e
 2654 0285 01       		.byte	0x1
 2655 0286 03       		.uleb128 0x3
 2656 0287 0E       		.uleb128 0xe
 2657 0288 3A       		.uleb128 0x3a
 2658 0289 0B       		.uleb128 0xb
 2659 028a 3B       		.uleb128 0x3b
 2660 028b 0B       		.uleb128 0xb
 2661 028c 27       		.uleb128 0x27
 2662 028d 19       		.uleb128 0x19
 2663 028e 49       		.uleb128 0x49
 2664 028f 13       		.uleb128 0x13
 2665 0290 20       		.uleb128 0x20
 2666 0291 0B       		.uleb128 0xb
 2667 0292 01       		.uleb128 0x1
 2668 0293 13       		.uleb128 0x13
 2669 0294 00       		.byte	0
 2670 0295 00       		.byte	0
 2671 0296 34       		.uleb128 0x34
 2672 0297 2E       		.uleb128 0x2e
 2673 0298 01       		.byte	0x1
 2674 0299 03       		.uleb128 0x3
 2675 029a 0E       		.uleb128 0xe
 2676 029b 3A       		.uleb128 0x3a
 2677 029c 0B       		.uleb128 0xb
 2678 029d 3B       		.uleb128 0x3b
 2679 029e 05       		.uleb128 0x5
ARM GAS  /var/folders/vd/czx34qs52cd_f3nb04sxmghc0000gn/T//ccXcIPPt.s 			page 48


 2680 029f 27       		.uleb128 0x27
 2681 02a0 19       		.uleb128 0x19
 2682 02a1 20       		.uleb128 0x20
 2683 02a2 0B       		.uleb128 0xb
 2684 02a3 01       		.uleb128 0x1
 2685 02a4 13       		.uleb128 0x13
 2686 02a5 00       		.byte	0
 2687 02a6 00       		.byte	0
 2688 02a7 35       		.uleb128 0x35
 2689 02a8 34       		.uleb128 0x34
 2690 02a9 00       		.byte	0
 2691 02aa 03       		.uleb128 0x3
 2692 02ab 0E       		.uleb128 0xe
 2693 02ac 49       		.uleb128 0x49
 2694 02ad 13       		.uleb128 0x13
 2695 02ae 34       		.uleb128 0x34
 2696 02af 19       		.uleb128 0x19
 2697 02b0 1C       		.uleb128 0x1c
 2698 02b1 0E       		.uleb128 0xe
 2699 02b2 00       		.byte	0
 2700 02b3 00       		.byte	0
 2701 02b4 36       		.uleb128 0x36
 2702 02b5 2E       		.uleb128 0x2e
 2703 02b6 00       		.byte	0
 2704 02b7 03       		.uleb128 0x3
 2705 02b8 0E       		.uleb128 0xe
 2706 02b9 3A       		.uleb128 0x3a
 2707 02ba 0B       		.uleb128 0xb
 2708 02bb 3B       		.uleb128 0x3b
 2709 02bc 05       		.uleb128 0x5
 2710 02bd 27       		.uleb128 0x27
 2711 02be 19       		.uleb128 0x19
 2712 02bf 20       		.uleb128 0x20
 2713 02c0 0B       		.uleb128 0xb
 2714 02c1 00       		.byte	0
 2715 02c2 00       		.byte	0
 2716 02c3 37       		.uleb128 0x37
 2717 02c4 2E       		.uleb128 0x2e
 2718 02c5 01       		.byte	0x1
 2719 02c6 03       		.uleb128 0x3
 2720 02c7 0E       		.uleb128 0xe
 2721 02c8 3A       		.uleb128 0x3a
 2722 02c9 0B       		.uleb128 0xb
 2723 02ca 3B       		.uleb128 0x3b
 2724 02cb 05       		.uleb128 0x5
 2725 02cc 27       		.uleb128 0x27
 2726 02cd 19       		.uleb128 0x19
 2727 02ce 49       		.uleb128 0x49
 2728 02cf 13       		.uleb128 0x13
 2729 02d0 20       		.uleb128 0x20
 2730 02d1 0B       		.uleb128 0xb
 2731 02d2 01       		.uleb128 0x1
 2732 02d3 13       		.uleb128 0x13
 2733 02d4 00       		.byte	0
 2734 02d5 00       		.byte	0
 2735 02d6 38       		.uleb128 0x38
 2736 02d7 05       		.uleb128 0x5
ARM GAS  /var/folders/vd/czx34qs52cd_f3nb04sxmghc0000gn/T//ccXcIPPt.s 			page 49


 2737 02d8 00       		.byte	0
 2738 02d9 03       		.uleb128 0x3
 2739 02da 08       		.uleb128 0x8
 2740 02db 3A       		.uleb128 0x3a
 2741 02dc 0B       		.uleb128 0xb
 2742 02dd 3B       		.uleb128 0x3b
 2743 02de 05       		.uleb128 0x5
 2744 02df 49       		.uleb128 0x49
 2745 02e0 13       		.uleb128 0x13
 2746 02e1 00       		.byte	0
 2747 02e2 00       		.byte	0
 2748 02e3 39       		.uleb128 0x39
 2749 02e4 34       		.uleb128 0x34
 2750 02e5 00       		.byte	0
 2751 02e6 03       		.uleb128 0x3
 2752 02e7 08       		.uleb128 0x8
 2753 02e8 3A       		.uleb128 0x3a
 2754 02e9 0B       		.uleb128 0xb
 2755 02ea 3B       		.uleb128 0x3b
 2756 02eb 05       		.uleb128 0x5
 2757 02ec 49       		.uleb128 0x49
 2758 02ed 13       		.uleb128 0x13
 2759 02ee 00       		.byte	0
 2760 02ef 00       		.byte	0
 2761 02f0 3A       		.uleb128 0x3a
 2762 02f1 05       		.uleb128 0x5
 2763 02f2 00       		.byte	0
 2764 02f3 03       		.uleb128 0x3
 2765 02f4 0E       		.uleb128 0xe
 2766 02f5 3A       		.uleb128 0x3a
 2767 02f6 0B       		.uleb128 0xb
 2768 02f7 3B       		.uleb128 0x3b
 2769 02f8 05       		.uleb128 0x5
 2770 02f9 49       		.uleb128 0x49
 2771 02fa 13       		.uleb128 0x13
 2772 02fb 00       		.byte	0
 2773 02fc 00       		.byte	0
 2774 02fd 3B       		.uleb128 0x3b
 2775 02fe 2E       		.uleb128 0x2e
 2776 02ff 00       		.byte	0
 2777 0300 3F       		.uleb128 0x3f
 2778 0301 19       		.uleb128 0x19
 2779 0302 3C       		.uleb128 0x3c
 2780 0303 19       		.uleb128 0x19
 2781 0304 6E       		.uleb128 0x6e
 2782 0305 0E       		.uleb128 0xe
 2783 0306 03       		.uleb128 0x3
 2784 0307 0E       		.uleb128 0xe
 2785 0308 3A       		.uleb128 0x3a
 2786 0309 0B       		.uleb128 0xb
 2787 030a 3B       		.uleb128 0x3b
 2788 030b 05       		.uleb128 0x5
 2789 030c 00       		.byte	0
 2790 030d 00       		.byte	0
 2791 030e 00       		.byte	0
 2792              		.section	.debug_loc,"",%progbits
 2793              	.Ldebug_loc0:
ARM GAS  /var/folders/vd/czx34qs52cd_f3nb04sxmghc0000gn/T//ccXcIPPt.s 			page 50


 2794              	.LLST9:
 2795 0000 00000000 		.4byte	.LVL22
 2796 0004 0B000000 		.4byte	.LVL24-1
 2797 0008 0100     		.2byte	0x1
 2798 000a 50       		.byte	0x50
 2799 000b 0B000000 		.4byte	.LVL24-1
 2800 000f 14000000 		.4byte	.LFE282
 2801 0013 0400     		.2byte	0x4
 2802 0015 F3       		.byte	0xf3
 2803 0016 01       		.uleb128 0x1
 2804 0017 50       		.byte	0x50
 2805 0018 9F       		.byte	0x9f
 2806 0019 00000000 		.4byte	0
 2807 001d 00000000 		.4byte	0
 2808              	.LLST10:
 2809 0021 00000000 		.4byte	.LVL22
 2810 0025 0B000000 		.4byte	.LVL24-1
 2811 0029 0100     		.2byte	0x1
 2812 002b 51       		.byte	0x51
 2813 002c 0B000000 		.4byte	.LVL24-1
 2814 0030 14000000 		.4byte	.LFE282
 2815 0034 0400     		.2byte	0x4
 2816 0036 F3       		.byte	0xf3
 2817 0037 01       		.uleb128 0x1
 2818 0038 51       		.byte	0x51
 2819 0039 9F       		.byte	0x9f
 2820 003a 00000000 		.4byte	0
 2821 003e 00000000 		.4byte	0
 2822              	.LLST11:
 2823 0042 00000000 		.4byte	.LVL22
 2824 0046 08000000 		.4byte	.LVL23
 2825 004a 0300     		.2byte	0x3
 2826 004c 08       		.byte	0x8
 2827 004d 20       		.byte	0x20
 2828 004e 9F       		.byte	0x9f
 2829 004f 00000000 		.4byte	0
 2830 0053 00000000 		.4byte	0
 2831              	.LLST12:
 2832 0057 08000000 		.4byte	.LVL23
 2833 005b 0B000000 		.4byte	.LVL24-1
 2834 005f 0100     		.2byte	0x1
 2835 0061 51       		.byte	0x51
 2836 0062 0B000000 		.4byte	.LVL24-1
 2837 0066 0C000000 		.4byte	.LVL24
 2838 006a 0400     		.2byte	0x4
 2839 006c F3       		.byte	0xf3
 2840 006d 01       		.uleb128 0x1
 2841 006e 51       		.byte	0x51
 2842 006f 9F       		.byte	0x9f
 2843 0070 00000000 		.4byte	0
 2844 0074 00000000 		.4byte	0
 2845              	.LLST13:
 2846 0078 08000000 		.4byte	.LVL23
 2847 007c 0B000000 		.4byte	.LVL24-1
 2848 0080 0100     		.2byte	0x1
 2849 0082 50       		.byte	0x50
 2850 0083 0B000000 		.4byte	.LVL24-1
ARM GAS  /var/folders/vd/czx34qs52cd_f3nb04sxmghc0000gn/T//ccXcIPPt.s 			page 51


 2851 0087 0C000000 		.4byte	.LVL24
 2852 008b 0400     		.2byte	0x4
 2853 008d F3       		.byte	0xf3
 2854 008e 01       		.uleb128 0x1
 2855 008f 50       		.byte	0x50
 2856 0090 9F       		.byte	0x9f
 2857 0091 00000000 		.4byte	0
 2858 0095 00000000 		.4byte	0
 2859              	.LLST14:
 2860 0099 0C000000 		.4byte	.LVL24
 2861 009d 12000000 		.4byte	.LVL25
 2862 00a1 0200     		.2byte	0x2
 2863 00a3 30       		.byte	0x30
 2864 00a4 9F       		.byte	0x9f
 2865 00a5 00000000 		.4byte	0
 2866 00a9 00000000 		.4byte	0
 2867              	.LLST6:
 2868 00ad 00000000 		.4byte	.LVL12
 2869 00b1 08000000 		.4byte	.LVL13
 2870 00b5 0300     		.2byte	0x3
 2871 00b7 08       		.byte	0x8
 2872 00b8 20       		.byte	0x20
 2873 00b9 9F       		.byte	0x9f
 2874 00ba 00000000 		.4byte	0
 2875 00be 00000000 		.4byte	0
 2876              	.LLST7:
 2877 00c2 0C000000 		.4byte	.LVL14
 2878 00c6 12000000 		.4byte	.LVL15
 2879 00ca 0100     		.2byte	0x1
 2880 00cc 52       		.byte	0x52
 2881 00cd 00000000 		.4byte	0
 2882 00d1 00000000 		.4byte	0
 2883              	.LLST8:
 2884 00d5 24000000 		.4byte	.LVL19
 2885 00d9 28000000 		.4byte	.LVL20
 2886 00dd 0200     		.2byte	0x2
 2887 00df 30       		.byte	0x30
 2888 00e0 9F       		.byte	0x9f
 2889 00e1 00000000 		.4byte	0
 2890 00e5 00000000 		.4byte	0
 2891              	.LLST0:
 2892 00e9 00000000 		.4byte	.LVL0
 2893 00ed 24000000 		.4byte	.LVL6
 2894 00f1 0100     		.2byte	0x1
 2895 00f3 50       		.byte	0x50
 2896 00f4 24000000 		.4byte	.LVL6
 2897 00f8 34000000 		.4byte	.LVL10
 2898 00fc 0400     		.2byte	0x4
 2899 00fe F3       		.byte	0xf3
 2900 00ff 01       		.uleb128 0x1
 2901 0100 50       		.byte	0x50
 2902 0101 9F       		.byte	0x9f
 2903 0102 34000000 		.4byte	.LVL10
 2904 0106 37000000 		.4byte	.LVL11-1
 2905 010a 0100     		.2byte	0x1
 2906 010c 50       		.byte	0x50
 2907 010d 37000000 		.4byte	.LVL11-1
ARM GAS  /var/folders/vd/czx34qs52cd_f3nb04sxmghc0000gn/T//ccXcIPPt.s 			page 52


 2908 0111 40000000 		.4byte	.LFE280
 2909 0115 0400     		.2byte	0x4
 2910 0117 F3       		.byte	0xf3
 2911 0118 01       		.uleb128 0x1
 2912 0119 50       		.byte	0x50
 2913 011a 9F       		.byte	0x9f
 2914 011b 00000000 		.4byte	0
 2915 011f 00000000 		.4byte	0
 2916              	.LLST1:
 2917 0123 00000000 		.4byte	.LVL0
 2918 0127 14000000 		.4byte	.LVL4
 2919 012b 0100     		.2byte	0x1
 2920 012d 51       		.byte	0x51
 2921 012e 14000000 		.4byte	.LVL4
 2922 0132 24000000 		.4byte	.LVL6
 2923 0136 0200     		.2byte	0x2
 2924 0138 74       		.byte	0x74
 2925 0139 24       		.sleb128 36
 2926 013a 24000000 		.4byte	.LVL6
 2927 013e 2C000000 		.4byte	.LVL8
 2928 0142 0400     		.2byte	0x4
 2929 0144 F3       		.byte	0xf3
 2930 0145 01       		.uleb128 0x1
 2931 0146 51       		.byte	0x51
 2932 0147 9F       		.byte	0x9f
 2933 0148 2C000000 		.4byte	.LVL8
 2934 014c 34000000 		.4byte	.LVL10
 2935 0150 0100     		.2byte	0x1
 2936 0152 50       		.byte	0x50
 2937 0153 34000000 		.4byte	.LVL10
 2938 0157 37000000 		.4byte	.LVL11-1
 2939 015b 0200     		.2byte	0x2
 2940 015d 74       		.byte	0x74
 2941 015e 24       		.sleb128 36
 2942 015f 37000000 		.4byte	.LVL11-1
 2943 0163 40000000 		.4byte	.LFE280
 2944 0167 0400     		.2byte	0x4
 2945 0169 F3       		.byte	0xf3
 2946 016a 01       		.uleb128 0x1
 2947 016b 51       		.byte	0x51
 2948 016c 9F       		.byte	0x9f
 2949 016d 00000000 		.4byte	0
 2950 0171 00000000 		.4byte	0
 2951              	.LLST2:
 2952 0175 08000000 		.4byte	.LVL1
 2953 0179 0C000000 		.4byte	.LVL2
 2954 017d 0300     		.2byte	0x3
 2955 017f 08       		.byte	0x8
 2956 0180 20       		.byte	0x20
 2957 0181 9F       		.byte	0x9f
 2958 0182 00000000 		.4byte	0
 2959 0186 00000000 		.4byte	0
 2960              	.LLST3:
 2961 018a 10000000 		.4byte	.LVL3
 2962 018e 20000000 		.4byte	.LVL5
 2963 0192 0300     		.2byte	0x3
 2964 0194 70       		.byte	0x70
ARM GAS  /var/folders/vd/czx34qs52cd_f3nb04sxmghc0000gn/T//ccXcIPPt.s 			page 53


 2965 0195 2C       		.sleb128 44
 2966 0196 9F       		.byte	0x9f
 2967 0197 00000000 		.4byte	0
 2968 019b 00000000 		.4byte	0
 2969              	.LLST4:
 2970 019f 10000000 		.4byte	.LVL3
 2971 01a3 20000000 		.4byte	.LVL5
 2972 01a7 0100     		.2byte	0x1
 2973 01a9 54       		.byte	0x54
 2974 01aa 00000000 		.4byte	0
 2975 01ae 00000000 		.4byte	0
 2976              	.LLST5:
 2977 01b2 2C000000 		.4byte	.LVL8
 2978 01b6 32000000 		.4byte	.LVL9
 2979 01ba 0200     		.2byte	0x2
 2980 01bc 30       		.byte	0x30
 2981 01bd 9F       		.byte	0x9f
 2982 01be 00000000 		.4byte	0
 2983 01c2 00000000 		.4byte	0
 2984              		.section	.debug_aranges,"",%progbits
 2985 0000 2C000000 		.4byte	0x2c
 2986 0004 0200     		.2byte	0x2
 2987 0006 00000000 		.4byte	.Ldebug_info0
 2988 000a 04       		.byte	0x4
 2989 000b 00       		.byte	0
 2990 000c 0000     		.2byte	0
 2991 000e 0000     		.2byte	0
 2992 0010 00000000 		.4byte	.LFB280
 2993 0014 40000000 		.4byte	.LFE280-.LFB280
 2994 0018 00000000 		.4byte	.LFB281
 2995 001c 40000000 		.4byte	.LFE281-.LFB281
 2996 0020 00000000 		.4byte	.LFB282
 2997 0024 14000000 		.4byte	.LFE282-.LFB282
 2998 0028 00000000 		.4byte	0
 2999 002c 00000000 		.4byte	0
 3000              		.section	.debug_ranges,"",%progbits
 3001              	.Ldebug_ranges0:
 3002 0000 04000000 		.4byte	.LBB52
 3003 0004 06000000 		.4byte	.LBE52
 3004 0008 08000000 		.4byte	.LBB59
 3005 000c 0C000000 		.4byte	.LBE59
 3006 0010 00000000 		.4byte	0
 3007 0014 00000000 		.4byte	0
 3008 0018 0C000000 		.4byte	.LBB60
 3009 001c 0E000000 		.4byte	.LBE60
 3010 0020 14000000 		.4byte	.LBB64
 3011 0024 1A000000 		.4byte	.LBE64
 3012 0028 1E000000 		.4byte	.LBB65
 3013 002c 20000000 		.4byte	.LBE65
 3014 0030 00000000 		.4byte	0
 3015 0034 00000000 		.4byte	0
 3016 0038 16000000 		.4byte	.LBB77
 3017 003c 1A000000 		.4byte	.LBE77
 3018 0040 1C000000 		.4byte	.LBB80
 3019 0044 1E000000 		.4byte	.LBE80
 3020 0048 00000000 		.4byte	0
 3021 004c 00000000 		.4byte	0
ARM GAS  /var/folders/vd/czx34qs52cd_f3nb04sxmghc0000gn/T//ccXcIPPt.s 			page 54


 3022 0050 1E000000 		.4byte	.LBB81
 3023 0054 20000000 		.4byte	.LBE81
 3024 0058 24000000 		.4byte	.LBB90
 3025 005c 28000000 		.4byte	.LBE90
 3026 0060 00000000 		.4byte	0
 3027 0064 00000000 		.4byte	0
 3028 0068 00000000 		.4byte	.LFB280
 3029 006c 40000000 		.4byte	.LFE280
 3030 0070 00000000 		.4byte	.LFB281
 3031 0074 40000000 		.4byte	.LFE281
 3032 0078 00000000 		.4byte	.LFB282
 3033 007c 14000000 		.4byte	.LFE282
 3034 0080 00000000 		.4byte	0
 3035 0084 00000000 		.4byte	0
 3036              		.section	.debug_line,"",%progbits
 3037              	.Ldebug_line0:
 3038 0000 C3030000 		.section	.debug_str,"MS",%progbits,1
 3038      0200E702 
 3038      00000201 
 3038      FB0E0D00 
 3038      01010101 
 3039              	.LASF54:
 3040 0000 72656164 		.ascii	"ready_list_t\000"
 3040      795F6C69 
 3040      73745F74 
 3040      00
 3041              	.LASF151:
 3042 000d 71756575 		.ascii	"queue_insert\000"
 3042      655F696E 
 3042      73657274 
 3042      00
 3043              	.LASF4:
 3044 001a 73697A65 		.ascii	"size_t\000"
 3044      5F7400
 3045              	.LASF60:
 3046 0021 64656C74 		.ascii	"delta\000"
 3046      6100
 3047              	.LASF85:
 3048 0027 7264796D 		.ascii	"rdymsg\000"
 3048      736700
 3049              	.LASF20:
 3050 002e 75696E74 		.ascii	"uint64_t\000"
 3050      36345F74 
 3050      00
 3051              	.LASF5:
 3052 0037 5F5F7569 		.ascii	"__uint8_t\000"
 3052      6E74385F 
 3052      7400
 3053              	.LASF53:
 3054 0041 70726576 		.ascii	"prev\000"
 3054      00
 3055              	.LASF82:
 3056 0046 706F7274 		.ascii	"port_intctx\000"
 3056      5F696E74 
 3056      63747800 
 3057              	.LASF65:
 3058 0052 73797374 		.ascii	"system_debug_t\000"
ARM GAS  /var/folders/vd/czx34qs52cd_f3nb04sxmghc0000gn/T//ccXcIPPt.s 			page 55


 3058      656D5F64 
 3058      65627567 
 3058      5F7400
 3059              	.LASF128:
 3060 0061 70726F76 		.ascii	"provider\000"
 3060      69646572 
 3060      00
 3061              	.LASF138:
 3062 006a 73656D5F 		.ascii	"sem_list\000"
 3062      6C697374 
 3062      00
 3063              	.LASF154:
 3064 0073 706F7274 		.ascii	"port_lock\000"
 3064      5F6C6F63 
 3064      6B00
 3065              	.LASF120:
 3066 007d 6D656D67 		.ascii	"memgetfunc_t\000"
 3066      65746675 
 3066      6E635F74 
 3066      00
 3067              	.LASF15:
 3068 008a 6C6F6E67 		.ascii	"long long unsigned int\000"
 3068      206C6F6E 
 3068      6720756E 
 3068      7369676E 
 3068      65642069 
 3069              	.LASF86:
 3070 00a1 65786974 		.ascii	"exitcode\000"
 3070      636F6465 
 3070      00
 3071              	.LASF72:
 3072 00aa 6D61696E 		.ascii	"mainthread\000"
 3072      74687265 
 3072      616400
 3073              	.LASF89:
 3074 00b5 73656E74 		.ascii	"sentmsg\000"
 3074      6D736700 
 3075              	.LASF62:
 3076 00bd 76697274 		.ascii	"virtual_timers_list_t\000"
 3076      75616C5F 
 3076      74696D65 
 3076      72735F6C 
 3076      6973745F 
 3077              	.LASF75:
 3078 00d3 49544D5F 		.ascii	"ITM_RxBuffer\000"
 3078      52784275 
 3078      66666572 
 3078      00
 3079              	.LASF131:
 3080 00e0 64796E5F 		.ascii	"dyn_element_t\000"
 3080      656C656D 
 3080      656E745F 
 3080      7400
 3081              	.LASF50:
 3082 00ee 6E657874 		.ascii	"next\000"
 3082      00
 3083              	.LASF52:
ARM GAS  /var/folders/vd/czx34qs52cd_f3nb04sxmghc0000gn/T//ccXcIPPt.s 			page 56


 3084 00f3 63685F74 		.ascii	"ch_threads_queue\000"
 3084      68726561 
 3084      64735F71 
 3084      75657565 
 3084      00
 3085              	.LASF160:
 3086 0104 474E5520 		.ascii	"GNU C11 7.2.1 20170904 (release) [ARM/embedded-7-br"
 3086      43313120 
 3086      372E322E 
 3086      31203230 
 3086      31373039 
 3087 0137 616E6368 		.ascii	"anch revision 255204] -mcpu=cortex-m4 -mno-thumb-in"
 3087      20726576 
 3087      6973696F 
 3087      6E203235 
 3087      35323034 
 3088 016a 74657277 		.ascii	"terwork -mthumb -ggdb -O2 -fomit-frame-pointer -fal"
 3088      6F726B20 
 3088      2D6D7468 
 3088      756D6220 
 3088      2D676764 
 3089 019d 69676E2D 		.ascii	"ign-functions=16 -ffunction-sections -fdata-section"
 3089      66756E63 
 3089      74696F6E 
 3089      733D3136 
 3089      202D6666 
 3090 01d0 73202D66 		.ascii	"s -fno-common\000"
 3090      6E6F2D63 
 3090      6F6D6D6F 
 3090      6E00
 3091              	.LASF1:
 3092 01de 6C6F6E67 		.ascii	"long long int\000"
 3092      206C6F6E 
 3092      6720696E 
 3092      7400
 3093              	.LASF3:
 3094 01ec 7369676E 		.ascii	"signed char\000"
 3094      65642063 
 3094      68617200 
 3095              	.LASF100:
 3096 01f8 73697A65 		.ascii	"size\000"
 3096      00
 3097              	.LASF70:
 3098 01fd 726C6973 		.ascii	"rlist\000"
 3098      7400
 3099              	.LASF156:
 3100 0203 62617365 		.ascii	"basePri\000"
 3100      50726900 
 3101              	.LASF71:
 3102 020b 76746C69 		.ascii	"vtlist\000"
 3102      737400
 3103              	.LASF153:
 3104 0212 706F7274 		.ascii	"port_unlock\000"
 3104      5F756E6C 
 3104      6F636B00 
 3105              	.LASF41:
 3106 021e 6D736771 		.ascii	"msgqueue\000"
ARM GAS  /var/folders/vd/czx34qs52cd_f3nb04sxmghc0000gn/T//ccXcIPPt.s 			page 57


 3106      75657565 
 3106      00
 3107              	.LASF37:
 3108 0227 73746174 		.ascii	"state\000"
 3108      6500
 3109              	.LASF11:
 3110 022d 6C6F6E67 		.ascii	"long int\000"
 3110      20696E74 
 3110      00
 3111              	.LASF145:
 3112 0236 63684D73 		.ascii	"chMsgSend\000"
 3112      6753656E 
 3112      6400
 3113              	.LASF23:
 3114 0240 74737461 		.ascii	"tstate_t\000"
 3114      74655F74 
 3114      00
 3115              	.LASF61:
 3116 0249 66756E63 		.ascii	"func\000"
 3116      00
 3117              	.LASF98:
 3118 024e 6964656E 		.ascii	"identifier\000"
 3118      74696669 
 3118      657200
 3119              	.LASF17:
 3120 0259 75696E74 		.ascii	"uint16_t\000"
 3120      31365F74 
 3120      00
 3121              	.LASF116:
 3122 0262 63686465 		.ascii	"chdebug_t\000"
 3122      6275675F 
 3122      7400
 3123              	.LASF114:
 3124 026c 6F66665F 		.ascii	"off_preempt\000"
 3124      70726565 
 3124      6D707400 
 3125              	.LASF12:
 3126 0278 5F5F7569 		.ascii	"__uint32_t\000"
 3126      6E743332 
 3126      5F7400
 3127              	.LASF79:
 3128 0283 72656761 		.ascii	"regarm_t\000"
 3128      726D5F74 
 3128      00
 3129              	.LASF140:
 3130 028c 6D62785F 		.ascii	"mbx_list\000"
 3130      6C697374 
 3130      00
 3131              	.LASF66:
 3132 0295 63685F73 		.ascii	"ch_system_debug\000"
 3132      79737465 
 3132      6D5F6465 
 3132      62756700 
 3133              	.LASF40:
 3134 02a5 77616974 		.ascii	"waiting\000"
 3134      696E6700 
 3135              	.LASF78:
ARM GAS  /var/folders/vd/czx34qs52cd_f3nb04sxmghc0000gn/T//ccXcIPPt.s 			page 58


 3136 02ad 41504250 		.ascii	"APBPrescTable\000"
 3136      72657363 
 3136      5461626C 
 3136      6500
 3137              	.LASF99:
 3138 02bb 7A65726F 		.ascii	"zero\000"
 3138      00
 3139              	.LASF118:
 3140 02c0 6D757465 		.ascii	"mutex_t\000"
 3140      785F7400 
 3141              	.LASF127:
 3142 02c8 616C6967 		.ascii	"align\000"
 3142      6E00
 3143              	.LASF74:
 3144 02ce 73797369 		.ascii	"sysinterval_t\000"
 3144      6E746572 
 3144      76616C5F 
 3144      7400
 3145              	.LASF28:
 3146 02dc 636E745F 		.ascii	"cnt_t\000"
 3146      7400
 3147              	.LASF0:
 3148 02e2 756E7369 		.ascii	"unsigned int\000"
 3148      676E6564 
 3148      20696E74 
 3148      00
 3149              	.LASF76:
 3150 02ef 53797374 		.ascii	"SystemCoreClock\000"
 3150      656D436F 
 3150      7265436C 
 3150      6F636B00 
 3151              	.LASF90:
 3152 02ff 77747365 		.ascii	"wtsemp\000"
 3152      6D7000
 3153              	.LASF162:
 3154 0306 2F557365 		.ascii	"/Users/lantian/Projects/stm32f407vet6/dev\000"
 3154      72732F6C 
 3154      616E7469 
 3154      616E2F50 
 3154      726F6A65 
 3155              	.LASF88:
 3156 0330 77747472 		.ascii	"wttrp\000"
 3156      7000
 3157              	.LASF117:
 3158 0336 63685F64 		.ascii	"ch_debug\000"
 3158      65627567 
 3158      00
 3159              	.LASF129:
 3160 033f 6D656D6F 		.ascii	"memory_pool_t\000"
 3160      72795F70 
 3160      6F6F6C5F 
 3160      7400
 3161              	.LASF35:
 3162 034d 6E616D65 		.ascii	"name\000"
 3162      00
 3163              	.LASF31:
 3164 0352 71756575 		.ascii	"queue\000"
ARM GAS  /var/folders/vd/czx34qs52cd_f3nb04sxmghc0000gn/T//ccXcIPPt.s 			page 59


 3164      6500
 3165              	.LASF45:
 3166 0358 6D706F6F 		.ascii	"mpool\000"
 3166      6C00
 3167              	.LASF113:
 3168 035e 6F66665F 		.ascii	"off_refs\000"
 3168      72656673 
 3168      00
 3169              	.LASF137:
 3170 0367 6275665F 		.ascii	"buf_list\000"
 3170      6C697374 
 3170      00
 3171              	.LASF48:
 3172 0370 63685F74 		.ascii	"ch_thread\000"
 3172      68726561 
 3172      6400
 3173              	.LASF26:
 3174 037a 6D73675F 		.ascii	"msg_t\000"
 3174      7400
 3175              	.LASF29:
 3176 0380 75636E74 		.ascii	"ucnt_t\000"
 3176      5F7400
 3177              	.LASF42:
 3178 0387 6570656E 		.ascii	"epending\000"
 3178      64696E67 
 3178      00
 3179              	.LASF133:
 3180 0390 64796E5F 		.ascii	"dyn_list_t\000"
 3180      6C697374 
 3180      5F7400
 3181              	.LASF68:
 3182 039b 63685F73 		.ascii	"ch_system_t\000"
 3182      79737465 
 3182      6D5F7400 
 3183              	.LASF106:
 3184 03a7 6F66665F 		.ascii	"off_ctx\000"
 3184      63747800 
 3185              	.LASF22:
 3186 03af 746D6F64 		.ascii	"tmode_t\000"
 3186      655F7400 
 3187              	.LASF55:
 3188 03b7 63685F72 		.ascii	"ch_ready_list\000"
 3188      65616479 
 3188      5F6C6973 
 3188      7400
 3189              	.LASF27:
 3190 03c5 6576656E 		.ascii	"eventmask_t\000"
 3190      746D6173 
 3190      6B5F7400 
 3191              	.LASF77:
 3192 03d1 41484250 		.ascii	"AHBPrescTable\000"
 3192      72657363 
 3192      5461626C 
 3192      6500
 3193              	.LASF122:
 3194 03df 656E646D 		.ascii	"endmem\000"
 3194      656D00
ARM GAS  /var/folders/vd/czx34qs52cd_f3nb04sxmghc0000gn/T//ccXcIPPt.s 			page 60


 3195              	.LASF10:
 3196 03e6 5F5F696E 		.ascii	"__int32_t\000"
 3196      7433325F 
 3196      7400
 3197              	.LASF80:
 3198 03f0 73746B61 		.ascii	"stkalign_t\000"
 3198      6C69676E 
 3198      5F7400
 3199              	.LASF33:
 3200 03fb 6E657765 		.ascii	"newer\000"
 3200      7200
 3201              	.LASF44:
 3202 0401 7265616C 		.ascii	"realprio\000"
 3202      7072696F 
 3202      00
 3203              	.LASF101:
 3204 040a 76657273 		.ascii	"version\000"
 3204      696F6E00 
 3205              	.LASF21:
 3206 0412 7274636E 		.ascii	"rtcnt_t\000"
 3206      745F7400 
 3207              	.LASF46:
 3208 041a 74687265 		.ascii	"thread_reference_t\000"
 3208      61645F72 
 3208      65666572 
 3208      656E6365 
 3208      5F7400
 3209              	.LASF63:
 3210 042d 63685F76 		.ascii	"ch_virtual_timers_list\000"
 3210      69727475 
 3210      616C5F74 
 3210      696D6572 
 3210      735F6C69 
 3211              	.LASF2:
 3212 0444 6C6F6E67 		.ascii	"long double\000"
 3212      20646F75 
 3212      626C6500 
 3213              	.LASF132:
 3214 0450 63685F64 		.ascii	"ch_dyn_list\000"
 3214      796E5F6C 
 3214      69737400 
 3215              	.LASF107:
 3216 045c 6F66665F 		.ascii	"off_newer\000"
 3216      6E657765 
 3216      7200
 3217              	.LASF81:
 3218 0466 706F7274 		.ascii	"port_context\000"
 3218      5F636F6E 
 3218      74657874 
 3218      00
 3219              	.LASF84:
 3220 0473 746D5F63 		.ascii	"tm_calibration_t\000"
 3220      616C6962 
 3220      72617469 
 3220      6F6E5F74 
 3220      00
 3221              	.LASF32:
ARM GAS  /var/folders/vd/czx34qs52cd_f3nb04sxmghc0000gn/T//ccXcIPPt.s 			page 61


 3222 0484 7072696F 		.ascii	"prio\000"
 3222      00
 3223              	.LASF139:
 3224 0489 73656D5F 		.ascii	"sem_pool\000"
 3224      706F6F6C 
 3224      00
 3225              	.LASF56:
 3226 0492 63757272 		.ascii	"current\000"
 3226      656E7400 
 3227              	.LASF14:
 3228 049a 5F5F7569 		.ascii	"__uint64_t\000"
 3228      6E743634 
 3228      5F7400
 3229              	.LASF123:
 3230 04a5 6D656D63 		.ascii	"memcore_t\000"
 3230      6F72655F 
 3230      7400
 3231              	.LASF24:
 3232 04af 74726566 		.ascii	"trefs_t\000"
 3232      735F7400 
 3233              	.LASF39:
 3234 04b7 72656673 		.ascii	"refs\000"
 3234      00
 3235              	.LASF58:
 3236 04bc 76697274 		.ascii	"virtual_timer_t\000"
 3236      75616C5F 
 3236      74696D65 
 3236      725F7400 
 3237              	.LASF130:
 3238 04cc 63685F64 		.ascii	"ch_dyn_element\000"
 3238      796E5F65 
 3238      6C656D65 
 3238      6E7400
 3239              	.LASF25:
 3240 04db 74707269 		.ascii	"tprio_t\000"
 3240      6F5F7400 
 3241              	.LASF158:
 3242 04e3 63685363 		.ascii	"chSchGoSleepS\000"
 3242      68476F53 
 3242      6C656570 
 3242      5300
 3243              	.LASF104:
 3244 04f1 74687265 		.ascii	"threadsize\000"
 3244      61647369 
 3244      7A6500
 3245              	.LASF119:
 3246 04fc 5F426F6F 		.ascii	"_Bool\000"
 3246      6C00
 3247              	.LASF18:
 3248 0502 696E7433 		.ascii	"int32_t\000"
 3248      325F7400 
 3249              	.LASF6:
 3250 050a 756E7369 		.ascii	"unsigned char\000"
 3250      676E6564 
 3250      20636861 
 3250      7200
 3251              	.LASF105:
ARM GAS  /var/folders/vd/czx34qs52cd_f3nb04sxmghc0000gn/T//ccXcIPPt.s 			page 62


 3252 0518 6F66665F 		.ascii	"off_prio\000"
 3252      7072696F 
 3252      00
 3253              	.LASF110:
 3254 0521 6F66665F 		.ascii	"off_stklimit\000"
 3254      73746B6C 
 3254      696D6974 
 3254      00
 3255              	.LASF7:
 3256 052e 73686F72 		.ascii	"short int\000"
 3256      7420696E 
 3256      7400
 3257              	.LASF64:
 3258 0538 6C617374 		.ascii	"lasttime\000"
 3258      74696D65 
 3258      00
 3259              	.LASF92:
 3260 0541 65776D61 		.ascii	"ewmask\000"
 3260      736B00
 3261              	.LASF69:
 3262 0548 63685F73 		.ascii	"ch_system\000"
 3262      79737465 
 3262      6D00
 3263              	.LASF146:
 3264 0552 5F5F6675 		.ascii	"__func__\000"
 3264      6E635F5F 
 3264      00
 3265              	.LASF143:
 3266 055b 63685F66 		.ascii	"ch_factory\000"
 3266      6163746F 
 3266      727900
 3267              	.LASF152:
 3268 0566 63685379 		.ascii	"chSysLock\000"
 3268      734C6F63 
 3268      6B00
 3269              	.LASF136:
 3270 0570 6F626A5F 		.ascii	"obj_pool\000"
 3270      706F6F6C 
 3270      00
 3271              	.LASF134:
 3272 0579 63685F6F 		.ascii	"ch_objects_factory\000"
 3272      626A6563 
 3272      74735F66 
 3272      6163746F 
 3272      727900
 3273              	.LASF59:
 3274 058c 63685F76 		.ascii	"ch_virtual_timer\000"
 3274      69727475 
 3274      616C5F74 
 3274      696D6572 
 3274      00
 3275              	.LASF163:
 3276 059d 63684D73 		.ascii	"chMsgRelease\000"
 3276      6752656C 
 3276      65617365 
 3276      00
 3277              	.LASF93:
ARM GAS  /var/folders/vd/czx34qs52cd_f3nb04sxmghc0000gn/T//ccXcIPPt.s 			page 63


 3278 05aa 63685F73 		.ascii	"ch_semaphore\000"
 3278      656D6170 
 3278      686F7265 
 3278      00
 3279              	.LASF115:
 3280 05b7 6F66665F 		.ascii	"off_time\000"
 3280      74696D65 
 3280      00
 3281              	.LASF97:
 3282 05c0 63685F69 		.ascii	"ch_idle_thread_wa\000"
 3282      646C655F 
 3282      74687265 
 3282      61645F77 
 3282      6100
 3283              	.LASF103:
 3284 05d2 74696D65 		.ascii	"timesize\000"
 3284      73697A65 
 3284      00
 3285              	.LASF19:
 3286 05db 75696E74 		.ascii	"uint32_t\000"
 3286      33325F74 
 3286      00
 3287              	.LASF91:
 3288 05e4 77746D74 		.ascii	"wtmtxp\000"
 3288      787000
 3289              	.LASF159:
 3290 05eb 63685363 		.ascii	"chSchReadyI\000"
 3290      68526561 
 3290      64794900 
 3291              	.LASF49:
 3292 05f7 63685F74 		.ascii	"ch_threads_list\000"
 3292      68726561 
 3292      64735F6C 
 3292      69737400 
 3293              	.LASF95:
 3294 0607 6F776E65 		.ascii	"owner\000"
 3294      7200
 3295              	.LASF13:
 3296 060d 6C6F6E67 		.ascii	"long unsigned int\000"
 3296      20756E73 
 3296      69676E65 
 3296      6420696E 
 3296      7400
 3297              	.LASF36:
 3298 061f 77616261 		.ascii	"wabase\000"
 3298      736500
 3299              	.LASF96:
 3300 0626 63686172 		.ascii	"char\000"
 3300      00
 3301              	.LASF34:
 3302 062b 6F6C6465 		.ascii	"older\000"
 3302      7200
 3303              	.LASF135:
 3304 0631 6F626A5F 		.ascii	"obj_list\000"
 3304      6C697374 
 3304      00
 3305              	.LASF8:
ARM GAS  /var/folders/vd/czx34qs52cd_f3nb04sxmghc0000gn/T//ccXcIPPt.s 			page 64


 3306 063a 5F5F7569 		.ascii	"__uint16_t\000"
 3306      6E743136 
 3306      5F7400
 3307              	.LASF30:
 3308 0645 74687265 		.ascii	"thread_t\000"
 3308      61645F74 
 3308      00
 3309              	.LASF124:
 3310 064e 63685F6D 		.ascii	"ch_memcore\000"
 3310      656D636F 
 3310      726500
 3311              	.LASF150:
 3312 0659 71756575 		.ascii	"queue_fifo_remove\000"
 3312      655F6669 
 3312      666F5F72 
 3312      656D6F76 
 3312      6500
 3313              	.LASF73:
 3314 066b 73797374 		.ascii	"systime_t\000"
 3314      696D655F 
 3314      7400
 3315              	.LASF57:
 3316 0675 76746675 		.ascii	"vtfunc_t\000"
 3316      6E635F74 
 3316      00
 3317              	.LASF149:
 3318 067e 63684D73 		.ascii	"chMsgIsPendingI\000"
 3318      67497350 
 3318      656E6469 
 3318      6E674900 
 3319              	.LASF155:
 3320 068e 5F5F7365 		.ascii	"__set_BASEPRI\000"
 3320      745F4241 
 3320      53455052 
 3320      4900
 3321              	.LASF67:
 3322 069c 70616E69 		.ascii	"panic_msg\000"
 3322      635F6D73 
 3322      6700
 3323              	.LASF83:
 3324 06a6 6F666673 		.ascii	"offset\000"
 3324      657400
 3325              	.LASF94:
 3326 06ad 63685F6D 		.ascii	"ch_mutex\000"
 3326      75746578 
 3326      00
 3327              	.LASF108:
 3328 06b6 6F66665F 		.ascii	"off_older\000"
 3328      6F6C6465 
 3328      7200
 3329              	.LASF9:
 3330 06c0 73686F72 		.ascii	"short unsigned int\000"
 3330      7420756E 
 3330      7369676E 
 3330      65642069 
 3330      6E7400
 3331              	.LASF157:
ARM GAS  /var/folders/vd/czx34qs52cd_f3nb04sxmghc0000gn/T//ccXcIPPt.s 			page 65


 3332 06d3 63685363 		.ascii	"chSchWakeupS\000"
 3332      6857616B 
 3332      65757053 
 3332      00
 3333              	.LASF144:
 3334 06e0 63684D73 		.ascii	"chMsgWait\000"
 3334      67576169 
 3334      7400
 3335              	.LASF126:
 3336 06ea 6F626A65 		.ascii	"object_size\000"
 3336      63745F73 
 3336      697A6500 
 3337              	.LASF102:
 3338 06f6 70747273 		.ascii	"ptrsize\000"
 3338      697A6500 
 3339              	.LASF161:
 3340 06fe 2E2E2F6F 		.ascii	"../os/rt/src/chmsg.c\000"
 3340      732F7274 
 3340      2F737263 
 3340      2F63686D 
 3340      73672E63 
 3341              	.LASF51:
 3342 0713 74687265 		.ascii	"threads_queue_t\000"
 3342      6164735F 
 3342      71756575 
 3342      655F7400 
 3343              	.LASF125:
 3344 0723 706F6F6C 		.ascii	"pool_header\000"
 3344      5F686561 
 3344      64657200 
 3345              	.LASF109:
 3346 072f 6F66665F 		.ascii	"off_name\000"
 3346      6E616D65 
 3346      00
 3347              	.LASF16:
 3348 0738 75696E74 		.ascii	"uint8_t\000"
 3348      385F7400 
 3349              	.LASF38:
 3350 0740 666C6167 		.ascii	"flags\000"
 3350      7300
 3351              	.LASF141:
 3352 0746 6669666F 		.ascii	"fifo_list\000"
 3352      5F6C6973 
 3352      7400
 3353              	.LASF87:
 3354 0750 77746F62 		.ascii	"wtobjp\000"
 3354      6A7000
 3355              	.LASF47:
 3356 0757 74687265 		.ascii	"threads_list_t\000"
 3356      6164735F 
 3356      6C697374 
 3356      5F7400
 3357              	.LASF111:
 3358 0766 6F66665F 		.ascii	"off_state\000"
 3358      73746174 
 3358      6500
 3359              	.LASF148:
ARM GAS  /var/folders/vd/czx34qs52cd_f3nb04sxmghc0000gn/T//ccXcIPPt.s 			page 66


 3360 0770 63685379 		.ascii	"chSysUnlock\000"
 3360      73556E6C 
 3360      6F636B00 
 3361              	.LASF142:
 3362 077c 6F626A65 		.ascii	"objects_factory_t\000"
 3362      6374735F 
 3362      66616374 
 3362      6F72795F 
 3362      7400
 3363              	.LASF147:
 3364 078e 63684D73 		.ascii	"chMsgReleaseS\000"
 3364      6752656C 
 3364      65617365 
 3364      5300
 3365              	.LASF112:
 3366 079c 6F66665F 		.ascii	"off_flags\000"
 3366      666C6167 
 3366      7300
 3367              	.LASF43:
 3368 07a6 6D74786C 		.ascii	"mtxlist\000"
 3368      69737400 
 3369              	.LASF121:
 3370 07ae 6E657874 		.ascii	"nextmem\000"
 3370      6D656D00 
 3371              		.ident	"GCC: (GNU Tools for Arm Embedded Processors 7-2017-q4-major) 7.2.1 20170904 (release) [ARM
ARM GAS  /var/folders/vd/czx34qs52cd_f3nb04sxmghc0000gn/T//ccXcIPPt.s 			page 67


DEFINED SYMBOLS
                            *ABS*:0000000000000000 chmsg.c
/var/folders/vd/czx34qs52cd_f3nb04sxmghc0000gn/T//ccXcIPPt.s:16     .text.chMsgSend:0000000000000000 $t
/var/folders/vd/czx34qs52cd_f3nb04sxmghc0000gn/T//ccXcIPPt.s:24     .text.chMsgSend:0000000000000000 chMsgSend
/var/folders/vd/czx34qs52cd_f3nb04sxmghc0000gn/T//ccXcIPPt.s:141    .text.chMsgSend:000000000000003c $d
/var/folders/vd/czx34qs52cd_f3nb04sxmghc0000gn/T//ccXcIPPt.s:146    .text.chMsgWait:0000000000000000 $t
/var/folders/vd/czx34qs52cd_f3nb04sxmghc0000gn/T//ccXcIPPt.s:154    .text.chMsgWait:0000000000000000 chMsgWait
/var/folders/vd/czx34qs52cd_f3nb04sxmghc0000gn/T//ccXcIPPt.s:264    .text.chMsgWait:000000000000003c $d
/var/folders/vd/czx34qs52cd_f3nb04sxmghc0000gn/T//ccXcIPPt.s:269    .text.chMsgRelease:0000000000000000 $t
/var/folders/vd/czx34qs52cd_f3nb04sxmghc0000gn/T//ccXcIPPt.s:277    .text.chMsgRelease:0000000000000000 chMsgRelease

UNDEFINED SYMBOLS
chSchGoSleepS
chSchReadyI
ch
chSchWakeupS
