ARM GAS  /var/folders/vd/czx34qs52cd_f3nb04sxmghc0000gn/T//ccXcIPPt.s 			page 1


   1              		.cpu cortex-m4
   2              		.eabi_attribute 20, 1
   3              		.eabi_attribute 21, 1
   4              		.eabi_attribute 23, 3
   5              		.eabi_attribute 24, 1
   6              		.eabi_attribute 25, 1
   7              		.eabi_attribute 26, 1
   8              		.eabi_attribute 30, 2
   9              		.eabi_attribute 34, 1
  10              		.eabi_attribute 18, 4
  11              		.file	"chmsg.c"
  12              		.text
  13              	.Ltext0:
  14              		.cfi_sections	.debug_frame
  15              		.section	.text.chMsgSend,"ax",%progbits
  16              		.align	1
  17              		.p2align 4,,15
  18              		.global	chMsgSend
  19              		.syntax unified
  20              		.thumb
  21              		.thumb_func
  22              		.fpu softvfp
  23              		.type	chMsgSend, %function
  24              	chMsgSend:
  25              	.LFB280:
  26              		.file 1 "../os/rt/src/chmsg.c"
  27              		.loc 1 87 0
  28              		.cfi_startproc
  29              		@ args = 0, pretend = 0, frame = 0
  30              		@ frame_needed = 0, uses_anonymous_args = 0
  31              	.LVL0:
  32              		.loc 1 88 0
  33 0000 0E4B     		ldr	r3, .L6
  34              		.loc 1 87 0
  35 0002 10B5     		push	{r4, lr}
  36              		.cfi_def_cfa_offset 8
  37              		.cfi_offset 4, -8
  38              		.cfi_offset 14, -4
  39              	.LBB52:
  40              	.LBB53:
  41              	.LBB54:
  42              	.LBB55:
  43              		.file 2 "../os/common/ext/ARM/CMSIS/Core/Include/cmsis_gcc.h"
  44              		.loc 2 490 0
  45 0004 2022     		movs	r2, #32
  46              	.LBE55:
  47              	.LBE54:
  48              	.LBE53:
  49              	.LBE52:
  50              		.loc 1 88 0
  51 0006 9C69     		ldr	r4, [r3, #24]
  52              	.LVL1:
  53              	.LBB59:
  54              	.LBB58:
  55              	.LBB57:
  56              	.LBB56:
  57              		.loc 2 490 0
ARM GAS  /var/folders/vd/czx34qs52cd_f3nb04sxmghc0000gn/T//ccXcIPPt.s 			page 2


  58              		.syntax unified
  59              	@ 490 "../os/common/ext/ARM/CMSIS/Core/Include/cmsis_gcc.h" 1
  60 0008 82F31188 		MSR basepri, r2
  61              	@ 0 "" 2
  62              	.LVL2:
  63              		.thumb
  64              		.syntax unified
  65              	.LBE56:
  66              	.LBE57:
  67              	.LBE58:
  68              	.LBE59:
  69              	.LBB60:
  70              	.LBB61:
  71              		.file 3 "../os/rt/include/chschd.h"
  72              		.loc 3 601 0
  73 000c 026B     		ldr	r2, [r0, #48]
  74              	.LBE61:
  75              	.LBE60:
  76              		.loc 1 93 0
  77 000e 6162     		str	r1, [r4, #36]
  78              	.LVL3:
  79              		.loc 1 94 0
  80 0010 00F12C01 		add	r1, r0, #44
  81              	.LVL4:
  82              	.LBB64:
  83              	.LBB62:
  84              		.loc 3 601 0
  85 0014 C4E90012 		strd	r1, r2, [r4]
  86              		.loc 3 602 0
  87 0018 1460     		str	r4, [r2]
  88              	.LBE62:
  89              	.LBE64:
  90              		.loc 1 95 0
  91 001a 90F82020 		ldrb	r2, [r0, #32]	@ zero_extendqisi2
  92              	.LBB65:
  93              	.LBB63:
  94              		.loc 3 603 0
  95 001e 0463     		str	r4, [r0, #48]
  96              	.LVL5:
  97              	.LBE63:
  98              	.LBE65:
  99              		.loc 1 95 0
 100 0020 0E2A     		cmp	r2, #14
 101 0022 07D0     		beq	.L5
 102              	.LVL6:
 103              	.L2:
 104              		.loc 1 98 0
 105 0024 0C20     		movs	r0, #12
 106 0026 FFF7FEFF 		bl	chSchGoSleepS
 107              	.LVL7:
 108              		.loc 1 99 0
 109 002a 606A     		ldr	r0, [r4, #36]
 110              	.LVL8:
 111              	.LBB66:
 112              	.LBB67:
 113              	.LBB68:
 114              	.LBB69:
ARM GAS  /var/folders/vd/czx34qs52cd_f3nb04sxmghc0000gn/T//ccXcIPPt.s 			page 3


 115              	.LBB70:
 116              		.loc 2 490 0
 117 002c 0023     		movs	r3, #0
 118              		.syntax unified
 119              	@ 490 "../os/common/ext/ARM/CMSIS/Core/Include/cmsis_gcc.h" 1
 120 002e 83F31188 		MSR basepri, r3
 121              	@ 0 "" 2
 122              	.LVL9:
 123              		.thumb
 124              		.syntax unified
 125              	.LBE70:
 126              	.LBE69:
 127              	.LBE68:
 128              	.LBE67:
 129              	.LBE66:
 130              		.loc 1 103 0
 131 0032 10BD     		pop	{r4, pc}
 132              	.LVL10:
 133              	.L5:
 134              		.loc 1 96 0
 135 0034 FFF7FEFF 		bl	chSchReadyI
 136              	.LVL11:
 137 0038 F4E7     		b	.L2
 138              	.L7:
 139 003a 00BF     		.align	2
 140              	.L6:
 141 003c 00000000 		.word	ch
 142              		.cfi_endproc
 143              	.LFE280:
 144              		.size	chMsgSend, .-chMsgSend
 145              		.section	.text.chMsgWait,"ax",%progbits
 146              		.align	1
 147              		.p2align 4,,15
 148              		.global	chMsgWait
 149              		.syntax unified
 150              		.thumb
 151              		.thumb_func
 152              		.fpu softvfp
 153              		.type	chMsgWait, %function
 154              	chMsgWait:
 155              	.LFB281:
 156              		.loc 1 119 0
 157              		.cfi_startproc
 158              		@ args = 0, pretend = 0, frame = 0
 159              		@ frame_needed = 0, uses_anonymous_args = 0
 160              	.LVL12:
 161 0000 10B5     		push	{r4, lr}
 162              		.cfi_def_cfa_offset 8
 163              		.cfi_offset 4, -8
 164              		.cfi_offset 14, -4
 165              	.LBB71:
 166              	.LBB72:
 167              	.LBB73:
 168              	.LBB74:
 169              		.loc 2 490 0
 170 0002 2023     		movs	r3, #32
 171              		.syntax unified
ARM GAS  /var/folders/vd/czx34qs52cd_f3nb04sxmghc0000gn/T//ccXcIPPt.s 			page 4


 172              	@ 490 "../os/common/ext/ARM/CMSIS/Core/Include/cmsis_gcc.h" 1
 173 0004 83F31188 		MSR basepri, r3
 174              	@ 0 "" 2
 175              	.LVL13:
 176              		.thumb
 177              		.syntax unified
 178              	.LBE74:
 179              	.LBE73:
 180              	.LBE72:
 181              	.LBE71:
 182              		.loc 1 123 0
 183 0008 0C4C     		ldr	r4, .L12
 184 000a A269     		ldr	r2, [r4, #24]
 185              	.LVL14:
 186              	.LBB75:
 187              	.LBB76:
 188              		.file 4 "../os/rt/include/chmsg.h"
 189              		.loc 4 83 0
 190 000c 1346     		mov	r3, r2
 191 000e 53F82C0F 		ldr	r0, [r3, #44]!
 192              	.LVL15:
 193              	.LBE76:
 194              	.LBE75:
 195              		.loc 1 123 0
 196 0012 9842     		cmp	r0, r3
 197 0014 09D0     		beq	.L11
 198              	.L9:
 199              	.LVL16:
 200              	.LBB77:
 201              	.LBB78:
 202              		.loc 3 609 0
 203 0016 0168     		ldr	r1, [r0]
 204 0018 D162     		str	r1, [r2, #44]
 205              	.LVL17:
 206              	.LBE78:
 207              	.LBE77:
 208              		.loc 1 127 0
 209 001a 0D22     		movs	r2, #13
 210              	.LBB80:
 211              	.LBB79:
 212              		.loc 3 610 0
 213 001c 4B60     		str	r3, [r1, #4]
 214              	.LVL18:
 215              	.LBE79:
 216              	.LBE80:
 217              	.LBB81:
 218              	.LBB82:
 219              	.LBB83:
 220              	.LBB84:
 221              	.LBB85:
 222              		.loc 2 490 0
 223 001e 0023     		movs	r3, #0
 224              	.LBE85:
 225              	.LBE84:
 226              	.LBE83:
 227              	.LBE82:
 228              	.LBE81:
ARM GAS  /var/folders/vd/czx34qs52cd_f3nb04sxmghc0000gn/T//ccXcIPPt.s 			page 5


 229              		.loc 1 127 0
 230 0020 80F82020 		strb	r2, [r0, #32]
 231              	.LVL19:
 232              	.LBB90:
 233              	.LBB89:
 234              	.LBB88:
 235              	.LBB87:
 236              	.LBB86:
 237              		.loc 2 490 0
 238              		.syntax unified
 239              	@ 490 "../os/common/ext/ARM/CMSIS/Core/Include/cmsis_gcc.h" 1
 240 0024 83F31188 		MSR basepri, r3
 241              	@ 0 "" 2
 242              	.LVL20:
 243              		.thumb
 244              		.syntax unified
 245              	.LBE86:
 246              	.LBE87:
 247              	.LBE88:
 248              	.LBE89:
 249              	.LBE90:
 250              		.loc 1 131 0
 251 0028 10BD     		pop	{r4, pc}
 252              	.L11:
 253              		.loc 1 124 0
 254 002a 0E20     		movs	r0, #14
 255 002c FFF7FEFF 		bl	chSchGoSleepS
 256              	.LVL21:
 257 0030 A269     		ldr	r2, [r4, #24]
 258 0032 D06A     		ldr	r0, [r2, #44]
 259 0034 02F12C03 		add	r3, r2, #44
 260 0038 EDE7     		b	.L9
 261              	.L13:
 262 003a 00BF     		.align	2
 263              	.L12:
 264 003c 00000000 		.word	ch
 265              		.cfi_endproc
 266              	.LFE281:
 267              		.size	chMsgWait, .-chMsgWait
 268              		.section	.text.chMsgRelease,"ax",%progbits
 269              		.align	1
 270              		.p2align 4,,15
 271              		.global	chMsgRelease
 272              		.syntax unified
 273              		.thumb
 274              		.thumb_func
 275              		.fpu softvfp
 276              		.type	chMsgRelease, %function
 277              	chMsgRelease:
 278              	.LFB282:
 279              		.loc 1 143 0
 280              		.cfi_startproc
 281              		@ args = 0, pretend = 0, frame = 0
 282              		@ frame_needed = 0, uses_anonymous_args = 0
 283              	.LVL22:
 284 0000 08B5     		push	{r3, lr}
 285              		.cfi_def_cfa_offset 8
ARM GAS  /var/folders/vd/czx34qs52cd_f3nb04sxmghc0000gn/T//ccXcIPPt.s 			page 6


 286              		.cfi_offset 3, -8
 287              		.cfi_offset 14, -4
 288              	.LBB91:
 289              	.LBB92:
 290              	.LBB93:
 291              	.LBB94:
 292              		.loc 2 490 0
 293 0002 2023     		movs	r3, #32
 294              		.syntax unified
 295              	@ 490 "../os/common/ext/ARM/CMSIS/Core/Include/cmsis_gcc.h" 1
 296 0004 83F31188 		MSR basepri, r3
 297              	@ 0 "" 2
 298              	.LVL23:
 299              		.thumb
 300              		.syntax unified
 301              	.LBE94:
 302              	.LBE93:
 303              	.LBE92:
 304              	.LBE91:
 305              	.LBB95:
 306              	.LBB96:
 307              		.loc 4 117 0
 308 0008 FFF7FEFF 		bl	chSchWakeupS
 309              	.LVL24:
 310              	.LBE96:
 311              	.LBE95:
 312              	.LBB97:
 313              	.LBB98:
 314              	.LBB99:
 315              	.LBB100:
 316              	.LBB101:
 317              		.loc 2 490 0
 318 000c 0023     		movs	r3, #0
 319              		.syntax unified
 320              	@ 490 "../os/common/ext/ARM/CMSIS/Core/Include/cmsis_gcc.h" 1
 321 000e 83F31188 		MSR basepri, r3
 322              	@ 0 "" 2
 323              	.LVL25:
 324              		.thumb
 325              		.syntax unified
 326              	.LBE101:
 327              	.LBE100:
 328              	.LBE99:
 329              	.LBE98:
 330              	.LBE97:
 331              		.loc 1 149 0
 332 0012 08BD     		pop	{r3, pc}
 333              		.cfi_endproc
 334              	.LFE282:
 335              		.size	chMsgRelease, .-chMsgRelease
 336              		.text
 337              	.Letext0:
 338              		.file 5 "/usr/local/Cellar/gcc-arm-none-eabi/20171218/lib/gcc/arm-none-eabi/7.2.1/include/stddef.h
 339              		.file 6 "/usr/local/Cellar/gcc-arm-none-eabi/20171218/arm-none-eabi/include/machine/_default_types
 340              		.file 7 "/usr/local/Cellar/gcc-arm-none-eabi/20171218/arm-none-eabi/include/sys/_stdint.h"
 341              		.file 8 "../os/common/ports/ARMCMx/compilers/GCC/chtypes.h"
 342              		.file 9 "../os/rt/include/chsystypes.h"
ARM GAS  /var/folders/vd/czx34qs52cd_f3nb04sxmghc0000gn/T//ccXcIPPt.s 			page 7


 343              		.file 10 "../os/rt/include/chtime.h"
 344              		.file 11 "../os/common/ext/ARM/CMSIS/Core/Include/core_cm4.h"
 345              		.file 12 "../os/common/ext/ST/STM32F4xx/system_stm32f4xx.h"
 346              		.file 13 "../os/common/ports/ARMCMx/chcore.h"
 347              		.file 14 "../os/common/ports/ARMCMx/chcore_v7m.h"
 348              		.file 15 "../os/rt/include/chtm.h"
 349              		.file 16 "../os/rt/include/chsem.h"
 350              		.file 17 "../os/rt/include/chmtx.h"
 351              		.file 18 "../os/rt/include/chsys.h"
 352              		.file 19 "../os/rt/include/chregistry.h"
 353              		.file 20 "../os/common/oslib/include/chmemcore.h"
 354              		.file 21 "../os/common/oslib/include/chmempools.h"
 355              		.file 22 "../os/common/oslib/include/chfactory.h"