ARM GAS  /var/folders/vd/czx34qs52cd_f3nb04sxmghc0000gn/T//ccqYr2AO.s 			page 1


   1              		.cpu cortex-m4
   2              		.eabi_attribute 20, 1
   3              		.eabi_attribute 21, 1
   4              		.eabi_attribute 23, 3
   5              		.eabi_attribute 24, 1
   6              		.eabi_attribute 25, 1
   7              		.eabi_attribute 26, 1
   8              		.eabi_attribute 30, 2
   9              		.eabi_attribute 34, 1
  10              		.eabi_attribute 18, 4
  11              		.file	"chregistry.c"
  12              		.text
  13              	.Ltext0:
  14              		.cfi_sections	.debug_frame
  15              		.section	.text.chRegFirstThread,"ax",%progbits
  16              		.align	1
  17              		.p2align 4,,15
  18              		.global	chRegFirstThread
  19              		.syntax unified
  20              		.thumb
  21              		.thumb_func
  22              		.fpu softvfp
  23              		.type	chRegFirstThread, %function
  24              	chRegFirstThread:
  25              	.LFB280:
  26              		.file 1 "../os/rt/src/chregistry.c"
  27              		.loc 1 134 0
  28              		.cfi_startproc
  29              		@ args = 0, pretend = 0, frame = 0
  30              		@ frame_needed = 0, uses_anonymous_args = 0
  31              		@ link register save eliminated.
  32              	.LVL0:
  33              	.LBB104:
  34              	.LBB105:
  35              	.LBB106:
  36              	.LBB107:
  37              		.file 2 "../os/common/ext/ARM/CMSIS/Core/Include/cmsis_gcc.h"
  38              		.loc 2 490 0
  39 0000 2023     		movs	r3, #32
  40              		.syntax unified
  41              	@ 490 "../os/common/ext/ARM/CMSIS/Core/Include/cmsis_gcc.h" 1
  42 0002 83F31188 		MSR basepri, r3
  43              	@ 0 "" 2
  44              	.LVL1:
  45              		.thumb
  46              		.syntax unified
  47              	.LBE107:
  48              	.LBE106:
  49              	.LBE105:
  50              	.LBE104:
  51              		.loc 1 138 0
  52 0006 054B     		ldr	r3, .L3
  53 0008 1869     		ldr	r0, [r3, #16]
  54              	.LVL2:
  55              		.loc 1 140 0
  56 000a 90F82230 		ldrb	r3, [r0, #34]	@ zero_extendqisi2
  57 000e 0133     		adds	r3, r3, #1
ARM GAS  /var/folders/vd/czx34qs52cd_f3nb04sxmghc0000gn/T//ccqYr2AO.s 			page 2


  58 0010 80F82230 		strb	r3, [r0, #34]
  59              	.LVL3:
  60              	.LBB108:
  61              	.LBB109:
  62              	.LBB110:
  63              	.LBB111:
  64              	.LBB112:
  65              		.loc 2 490 0
  66 0014 0023     		movs	r3, #0
  67              		.syntax unified
  68              	@ 490 "../os/common/ext/ARM/CMSIS/Core/Include/cmsis_gcc.h" 1
  69 0016 83F31188 		MSR basepri, r3
  70              	@ 0 "" 2
  71              	.LVL4:
  72              		.thumb
  73              		.syntax unified
  74              	.LBE112:
  75              	.LBE111:
  76              	.LBE110:
  77              	.LBE109:
  78              	.LBE108:
  79              		.loc 1 145 0
  80 001a 7047     		bx	lr
  81              	.L4:
  82              		.align	2
  83              	.L3:
  84 001c 00000000 		.word	ch
  85              		.cfi_endproc
  86              	.LFE280:
  87              		.size	chRegFirstThread, .-chRegFirstThread
  88              		.section	.text.chRegNextThread,"ax",%progbits
  89              		.align	1
  90              		.p2align 4,,15
  91              		.global	chRegNextThread
  92              		.syntax unified
  93              		.thumb
  94              		.thumb_func
  95              		.fpu softvfp
  96              		.type	chRegNextThread, %function
  97              	chRegNextThread:
  98              	.LFB281:
  99              		.loc 1 158 0
 100              		.cfi_startproc
 101              		@ args = 0, pretend = 0, frame = 0
 102              		@ frame_needed = 0, uses_anonymous_args = 0
 103              	.LVL5:
 104 0000 10B5     		push	{r4, lr}
 105              		.cfi_def_cfa_offset 8
 106              		.cfi_offset 4, -8
 107              		.cfi_offset 14, -4
 108              	.LBB113:
 109              	.LBB114:
 110              	.LBB115:
 111              	.LBB116:
 112              		.loc 2 490 0
 113 0002 2023     		movs	r3, #32
 114              		.syntax unified
ARM GAS  /var/folders/vd/czx34qs52cd_f3nb04sxmghc0000gn/T//ccqYr2AO.s 			page 3


 115              	@ 490 "../os/common/ext/ARM/CMSIS/Core/Include/cmsis_gcc.h" 1
 116 0004 83F31188 		MSR basepri, r3
 117              	@ 0 "" 2
 118              	.LVL6:
 119              		.thumb
 120              		.syntax unified
 121              	.LBE116:
 122              	.LBE115:
 123              	.LBE114:
 124              	.LBE113:
 125              		.loc 1 164 0
 126 0008 084B     		ldr	r3, .L9
 127              		.loc 1 162 0
 128 000a 0469     		ldr	r4, [r0, #16]
 129              	.LVL7:
 130              		.loc 1 164 0
 131 000c 9C42     		cmp	r4, r3
 132              		.loc 1 171 0
 133 000e 1DBF     		ittte	ne
 134 0010 94F82230 		ldrbne	r3, [r4, #34]	@ zero_extendqisi2
 135 0014 0133     		addne	r3, r3, #1
 136 0016 84F82230 		strbne	r3, [r4, #34]
 137              		.loc 1 166 0
 138 001a 0024     		moveq	r4, #0
 139              	.LVL8:
 140              	.LBB117:
 141              	.LBB118:
 142              	.LBB119:
 143              	.LBB120:
 144              	.LBB121:
 145              		.loc 2 490 0
 146 001c 0023     		movs	r3, #0
 147              		.syntax unified
 148              	@ 490 "../os/common/ext/ARM/CMSIS/Core/Include/cmsis_gcc.h" 1
 149 001e 83F31188 		MSR basepri, r3
 150              	@ 0 "" 2
 151              	.LVL9:
 152              		.thumb
 153              		.syntax unified
 154              	.LBE121:
 155              	.LBE120:
 156              	.LBE119:
 157              	.LBE118:
 158              	.LBE117:
 159              		.loc 1 176 0
 160 0022 FFF7FEFF 		bl	chThdRelease
 161              	.LVL10:
 162              		.loc 1 180 0
 163 0026 2046     		mov	r0, r4
 164 0028 10BD     		pop	{r4, pc}
 165              	.LVL11:
 166              	.L10:
 167 002a 00BF     		.align	2
 168              	.L9:
 169 002c 00000000 		.word	ch
 170              		.cfi_endproc
 171              	.LFE281:
ARM GAS  /var/folders/vd/czx34qs52cd_f3nb04sxmghc0000gn/T//ccqYr2AO.s 			page 4


 172              		.size	chRegNextThread, .-chRegNextThread
 173              		.section	.text.chRegFindThreadByName,"ax",%progbits
 174              		.align	1
 175              		.p2align 4,,15
 176              		.global	chRegFindThreadByName
 177              		.syntax unified
 178              		.thumb
 179              		.thumb_func
 180              		.fpu softvfp
 181              		.type	chRegFindThreadByName, %function
 182              	chRegFindThreadByName:
 183              	.LFB282:
 184              		.loc 1 194 0
 185              		.cfi_startproc
 186              		@ args = 0, pretend = 0, frame = 0
 187              		@ frame_needed = 0, uses_anonymous_args = 0
 188              	.LVL12:
 189 0000 2DE9F843 		push	{r3, r4, r5, r6, r7, r8, r9, lr}
 190              		.cfi_def_cfa_offset 32
 191              		.cfi_offset 3, -32
 192              		.cfi_offset 4, -28
 193              		.cfi_offset 5, -24
 194              		.cfi_offset 6, -20
 195              		.cfi_offset 7, -16
 196              		.cfi_offset 8, -12
 197              		.cfi_offset 9, -8
 198              		.cfi_offset 14, -4
 199              		.loc 1 194 0
 200 0004 8146     		mov	r9, r0
 201              	.LBB122:
 202              	.LBB123:
 203              	.LBB124:
 204              	.LBB125:
 205              	.LBB126:
 206              	.LBB127:
 207              		.loc 2 490 0
 208 0006 2026     		movs	r6, #32
 209              		.syntax unified
 210              	@ 490 "../os/common/ext/ARM/CMSIS/Core/Include/cmsis_gcc.h" 1
 211 0008 86F31188 		MSR basepri, r6
 212              	@ 0 "" 2
 213              	.LVL13:
 214              		.thumb
 215              		.syntax unified
 216              	.LBE127:
 217              	.LBE126:
 218              	.LBE125:
 219              	.LBE124:
 220              		.loc 1 138 0
 221 000c DFF86480 		ldr	r8, .L21
 222 0010 D8F81040 		ldr	r4, [r8, #16]
 223              	.LVL14:
 224              		.loc 1 140 0
 225 0014 94F82230 		ldrb	r3, [r4, #34]	@ zero_extendqisi2
 226 0018 0133     		adds	r3, r3, #1
 227 001a 84F82230 		strb	r3, [r4, #34]
 228              	.LVL15:
ARM GAS  /var/folders/vd/czx34qs52cd_f3nb04sxmghc0000gn/T//ccqYr2AO.s 			page 5


 229              	.LBB128:
 230              	.LBB129:
 231              	.LBB130:
 232              	.LBB131:
 233              	.LBB132:
 234              		.loc 2 490 0
 235 001e 0027     		movs	r7, #0
 236              		.syntax unified
 237              	@ 490 "../os/common/ext/ARM/CMSIS/Core/Include/cmsis_gcc.h" 1
 238 0020 87F31188 		MSR basepri, r7
 239              	@ 0 "" 2
 240              	.LVL16:
 241              		.thumb
 242              		.syntax unified
 243              	.LBE132:
 244              	.LBE131:
 245              	.LBE130:
 246              	.LBE129:
 247              	.LBE128:
 248              	.LBE123:
 249              	.LBE122:
 250              		.loc 1 200 0
 251 0024 4946     		mov	r1, r9
 252 0026 A069     		ldr	r0, [r4, #24]
 253              	.LVL17:
 254 0028 FFF7FEFF 		bl	strcmp
 255              	.LVL18:
 256 002c A8B1     		cbz	r0, .L11
 257              	.L20:
 258              	.LBB133:
 259              	.LBB134:
 260              	.LBB135:
 261              	.LBB136:
 262              	.LBB137:
 263              	.LBB138:
 264              		.loc 2 490 0
 265              		.syntax unified
 266              	@ 490 "../os/common/ext/ARM/CMSIS/Core/Include/cmsis_gcc.h" 1
 267 002e 86F31188 		MSR basepri, r6
 268              	@ 0 "" 2
 269              	.LVL19:
 270              		.thumb
 271              		.syntax unified
 272              	.LBE138:
 273              	.LBE137:
 274              	.LBE136:
 275              	.LBE135:
 276              		.loc 1 162 0
 277 0032 2569     		ldr	r5, [r4, #16]
 278              	.LVL20:
 279              		.loc 1 164 0
 280 0034 4545     		cmp	r5, r8
 281 0036 13D0     		beq	.L19
 282              		.loc 1 171 0
 283 0038 95F82230 		ldrb	r3, [r5, #34]	@ zero_extendqisi2
 284 003c 0133     		adds	r3, r3, #1
 285 003e 85F82230 		strb	r3, [r5, #34]
ARM GAS  /var/folders/vd/czx34qs52cd_f3nb04sxmghc0000gn/T//ccqYr2AO.s 			page 6


 286              	.LVL21:
 287              	.LBB139:
 288              	.LBB140:
 289              	.LBB141:
 290              	.LBB142:
 291              	.LBB143:
 292              		.loc 2 490 0
 293              		.syntax unified
 294              	@ 490 "../os/common/ext/ARM/CMSIS/Core/Include/cmsis_gcc.h" 1
 295 0042 87F31188 		MSR basepri, r7
 296              	@ 0 "" 2
 297              	.LVL22:
 298              		.thumb
 299              		.syntax unified
 300              	.LBE143:
 301              	.LBE142:
 302              	.LBE141:
 303              	.LBE140:
 304              	.LBE139:
 305              		.loc 1 176 0
 306 0046 2046     		mov	r0, r4
 307 0048 2C46     		mov	r4, r5
 308              	.LVL23:
 309 004a FFF7FEFF 		bl	chThdRelease
 310              	.LVL24:
 311              	.LBE134:
 312              	.LBE133:
 313              		.loc 1 200 0
 314 004e 4946     		mov	r1, r9
 315 0050 A069     		ldr	r0, [r4, #24]
 316 0052 FFF7FEFF 		bl	strcmp
 317              	.LVL25:
 318 0056 0028     		cmp	r0, #0
 319 0058 E9D1     		bne	.L20
 320              	.LVL26:
 321              	.L11:
 322              		.loc 1 207 0
 323 005a 2046     		mov	r0, r4
 324 005c BDE8F883 		pop	{r3, r4, r5, r6, r7, r8, r9, pc}
 325              	.LVL27:
 326              	.L19:
 327              	.LBB151:
 328              	.LBB149:
 329              	.LBB148:
 330              	.LBB147:
 331              	.LBB146:
 332              	.LBB145:
 333              	.LBB144:
 334              		.loc 2 490 0
 335 0060 0025     		movs	r5, #0
 336              		.syntax unified
 337              	@ 490 "../os/common/ext/ARM/CMSIS/Core/Include/cmsis_gcc.h" 1
 338 0062 85F31188 		MSR basepri, r5
 339              	@ 0 "" 2
 340              	.LVL28:
 341              		.thumb
 342              		.syntax unified
ARM GAS  /var/folders/vd/czx34qs52cd_f3nb04sxmghc0000gn/T//ccqYr2AO.s 			page 7


 343              	.LBE144:
 344              	.LBE145:
 345              	.LBE146:
 346              	.LBE147:
 347              	.LBE148:
 348              		.loc 1 176 0
 349 0066 2046     		mov	r0, r4
 350              	.LBE149:
 351              	.LBE151:
 352              		.loc 1 206 0
 353 0068 2C46     		mov	r4, r5
 354              	.LVL29:
 355              	.LBB152:
 356              	.LBB150:
 357              		.loc 1 176 0
 358 006a FFF7FEFF 		bl	chThdRelease
 359              	.LVL30:
 360              	.LBE150:
 361              	.LBE152:
 362              		.loc 1 207 0
 363 006e 2046     		mov	r0, r4
 364 0070 BDE8F883 		pop	{r3, r4, r5, r6, r7, r8, r9, pc}
 365              	.LVL31:
 366              	.L22:
 367              		.align	2
 368              	.L21:
 369 0074 00000000 		.word	ch
 370              		.cfi_endproc
 371              	.LFE282:
 372              		.size	chRegFindThreadByName, .-chRegFindThreadByName
 373              		.section	.text.chRegFindThreadByPointer,"ax",%progbits
 374              		.align	1
 375              		.p2align 4,,15
 376              		.global	chRegFindThreadByPointer
 377              		.syntax unified
 378              		.thumb
 379              		.thumb_func
 380              		.fpu softvfp
 381              		.type	chRegFindThreadByPointer, %function
 382              	chRegFindThreadByPointer:
 383              	.LFB283:
 384              		.loc 1 221 0
 385              		.cfi_startproc
 386              		@ args = 0, pretend = 0, frame = 0
 387              		@ frame_needed = 0, uses_anonymous_args = 0
 388              	.LVL32:
 389 0000 2DE9F041 		push	{r4, r5, r6, r7, r8, lr}
 390              		.cfi_def_cfa_offset 24
 391              		.cfi_offset 4, -24
 392              		.cfi_offset 5, -20
 393              		.cfi_offset 6, -16
 394              		.cfi_offset 7, -12
 395              		.cfi_offset 8, -8
 396              		.cfi_offset 14, -4
 397              		.loc 1 221 0
 398 0004 0546     		mov	r5, r0
 399              	.LBB153:
ARM GAS  /var/folders/vd/czx34qs52cd_f3nb04sxmghc0000gn/T//ccqYr2AO.s 			page 8


 400              	.LBB154:
 401              	.LBB155:
 402              	.LBB156:
 403              	.LBB157:
 404              	.LBB158:
 405              		.loc 2 490 0
 406 0006 2026     		movs	r6, #32
 407              		.syntax unified
 408              	@ 490 "../os/common/ext/ARM/CMSIS/Core/Include/cmsis_gcc.h" 1
 409 0008 86F31188 		MSR basepri, r6
 410              	@ 0 "" 2
 411              	.LVL33:
 412              		.thumb
 413              		.syntax unified
 414              	.LBE158:
 415              	.LBE157:
 416              	.LBE156:
 417              	.LBE155:
 418              		.loc 1 138 0
 419 000c DFF86480 		ldr	r8, .L32
 420 0010 D8F81000 		ldr	r0, [r8, #16]
 421              	.LVL34:
 422              		.loc 1 140 0
 423 0014 90F82230 		ldrb	r3, [r0, #34]	@ zero_extendqisi2
 424 0018 0133     		adds	r3, r3, #1
 425 001a 80F82230 		strb	r3, [r0, #34]
 426              	.LVL35:
 427              	.LBB159:
 428              	.LBB160:
 429              	.LBB161:
 430              	.LBB162:
 431              	.LBB163:
 432              		.loc 2 490 0
 433 001e 0027     		movs	r7, #0
 434              		.syntax unified
 435              	@ 490 "../os/common/ext/ARM/CMSIS/Core/Include/cmsis_gcc.h" 1
 436 0020 87F31188 		MSR basepri, r7
 437              	@ 0 "" 2
 438              	.LVL36:
 439              		.thumb
 440              		.syntax unified
 441              	.LBE163:
 442              	.LBE162:
 443              	.LBE161:
 444              	.LBE160:
 445              	.LBE159:
 446              	.LBE154:
 447              	.LBE153:
 448              		.loc 1 227 0
 449 0024 8542     		cmp	r5, r0
 450 0026 1FD0     		beq	.L23
 451              	.LVL37:
 452              	.LBB164:
 453              	.LBB165:
 454              	.LBB166:
 455              	.LBB167:
 456              	.LBB168:
ARM GAS  /var/folders/vd/czx34qs52cd_f3nb04sxmghc0000gn/T//ccqYr2AO.s 			page 9


 457              	.LBB169:
 458              		.loc 2 490 0
 459              		.syntax unified
 460              	@ 490 "../os/common/ext/ARM/CMSIS/Core/Include/cmsis_gcc.h" 1
 461 0028 86F31188 		MSR basepri, r6
 462              	@ 0 "" 2
 463              	.LVL38:
 464              		.thumb
 465              		.syntax unified
 466              	.LBE169:
 467              	.LBE168:
 468              	.LBE167:
 469              	.LBE166:
 470              		.loc 1 162 0
 471 002c 0469     		ldr	r4, [r0, #16]
 472              	.LVL39:
 473              		.loc 1 164 0
 474 002e 4445     		cmp	r4, r8
 475 0030 12D0     		beq	.L28
 476              	.LVL40:
 477              	.L26:
 478              		.loc 1 171 0
 479 0032 94F82230 		ldrb	r3, [r4, #34]	@ zero_extendqisi2
 480 0036 0133     		adds	r3, r3, #1
 481 0038 84F82230 		strb	r3, [r4, #34]
 482              	.LVL41:
 483              	.LBB173:
 484              	.LBB174:
 485              	.LBB175:
 486              	.LBB176:
 487              	.LBB177:
 488              		.loc 2 490 0
 489              		.syntax unified
 490              	@ 490 "../os/common/ext/ARM/CMSIS/Core/Include/cmsis_gcc.h" 1
 491 003c 87F31188 		MSR basepri, r7
 492              	@ 0 "" 2
 493              	.LVL42:
 494              		.thumb
 495              		.syntax unified
 496              	.LBE177:
 497              	.LBE176:
 498              	.LBE175:
 499              	.LBE174:
 500              	.LBE173:
 501              		.loc 1 176 0
 502 0040 FFF7FEFF 		bl	chThdRelease
 503              	.LVL43:
 504              	.LBE165:
 505              	.LBE164:
 506              		.loc 1 227 0
 507 0044 A542     		cmp	r5, r4
 508 0046 11D0     		beq	.L31
 509              	.LBB185:
 510              	.LBB184:
 511              	.LBB182:
 512              	.LBB172:
 513              	.LBB171:
ARM GAS  /var/folders/vd/czx34qs52cd_f3nb04sxmghc0000gn/T//ccqYr2AO.s 			page 10


 514              	.LBB170:
 515              		.loc 2 490 0
 516              		.syntax unified
 517              	@ 490 "../os/common/ext/ARM/CMSIS/Core/Include/cmsis_gcc.h" 1
 518 0048 86F31188 		MSR basepri, r6
 519              	@ 0 "" 2
 520              	.LVL44:
 521              		.thumb
 522              		.syntax unified
 523              	.LBE170:
 524              	.LBE171:
 525              	.LBE172:
 526              	.LBE182:
 527              		.loc 1 162 0
 528 004c 2369     		ldr	r3, [r4, #16]
 529              	.LVL45:
 530              		.loc 1 164 0
 531 004e 4345     		cmp	r3, r8
 532 0050 2046     		mov	r0, r4
 533 0052 02D0     		beq	.L25
 534 0054 1C46     		mov	r4, r3
 535              	.LVL46:
 536 0056 ECE7     		b	.L26
 537              	.LVL47:
 538              	.L28:
 539 0058 0446     		mov	r4, r0
 540              	.LVL48:
 541              	.L25:
 542              	.LBB183:
 543              	.LBB181:
 544              	.LBB180:
 545              	.LBB179:
 546              	.LBB178:
 547              		.loc 2 490 0
 548 005a 0025     		movs	r5, #0
 549              	.LVL49:
 550              		.syntax unified
 551              	@ 490 "../os/common/ext/ARM/CMSIS/Core/Include/cmsis_gcc.h" 1
 552 005c 85F31188 		MSR basepri, r5
 553              	@ 0 "" 2
 554              	.LVL50:
 555              		.thumb
 556              		.syntax unified
 557              	.LBE178:
 558              	.LBE179:
 559              	.LBE180:
 560              	.LBE181:
 561              	.LBE183:
 562              		.loc 1 176 0
 563 0060 2046     		mov	r0, r4
 564              	.LVL51:
 565 0062 FFF7FEFF 		bl	chThdRelease
 566              	.LVL52:
 567              	.LBE184:
 568              	.LBE185:
 569              		.loc 1 233 0
 570 0066 2846     		mov	r0, r5
ARM GAS  /var/folders/vd/czx34qs52cd_f3nb04sxmghc0000gn/T//ccqYr2AO.s 			page 11


 571              	.L23:
 572              		.loc 1 234 0
 573 0068 BDE8F081 		pop	{r4, r5, r6, r7, r8, pc}
 574              	.LVL53:
 575              	.L31:
 576 006c 2846     		mov	r0, r5
 577 006e BDE8F081 		pop	{r4, r5, r6, r7, r8, pc}
 578              	.LVL54:
 579              	.L33:
 580 0072 00BF     		.align	2
 581              	.L32:
 582 0074 00000000 		.word	ch
 583              		.cfi_endproc
 584              	.LFE283:
 585              		.size	chRegFindThreadByPointer, .-chRegFindThreadByPointer
 586              		.section	.text.chRegFindThreadByWorkingArea,"ax",%progbits
 587              		.align	1
 588              		.p2align 4,,15
 589              		.global	chRegFindThreadByWorkingArea
 590              		.syntax unified
 591              		.thumb
 592              		.thumb_func
 593              		.fpu softvfp
 594              		.type	chRegFindThreadByWorkingArea, %function
 595              	chRegFindThreadByWorkingArea:
 596              	.LFB284:
 597              		.loc 1 250 0
 598              		.cfi_startproc
 599              		@ args = 0, pretend = 0, frame = 0
 600              		@ frame_needed = 0, uses_anonymous_args = 0
 601              	.LVL55:
 602 0000 2DE9F041 		push	{r4, r5, r6, r7, r8, lr}
 603              		.cfi_def_cfa_offset 24
 604              		.cfi_offset 4, -24
 605              		.cfi_offset 5, -20
 606              		.cfi_offset 6, -16
 607              		.cfi_offset 7, -12
 608              		.cfi_offset 8, -8
 609              		.cfi_offset 14, -4
 610              		.loc 1 250 0
 611 0004 0646     		mov	r6, r0
 612              	.LBB186:
 613              	.LBB187:
 614              	.LBB188:
 615              	.LBB189:
 616              	.LBB190:
 617              	.LBB191:
 618              		.loc 2 490 0
 619 0006 2025     		movs	r5, #32
 620              		.syntax unified
 621              	@ 490 "../os/common/ext/ARM/CMSIS/Core/Include/cmsis_gcc.h" 1
 622 0008 85F31188 		MSR basepri, r5
 623              	@ 0 "" 2
 624              	.LVL56:
 625              		.thumb
 626              		.syntax unified
 627              	.LBE191:
ARM GAS  /var/folders/vd/czx34qs52cd_f3nb04sxmghc0000gn/T//ccqYr2AO.s 			page 12


 628              	.LBE190:
 629              	.LBE189:
 630              	.LBE188:
 631              		.loc 1 138 0
 632 000c DFF86880 		ldr	r8, .L43
 633 0010 D8F81000 		ldr	r0, [r8, #16]
 634              	.LVL57:
 635              		.loc 1 140 0
 636 0014 90F82230 		ldrb	r3, [r0, #34]	@ zero_extendqisi2
 637 0018 0133     		adds	r3, r3, #1
 638 001a 80F82230 		strb	r3, [r0, #34]
 639              	.LVL58:
 640              	.LBB192:
 641              	.LBB193:
 642              	.LBB194:
 643              	.LBB195:
 644              	.LBB196:
 645              		.loc 2 490 0
 646 001e 0027     		movs	r7, #0
 647              		.syntax unified
 648              	@ 490 "../os/common/ext/ARM/CMSIS/Core/Include/cmsis_gcc.h" 1
 649 0020 87F31188 		MSR basepri, r7
 650              	@ 0 "" 2
 651              	.LVL59:
 652              		.thumb
 653              		.syntax unified
 654              	.LBE196:
 655              	.LBE195:
 656              	.LBE194:
 657              	.LBE193:
 658              	.LBE192:
 659              	.LBE187:
 660              	.LBE186:
 661              		.loc 1 256 0
 662 0024 C369     		ldr	r3, [r0, #28]
 663 0026 9E42     		cmp	r6, r3
 664 0028 23D0     		beq	.L39
 665              	.LVL60:
 666              	.LBB197:
 667              	.LBB198:
 668              	.LBB199:
 669              	.LBB200:
 670              	.LBB201:
 671              	.LBB202:
 672              		.loc 2 490 0
 673              		.syntax unified
 674              	@ 490 "../os/common/ext/ARM/CMSIS/Core/Include/cmsis_gcc.h" 1
 675 002a 85F31188 		MSR basepri, r5
 676              	@ 0 "" 2
 677              	.LVL61:
 678              		.thumb
 679              		.syntax unified
 680              	.LBE202:
 681              	.LBE201:
 682              	.LBE200:
 683              	.LBE199:
 684              		.loc 1 162 0
ARM GAS  /var/folders/vd/czx34qs52cd_f3nb04sxmghc0000gn/T//ccqYr2AO.s 			page 13


 685 002e 0469     		ldr	r4, [r0, #16]
 686              	.LVL62:
 687              		.loc 1 164 0
 688 0030 4445     		cmp	r4, r8
 689 0032 13D0     		beq	.L40
 690              	.LVL63:
 691              	.L37:
 692              		.loc 1 171 0
 693 0034 94F82230 		ldrb	r3, [r4, #34]	@ zero_extendqisi2
 694 0038 0133     		adds	r3, r3, #1
 695 003a 84F82230 		strb	r3, [r4, #34]
 696              	.LVL64:
 697              	.LBB206:
 698              	.LBB207:
 699              	.LBB208:
 700              	.LBB209:
 701              	.LBB210:
 702              		.loc 2 490 0
 703              		.syntax unified
 704              	@ 490 "../os/common/ext/ARM/CMSIS/Core/Include/cmsis_gcc.h" 1
 705 003e 87F31188 		MSR basepri, r7
 706              	@ 0 "" 2
 707              	.LVL65:
 708              		.thumb
 709              		.syntax unified
 710              	.LBE210:
 711              	.LBE209:
 712              	.LBE208:
 713              	.LBE207:
 714              	.LBE206:
 715              		.loc 1 176 0
 716 0042 FFF7FEFF 		bl	chThdRelease
 717              	.LVL66:
 718              	.LBE198:
 719              	.LBE197:
 720              		.loc 1 256 0
 721 0046 E369     		ldr	r3, [r4, #28]
 722 0048 9E42     		cmp	r6, r3
 723 004a 0FD0     		beq	.L34
 724              	.LBB218:
 725              	.LBB217:
 726              	.LBB215:
 727              	.LBB205:
 728              	.LBB204:
 729              	.LBB203:
 730              		.loc 2 490 0
 731              		.syntax unified
 732              	@ 490 "../os/common/ext/ARM/CMSIS/Core/Include/cmsis_gcc.h" 1
 733 004c 85F31188 		MSR basepri, r5
 734              	@ 0 "" 2
 735              	.LVL67:
 736              		.thumb
 737              		.syntax unified
 738              	.LBE203:
 739              	.LBE204:
 740              	.LBE205:
 741              	.LBE215:
ARM GAS  /var/folders/vd/czx34qs52cd_f3nb04sxmghc0000gn/T//ccqYr2AO.s 			page 14


 742              		.loc 1 162 0
 743 0050 2369     		ldr	r3, [r4, #16]
 744              	.LVL68:
 745              		.loc 1 164 0
 746 0052 4345     		cmp	r3, r8
 747 0054 2046     		mov	r0, r4
 748 0056 02D0     		beq	.L36
 749 0058 1C46     		mov	r4, r3
 750              	.LVL69:
 751 005a EBE7     		b	.L37
 752              	.LVL70:
 753              	.L40:
 754 005c 0446     		mov	r4, r0
 755              	.LVL71:
 756              	.L36:
 757              	.LBB216:
 758              	.LBB214:
 759              	.LBB213:
 760              	.LBB212:
 761              	.LBB211:
 762              		.loc 2 490 0
 763 005e 0025     		movs	r5, #0
 764              		.syntax unified
 765              	@ 490 "../os/common/ext/ARM/CMSIS/Core/Include/cmsis_gcc.h" 1
 766 0060 85F31188 		MSR basepri, r5
 767              	@ 0 "" 2
 768              	.LVL72:
 769              		.thumb
 770              		.syntax unified
 771              	.LBE211:
 772              	.LBE212:
 773              	.LBE213:
 774              	.LBE214:
 775              	.LBE216:
 776              		.loc 1 176 0
 777 0064 2046     		mov	r0, r4
 778              	.LVL73:
 779 0066 FFF7FEFF 		bl	chThdRelease
 780              	.LVL74:
 781              	.LBE217:
 782              	.LBE218:
 783              		.loc 1 262 0
 784 006a 2C46     		mov	r4, r5
 785              	.LVL75:
 786              	.L34:
 787              		.loc 1 263 0
 788 006c 2046     		mov	r0, r4
 789 006e BDE8F081 		pop	{r4, r5, r6, r7, r8, pc}
 790              	.LVL76:
 791              	.L39:
 792              		.loc 1 256 0
 793 0072 0446     		mov	r4, r0
 794 0074 FAE7     		b	.L34
 795              	.L44:
 796 0076 00BF     		.align	2
 797              	.L43:
 798 0078 00000000 		.word	ch
ARM GAS  /var/folders/vd/czx34qs52cd_f3nb04sxmghc0000gn/T//ccqYr2AO.s 			page 15


 799              		.cfi_endproc
 800              	.LFE284:
 801              		.size	chRegFindThreadByWorkingArea, .-chRegFindThreadByWorkingArea
 802              		.global	ch_debug
 803              		.section	.rodata.ch_debug,"a",%progbits
 804              		.align	2
 805              		.type	ch_debug, %object
 806              		.size	ch_debug, 22
 807              	ch_debug:
 808 0000 6D       		.byte	109
 809 0001 61       		.byte	97
 810 0002 69       		.byte	105
 811 0003 6E       		.byte	110
 812 0004 00       		.byte	0
 813 0005 16       		.byte	22
 814 0006 0028     		.short	10240
 815 0008 04       		.byte	4
 816 0009 04       		.byte	4
 817 000a 44       		.byte	68
 818 000b 08       		.byte	8
 819 000c 0C       		.byte	12
 820 000d 10       		.byte	16
 821 000e 14       		.byte	20
 822 000f 18       		.byte	24
 823 0010 1C       		.byte	28
 824 0011 20       		.byte	32
 825 0012 21       		.byte	33
 826 0013 22       		.byte	34
 827 0014 00       		.byte	0
 828 0015 00       		.byte	0
 829              		.text
 830              	.Letext0:
 831              		.file 3 "/usr/local/Cellar/gcc-arm-none-eabi/20171218/lib/gcc/arm-none-eabi/7.2.1/include/stddef.h
 832              		.file 4 "/usr/local/Cellar/gcc-arm-none-eabi/20171218/arm-none-eabi/include/machine/_default_types
 833              		.file 5 "/usr/local/Cellar/gcc-arm-none-eabi/20171218/arm-none-eabi/include/sys/lock.h"
 834              		.file 6 "/usr/local/Cellar/gcc-arm-none-eabi/20171218/arm-none-eabi/include/sys/_types.h"
 835              		.file 7 "/usr/local/Cellar/gcc-arm-none-eabi/20171218/arm-none-eabi/include/sys/reent.h"
 836              		.file 8 "/usr/local/Cellar/gcc-arm-none-eabi/20171218/arm-none-eabi/include/sys/_stdint.h"
 837              		.file 9 "../os/common/ports/ARMCMx/compilers/GCC/chtypes.h"
 838              		.file 10 "../os/rt/include/chsystypes.h"
 839              		.file 11 "../os/rt/include/chschd.h"
 840              		.file 12 "../os/rt/include/chtime.h"
 841              		.file 13 "../os/common/ext/ARM/CMSIS/Core/Include/core_cm4.h"
 842              		.file 14 "../os/common/ext/ST/STM32F4xx/system_stm32f4xx.h"
 843              		.file 15 "../os/common/ports/ARMCMx/chcore.h"
 844              		.file 16 "../os/common/ports/ARMCMx/chcore_v7m.h"
 845              		.file 17 "../os/rt/include/chtm.h"
 846              		.file 18 "../os/rt/include/chsem.h"
 847              		.file 19 "../os/rt/include/chmtx.h"
 848              		.file 20 "../os/rt/include/chsys.h"
 849              		.file 21 "../os/rt/include/chregistry.h"
 850              		.file 22 "../os/common/oslib/include/chmemcore.h"
 851              		.file 23 "../os/common/oslib/include/chmempools.h"
 852              		.file 24 "../os/common/oslib/include/chfactory.h"
 853              		.file 25 "../os/rt/include/chthreads.h"
 854              		.file 26 "/usr/local/Cellar/gcc-arm-none-eabi/20171218/arm-none-eabi/include/string.h"