ARM GAS  /var/folders/vd/czx34qs52cd_f3nb04sxmghc0000gn/T//cc6c6qTE.s 			page 1


   1              		.cpu cortex-m4
   2              		.eabi_attribute 20, 1
   3              		.eabi_attribute 21, 1
   4              		.eabi_attribute 23, 3
   5              		.eabi_attribute 24, 1
   6              		.eabi_attribute 25, 1
   7              		.eabi_attribute 26, 1
   8              		.eabi_attribute 30, 2
   9              		.eabi_attribute 34, 1
  10              		.eabi_attribute 18, 4
  11              		.file	"chschd.c"
  12              		.text
  13              	.Ltext0:
  14              		.cfi_sections	.debug_frame
  15              		.section	.text.wakeup,"ax",%progbits
  16              		.align	1
  17              		.p2align 4,,15
  18              		.syntax unified
  19              		.thumb
  20              		.thumb_func
  21              		.fpu softvfp
  22              		.type	wakeup, %function
  23              	wakeup:
  24              	.LFB284:
  25              		.file 1 "../os/rt/src/chschd.c"
  26              		.loc 1 319 0
  27              		.cfi_startproc
  28              		@ args = 0, pretend = 0, frame = 0
  29              		@ frame_needed = 0, uses_anonymous_args = 0
  30              		@ link register save eliminated.
  31              	.LVL0:
  32              	.LBB133:
  33              	.LBB134:
  34              	.LBB135:
  35              	.LBB136:
  36              	.LBB137:
  37              		.file 2 "../os/common/ext/ARM/CMSIS/Core/Include/cmsis_gcc.h"
  38              		.loc 2 490 0
  39 0000 2023     		movs	r3, #32
  40              		.syntax unified
  41              	@ 490 "../os/common/ext/ARM/CMSIS/Core/Include/cmsis_gcc.h" 1
  42 0002 83F31188 		MSR basepri, r3
  43              	@ 0 "" 2
  44              	.LVL1:
  45              		.thumb
  46              		.syntax unified
  47              	.LBE137:
  48              	.LBE136:
  49              	.LBE135:
  50              	.LBE134:
  51              	.LBE133:
  52              		.loc 1 323 0
  53 0006 90F82030 		ldrb	r3, [r0, #32]	@ zero_extendqisi2
  54 000a 072B     		cmp	r3, #7
  55 000c 0ED8     		bhi	.L2
  56 000e DFE803F0 		tbb	[pc, r3]
  57              	.L4:
ARM GAS  /var/folders/vd/czx34qs52cd_f3nb04sxmghc0000gn/T//cc6c6qTE.s 			page 2


  58 0012 28       		.byte	(.L3-.L4)/2
  59 0013 0D       		.byte	(.L2-.L4)/2
  60 0014 0D       		.byte	(.L2-.L4)/2
  61 0015 24       		.byte	(.L5-.L4)/2
  62 0016 08       		.byte	(.L6-.L4)/2
  63 0017 04       		.byte	(.L7-.L4)/2
  64 0018 0D       		.byte	(.L2-.L4)/2
  65 0019 08       		.byte	(.L6-.L4)/2
  66              		.p2align 1
  67              	.L7:
  68              		.loc 1 334 0
  69 001a 426A     		ldr	r2, [r0, #36]
  70              	.LVL2:
  71              	.LBB138:
  72              	.LBB139:
  73              		.file 3 "../os/rt/include/chsem.h"
  74              		.loc 3 138 0
  75 001c 9368     		ldr	r3, [r2, #8]
  76 001e 0133     		adds	r3, r3, #1
  77 0020 9360     		str	r3, [r2, #8]
  78              	.LVL3:
  79              	.L6:
  80              	.LBE139:
  81              	.LBE138:
  82              	.LBB140:
  83              	.LBB141:
  84              		.file 4 "../os/rt/include/chschd.h"
  85              		.loc 4 626 0
  86 0022 D0E90023 		ldrd	r2, r3, [r0]
  87 0026 1A60     		str	r2, [r3]
  88              		.loc 4 627 0
  89 0028 0268     		ldr	r2, [r0]
  90 002a 5360     		str	r3, [r2, #4]
  91              	.LVL4:
  92              	.L2:
  93              	.LBE141:
  94              	.LBE140:
  95              		.loc 1 319 0
  96 002c 10B4     		push	{r4}
  97              		.cfi_def_cfa_offset 4
  98              		.cfi_offset 4, -4
  99              	.LBB142:
 100              	.LBB143:
 101              		.loc 1 227 0
 102 002e 0022     		movs	r2, #0
 103              	.LBE143:
 104              	.LBE142:
 105              		.loc 1 349 0
 106 0030 4FF0FF34 		mov	r4, #-1
 107              	.LBB145:
 108              	.LBB146:
 109              	.LBB147:
 110              	.LBB148:
 111              		.loc 1 231 0
 112 0034 8168     		ldr	r1, [r0, #8]
 113              		.loc 1 228 0
 114 0036 0D4B     		ldr	r3, .L15
ARM GAS  /var/folders/vd/czx34qs52cd_f3nb04sxmghc0000gn/T//cc6c6qTE.s 			page 3


 115              	.LBE148:
 116              	.LBE147:
 117              	.LBE146:
 118              	.LBE145:
 119              		.loc 1 349 0
 120 0038 4462     		str	r4, [r0, #36]
 121              	.LVL5:
 122              	.LBB164:
 123              	.LBB144:
 124              		.loc 1 227 0
 125 003a 80F82020 		strb	r2, [r0, #32]
 126              	.LVL6:
 127              	.L9:
 128              	.LBE144:
 129              	.LBE164:
 130              	.LBB165:
 131              	.LBB163:
 132              	.LBB151:
 133              	.LBB149:
 134              		.loc 1 230 0
 135 003e 1B68     		ldr	r3, [r3]
 136              	.LVL7:
 137              		.loc 1 231 0
 138 0040 9A68     		ldr	r2, [r3, #8]
 139 0042 8A42     		cmp	r2, r1
 140 0044 FBD2     		bcs	.L9
 141              		.loc 1 234 0
 142 0046 5A68     		ldr	r2, [r3, #4]
 143              	.LBE149:
 144              	.LBE151:
 145              	.LBB152:
 146              	.LBB153:
 147              	.LBB154:
 148              	.LBB155:
 149              	.LBB156:
 150              		.loc 2 490 0
 151 0048 0021     		movs	r1, #0
 152              	.LBE156:
 153              	.LBE155:
 154              	.LBE154:
 155              	.LBE153:
 156              	.LBE152:
 157              	.LBB161:
 158              	.LBB150:
 159              		.loc 1 234 0
 160 004a C0E90032 		strd	r3, r2, [r0]
 161              		.loc 1 235 0
 162 004e 1060     		str	r0, [r2]
 163              		.loc 1 236 0
 164 0050 5860     		str	r0, [r3, #4]
 165              	.LVL8:
 166              	.LBE150:
 167              	.LBE161:
 168              	.LBB162:
 169              	.LBB160:
 170              	.LBB159:
 171              	.LBB158:
ARM GAS  /var/folders/vd/czx34qs52cd_f3nb04sxmghc0000gn/T//cc6c6qTE.s 			page 4


 172              	.LBB157:
 173              		.loc 2 490 0
 174              		.syntax unified
 175              	@ 490 "../os/common/ext/ARM/CMSIS/Core/Include/cmsis_gcc.h" 1
 176 0052 81F31188 		MSR basepri, r1
 177              	@ 0 "" 2
 178              	.LVL9:
 179              		.thumb
 180              		.syntax unified
 181              	.LBE157:
 182              	.LBE158:
 183              	.LBE159:
 184              	.LBE160:
 185              	.LBE162:
 186              	.LBE163:
 187              	.LBE165:
 188              		.loc 1 352 0
 189 0056 10BC     		pop	{r4}
 190              		.cfi_restore 4
 191              		.cfi_def_cfa_offset 0
 192 0058 7047     		bx	lr
 193              	.LVL10:
 194              	.L5:
 195              		.loc 1 330 0
 196 005a 436A     		ldr	r3, [r0, #36]
 197 005c 0022     		movs	r2, #0
 198 005e 1A60     		str	r2, [r3]
 199              		.loc 1 331 0
 200 0060 E4E7     		b	.L2
 201              	.L3:
 202              	.LVL11:
 203              	.LBB166:
 204              	.LBB167:
 205              	.LBB168:
 206              	.LBB169:
 207              	.LBB170:
 208              		.loc 2 490 0
 209 0062 0023     		movs	r3, #0
 210              		.syntax unified
 211              	@ 490 "../os/common/ext/ARM/CMSIS/Core/Include/cmsis_gcc.h" 1
 212 0064 83F31188 		MSR basepri, r3
 213              	@ 0 "" 2
 214              	.LVL12:
 215              		.thumb
 216              		.syntax unified
 217 0068 7047     		bx	lr
 218              	.L16:
 219 006a 00BF     		.align	2
 220              	.L15:
 221 006c 00000000 		.word	.LANCHOR0
 222              	.LBE170:
 223              	.LBE169:
 224              	.LBE168:
 225              	.LBE167:
 226              	.LBE166:
 227              		.cfi_endproc
 228              	.LFE284:
ARM GAS  /var/folders/vd/czx34qs52cd_f3nb04sxmghc0000gn/T//cc6c6qTE.s 			page 5


 229              		.size	wakeup, .-wakeup
 230              		.section	.text._scheduler_init,"ax",%progbits
 231              		.align	1
 232              		.p2align 4,,15
 233              		.global	_scheduler_init
 234              		.syntax unified
 235              		.thumb
 236              		.thumb_func
 237              		.fpu softvfp
 238              		.type	_scheduler_init, %function
 239              	_scheduler_init:
 240              	.LFB280:
 241              		.loc 1 65 0
 242              		.cfi_startproc
 243              		@ args = 0, pretend = 0, frame = 0
 244              		@ frame_needed = 0, uses_anonymous_args = 0
 245              		@ link register save eliminated.
 246              	.LVL13:
 247              	.LBB171:
 248              	.LBB172:
 249              		.loc 4 539 0
 250 0000 034B     		ldr	r3, .L18
 251              	.LBE172:
 252              	.LBE171:
 253              		.loc 1 68 0
 254 0002 0022     		movs	r2, #0
 255              	.LBB174:
 256              	.LBB173:
 257              		.loc 4 540 0
 258 0004 C3E90033 		strd	r3, r3, [r3]
 259              	.LVL14:
 260              	.LBE173:
 261              	.LBE174:
 262              		.loc 1 71 0
 263 0008 C3E90433 		strd	r3, r3, [r3, #16]
 264              		.loc 1 68 0
 265 000c 9A60     		str	r2, [r3, #8]
 266              		.loc 1 73 0
 267 000e 7047     		bx	lr
 268              	.L19:
 269              		.align	2
 270              	.L18:
 271 0010 00000000 		.word	.LANCHOR0
 272              		.cfi_endproc
 273              	.LFE280:
 274              		.size	_scheduler_init, .-_scheduler_init
 275              		.section	.text.chSchReadyI,"ax",%progbits
 276              		.align	1
 277              		.p2align 4,,15
 278              		.global	chSchReadyI
 279              		.syntax unified
 280              		.thumb
 281              		.thumb_func
 282              		.fpu softvfp
 283              		.type	chSchReadyI, %function
 284              	chSchReadyI:
 285              	.LFB281:
ARM GAS  /var/folders/vd/czx34qs52cd_f3nb04sxmghc0000gn/T//cc6c6qTE.s 			page 6


 286              		.loc 1 218 0
 287              		.cfi_startproc
 288              		@ args = 0, pretend = 0, frame = 0
 289              		@ frame_needed = 0, uses_anonymous_args = 0
 290              		@ link register save eliminated.
 291              	.LVL15:
 292              		.loc 1 218 0
 293 0000 0146     		mov	r1, r0
 294              		.loc 1 227 0
 295 0002 0022     		movs	r2, #0
 296              		.loc 1 228 0
 297 0004 074B     		ldr	r3, .L23
 298              		.loc 1 231 0
 299 0006 8068     		ldr	r0, [r0, #8]
 300              	.LVL16:
 301              		.loc 1 227 0
 302 0008 81F82020 		strb	r2, [r1, #32]
 303              	.LVL17:
 304              	.L21:
 305              		.loc 1 230 0 discriminator 1
 306 000c 1B68     		ldr	r3, [r3]
 307              	.LVL18:
 308              		.loc 1 231 0 discriminator 1
 309 000e 9A68     		ldr	r2, [r3, #8]
 310 0010 8242     		cmp	r2, r0
 311 0012 FBD2     		bcs	.L21
 312              		.loc 1 234 0
 313 0014 5A68     		ldr	r2, [r3, #4]
 314              		.loc 1 239 0
 315 0016 0846     		mov	r0, r1
 316              		.loc 1 234 0
 317 0018 C1E90032 		strd	r3, r2, [r1]
 318              		.loc 1 235 0
 319 001c 1160     		str	r1, [r2]
 320              		.loc 1 236 0
 321 001e 5960     		str	r1, [r3, #4]
 322              		.loc 1 239 0
 323 0020 7047     		bx	lr
 324              	.L24:
 325 0022 00BF     		.align	2
 326              	.L23:
 327 0024 00000000 		.word	.LANCHOR0
 328              		.cfi_endproc
 329              	.LFE281:
 330              		.size	chSchReadyI, .-chSchReadyI
 331              		.section	.text.chSchReadyAheadI,"ax",%progbits
 332              		.align	1
 333              		.p2align 4,,15
 334              		.global	chSchReadyAheadI
 335              		.syntax unified
 336              		.thumb
 337              		.thumb_func
 338              		.fpu softvfp
 339              		.type	chSchReadyAheadI, %function
 340              	chSchReadyAheadI:
 341              	.LFB282:
 342              		.loc 1 257 0
ARM GAS  /var/folders/vd/czx34qs52cd_f3nb04sxmghc0000gn/T//cc6c6qTE.s 			page 7


 343              		.cfi_startproc
 344              		@ args = 0, pretend = 0, frame = 0
 345              		@ frame_needed = 0, uses_anonymous_args = 0
 346              		@ link register save eliminated.
 347              	.LVL19:
 348              		.loc 1 257 0
 349 0000 0146     		mov	r1, r0
 350              		.loc 1 266 0
 351 0002 0022     		movs	r2, #0
 352              		.loc 1 267 0
 353 0004 074B     		ldr	r3, .L28
 354              		.loc 1 270 0
 355 0006 8068     		ldr	r0, [r0, #8]
 356              	.LVL20:
 357              		.loc 1 266 0
 358 0008 81F82020 		strb	r2, [r1, #32]
 359              	.LVL21:
 360              	.L26:
 361              		.loc 1 269 0 discriminator 1
 362 000c 1B68     		ldr	r3, [r3]
 363              	.LVL22:
 364              		.loc 1 270 0 discriminator 1
 365 000e 9A68     		ldr	r2, [r3, #8]
 366 0010 8242     		cmp	r2, r0
 367 0012 FBD8     		bhi	.L26
 368              		.loc 1 273 0
 369 0014 5A68     		ldr	r2, [r3, #4]
 370              		.loc 1 278 0
 371 0016 0846     		mov	r0, r1
 372              		.loc 1 273 0
 373 0018 C1E90032 		strd	r3, r2, [r1]
 374              		.loc 1 274 0
 375 001c 1160     		str	r1, [r2]
 376              		.loc 1 275 0
 377 001e 5960     		str	r1, [r3, #4]
 378              		.loc 1 278 0
 379 0020 7047     		bx	lr
 380              	.L29:
 381 0022 00BF     		.align	2
 382              	.L28:
 383 0024 00000000 		.word	.LANCHOR0
 384              		.cfi_endproc
 385              	.LFE282:
 386              		.size	chSchReadyAheadI, .-chSchReadyAheadI
 387              		.section	.text.chSchGoSleepS,"ax",%progbits
 388              		.align	1
 389              		.p2align 4,,15
 390              		.global	chSchGoSleepS
 391              		.syntax unified
 392              		.thumb
 393              		.thumb_func
 394              		.fpu softvfp
 395              		.type	chSchGoSleepS, %function
 396              	chSchGoSleepS:
 397              	.LFB283:
 398              		.loc 1 289 0
 399              		.cfi_startproc
ARM GAS  /var/folders/vd/czx34qs52cd_f3nb04sxmghc0000gn/T//cc6c6qTE.s 			page 8


 400              		@ args = 0, pretend = 0, frame = 0
 401              		@ frame_needed = 0, uses_anonymous_args = 0
 402              		@ link register save eliminated.
 403              	.LVL23:
 404              		.loc 1 290 0
 405 0000 084B     		ldr	r3, .L32
 406 0002 9969     		ldr	r1, [r3, #24]
 407              	.LVL24:
 408              	.LBB175:
 409              	.LBB176:
 410              		.loc 4 607 0
 411 0004 1A68     		ldr	r2, [r3]
 412              	.LBE176:
 413              	.LBE175:
 414              		.loc 1 289 0
 415 0006 10B4     		push	{r4}
 416              		.cfi_def_cfa_offset 4
 417              		.cfi_offset 4, -4
 418              		.loc 1 295 0
 419 0008 81F82000 		strb	r0, [r1, #32]
 420              	.LVL25:
 421              	.LBB179:
 422              	.LBB177:
 423              		.loc 4 609 0
 424 000c 1068     		ldr	r0, [r2]
 425              	.LVL26:
 426 000e 1860     		str	r0, [r3]
 427              	.LBE177:
 428              	.LBE179:
 429              		.loc 1 305 0
 430 0010 0124     		movs	r4, #1
 431              	.LBB180:
 432              	.LBB178:
 433              		.loc 4 610 0
 434 0012 4360     		str	r3, [r0, #4]
 435              	.LVL27:
 436              	.LBE178:
 437              	.LBE180:
 438              		.loc 1 305 0
 439 0014 82F82040 		strb	r4, [r2, #32]
 440              		.loc 1 313 0
 441 0018 1046     		mov	r0, r2
 442              		.loc 1 314 0
 443 001a 10BC     		pop	{r4}
 444              		.cfi_restore 4
 445              		.cfi_def_cfa_offset 0
 446              		.loc 1 304 0
 447 001c 9A61     		str	r2, [r3, #24]
 448              		.loc 1 313 0
 449 001e FFF7FEBF 		b	_port_switch
 450              	.LVL28:
 451              	.L33:
 452 0022 00BF     		.align	2
 453              	.L32:
 454 0024 00000000 		.word	.LANCHOR0
 455              		.cfi_endproc
 456              	.LFE283:
ARM GAS  /var/folders/vd/czx34qs52cd_f3nb04sxmghc0000gn/T//cc6c6qTE.s 			page 9


 457              		.size	chSchGoSleepS, .-chSchGoSleepS
 458              		.section	.text.chSchGoSleepTimeoutS,"ax",%progbits
 459              		.align	1
 460              		.p2align 4,,15
 461              		.global	chSchGoSleepTimeoutS
 462              		.syntax unified
 463              		.thumb
 464              		.thumb_func
 465              		.fpu softvfp
 466              		.type	chSchGoSleepTimeoutS, %function
 467              	chSchGoSleepTimeoutS:
 468              	.LFB285:
 469              		.loc 1 375 0
 470              		.cfi_startproc
 471              		@ args = 0, pretend = 0, frame = 24
 472              		@ frame_needed = 0, uses_anonymous_args = 0
 473              	.LVL29:
 474 0000 30B5     		push	{r4, r5, lr}
 475              		.cfi_def_cfa_offset 12
 476              		.cfi_offset 4, -12
 477              		.cfi_offset 5, -8
 478              		.cfi_offset 14, -4
 479              		.loc 1 379 0
 480 0002 4B1C     		adds	r3, r1, #1
 481              		.loc 1 375 0
 482 0004 87B0     		sub	sp, sp, #28
 483              		.cfi_def_cfa_offset 40
 484              		.loc 1 379 0
 485 0006 12D0     		beq	.L35
 486              	.LBB181:
 487              		.loc 1 382 0
 488 0008 0C4C     		ldr	r4, .L42
 489 000a 0D4A     		ldr	r2, .L42+4
 490 000c A369     		ldr	r3, [r4, #24]
 491 000e 0546     		mov	r5, r0
 492 0010 01A8     		add	r0, sp, #4
 493              	.LVL30:
 494 0012 FFF7FEFF 		bl	chVTDoSetI
 495              	.LVL31:
 496              		.loc 1 383 0
 497 0016 2846     		mov	r0, r5
 498 0018 FFF7FEFF 		bl	chSchGoSleepS
 499              	.LVL32:
 500              		.loc 1 384 0
 501 001c 049B     		ldr	r3, [sp, #16]
 502 001e 13B1     		cbz	r3, .L37
 503              		.loc 1 385 0
 504 0020 01A8     		add	r0, sp, #4
 505              	.LVL33:
 506 0022 FFF7FEFF 		bl	chVTDoResetI
 507              	.LVL34:
 508              	.L37:
 509              	.LBE181:
 510              		.loc 1 392 0
 511 0026 A369     		ldr	r3, [r4, #24]
 512              		.loc 1 393 0
 513 0028 586A     		ldr	r0, [r3, #36]
ARM GAS  /var/folders/vd/czx34qs52cd_f3nb04sxmghc0000gn/T//cc6c6qTE.s 			page 10


 514 002a 07B0     		add	sp, sp, #28
 515              		.cfi_remember_state
 516              		.cfi_def_cfa_offset 12
 517              		@ sp needed
 518 002c 30BD     		pop	{r4, r5, pc}
 519              	.LVL35:
 520              	.L35:
 521              		.cfi_restore_state
 522 002e 034C     		ldr	r4, .L42
 523              		.loc 1 389 0
 524 0030 FFF7FEFF 		bl	chSchGoSleepS
 525              	.LVL36:
 526              		.loc 1 392 0
 527 0034 A369     		ldr	r3, [r4, #24]
 528              		.loc 1 393 0
 529 0036 586A     		ldr	r0, [r3, #36]
 530 0038 07B0     		add	sp, sp, #28
 531              		.cfi_def_cfa_offset 12
 532              		@ sp needed
 533 003a 30BD     		pop	{r4, r5, pc}
 534              	.L43:
 535              		.align	2
 536              	.L42:
 537 003c 00000000 		.word	.LANCHOR0
 538 0040 00000000 		.word	wakeup
 539              		.cfi_endproc
 540              	.LFE285:
 541              		.size	chSchGoSleepTimeoutS, .-chSchGoSleepTimeoutS
 542              		.section	.text.chSchWakeupS,"ax",%progbits
 543              		.align	1
 544              		.p2align 4,,15
 545              		.global	chSchWakeupS
 546              		.syntax unified
 547              		.thumb
 548              		.thumb_func
 549              		.fpu softvfp
 550              		.type	chSchWakeupS, %function
 551              	chSchWakeupS:
 552              	.LFB286:
 553              		.loc 1 412 0
 554              		.cfi_startproc
 555              		@ args = 0, pretend = 0, frame = 0
 556              		@ frame_needed = 0, uses_anonymous_args = 0
 557              		@ link register save eliminated.
 558              	.LVL37:
 559              		.loc 1 413 0
 560 0000 164B     		ldr	r3, .L53
 561              		.loc 1 412 0
 562 0002 70B4     		push	{r4, r5, r6}
 563              		.cfi_def_cfa_offset 12
 564              		.cfi_offset 4, -12
 565              		.cfi_offset 5, -8
 566              		.cfi_offset 6, -4
 567              		.loc 1 413 0
 568 0004 9E69     		ldr	r6, [r3, #24]
 569              	.LVL38:
 570              		.loc 1 429 0
ARM GAS  /var/folders/vd/czx34qs52cd_f3nb04sxmghc0000gn/T//cc6c6qTE.s 			page 11


 571 0006 8568     		ldr	r5, [r0, #8]
 572              		.loc 1 412 0
 573 0008 0446     		mov	r4, r0
 574              		.loc 1 429 0
 575 000a B068     		ldr	r0, [r6, #8]
 576              	.LVL39:
 577              		.loc 1 423 0
 578 000c 6162     		str	r1, [r4, #36]
 579              		.loc 1 429 0
 580 000e 8542     		cmp	r5, r0
 581              	.LBB182:
 582              	.LBB183:
 583              		.loc 1 227 0
 584 0010 4FF00002 		mov	r2, #0
 585              	.LBE183:
 586              	.LBE182:
 587              		.loc 1 429 0
 588 0014 0CD8     		bhi	.L45
 589              	.LVL40:
 590              	.LBB185:
 591              	.LBB184:
 592              		.loc 1 227 0
 593 0016 84F82020 		strb	r2, [r4, #32]
 594              	.LVL41:
 595              	.L46:
 596              		.loc 1 230 0
 597 001a 1B68     		ldr	r3, [r3]
 598              	.LVL42:
 599              		.loc 1 231 0
 600 001c 9A68     		ldr	r2, [r3, #8]
 601 001e 9542     		cmp	r5, r2
 602 0020 FBD9     		bls	.L46
 603              		.loc 1 234 0
 604 0022 5A68     		ldr	r2, [r3, #4]
 605 0024 C4E90032 		strd	r3, r2, [r4]
 606              		.loc 1 235 0
 607 0028 1460     		str	r4, [r2]
 608              		.loc 1 236 0
 609 002a 5C60     		str	r4, [r3, #4]
 610              	.LBE184:
 611              	.LBE185:
 612              		.loc 1 447 0
 613 002c 70BC     		pop	{r4, r5, r6}
 614              		.cfi_remember_state
 615              		.cfi_restore 6
 616              		.cfi_restore 5
 617              		.cfi_restore 4
 618              		.cfi_def_cfa_offset 0
 619              	.LVL43:
 620 002e 7047     		bx	lr
 621              	.LVL44:
 622              	.L45:
 623              		.cfi_restore_state
 624              	.LBB186:
 625              	.LBB187:
 626              		.loc 1 227 0
 627 0030 86F82020 		strb	r2, [r6, #32]
ARM GAS  /var/folders/vd/czx34qs52cd_f3nb04sxmghc0000gn/T//cc6c6qTE.s 			page 12


 628              	.LVL45:
 629              		.loc 1 228 0
 630 0034 1A46     		mov	r2, r3
 631              	.LVL46:
 632              	.L48:
 633              		.loc 1 230 0
 634 0036 1268     		ldr	r2, [r2]
 635              	.LVL47:
 636              		.loc 1 231 0
 637 0038 9168     		ldr	r1, [r2, #8]
 638 003a 8842     		cmp	r0, r1
 639 003c FBD9     		bls	.L48
 640              		.loc 1 234 0
 641 003e 5168     		ldr	r1, [r2, #4]
 642 0040 7160     		str	r1, [r6, #4]
 643              	.LBE187:
 644              	.LBE186:
 645              		.loc 1 442 0
 646 0042 0120     		movs	r0, #1
 647              	.LBB189:
 648              	.LBB188:
 649              		.loc 1 233 0
 650 0044 3260     		str	r2, [r6]
 651              		.loc 1 235 0
 652 0046 0E60     		str	r6, [r1]
 653              		.loc 1 236 0
 654 0048 5660     		str	r6, [r2, #4]
 655              	.LVL48:
 656              	.LBE188:
 657              	.LBE189:
 658              		.loc 1 442 0
 659 004a 84F82000 		strb	r0, [r4, #32]
 660              		.loc 1 445 0
 661 004e 3146     		mov	r1, r6
 662 0050 2046     		mov	r0, r4
 663              		.loc 1 441 0
 664 0052 9C61     		str	r4, [r3, #24]
 665              		.loc 1 447 0
 666 0054 70BC     		pop	{r4, r5, r6}
 667              		.cfi_restore 6
 668              		.cfi_restore 5
 669              		.cfi_restore 4
 670              		.cfi_def_cfa_offset 0
 671              	.LVL49:
 672              		.loc 1 445 0
 673 0056 FFF7FEBF 		b	_port_switch
 674              	.LVL50:
 675              	.L54:
 676 005a 00BF     		.align	2
 677              	.L53:
 678 005c 00000000 		.word	.LANCHOR0
 679              		.cfi_endproc
 680              	.LFE286:
 681              		.size	chSchWakeupS, .-chSchWakeupS
 682              		.section	.text.chSchIsPreemptionRequired,"ax",%progbits
 683              		.align	1
 684              		.p2align 4,,15
ARM GAS  /var/folders/vd/czx34qs52cd_f3nb04sxmghc0000gn/T//cc6c6qTE.s 			page 13


 685              		.global	chSchIsPreemptionRequired
 686              		.syntax unified
 687              		.thumb
 688              		.thumb_func
 689              		.fpu softvfp
 690              		.type	chSchIsPreemptionRequired, %function
 691              	chSchIsPreemptionRequired:
 692              	.LFB288:
 693              		.loc 1 479 0
 694              		.cfi_startproc
 695              		@ args = 0, pretend = 0, frame = 0
 696              		@ frame_needed = 0, uses_anonymous_args = 0
 697              		@ link register save eliminated.
 698              	.LVL51:
 699              		.loc 1 480 0
 700 0000 044B     		ldr	r3, .L56
 701 0002 1A68     		ldr	r2, [r3]
 702              		.loc 1 481 0
 703 0004 9B69     		ldr	r3, [r3, #24]
 704              		.loc 1 492 0
 705 0006 9068     		ldr	r0, [r2, #8]
 706 0008 9B68     		ldr	r3, [r3, #8]
 707              		.loc 1 494 0
 708 000a 9842     		cmp	r0, r3
 709 000c 94BF     		ite	ls
 710 000e 0020     		movls	r0, #0
 711 0010 0120     		movhi	r0, #1
 712 0012 7047     		bx	lr
 713              	.L57:
 714              		.align	2
 715              	.L56:
 716 0014 00000000 		.word	.LANCHOR0
 717              		.cfi_endproc
 718              	.LFE288:
 719              		.size	chSchIsPreemptionRequired, .-chSchIsPreemptionRequired
 720              		.section	.text.chSchDoRescheduleBehind,"ax",%progbits
 721              		.align	1
 722              		.p2align 4,,15
 723              		.global	chSchDoRescheduleBehind
 724              		.syntax unified
 725              		.thumb
 726              		.thumb_func
 727              		.fpu softvfp
 728              		.type	chSchDoRescheduleBehind, %function
 729              	chSchDoRescheduleBehind:
 730              	.LFB289:
 731              		.loc 1 507 0
 732              		.cfi_startproc
 733              		@ args = 0, pretend = 0, frame = 0
 734              		@ frame_needed = 0, uses_anonymous_args = 0
 735              		@ link register save eliminated.
 736              		.loc 1 508 0
 737 0000 0D4B     		ldr	r3, .L62
 738              	.LBB190:
 739              	.LBB191:
 740              		.loc 4 607 0
 741 0002 1868     		ldr	r0, [r3]
ARM GAS  /var/folders/vd/czx34qs52cd_f3nb04sxmghc0000gn/T//cc6c6qTE.s 			page 14


 742              		.loc 4 609 0
 743 0004 0268     		ldr	r2, [r0]
 744              	.LBE191:
 745              	.LBE190:
 746              		.loc 1 507 0
 747 0006 10B4     		push	{r4}
 748              		.cfi_def_cfa_offset 4
 749              		.cfi_offset 4, -4
 750              		.loc 1 512 0
 751 0008 0121     		movs	r1, #1
 752              		.loc 1 508 0
 753 000a 9C69     		ldr	r4, [r3, #24]
 754              	.LVL52:
 755              	.LBB193:
 756              	.LBB192:
 757              		.loc 4 609 0
 758 000c 1A60     		str	r2, [r3]
 759              		.loc 4 610 0
 760 000e 5360     		str	r3, [r2, #4]
 761              	.LVL53:
 762              	.LBE192:
 763              	.LBE193:
 764              		.loc 1 512 0
 765 0010 80F82010 		strb	r1, [r0, #32]
 766              	.LBB194:
 767              	.LBB195:
 768              		.loc 1 227 0
 769 0014 0022     		movs	r2, #0
 770              	.LBE195:
 771              	.LBE194:
 772              		.loc 1 515 0
 773 0016 A168     		ldr	r1, [r4, #8]
 774              	.LVL54:
 775              	.LBB199:
 776              	.LBB196:
 777              		.loc 1 227 0
 778 0018 84F82020 		strb	r2, [r4, #32]
 779              	.LVL55:
 780              	.LBE196:
 781              	.LBE199:
 782              		.loc 1 511 0
 783 001c 9861     		str	r0, [r3, #24]
 784              	.LVL56:
 785              	.L59:
 786              	.LBB200:
 787              	.LBB197:
 788              		.loc 1 230 0
 789 001e 1B68     		ldr	r3, [r3]
 790              	.LVL57:
 791              		.loc 1 231 0
 792 0020 9A68     		ldr	r2, [r3, #8]
 793 0022 9142     		cmp	r1, r2
 794 0024 FBD9     		bls	.L59
 795              		.loc 1 234 0
 796 0026 5A68     		ldr	r2, [r3, #4]
 797              	.LBE197:
 798              	.LBE200:
ARM GAS  /var/folders/vd/czx34qs52cd_f3nb04sxmghc0000gn/T//cc6c6qTE.s 			page 15


 799              		.loc 1 528 0
 800 0028 2146     		mov	r1, r4
 801              	.LBB201:
 802              	.LBB198:
 803              		.loc 1 234 0
 804 002a C4E90032 		strd	r3, r2, [r4]
 805              		.loc 1 235 0
 806 002e 1460     		str	r4, [r2]
 807              		.loc 1 236 0
 808 0030 5C60     		str	r4, [r3, #4]
 809              	.LVL58:
 810              	.LBE198:
 811              	.LBE201:
 812              		.loc 1 529 0
 813 0032 10BC     		pop	{r4}
 814              		.cfi_restore 4
 815              		.cfi_def_cfa_offset 0
 816              		.loc 1 528 0
 817 0034 FFF7FEBF 		b	_port_switch
 818              	.LVL59:
 819              	.L63:
 820              		.align	2
 821              	.L62:
 822 0038 00000000 		.word	.LANCHOR0
 823              		.cfi_endproc
 824              	.LFE289:
 825              		.size	chSchDoRescheduleBehind, .-chSchDoRescheduleBehind
 826              		.section	.text.chSchDoRescheduleAhead,"ax",%progbits
 827              		.align	1
 828              		.p2align 4,,15
 829              		.global	chSchDoRescheduleAhead
 830              		.syntax unified
 831              		.thumb
 832              		.thumb_func
 833              		.fpu softvfp
 834              		.type	chSchDoRescheduleAhead, %function
 835              	chSchDoRescheduleAhead:
 836              	.LFB290:
 837              		.loc 1 540 0
 838              		.cfi_startproc
 839              		@ args = 0, pretend = 0, frame = 0
 840              		@ frame_needed = 0, uses_anonymous_args = 0
 841              		@ link register save eliminated.
 842              		.loc 1 541 0
 843 0000 0D4B     		ldr	r3, .L68
 844              	.LBB202:
 845              	.LBB203:
 846              		.loc 4 607 0
 847 0002 1868     		ldr	r0, [r3]
 848              		.loc 4 609 0
 849 0004 0268     		ldr	r2, [r0]
 850              	.LBE203:
 851              	.LBE202:
 852              		.loc 1 540 0
 853 0006 10B4     		push	{r4}
 854              		.cfi_def_cfa_offset 4
 855              		.cfi_offset 4, -4
ARM GAS  /var/folders/vd/czx34qs52cd_f3nb04sxmghc0000gn/T//cc6c6qTE.s 			page 16


 856              		.loc 1 545 0
 857 0008 0121     		movs	r1, #1
 858              		.loc 1 541 0
 859 000a 9C69     		ldr	r4, [r3, #24]
 860              	.LVL60:
 861              	.LBB205:
 862              	.LBB204:
 863              		.loc 4 609 0
 864 000c 1A60     		str	r2, [r3]
 865              		.loc 4 610 0
 866 000e 5360     		str	r3, [r2, #4]
 867              	.LVL61:
 868              	.LBE204:
 869              	.LBE205:
 870              		.loc 1 545 0
 871 0010 80F82010 		strb	r1, [r0, #32]
 872              	.LBB206:
 873              	.LBB207:
 874              		.loc 1 266 0
 875 0014 0022     		movs	r2, #0
 876              	.LBE207:
 877              	.LBE206:
 878              		.loc 1 548 0
 879 0016 A168     		ldr	r1, [r4, #8]
 880              	.LVL62:
 881              	.LBB211:
 882              	.LBB208:
 883              		.loc 1 266 0
 884 0018 84F82020 		strb	r2, [r4, #32]
 885              	.LVL63:
 886              	.LBE208:
 887              	.LBE211:
 888              		.loc 1 544 0
 889 001c 9861     		str	r0, [r3, #24]
 890              	.LVL64:
 891              	.L65:
 892              	.LBB212:
 893              	.LBB209:
 894              		.loc 1 269 0
 895 001e 1B68     		ldr	r3, [r3]
 896              	.LVL65:
 897              		.loc 1 270 0
 898 0020 9A68     		ldr	r2, [r3, #8]
 899 0022 9142     		cmp	r1, r2
 900 0024 FBD3     		bcc	.L65
 901              		.loc 1 273 0
 902 0026 5A68     		ldr	r2, [r3, #4]
 903              	.LBE209:
 904              	.LBE212:
 905              		.loc 1 556 0
 906 0028 2146     		mov	r1, r4
 907              	.LBB213:
 908              	.LBB210:
 909              		.loc 1 273 0
 910 002a C4E90032 		strd	r3, r2, [r4]
 911              		.loc 1 274 0
 912 002e 1460     		str	r4, [r2]
ARM GAS  /var/folders/vd/czx34qs52cd_f3nb04sxmghc0000gn/T//cc6c6qTE.s 			page 17


 913              		.loc 1 275 0
 914 0030 5C60     		str	r4, [r3, #4]
 915              	.LVL66:
 916              	.LBE210:
 917              	.LBE213:
 918              		.loc 1 557 0
 919 0032 10BC     		pop	{r4}
 920              		.cfi_restore 4
 921              		.cfi_def_cfa_offset 0
 922              		.loc 1 556 0
 923 0034 FFF7FEBF 		b	_port_switch
 924              	.LVL67:
 925              	.L69:
 926              		.align	2
 927              	.L68:
 928 0038 00000000 		.word	.LANCHOR0
 929              		.cfi_endproc
 930              	.LFE290:
 931              		.size	chSchDoRescheduleAhead, .-chSchDoRescheduleAhead
 932              		.section	.text.chSchRescheduleS,"ax",%progbits
 933              		.align	1
 934              		.p2align 4,,15
 935              		.global	chSchRescheduleS
 936              		.syntax unified
 937              		.thumb
 938              		.thumb_func
 939              		.fpu softvfp
 940              		.type	chSchRescheduleS, %function
 941              	chSchRescheduleS:
 942              	.LFB287:
 943              		.loc 1 456 0
 944              		.cfi_startproc
 945              		@ args = 0, pretend = 0, frame = 0
 946              		@ frame_needed = 0, uses_anonymous_args = 0
 947              		@ link register save eliminated.
 948              	.LBB214:
 949              	.LBB215:
 950              		.loc 4 648 0
 951 0000 044B     		ldr	r3, .L73
 952 0002 1A68     		ldr	r2, [r3]
 953 0004 9B69     		ldr	r3, [r3, #24]
 954              	.LBE215:
 955              	.LBE214:
 956              		.loc 1 460 0
 957 0006 9268     		ldr	r2, [r2, #8]
 958 0008 9B68     		ldr	r3, [r3, #8]
 959 000a 9A42     		cmp	r2, r3
 960 000c 00D8     		bhi	.L72
 961              		.loc 1 463 0
 962 000e 7047     		bx	lr
 963              	.L72:
 964              		.loc 1 461 0
 965 0010 FFF7FEBF 		b	chSchDoRescheduleAhead
 966              	.LVL68:
 967              	.L74:
 968              		.align	2
 969              	.L73:
ARM GAS  /var/folders/vd/czx34qs52cd_f3nb04sxmghc0000gn/T//cc6c6qTE.s 			page 18


 970 0014 00000000 		.word	.LANCHOR0
 971              		.cfi_endproc
 972              	.LFE287:
 973              		.size	chSchRescheduleS, .-chSchRescheduleS
 974              		.section	.text.chSchDoReschedule,"ax",%progbits
 975              		.align	1
 976              		.p2align 4,,15
 977              		.global	chSchDoReschedule
 978              		.syntax unified
 979              		.thumb
 980              		.thumb_func
 981              		.fpu softvfp
 982              		.type	chSchDoReschedule, %function
 983              	chSchDoReschedule:
 984              	.LFB296:
 985              		.cfi_startproc
 986              		@ args = 0, pretend = 0, frame = 0
 987              		@ frame_needed = 0, uses_anonymous_args = 0
 988              		@ link register save eliminated.
 989 0000 FFF7FEBF 		b	chSchDoRescheduleAhead
 990              		.cfi_endproc
 991              	.LFE296:
 992              		.size	chSchDoReschedule, .-chSchDoReschedule
 993              		.global	ch
 994              		.section	.bss.ch,"aw",%nobits
 995              		.align	2
 996              		.set	.LANCHOR0,. + 0
 997              		.type	ch, %object
 998              		.size	ch, 120
 999              	ch:
 1000 0000 00000000 		.space	120
 1000      00000000 
 1000      00000000 
 1000      00000000 
 1000      00000000 
 1001              		.text
 1002              	.Letext0:
 1003              		.file 5 "/usr/local/Cellar/gcc-arm-none-eabi/20171218/lib/gcc/arm-none-eabi/7.2.1/include/stddef.h
 1004              		.file 6 "/usr/local/Cellar/gcc-arm-none-eabi/20171218/arm-none-eabi/include/machine/_default_types
 1005              		.file 7 "/usr/local/Cellar/gcc-arm-none-eabi/20171218/arm-none-eabi/include/sys/_stdint.h"
 1006              		.file 8 "../os/common/ports/ARMCMx/compilers/GCC/chtypes.h"
 1007              		.file 9 "../os/rt/include/chsystypes.h"
 1008              		.file 10 "../os/rt/include/chtime.h"
 1009              		.file 11 "../os/common/ext/ARM/CMSIS/Core/Include/core_cm4.h"
 1010              		.file 12 "../os/common/ext/ST/STM32F4xx/system_stm32f4xx.h"
 1011              		.file 13 "../os/common/ports/ARMCMx/chcore.h"
 1012              		.file 14 "../os/common/ports/ARMCMx/chcore_v7m.h"
 1013              		.file 15 "../os/rt/include/chtm.h"
 1014              		.file 16 "../os/rt/include/chmtx.h"
 1015              		.file 17 "../os/rt/include/chsys.h"
 1016              		.file 18 "../os/rt/include/chregistry.h"
 1017              		.file 19 "../os/common/oslib/include/chmemcore.h"
 1018              		.file 20 "../os/common/oslib/include/chmempools.h"
 1019              		.file 21 "../os/common/oslib/include/chfactory.h"
 1020              		.file 22 "../os/rt/include/chvt.h"