ARM GAS  /var/folders/vd/czx34qs52cd_f3nb04sxmghc0000gn/T//cc6c6qTE.s 			page 1


   1              		.cpu cortex-m4
   2              		.eabi_attribute 20, 1
   3              		.eabi_attribute 21, 1
   4              		.eabi_attribute 23, 3
   5              		.eabi_attribute 24, 1
   6              		.eabi_attribute 25, 1
   7              		.eabi_attribute 26, 1
   8              		.eabi_attribute 30, 2
   9              		.eabi_attribute 34, 1
  10              		.eabi_attribute 18, 4
  11              		.file	"chschd.c"
  12              		.text
  13              	.Ltext0:
  14              		.cfi_sections	.debug_frame
  15              		.section	.text.wakeup,"ax",%progbits
  16              		.align	1
  17              		.p2align 4,,15
  18              		.syntax unified
  19              		.thumb
  20              		.thumb_func
  21              		.fpu softvfp
  22              		.type	wakeup, %function
  23              	wakeup:
  24              	.LFB284:
  25              		.file 1 "../os/rt/src/chschd.c"
  26              		.loc 1 319 0
  27              		.cfi_startproc
  28              		@ args = 0, pretend = 0, frame = 0
  29              		@ frame_needed = 0, uses_anonymous_args = 0
  30              		@ link register save eliminated.
  31              	.LVL0:
  32              	.LBB133:
  33              	.LBB134:
  34              	.LBB135:
  35              	.LBB136:
  36              	.LBB137:
  37              		.file 2 "../os/common/ext/ARM/CMSIS/Core/Include/cmsis_gcc.h"
  38              		.loc 2 490 0
  39 0000 2023     		movs	r3, #32
  40              		.syntax unified
  41              	@ 490 "../os/common/ext/ARM/CMSIS/Core/Include/cmsis_gcc.h" 1
  42 0002 83F31188 		MSR basepri, r3
  43              	@ 0 "" 2
  44              	.LVL1:
  45              		.thumb
  46              		.syntax unified
  47              	.LBE137:
  48              	.LBE136:
  49              	.LBE135:
  50              	.LBE134:
  51              	.LBE133:
  52              		.loc 1 323 0
  53 0006 90F82030 		ldrb	r3, [r0, #32]	@ zero_extendqisi2
  54 000a 072B     		cmp	r3, #7
  55 000c 0ED8     		bhi	.L2
  56 000e DFE803F0 		tbb	[pc, r3]
  57              	.L4:
ARM GAS  /var/folders/vd/czx34qs52cd_f3nb04sxmghc0000gn/T//cc6c6qTE.s 			page 2


  58 0012 28       		.byte	(.L3-.L4)/2
  59 0013 0D       		.byte	(.L2-.L4)/2
  60 0014 0D       		.byte	(.L2-.L4)/2
  61 0015 24       		.byte	(.L5-.L4)/2
  62 0016 08       		.byte	(.L6-.L4)/2
  63 0017 04       		.byte	(.L7-.L4)/2
  64 0018 0D       		.byte	(.L2-.L4)/2
  65 0019 08       		.byte	(.L6-.L4)/2
  66              		.p2align 1
  67              	.L7:
  68              		.loc 1 334 0
  69 001a 426A     		ldr	r2, [r0, #36]
  70              	.LVL2:
  71              	.LBB138:
  72              	.LBB139:
  73              		.file 3 "../os/rt/include/chsem.h"
  74              		.loc 3 138 0
  75 001c 9368     		ldr	r3, [r2, #8]
  76 001e 0133     		adds	r3, r3, #1
  77 0020 9360     		str	r3, [r2, #8]
  78              	.LVL3:
  79              	.L6:
  80              	.LBE139:
  81              	.LBE138:
  82              	.LBB140:
  83              	.LBB141:
  84              		.file 4 "../os/rt/include/chschd.h"
  85              		.loc 4 626 0
  86 0022 D0E90023 		ldrd	r2, r3, [r0]
  87 0026 1A60     		str	r2, [r3]
  88              		.loc 4 627 0
  89 0028 0268     		ldr	r2, [r0]
  90 002a 5360     		str	r3, [r2, #4]
  91              	.LVL4:
  92              	.L2:
  93              	.LBE141:
  94              	.LBE140:
  95              		.loc 1 319 0
  96 002c 10B4     		push	{r4}
  97              		.cfi_def_cfa_offset 4
  98              		.cfi_offset 4, -4
  99              	.LBB142:
 100              	.LBB143:
 101              		.loc 1 227 0
 102 002e 0022     		movs	r2, #0
 103              	.LBE143:
 104              	.LBE142:
 105              		.loc 1 349 0
 106 0030 4FF0FF34 		mov	r4, #-1
 107              	.LBB145:
 108              	.LBB146:
 109              	.LBB147:
 110              	.LBB148:
 111              		.loc 1 231 0
 112 0034 8168     		ldr	r1, [r0, #8]
 113              		.loc 1 228 0
 114 0036 0D4B     		ldr	r3, .L15
ARM GAS  /var/folders/vd/czx34qs52cd_f3nb04sxmghc0000gn/T//cc6c6qTE.s 			page 3


 115              	.LBE148:
 116              	.LBE147:
 117              	.LBE146:
 118              	.LBE145:
 119              		.loc 1 349 0
 120 0038 4462     		str	r4, [r0, #36]
 121              	.LVL5:
 122              	.LBB164:
 123              	.LBB144:
 124              		.loc 1 227 0
 125 003a 80F82020 		strb	r2, [r0, #32]
 126              	.LVL6:
 127              	.L9:
 128              	.LBE144:
 129              	.LBE164:
 130              	.LBB165:
 131              	.LBB163:
 132              	.LBB151:
 133              	.LBB149:
 134              		.loc 1 230 0
 135 003e 1B68     		ldr	r3, [r3]
 136              	.LVL7:
 137              		.loc 1 231 0
 138 0040 9A68     		ldr	r2, [r3, #8]
 139 0042 8A42     		cmp	r2, r1
 140 0044 FBD2     		bcs	.L9
 141              		.loc 1 234 0
 142 0046 5A68     		ldr	r2, [r3, #4]
 143              	.LBE149:
 144              	.LBE151:
 145              	.LBB152:
 146              	.LBB153:
 147              	.LBB154:
 148              	.LBB155:
 149              	.LBB156:
 150              		.loc 2 490 0
 151 0048 0021     		movs	r1, #0
 152              	.LBE156:
 153              	.LBE155:
 154              	.LBE154:
 155              	.LBE153:
 156              	.LBE152:
 157              	.LBB161:
 158              	.LBB150:
 159              		.loc 1 234 0
 160 004a C0E90032 		strd	r3, r2, [r0]
 161              		.loc 1 235 0
 162 004e 1060     		str	r0, [r2]
 163              		.loc 1 236 0
 164 0050 5860     		str	r0, [r3, #4]
 165              	.LVL8:
 166              	.LBE150:
 167              	.LBE161:
 168              	.LBB162:
 169              	.LBB160:
 170              	.LBB159:
 171              	.LBB158:
ARM GAS  /var/folders/vd/czx34qs52cd_f3nb04sxmghc0000gn/T//cc6c6qTE.s 			page 4


 172              	.LBB157:
 173              		.loc 2 490 0
 174              		.syntax unified
 175              	@ 490 "../os/common/ext/ARM/CMSIS/Core/Include/cmsis_gcc.h" 1
 176 0052 81F31188 		MSR basepri, r1
 177              	@ 0 "" 2
 178              	.LVL9:
 179              		.thumb
 180              		.syntax unified
 181              	.LBE157:
 182              	.LBE158:
 183              	.LBE159:
 184              	.LBE160:
 185              	.LBE162:
 186              	.LBE163:
 187              	.LBE165:
 188              		.loc 1 352 0
 189 0056 10BC     		pop	{r4}
 190              		.cfi_restore 4
 191              		.cfi_def_cfa_offset 0
 192 0058 7047     		bx	lr
 193              	.LVL10:
 194              	.L5:
 195              		.loc 1 330 0
 196 005a 436A     		ldr	r3, [r0, #36]
 197 005c 0022     		movs	r2, #0
 198 005e 1A60     		str	r2, [r3]
 199              		.loc 1 331 0
 200 0060 E4E7     		b	.L2
 201              	.L3:
 202              	.LVL11:
 203              	.LBB166:
 204              	.LBB167:
 205              	.LBB168:
 206              	.LBB169:
 207              	.LBB170:
 208              		.loc 2 490 0
 209 0062 0023     		movs	r3, #0
 210              		.syntax unified
 211              	@ 490 "../os/common/ext/ARM/CMSIS/Core/Include/cmsis_gcc.h" 1
 212 0064 83F31188 		MSR basepri, r3
 213              	@ 0 "" 2
 214              	.LVL12:
 215              		.thumb
 216              		.syntax unified
 217 0068 7047     		bx	lr
 218              	.L16:
 219 006a 00BF     		.align	2
 220              	.L15:
 221 006c 00000000 		.word	.LANCHOR0
 222              	.LBE170:
 223              	.LBE169:
 224              	.LBE168:
 225              	.LBE167:
 226              	.LBE166:
 227              		.cfi_endproc
 228              	.LFE284:
ARM GAS  /var/folders/vd/czx34qs52cd_f3nb04sxmghc0000gn/T//cc6c6qTE.s 			page 5


 229              		.size	wakeup, .-wakeup
 230              		.section	.text._scheduler_init,"ax",%progbits
 231              		.align	1
 232              		.p2align 4,,15
 233              		.global	_scheduler_init
 234              		.syntax unified
 235              		.thumb
 236              		.thumb_func
 237              		.fpu softvfp
 238              		.type	_scheduler_init, %function
 239              	_scheduler_init:
 240              	.LFB280:
 241              		.loc 1 65 0
 242              		.cfi_startproc
 243              		@ args = 0, pretend = 0, frame = 0
 244              		@ frame_needed = 0, uses_anonymous_args = 0
 245              		@ link register save eliminated.
 246              	.LVL13:
 247              	.LBB171:
 248              	.LBB172:
 249              		.loc 4 539 0
 250 0000 034B     		ldr	r3, .L18
 251              	.LBE172:
 252              	.LBE171:
 253              		.loc 1 68 0
 254 0002 0022     		movs	r2, #0
 255              	.LBB174:
 256              	.LBB173:
 257              		.loc 4 540 0
 258 0004 C3E90033 		strd	r3, r3, [r3]
 259              	.LVL14:
 260              	.LBE173:
 261              	.LBE174:
 262              		.loc 1 71 0
 263 0008 C3E90433 		strd	r3, r3, [r3, #16]
 264              		.loc 1 68 0
 265 000c 9A60     		str	r2, [r3, #8]
 266              		.loc 1 73 0
 267 000e 7047     		bx	lr
 268              	.L19:
 269              		.align	2
 270              	.L18:
 271 0010 00000000 		.word	.LANCHOR0
 272              		.cfi_endproc
 273              	.LFE280:
 274              		.size	_scheduler_init, .-_scheduler_init
 275              		.section	.text.chSchReadyI,"ax",%progbits
 276              		.align	1
 277              		.p2align 4,,15
 278              		.global	chSchReadyI
 279              		.syntax unified
 280              		.thumb
 281              		.thumb_func
 282              		.fpu softvfp
 283              		.type	chSchReadyI, %function
 284              	chSchReadyI:
 285              	.LFB281:
ARM GAS  /var/folders/vd/czx34qs52cd_f3nb04sxmghc0000gn/T//cc6c6qTE.s 			page 6


 286              		.loc 1 218 0
 287              		.cfi_startproc
 288              		@ args = 0, pretend = 0, frame = 0
 289              		@ frame_needed = 0, uses_anonymous_args = 0
 290              		@ link register save eliminated.
 291              	.LVL15:
 292              		.loc 1 218 0
 293 0000 0146     		mov	r1, r0
 294              		.loc 1 227 0
 295 0002 0022     		movs	r2, #0
 296              		.loc 1 228 0
 297 0004 074B     		ldr	r3, .L23
 298              		.loc 1 231 0
 299 0006 8068     		ldr	r0, [r0, #8]
 300              	.LVL16:
 301              		.loc 1 227 0
 302 0008 81F82020 		strb	r2, [r1, #32]
 303              	.LVL17:
 304              	.L21:
 305              		.loc 1 230 0 discriminator 1
 306 000c 1B68     		ldr	r3, [r3]
 307              	.LVL18:
 308              		.loc 1 231 0 discriminator 1
 309 000e 9A68     		ldr	r2, [r3, #8]
 310 0010 8242     		cmp	r2, r0
 311 0012 FBD2     		bcs	.L21
 312              		.loc 1 234 0
 313 0014 5A68     		ldr	r2, [r3, #4]
 314              		.loc 1 239 0
 315 0016 0846     		mov	r0, r1
 316              		.loc 1 234 0
 317 0018 C1E90032 		strd	r3, r2, [r1]
 318              		.loc 1 235 0
 319 001c 1160     		str	r1, [r2]
 320              		.loc 1 236 0
 321 001e 5960     		str	r1, [r3, #4]
 322              		.loc 1 239 0
 323 0020 7047     		bx	lr
 324              	.L24:
 325 0022 00BF     		.align	2
 326              	.L23:
 327 0024 00000000 		.word	.LANCHOR0
 328              		.cfi_endproc
 329              	.LFE281:
 330              		.size	chSchReadyI, .-chSchReadyI
 331              		.section	.text.chSchReadyAheadI,"ax",%progbits
 332              		.align	1
 333              		.p2align 4,,15
 334              		.global	chSchReadyAheadI
 335              		.syntax unified
 336              		.thumb
 337              		.thumb_func
 338              		.fpu softvfp
 339              		.type	chSchReadyAheadI, %function
 340              	chSchReadyAheadI:
 341              	.LFB282:
 342              		.loc 1 257 0
ARM GAS  /var/folders/vd/czx34qs52cd_f3nb04sxmghc0000gn/T//cc6c6qTE.s 			page 7


 343              		.cfi_startproc
 344              		@ args = 0, pretend = 0, frame = 0
 345              		@ frame_needed = 0, uses_anonymous_args = 0
 346              		@ link register save eliminated.
 347              	.LVL19:
 348              		.loc 1 257 0
 349 0000 0146     		mov	r1, r0
 350              		.loc 1 266 0
 351 0002 0022     		movs	r2, #0
 352              		.loc 1 267 0
 353 0004 074B     		ldr	r3, .L28
 354              		.loc 1 270 0
 355 0006 8068     		ldr	r0, [r0, #8]
 356              	.LVL20:
 357              		.loc 1 266 0
 358 0008 81F82020 		strb	r2, [r1, #32]
 359              	.LVL21:
 360              	.L26:
 361              		.loc 1 269 0 discriminator 1
 362 000c 1B68     		ldr	r3, [r3]
 363              	.LVL22:
 364              		.loc 1 270 0 discriminator 1
 365 000e 9A68     		ldr	r2, [r3, #8]
 366 0010 8242     		cmp	r2, r0
 367 0012 FBD8     		bhi	.L26
 368              		.loc 1 273 0
 369 0014 5A68     		ldr	r2, [r3, #4]
 370              		.loc 1 278 0
 371 0016 0846     		mov	r0, r1
 372              		.loc 1 273 0
 373 0018 C1E90032 		strd	r3, r2, [r1]
 374              		.loc 1 274 0
 375 001c 1160     		str	r1, [r2]
 376              		.loc 1 275 0
 377 001e 5960     		str	r1, [r3, #4]
 378              		.loc 1 278 0
 379 0020 7047     		bx	lr
 380              	.L29:
 381 0022 00BF     		.align	2
 382              	.L28:
 383 0024 00000000 		.word	.LANCHOR0
 384              		.cfi_endproc
 385              	.LFE282:
 386              		.size	chSchReadyAheadI, .-chSchReadyAheadI
 387              		.section	.text.chSchGoSleepS,"ax",%progbits
 388              		.align	1
 389              		.p2align 4,,15
 390              		.global	chSchGoSleepS
 391              		.syntax unified
 392              		.thumb
 393              		.thumb_func
 394              		.fpu softvfp
 395              		.type	chSchGoSleepS, %function
 396              	chSchGoSleepS:
 397              	.LFB283:
 398              		.loc 1 289 0
 399              		.cfi_startproc
ARM GAS  /var/folders/vd/czx34qs52cd_f3nb04sxmghc0000gn/T//cc6c6qTE.s 			page 8


 400              		@ args = 0, pretend = 0, frame = 0
 401              		@ frame_needed = 0, uses_anonymous_args = 0
 402              		@ link register save eliminated.
 403              	.LVL23:
 404              		.loc 1 290 0
 405 0000 084B     		ldr	r3, .L32
 406 0002 9969     		ldr	r1, [r3, #24]
 407              	.LVL24:
 408              	.LBB175:
 409              	.LBB176:
 410              		.loc 4 607 0
 411 0004 1A68     		ldr	r2, [r3]
 412              	.LBE176:
 413              	.LBE175:
 414              		.loc 1 289 0
 415 0006 10B4     		push	{r4}
 416              		.cfi_def_cfa_offset 4
 417              		.cfi_offset 4, -4
 418              		.loc 1 295 0
 419 0008 81F82000 		strb	r0, [r1, #32]
 420              	.LVL25:
 421              	.LBB179:
 422              	.LBB177:
 423              		.loc 4 609 0
 424 000c 1068     		ldr	r0, [r2]
 425              	.LVL26:
 426 000e 1860     		str	r0, [r3]
 427              	.LBE177:
 428              	.LBE179:
 429              		.loc 1 305 0
 430 0010 0124     		movs	r4, #1
 431              	.LBB180:
 432              	.LBB178:
 433              		.loc 4 610 0
 434 0012 4360     		str	r3, [r0, #4]
 435              	.LVL27:
 436              	.LBE178:
 437              	.LBE180:
 438              		.loc 1 305 0
 439 0014 82F82040 		strb	r4, [r2, #32]
 440              		.loc 1 313 0
 441 0018 1046     		mov	r0, r2
 442              		.loc 1 314 0
 443 001a 10BC     		pop	{r4}
 444              		.cfi_restore 4
 445              		.cfi_def_cfa_offset 0
 446              		.loc 1 304 0
 447 001c 9A61     		str	r2, [r3, #24]
 448              		.loc 1 313 0
 449 001e FFF7FEBF 		b	_port_switch
 450              	.LVL28:
 451              	.L33:
 452 0022 00BF     		.align	2
 453              	.L32:
 454 0024 00000000 		.word	.LANCHOR0
 455              		.cfi_endproc
 456              	.LFE283:
ARM GAS  /var/folders/vd/czx34qs52cd_f3nb04sxmghc0000gn/T//cc6c6qTE.s 			page 9


 457              		.size	chSchGoSleepS, .-chSchGoSleepS
 458              		.section	.text.chSchGoSleepTimeoutS,"ax",%progbits
 459              		.align	1
 460              		.p2align 4,,15
 461              		.global	chSchGoSleepTimeoutS
 462              		.syntax unified
 463              		.thumb
 464              		.thumb_func
 465              		.fpu softvfp
 466              		.type	chSchGoSleepTimeoutS, %function
 467              	chSchGoSleepTimeoutS:
 468              	.LFB285:
 469              		.loc 1 375 0
 470              		.cfi_startproc
 471              		@ args = 0, pretend = 0, frame = 24
 472              		@ frame_needed = 0, uses_anonymous_args = 0
 473              	.LVL29:
 474 0000 30B5     		push	{r4, r5, lr}
 475              		.cfi_def_cfa_offset 12
 476              		.cfi_offset 4, -12
 477              		.cfi_offset 5, -8
 478              		.cfi_offset 14, -4
 479              		.loc 1 379 0
 480 0002 4B1C     		adds	r3, r1, #1
 481              		.loc 1 375 0
 482 0004 87B0     		sub	sp, sp, #28
 483              		.cfi_def_cfa_offset 40
 484              		.loc 1 379 0
 485 0006 12D0     		beq	.L35
 486              	.LBB181:
 487              		.loc 1 382 0
 488 0008 0C4C     		ldr	r4, .L42
 489 000a 0D4A     		ldr	r2, .L42+4
 490 000c A369     		ldr	r3, [r4, #24]
 491 000e 0546     		mov	r5, r0
 492 0010 01A8     		add	r0, sp, #4
 493              	.LVL30:
 494 0012 FFF7FEFF 		bl	chVTDoSetI
 495              	.LVL31:
 496              		.loc 1 383 0
 497 0016 2846     		mov	r0, r5
 498 0018 FFF7FEFF 		bl	chSchGoSleepS
 499              	.LVL32:
 500              		.loc 1 384 0
 501 001c 049B     		ldr	r3, [sp, #16]
 502 001e 13B1     		cbz	r3, .L37
 503              		.loc 1 385 0
 504 0020 01A8     		add	r0, sp, #4
 505              	.LVL33:
 506 0022 FFF7FEFF 		bl	chVTDoResetI
 507              	.LVL34:
 508              	.L37:
 509              	.LBE181:
 510              		.loc 1 392 0
 511 0026 A369     		ldr	r3, [r4, #24]
 512              		.loc 1 393 0
 513 0028 586A     		ldr	r0, [r3, #36]
ARM GAS  /var/folders/vd/czx34qs52cd_f3nb04sxmghc0000gn/T//cc6c6qTE.s 			page 10


 514 002a 07B0     		add	sp, sp, #28
 515              		.cfi_remember_state
 516              		.cfi_def_cfa_offset 12
 517              		@ sp needed
 518 002c 30BD     		pop	{r4, r5, pc}
 519              	.LVL35:
 520              	.L35:
 521              		.cfi_restore_state
 522 002e 034C     		ldr	r4, .L42
 523              		.loc 1 389 0
 524 0030 FFF7FEFF 		bl	chSchGoSleepS
 525              	.LVL36:
 526              		.loc 1 392 0
 527 0034 A369     		ldr	r3, [r4, #24]
 528              		.loc 1 393 0
 529 0036 586A     		ldr	r0, [r3, #36]
 530 0038 07B0     		add	sp, sp, #28
 531              		.cfi_def_cfa_offset 12
 532              		@ sp needed
 533 003a 30BD     		pop	{r4, r5, pc}
 534              	.L43:
 535              		.align	2
 536              	.L42:
 537 003c 00000000 		.word	.LANCHOR0
 538 0040 00000000 		.word	wakeup
 539              		.cfi_endproc
 540              	.LFE285:
 541              		.size	chSchGoSleepTimeoutS, .-chSchGoSleepTimeoutS
 542              		.section	.text.chSchWakeupS,"ax",%progbits
 543              		.align	1
 544              		.p2align 4,,15
 545              		.global	chSchWakeupS
 546              		.syntax unified
 547              		.thumb
 548              		.thumb_func
 549              		.fpu softvfp
 550              		.type	chSchWakeupS, %function
 551              	chSchWakeupS:
 552              	.LFB286:
 553              		.loc 1 412 0
 554              		.cfi_startproc
 555              		@ args = 0, pretend = 0, frame = 0
 556              		@ frame_needed = 0, uses_anonymous_args = 0
 557              		@ link register save eliminated.
 558              	.LVL37:
 559              		.loc 1 413 0
 560 0000 164B     		ldr	r3, .L53
 561              		.loc 1 412 0
 562 0002 70B4     		push	{r4, r5, r6}
 563              		.cfi_def_cfa_offset 12
 564              		.cfi_offset 4, -12
 565              		.cfi_offset 5, -8
 566              		.cfi_offset 6, -4
 567              		.loc 1 413 0
 568 0004 9E69     		ldr	r6, [r3, #24]
 569              	.LVL38:
 570              		.loc 1 429 0
ARM GAS  /var/folders/vd/czx34qs52cd_f3nb04sxmghc0000gn/T//cc6c6qTE.s 			page 11


 571 0006 8568     		ldr	r5, [r0, #8]
 572              		.loc 1 412 0
 573 0008 0446     		mov	r4, r0
 574              		.loc 1 429 0
 575 000a B068     		ldr	r0, [r6, #8]
 576              	.LVL39:
 577              		.loc 1 423 0
 578 000c 6162     		str	r1, [r4, #36]
 579              		.loc 1 429 0
 580 000e 8542     		cmp	r5, r0
 581              	.LBB182:
 582              	.LBB183:
 583              		.loc 1 227 0
 584 0010 4FF00002 		mov	r2, #0
 585              	.LBE183:
 586              	.LBE182:
 587              		.loc 1 429 0
 588 0014 0CD8     		bhi	.L45
 589              	.LVL40:
 590              	.LBB185:
 591              	.LBB184:
 592              		.loc 1 227 0
 593 0016 84F82020 		strb	r2, [r4, #32]
 594              	.LVL41:
 595              	.L46:
 596              		.loc 1 230 0
 597 001a 1B68     		ldr	r3, [r3]
 598              	.LVL42:
 599              		.loc 1 231 0
 600 001c 9A68     		ldr	r2, [r3, #8]
 601 001e 9542     		cmp	r5, r2
 602 0020 FBD9     		bls	.L46
 603              		.loc 1 234 0
 604 0022 5A68     		ldr	r2, [r3, #4]
 605 0024 C4E90032 		strd	r3, r2, [r4]
 606              		.loc 1 235 0
 607 0028 1460     		str	r4, [r2]
 608              		.loc 1 236 0
 609 002a 5C60     		str	r4, [r3, #4]
 610              	.LBE184:
 611              	.LBE185:
 612              		.loc 1 447 0
 613 002c 70BC     		pop	{r4, r5, r6}
 614              		.cfi_remember_state
 615              		.cfi_restore 6
 616              		.cfi_restore 5
 617              		.cfi_restore 4
 618              		.cfi_def_cfa_offset 0
 619              	.LVL43:
 620 002e 7047     		bx	lr
 621              	.LVL44:
 622              	.L45:
 623              		.cfi_restore_state
 624              	.LBB186:
 625              	.LBB187:
 626              		.loc 1 227 0
 627 0030 86F82020 		strb	r2, [r6, #32]
ARM GAS  /var/folders/vd/czx34qs52cd_f3nb04sxmghc0000gn/T//cc6c6qTE.s 			page 12


 628              	.LVL45:
 629              		.loc 1 228 0
 630 0034 1A46     		mov	r2, r3
 631              	.LVL46:
 632              	.L48:
 633              		.loc 1 230 0
 634 0036 1268     		ldr	r2, [r2]
 635              	.LVL47:
 636              		.loc 1 231 0
 637 0038 9168     		ldr	r1, [r2, #8]
 638 003a 8842     		cmp	r0, r1
 639 003c FBD9     		bls	.L48
 640              		.loc 1 234 0
 641 003e 5168     		ldr	r1, [r2, #4]
 642 0040 7160     		str	r1, [r6, #4]
 643              	.LBE187:
 644              	.LBE186:
 645              		.loc 1 442 0
 646 0042 0120     		movs	r0, #1
 647              	.LBB189:
 648              	.LBB188:
 649              		.loc 1 233 0
 650 0044 3260     		str	r2, [r6]
 651              		.loc 1 235 0
 652 0046 0E60     		str	r6, [r1]
 653              		.loc 1 236 0
 654 0048 5660     		str	r6, [r2, #4]
 655              	.LVL48:
 656              	.LBE188:
 657              	.LBE189:
 658              		.loc 1 442 0
 659 004a 84F82000 		strb	r0, [r4, #32]
 660              		.loc 1 445 0
 661 004e 3146     		mov	r1, r6
 662 0050 2046     		mov	r0, r4
 663              		.loc 1 441 0
 664 0052 9C61     		str	r4, [r3, #24]
 665              		.loc 1 447 0
 666 0054 70BC     		pop	{r4, r5, r6}
 667              		.cfi_restore 6
 668              		.cfi_restore 5
 669              		.cfi_restore 4
 670              		.cfi_def_cfa_offset 0
 671              	.LVL49:
 672              		.loc 1 445 0
 673 0056 FFF7FEBF 		b	_port_switch
 674              	.LVL50:
 675              	.L54:
 676 005a 00BF     		.align	2
 677              	.L53:
 678 005c 00000000 		.word	.LANCHOR0
 679              		.cfi_endproc
 680              	.LFE286:
 681              		.size	chSchWakeupS, .-chSchWakeupS
 682              		.section	.text.chSchIsPreemptionRequired,"ax",%progbits
 683              		.align	1
 684              		.p2align 4,,15
ARM GAS  /var/folders/vd/czx34qs52cd_f3nb04sxmghc0000gn/T//cc6c6qTE.s 			page 13


 685              		.global	chSchIsPreemptionRequired
 686              		.syntax unified
 687              		.thumb
 688              		.thumb_func
 689              		.fpu softvfp
 690              		.type	chSchIsPreemptionRequired, %function
 691              	chSchIsPreemptionRequired:
 692              	.LFB288:
 693              		.loc 1 479 0
 694              		.cfi_startproc
 695              		@ args = 0, pretend = 0, frame = 0
 696              		@ frame_needed = 0, uses_anonymous_args = 0
 697              		@ link register save eliminated.
 698              	.LVL51:
 699              		.loc 1 480 0
 700 0000 044B     		ldr	r3, .L56
 701 0002 1A68     		ldr	r2, [r3]
 702              		.loc 1 481 0
 703 0004 9B69     		ldr	r3, [r3, #24]
 704              		.loc 1 492 0
 705 0006 9068     		ldr	r0, [r2, #8]
 706 0008 9B68     		ldr	r3, [r3, #8]
 707              		.loc 1 494 0
 708 000a 9842     		cmp	r0, r3
 709 000c 94BF     		ite	ls
 710 000e 0020     		movls	r0, #0
 711 0010 0120     		movhi	r0, #1
 712 0012 7047     		bx	lr
 713              	.L57:
 714              		.align	2
 715              	.L56:
 716 0014 00000000 		.word	.LANCHOR0
 717              		.cfi_endproc
 718              	.LFE288:
 719              		.size	chSchIsPreemptionRequired, .-chSchIsPreemptionRequired
 720              		.section	.text.chSchDoRescheduleBehind,"ax",%progbits
 721              		.align	1
 722              		.p2align 4,,15
 723              		.global	chSchDoRescheduleBehind
 724              		.syntax unified
 725              		.thumb
 726              		.thumb_func
 727              		.fpu softvfp
 728              		.type	chSchDoRescheduleBehind, %function
 729              	chSchDoRescheduleBehind:
 730              	.LFB289:
 731              		.loc 1 507 0
 732              		.cfi_startproc
 733              		@ args = 0, pretend = 0, frame = 0
 734              		@ frame_needed = 0, uses_anonymous_args = 0
 735              		@ link register save eliminated.
 736              		.loc 1 508 0
 737 0000 0D4B     		ldr	r3, .L62
 738              	.LBB190:
 739              	.LBB191:
 740              		.loc 4 607 0
 741 0002 1868     		ldr	r0, [r3]
ARM GAS  /var/folders/vd/czx34qs52cd_f3nb04sxmghc0000gn/T//cc6c6qTE.s 			page 14


 742              		.loc 4 609 0
 743 0004 0268     		ldr	r2, [r0]
 744              	.LBE191:
 745              	.LBE190:
 746              		.loc 1 507 0
 747 0006 10B4     		push	{r4}
 748              		.cfi_def_cfa_offset 4
 749              		.cfi_offset 4, -4
 750              		.loc 1 512 0
 751 0008 0121     		movs	r1, #1
 752              		.loc 1 508 0
 753 000a 9C69     		ldr	r4, [r3, #24]
 754              	.LVL52:
 755              	.LBB193:
 756              	.LBB192:
 757              		.loc 4 609 0
 758 000c 1A60     		str	r2, [r3]
 759              		.loc 4 610 0
 760 000e 5360     		str	r3, [r2, #4]
 761              	.LVL53:
 762              	.LBE192:
 763              	.LBE193:
 764              		.loc 1 512 0
 765 0010 80F82010 		strb	r1, [r0, #32]
 766              	.LBB194:
 767              	.LBB195:
 768              		.loc 1 227 0
 769 0014 0022     		movs	r2, #0
 770              	.LBE195:
 771              	.LBE194:
 772              		.loc 1 515 0
 773 0016 A168     		ldr	r1, [r4, #8]
 774              	.LVL54:
 775              	.LBB199:
 776              	.LBB196:
 777              		.loc 1 227 0
 778 0018 84F82020 		strb	r2, [r4, #32]
 779              	.LVL55:
 780              	.LBE196:
 781              	.LBE199:
 782              		.loc 1 511 0
 783 001c 9861     		str	r0, [r3, #24]
 784              	.LVL56:
 785              	.L59:
 786              	.LBB200:
 787              	.LBB197:
 788              		.loc 1 230 0
 789 001e 1B68     		ldr	r3, [r3]
 790              	.LVL57:
 791              		.loc 1 231 0
 792 0020 9A68     		ldr	r2, [r3, #8]
 793 0022 9142     		cmp	r1, r2
 794 0024 FBD9     		bls	.L59
 795              		.loc 1 234 0
 796 0026 5A68     		ldr	r2, [r3, #4]
 797              	.LBE197:
 798              	.LBE200:
ARM GAS  /var/folders/vd/czx34qs52cd_f3nb04sxmghc0000gn/T//cc6c6qTE.s 			page 15


 799              		.loc 1 528 0
 800 0028 2146     		mov	r1, r4
 801              	.LBB201:
 802              	.LBB198:
 803              		.loc 1 234 0
 804 002a C4E90032 		strd	r3, r2, [r4]
 805              		.loc 1 235 0
 806 002e 1460     		str	r4, [r2]
 807              		.loc 1 236 0
 808 0030 5C60     		str	r4, [r3, #4]
 809              	.LVL58:
 810              	.LBE198:
 811              	.LBE201:
 812              		.loc 1 529 0
 813 0032 10BC     		pop	{r4}
 814              		.cfi_restore 4
 815              		.cfi_def_cfa_offset 0
 816              		.loc 1 528 0
 817 0034 FFF7FEBF 		b	_port_switch
 818              	.LVL59:
 819              	.L63:
 820              		.align	2
 821              	.L62:
 822 0038 00000000 		.word	.LANCHOR0
 823              		.cfi_endproc
 824              	.LFE289:
 825              		.size	chSchDoRescheduleBehind, .-chSchDoRescheduleBehind
 826              		.section	.text.chSchDoRescheduleAhead,"ax",%progbits
 827              		.align	1
 828              		.p2align 4,,15
 829              		.global	chSchDoRescheduleAhead
 830              		.syntax unified
 831              		.thumb
 832              		.thumb_func
 833              		.fpu softvfp
 834              		.type	chSchDoRescheduleAhead, %function
 835              	chSchDoRescheduleAhead:
 836              	.LFB290:
 837              		.loc 1 540 0
 838              		.cfi_startproc
 839              		@ args = 0, pretend = 0, frame = 0
 840              		@ frame_needed = 0, uses_anonymous_args = 0
 841              		@ link register save eliminated.
 842              		.loc 1 541 0
 843 0000 0D4B     		ldr	r3, .L68
 844              	.LBB202:
 845              	.LBB203:
 846              		.loc 4 607 0
 847 0002 1868     		ldr	r0, [r3]
 848              		.loc 4 609 0
 849 0004 0268     		ldr	r2, [r0]
 850              	.LBE203:
 851              	.LBE202:
 852              		.loc 1 540 0
 853 0006 10B4     		push	{r4}
 854              		.cfi_def_cfa_offset 4
 855              		.cfi_offset 4, -4
ARM GAS  /var/folders/vd/czx34qs52cd_f3nb04sxmghc0000gn/T//cc6c6qTE.s 			page 16


 856              		.loc 1 545 0
 857 0008 0121     		movs	r1, #1
 858              		.loc 1 541 0
 859 000a 9C69     		ldr	r4, [r3, #24]
 860              	.LVL60:
 861              	.LBB205:
 862              	.LBB204:
 863              		.loc 4 609 0
 864 000c 1A60     		str	r2, [r3]
 865              		.loc 4 610 0
 866 000e 5360     		str	r3, [r2, #4]
 867              	.LVL61:
 868              	.LBE204:
 869              	.LBE205:
 870              		.loc 1 545 0
 871 0010 80F82010 		strb	r1, [r0, #32]
 872              	.LBB206:
 873              	.LBB207:
 874              		.loc 1 266 0
 875 0014 0022     		movs	r2, #0
 876              	.LBE207:
 877              	.LBE206:
 878              		.loc 1 548 0
 879 0016 A168     		ldr	r1, [r4, #8]
 880              	.LVL62:
 881              	.LBB211:
 882              	.LBB208:
 883              		.loc 1 266 0
 884 0018 84F82020 		strb	r2, [r4, #32]
 885              	.LVL63:
 886              	.LBE208:
 887              	.LBE211:
 888              		.loc 1 544 0
 889 001c 9861     		str	r0, [r3, #24]
 890              	.LVL64:
 891              	.L65:
 892              	.LBB212:
 893              	.LBB209:
 894              		.loc 1 269 0
 895 001e 1B68     		ldr	r3, [r3]
 896              	.LVL65:
 897              		.loc 1 270 0
 898 0020 9A68     		ldr	r2, [r3, #8]
 899 0022 9142     		cmp	r1, r2
 900 0024 FBD3     		bcc	.L65
 901              		.loc 1 273 0
 902 0026 5A68     		ldr	r2, [r3, #4]
 903              	.LBE209:
 904              	.LBE212:
 905              		.loc 1 556 0
 906 0028 2146     		mov	r1, r4
 907              	.LBB213:
 908              	.LBB210:
 909              		.loc 1 273 0
 910 002a C4E90032 		strd	r3, r2, [r4]
 911              		.loc 1 274 0
 912 002e 1460     		str	r4, [r2]
ARM GAS  /var/folders/vd/czx34qs52cd_f3nb04sxmghc0000gn/T//cc6c6qTE.s 			page 17


 913              		.loc 1 275 0
 914 0030 5C60     		str	r4, [r3, #4]
 915              	.LVL66:
 916              	.LBE210:
 917              	.LBE213:
 918              		.loc 1 557 0
 919 0032 10BC     		pop	{r4}
 920              		.cfi_restore 4
 921              		.cfi_def_cfa_offset 0
 922              		.loc 1 556 0
 923 0034 FFF7FEBF 		b	_port_switch
 924              	.LVL67:
 925              	.L69:
 926              		.align	2
 927              	.L68:
 928 0038 00000000 		.word	.LANCHOR0
 929              		.cfi_endproc
 930              	.LFE290:
 931              		.size	chSchDoRescheduleAhead, .-chSchDoRescheduleAhead
 932              		.section	.text.chSchRescheduleS,"ax",%progbits
 933              		.align	1
 934              		.p2align 4,,15
 935              		.global	chSchRescheduleS
 936              		.syntax unified
 937              		.thumb
 938              		.thumb_func
 939              		.fpu softvfp
 940              		.type	chSchRescheduleS, %function
 941              	chSchRescheduleS:
 942              	.LFB287:
 943              		.loc 1 456 0
 944              		.cfi_startproc
 945              		@ args = 0, pretend = 0, frame = 0
 946              		@ frame_needed = 0, uses_anonymous_args = 0
 947              		@ link register save eliminated.
 948              	.LBB214:
 949              	.LBB215:
 950              		.loc 4 648 0
 951 0000 044B     		ldr	r3, .L73
 952 0002 1A68     		ldr	r2, [r3]
 953 0004 9B69     		ldr	r3, [r3, #24]
 954              	.LBE215:
 955              	.LBE214:
 956              		.loc 1 460 0
 957 0006 9268     		ldr	r2, [r2, #8]
 958 0008 9B68     		ldr	r3, [r3, #8]
 959 000a 9A42     		cmp	r2, r3
 960 000c 00D8     		bhi	.L72
 961              		.loc 1 463 0
 962 000e 7047     		bx	lr
 963              	.L72:
 964              		.loc 1 461 0
 965 0010 FFF7FEBF 		b	chSchDoRescheduleAhead
 966              	.LVL68:
 967              	.L74:
 968              		.align	2
 969              	.L73:
ARM GAS  /var/folders/vd/czx34qs52cd_f3nb04sxmghc0000gn/T//cc6c6qTE.s 			page 18


 970 0014 00000000 		.word	.LANCHOR0
 971              		.cfi_endproc
 972              	.LFE287:
 973              		.size	chSchRescheduleS, .-chSchRescheduleS
 974              		.section	.text.chSchDoReschedule,"ax",%progbits
 975              		.align	1
 976              		.p2align 4,,15
 977              		.global	chSchDoReschedule
 978              		.syntax unified
 979              		.thumb
 980              		.thumb_func
 981              		.fpu softvfp
 982              		.type	chSchDoReschedule, %function
 983              	chSchDoReschedule:
 984              	.LFB296:
 985              		.cfi_startproc
 986              		@ args = 0, pretend = 0, frame = 0
 987              		@ frame_needed = 0, uses_anonymous_args = 0
 988              		@ link register save eliminated.
 989 0000 FFF7FEBF 		b	chSchDoRescheduleAhead
 990              		.cfi_endproc
 991              	.LFE296:
 992              		.size	chSchDoReschedule, .-chSchDoReschedule
 993              		.global	ch
 994              		.section	.bss.ch,"aw",%nobits
 995              		.align	2
 996              		.set	.LANCHOR0,. + 0
 997              		.type	ch, %object
 998              		.size	ch, 120
 999              	ch:
 1000 0000 00000000 		.space	120
 1000      00000000 
 1000      00000000 
 1000      00000000 
 1000      00000000 
 1001              		.text
 1002              	.Letext0:
 1003              		.file 5 "/usr/local/Cellar/gcc-arm-none-eabi/20171218/lib/gcc/arm-none-eabi/7.2.1/include/stddef.h
 1004              		.file 6 "/usr/local/Cellar/gcc-arm-none-eabi/20171218/arm-none-eabi/include/machine/_default_types
 1005              		.file 7 "/usr/local/Cellar/gcc-arm-none-eabi/20171218/arm-none-eabi/include/sys/_stdint.h"
 1006              		.file 8 "../os/common/ports/ARMCMx/compilers/GCC/chtypes.h"
 1007              		.file 9 "../os/rt/include/chsystypes.h"
 1008              		.file 10 "../os/rt/include/chtime.h"
 1009              		.file 11 "../os/common/ext/ARM/CMSIS/Core/Include/core_cm4.h"
 1010              		.file 12 "../os/common/ext/ST/STM32F4xx/system_stm32f4xx.h"
 1011              		.file 13 "../os/common/ports/ARMCMx/chcore.h"
 1012              		.file 14 "../os/common/ports/ARMCMx/chcore_v7m.h"
 1013              		.file 15 "../os/rt/include/chtm.h"
 1014              		.file 16 "../os/rt/include/chmtx.h"
 1015              		.file 17 "../os/rt/include/chsys.h"
 1016              		.file 18 "../os/rt/include/chregistry.h"
 1017              		.file 19 "../os/common/oslib/include/chmemcore.h"
 1018              		.file 20 "../os/common/oslib/include/chmempools.h"
 1019              		.file 21 "../os/common/oslib/include/chfactory.h"
 1020              		.file 22 "../os/rt/include/chvt.h"
 1021              		.section	.debug_info,"",%progbits
 1022              	.Ldebug_info0:
ARM GAS  /var/folders/vd/czx34qs52cd_f3nb04sxmghc0000gn/T//cc6c6qTE.s 			page 19


 1023 0000 57110000 		.4byte	0x1157
 1024 0004 0400     		.2byte	0x4
 1025 0006 00000000 		.4byte	.Ldebug_abbrev0
 1026 000a 04       		.byte	0x4
 1027 000b 01       		.uleb128 0x1
 1028 000c 32010000 		.4byte	.LASF175
 1029 0010 0C       		.byte	0xc
 1030 0011 04040000 		.4byte	.LASF176
 1031 0015 99030000 		.4byte	.LASF177
 1032 0019 50010000 		.4byte	.Ldebug_ranges0+0x150
 1033 001d 00000000 		.4byte	0
 1034 0021 00000000 		.4byte	.Ldebug_line0
 1035 0025 02       		.uleb128 0x2
 1036 0026 04       		.byte	0x4
 1037 0027 05       		.byte	0x5
 1038 0028 696E7400 		.ascii	"int\000"
 1039 002c 03       		.uleb128 0x3
 1040 002d 0D000000 		.4byte	.LASF4
 1041 0031 05       		.byte	0x5
 1042 0032 D8       		.byte	0xd8
 1043 0033 37000000 		.4byte	0x37
 1044 0037 04       		.uleb128 0x4
 1045 0038 04       		.byte	0x4
 1046 0039 07       		.byte	0x7
 1047 003a 61030000 		.4byte	.LASF0
 1048 003e 04       		.uleb128 0x4
 1049 003f 08       		.byte	0x8
 1050 0040 05       		.byte	0x5
 1051 0041 1C020000 		.4byte	.LASF1
 1052 0045 04       		.uleb128 0x4
 1053 0046 08       		.byte	0x8
 1054 0047 04       		.byte	0x4
 1055 0048 F4040000 		.4byte	.LASF2
 1056 004c 04       		.uleb128 0x4
 1057 004d 01       		.byte	0x1
 1058 004e 06       		.byte	0x6
 1059 004f 2A020000 		.4byte	.LASF3
 1060 0053 03       		.uleb128 0x3
 1061 0054 4D000000 		.4byte	.LASF5
 1062 0058 06       		.byte	0x6
 1063 0059 2B       		.byte	0x2b
 1064 005a 5E000000 		.4byte	0x5e
 1065 005e 04       		.uleb128 0x4
 1066 005f 01       		.byte	0x1
 1067 0060 08       		.byte	0x8
 1068 0061 CD050000 		.4byte	.LASF6
 1069 0065 04       		.uleb128 0x4
 1070 0066 02       		.byte	0x2
 1071 0067 05       		.byte	0x5
 1072 0068 FA050000 		.4byte	.LASF7
 1073 006c 03       		.uleb128 0x3
 1074 006d 1E070000 		.4byte	.LASF8
 1075 0071 06       		.byte	0x6
 1076 0072 39       		.byte	0x39
 1077 0073 77000000 		.4byte	0x77
 1078 0077 04       		.uleb128 0x4
 1079 0078 02       		.byte	0x2
ARM GAS  /var/folders/vd/czx34qs52cd_f3nb04sxmghc0000gn/T//cc6c6qTE.s 			page 20


 1080 0079 07       		.byte	0x7
 1081 007a A9070000 		.4byte	.LASF9
 1082 007e 03       		.uleb128 0x3
 1083 007f 0B070000 		.4byte	.LASF10
 1084 0083 06       		.byte	0x6
 1085 0084 4D       		.byte	0x4d
 1086 0085 89000000 		.4byte	0x89
 1087 0089 04       		.uleb128 0x4
 1088 008a 04       		.byte	0x4
 1089 008b 05       		.byte	0x5
 1090 008c 6B020000 		.4byte	.LASF11
 1091 0090 03       		.uleb128 0x3
 1092 0091 E5020000 		.4byte	.LASF12
 1093 0095 06       		.byte	0x6
 1094 0096 4F       		.byte	0x4f
 1095 0097 9B000000 		.4byte	0x9b
 1096 009b 04       		.uleb128 0x4
 1097 009c 04       		.byte	0x4
 1098 009d 07       		.byte	0x7
 1099 009e E7060000 		.4byte	.LASF13
 1100 00a2 03       		.uleb128 0x3
 1101 00a3 4A050000 		.4byte	.LASF14
 1102 00a7 06       		.byte	0x6
 1103 00a8 69       		.byte	0x69
 1104 00a9 AD000000 		.4byte	0xad
 1105 00ad 04       		.uleb128 0x4
 1106 00ae 08       		.byte	0x8
 1107 00af 07       		.byte	0x7
 1108 00b0 AB000000 		.4byte	.LASF15
 1109 00b4 03       		.uleb128 0x3
 1110 00b5 28080000 		.4byte	.LASF16
 1111 00b9 07       		.byte	0x7
 1112 00ba 18       		.byte	0x18
 1113 00bb 53000000 		.4byte	0x53
 1114 00bf 05       		.uleb128 0x5
 1115 00c0 B4000000 		.4byte	0xb4
 1116 00c4 03       		.uleb128 0x3
 1117 00c5 9B020000 		.4byte	.LASF17
 1118 00c9 07       		.byte	0x7
 1119 00ca 24       		.byte	0x24
 1120 00cb 6C000000 		.4byte	0x6c
 1121 00cf 03       		.uleb128 0x3
 1122 00d0 C5050000 		.4byte	.LASF18
 1123 00d4 07       		.byte	0x7
 1124 00d5 2C       		.byte	0x2c
 1125 00d6 7E000000 		.4byte	0x7e
 1126 00da 06       		.uleb128 0x6
 1127 00db CF000000 		.4byte	0xcf
 1128 00df 03       		.uleb128 0x3
 1129 00e0 B5060000 		.4byte	.LASF19
 1130 00e4 07       		.byte	0x7
 1131 00e5 30       		.byte	0x30
 1132 00e6 90000000 		.4byte	0x90
 1133 00ea 03       		.uleb128 0x3
 1134 00eb 21000000 		.4byte	.LASF20
 1135 00ef 07       		.byte	0x7
 1136 00f0 3C       		.byte	0x3c
ARM GAS  /var/folders/vd/czx34qs52cd_f3nb04sxmghc0000gn/T//cc6c6qTE.s 			page 21


 1137 00f1 A2000000 		.4byte	0xa2
 1138 00f5 03       		.uleb128 0x3
 1139 00f6 C2040000 		.4byte	.LASF21
 1140 00fa 08       		.byte	0x8
 1141 00fb 39       		.byte	0x39
 1142 00fc DF000000 		.4byte	0xdf
 1143 0100 03       		.uleb128 0x3
 1144 0101 2F060000 		.4byte	.LASF22
 1145 0105 08       		.byte	0x8
 1146 0106 3C       		.byte	0x3c
 1147 0107 B4000000 		.4byte	0xb4
 1148 010b 03       		.uleb128 0x3
 1149 010c 82020000 		.4byte	.LASF23
 1150 0110 08       		.byte	0x8
 1151 0111 3D       		.byte	0x3d
 1152 0112 B4000000 		.4byte	0xb4
 1153 0116 03       		.uleb128 0x3
 1154 0117 5F050000 		.4byte	.LASF24
 1155 011b 08       		.byte	0x8
 1156 011c 3E       		.byte	0x3e
 1157 011d B4000000 		.4byte	0xb4
 1158 0121 03       		.uleb128 0x3
 1159 0122 8B050000 		.4byte	.LASF25
 1160 0126 08       		.byte	0x8
 1161 0127 40       		.byte	0x40
 1162 0128 DF000000 		.4byte	0xdf
 1163 012c 03       		.uleb128 0x3
 1164 012d 36040000 		.4byte	.LASF26
 1165 0131 08       		.byte	0x8
 1166 0132 41       		.byte	0x41
 1167 0133 CF000000 		.4byte	0xcf
 1168 0137 03       		.uleb128 0x3
 1169 0138 41000000 		.4byte	.LASF27
 1170 013c 08       		.byte	0x8
 1171 013d 43       		.byte	0x43
 1172 013e DF000000 		.4byte	0xdf
 1173 0142 03       		.uleb128 0x3
 1174 0143 5B030000 		.4byte	.LASF28
 1175 0147 08       		.byte	0x8
 1176 0148 45       		.byte	0x45
 1177 0149 CF000000 		.4byte	0xcf
 1178 014d 03       		.uleb128 0x3
 1179 014e 3C040000 		.4byte	.LASF29
 1180 0152 08       		.byte	0x8
 1181 0153 46       		.byte	0x46
 1182 0154 DF000000 		.4byte	0xdf
 1183 0158 03       		.uleb128 0x3
 1184 0159 3E070000 		.4byte	.LASF30
 1185 015d 09       		.byte	0x9
 1186 015e 34       		.byte	0x34
 1187 015f 63010000 		.4byte	0x163
 1188 0163 07       		.uleb128 0x7
 1189 0164 2C040000 		.4byte	.LASF48
 1190 0168 44       		.byte	0x44
 1191 0169 04       		.byte	0x4
 1192 016a 8E       		.byte	0x8e
 1193 016b 41020000 		.4byte	0x241
ARM GAS  /var/folders/vd/czx34qs52cd_f3nb04sxmghc0000gn/T//cc6c6qTE.s 			page 22


 1194 016f 08       		.uleb128 0x8
 1195 0170 F8030000 		.4byte	.LASF31
 1196 0174 04       		.byte	0x4
 1197 0175 8F       		.byte	0x8f
 1198 0176 76020000 		.4byte	0x276
 1199 017a 00       		.byte	0
 1200 017b 08       		.uleb128 0x8
 1201 017c 34050000 		.4byte	.LASF32
 1202 0180 04       		.byte	0x4
 1203 0181 90       		.byte	0x90
 1204 0182 21010000 		.4byte	0x121
 1205 0186 08       		.byte	0x8
 1206 0187 09       		.uleb128 0x9
 1207 0188 63747800 		.ascii	"ctx\000"
 1208 018c 04       		.byte	0x4
 1209 018d 91       		.byte	0x91
 1210 018e D9040000 		.4byte	0x4d9
 1211 0192 0C       		.byte	0xc
 1212 0193 08       		.uleb128 0x8
 1213 0194 AB040000 		.4byte	.LASF33
 1214 0198 04       		.byte	0x4
 1215 0199 93       		.byte	0x93
 1216 019a 4C020000 		.4byte	0x24c
 1217 019e 10       		.byte	0x10
 1218 019f 08       		.uleb128 0x8
 1219 01a0 05070000 		.4byte	.LASF34
 1220 01a4 04       		.byte	0x4
 1221 01a5 94       		.byte	0x94
 1222 01a6 4C020000 		.4byte	0x24c
 1223 01aa 14       		.byte	0x14
 1224 01ab 08       		.uleb128 0x8
 1225 01ac F3030000 		.4byte	.LASF35
 1226 01b0 04       		.byte	0x4
 1227 01b1 9B       		.byte	0x9b
 1228 01b2 5D060000 		.4byte	0x65d
 1229 01b6 18       		.byte	0x18
 1230 01b7 08       		.uleb128 0x8
 1231 01b8 F9060000 		.4byte	.LASF36
 1232 01bc 04       		.byte	0x4
 1233 01bd A4       		.byte	0xa4
 1234 01be 74060000 		.4byte	0x674
 1235 01c2 1C       		.byte	0x1c
 1236 01c3 08       		.uleb128 0x8
 1237 01c4 65020000 		.4byte	.LASF37
 1238 01c8 04       		.byte	0x4
 1239 01c9 A9       		.byte	0xa9
 1240 01ca 0B010000 		.4byte	0x10b
 1241 01ce 20       		.byte	0x20
 1242 01cf 08       		.uleb128 0x8
 1243 01d0 30080000 		.4byte	.LASF38
 1244 01d4 04       		.byte	0x4
 1245 01d5 AD       		.byte	0xad
 1246 01d6 00010000 		.4byte	0x100
 1247 01da 21       		.byte	0x21
 1248 01db 08       		.uleb128 0x8
 1249 01dc 67050000 		.4byte	.LASF39
 1250 01e0 04       		.byte	0x4
ARM GAS  /var/folders/vd/czx34qs52cd_f3nb04sxmghc0000gn/T//cc6c6qTE.s 			page 23


 1251 01e1 B2       		.byte	0xb2
 1252 01e2 16010000 		.4byte	0x116
 1253 01e6 22       		.byte	0x22
 1254 01e7 0A       		.uleb128 0xa
 1255 01e8 7500     		.ascii	"u\000"
 1256 01ea 04       		.byte	0x4
 1257 01eb 0301     		.2byte	0x103
 1258 01ed 93050000 		.4byte	0x593
 1259 01f1 24       		.byte	0x24
 1260 01f2 0B       		.uleb128 0xb
 1261 01f3 24030000 		.4byte	.LASF40
 1262 01f7 04       		.byte	0x4
 1263 01f8 0801     		.2byte	0x108
 1264 01fa 52020000 		.4byte	0x252
 1265 01fe 28       		.byte	0x28
 1266 01ff 0B       		.uleb128 0xb
 1267 0200 5C020000 		.4byte	.LASF41
 1268 0204 04       		.byte	0x4
 1269 0205 0E01     		.2byte	0x10e
 1270 0207 76020000 		.4byte	0x276
 1271 020b 2C       		.byte	0x2c
 1272 020c 0B       		.uleb128 0xb
 1273 020d 43040000 		.4byte	.LASF42
 1274 0211 04       		.byte	0x4
 1275 0212 1401     		.2byte	0x114
 1276 0214 37010000 		.4byte	0x137
 1277 0218 34       		.byte	0x34
 1278 0219 0B       		.uleb128 0xb
 1279 021a C8080000 		.4byte	.LASF43
 1280 021e 04       		.byte	0x4
 1281 021f 1B01     		.2byte	0x11b
 1282 0221 57060000 		.4byte	0x657
 1283 0225 38       		.byte	0x38
 1284 0226 0B       		.uleb128 0xb
 1285 0227 B1040000 		.4byte	.LASF44
 1286 022b 04       		.byte	0x4
 1287 022c 1F01     		.2byte	0x11f
 1288 022e 21010000 		.4byte	0x121
 1289 0232 3C       		.byte	0x3c
 1290 0233 0B       		.uleb128 0xb
 1291 0234 FE030000 		.4byte	.LASF45
 1292 0238 04       		.byte	0x4
 1293 0239 2601     		.2byte	0x126
 1294 023b 29030000 		.4byte	0x329
 1295 023f 40       		.byte	0x40
 1296 0240 00       		.byte	0
 1297 0241 03       		.uleb128 0x3
 1298 0242 CA040000 		.4byte	.LASF46
 1299 0246 09       		.byte	0x9
 1300 0247 39       		.byte	0x39
 1301 0248 4C020000 		.4byte	0x24c
 1302 024c 0C       		.uleb128 0xc
 1303 024d 04       		.byte	0x4
 1304 024e 58010000 		.4byte	0x158
 1305 0252 03       		.uleb128 0x3
 1306 0253 51080000 		.4byte	.LASF47
 1307 0257 09       		.byte	0x9
ARM GAS  /var/folders/vd/czx34qs52cd_f3nb04sxmghc0000gn/T//cc6c6qTE.s 			page 24


 1308 0258 3E       		.byte	0x3e
 1309 0259 5D020000 		.4byte	0x25d
 1310 025d 07       		.uleb128 0x7
 1311 025e D1060000 		.4byte	.LASF49
 1312 0262 04       		.byte	0x4
 1313 0263 04       		.byte	0x4
 1314 0264 7C       		.byte	0x7c
 1315 0265 76020000 		.4byte	0x276
 1316 0269 08       		.uleb128 0x8
 1317 026a 1C010000 		.4byte	.LASF50
 1318 026e 04       		.byte	0x4
 1319 026f 7D       		.byte	0x7d
 1320 0270 4C020000 		.4byte	0x24c
 1321 0274 00       		.byte	0
 1322 0275 00       		.byte	0
 1323 0276 03       		.uleb128 0x3
 1324 0277 03080000 		.4byte	.LASF51
 1325 027b 09       		.byte	0x9
 1326 027c 45       		.byte	0x45
 1327 027d 81020000 		.4byte	0x281
 1328 0281 07       		.uleb128 0x7
 1329 0282 21010000 		.4byte	.LASF52
 1330 0286 08       		.byte	0x8
 1331 0287 04       		.byte	0x4
 1332 0288 83       		.byte	0x83
 1333 0289 A6020000 		.4byte	0x2a6
 1334 028d 08       		.uleb128 0x8
 1335 028e 1C010000 		.4byte	.LASF50
 1336 0292 04       		.byte	0x4
 1337 0293 84       		.byte	0x84
 1338 0294 4C020000 		.4byte	0x24c
 1339 0298 00       		.byte	0
 1340 0299 08       		.uleb128 0x8
 1341 029a 57000000 		.4byte	.LASF53
 1342 029e 04       		.byte	0x4
 1343 029f 85       		.byte	0x85
 1344 02a0 4C020000 		.4byte	0x24c
 1345 02a4 04       		.byte	0x4
 1346 02a5 00       		.byte	0
 1347 02a6 03       		.uleb128 0x3
 1348 02a7 00000000 		.4byte	.LASF54
 1349 02ab 09       		.byte	0x9
 1350 02ac 4C       		.byte	0x4c
 1351 02ad B1020000 		.4byte	0x2b1
 1352 02b1 0D       		.uleb128 0xd
 1353 02b2 72040000 		.4byte	.LASF55
 1354 02b6 1C       		.byte	0x1c
 1355 02b7 04       		.byte	0x4
 1356 02b8 5E01     		.2byte	0x15e
 1357 02ba 0D030000 		.4byte	0x30d
 1358 02be 0B       		.uleb128 0xb
 1359 02bf F8030000 		.4byte	.LASF31
 1360 02c3 04       		.byte	0x4
 1361 02c4 5F01     		.2byte	0x15f
 1362 02c6 76020000 		.4byte	0x276
 1363 02ca 00       		.byte	0
 1364 02cb 0B       		.uleb128 0xb
ARM GAS  /var/folders/vd/czx34qs52cd_f3nb04sxmghc0000gn/T//cc6c6qTE.s 			page 25


 1365 02cc 34050000 		.4byte	.LASF32
 1366 02d0 04       		.byte	0x4
 1367 02d1 6001     		.2byte	0x160
 1368 02d3 21010000 		.4byte	0x121
 1369 02d7 08       		.byte	0x8
 1370 02d8 0A       		.uleb128 0xa
 1371 02d9 63747800 		.ascii	"ctx\000"
 1372 02dd 04       		.byte	0x4
 1373 02de 6201     		.2byte	0x162
 1374 02e0 D9040000 		.4byte	0x4d9
 1375 02e4 0C       		.byte	0xc
 1376 02e5 0B       		.uleb128 0xb
 1377 02e6 AB040000 		.4byte	.LASF33
 1378 02ea 04       		.byte	0x4
 1379 02eb 6501     		.2byte	0x165
 1380 02ed 4C020000 		.4byte	0x24c
 1381 02f1 10       		.byte	0x10
 1382 02f2 0B       		.uleb128 0xb
 1383 02f3 05070000 		.4byte	.LASF34
 1384 02f7 04       		.byte	0x4
 1385 02f8 6601     		.2byte	0x166
 1386 02fa 4C020000 		.4byte	0x24c
 1387 02fe 14       		.byte	0x14
 1388 02ff 0B       		.uleb128 0xb
 1389 0300 42050000 		.4byte	.LASF56
 1390 0304 04       		.byte	0x4
 1391 0305 6901     		.2byte	0x169
 1392 0307 4C020000 		.4byte	0x24c
 1393 030b 18       		.byte	0x18
 1394 030c 00       		.byte	0
 1395 030d 03       		.uleb128 0x3
 1396 030e 6E070000 		.4byte	.LASF57
 1397 0312 09       		.byte	0x9
 1398 0313 51       		.byte	0x51
 1399 0314 18030000 		.4byte	0x318
 1400 0318 0C       		.uleb128 0xc
 1401 0319 04       		.byte	0x4
 1402 031a 1E030000 		.4byte	0x31e
 1403 031e 0E       		.uleb128 0xe
 1404 031f 29030000 		.4byte	0x329
 1405 0323 0F       		.uleb128 0xf
 1406 0324 29030000 		.4byte	0x329
 1407 0328 00       		.byte	0
 1408 0329 10       		.uleb128 0x10
 1409 032a 04       		.byte	0x4
 1410 032b 03       		.uleb128 0x3
 1411 032c 6C050000 		.4byte	.LASF58
 1412 0330 09       		.byte	0x9
 1413 0331 56       		.byte	0x56
 1414 0332 3B030000 		.4byte	0x33b
 1415 0336 05       		.uleb128 0x5
 1416 0337 2B030000 		.4byte	0x32b
 1417 033b 0D       		.uleb128 0xd
 1418 033c 55060000 		.4byte	.LASF59
 1419 0340 14       		.byte	0x14
 1420 0341 04       		.byte	0x4
 1421 0342 3901     		.2byte	0x139
ARM GAS  /var/folders/vd/czx34qs52cd_f3nb04sxmghc0000gn/T//cc6c6qTE.s 			page 26


 1422 0344 8A030000 		.4byte	0x38a
 1423 0348 0B       		.uleb128 0xb
 1424 0349 1C010000 		.4byte	.LASF50
 1425 034d 04       		.byte	0x4
 1426 034e 3A01     		.2byte	0x13a
 1427 0350 7A060000 		.4byte	0x67a
 1428 0354 00       		.byte	0
 1429 0355 0B       		.uleb128 0xb
 1430 0356 57000000 		.4byte	.LASF53
 1431 035a 04       		.byte	0x4
 1432 035b 3B01     		.2byte	0x13b
 1433 035d 7A060000 		.4byte	0x67a
 1434 0361 04       		.byte	0x4
 1435 0362 0B       		.uleb128 0xb
 1436 0363 14000000 		.4byte	.LASF60
 1437 0367 04       		.byte	0x4
 1438 0368 3C01     		.2byte	0x13c
 1439 036a 61040000 		.4byte	0x461
 1440 036e 08       		.byte	0x8
 1441 036f 0B       		.uleb128 0xb
 1442 0370 8B020000 		.4byte	.LASF61
 1443 0374 04       		.byte	0x4
 1444 0375 3D01     		.2byte	0x13d
 1445 0377 0D030000 		.4byte	0x30d
 1446 037b 0C       		.byte	0xc
 1447 037c 0A       		.uleb128 0xa
 1448 037d 70617200 		.ascii	"par\000"
 1449 0381 04       		.byte	0x4
 1450 0382 3F01     		.2byte	0x13f
 1451 0384 29030000 		.4byte	0x329
 1452 0388 10       		.byte	0x10
 1453 0389 00       		.byte	0
 1454 038a 03       		.uleb128 0x3
 1455 038b EB000000 		.4byte	.LASF62
 1456 038f 09       		.byte	0x9
 1457 0390 5B       		.byte	0x5b
 1458 0391 95030000 		.4byte	0x395
 1459 0395 0D       		.uleb128 0xd
 1460 0396 DD040000 		.4byte	.LASF63
 1461 039a 10       		.byte	0x10
 1462 039b 04       		.byte	0x4
 1463 039c 4901     		.2byte	0x149
 1464 039e D7030000 		.4byte	0x3d7
 1465 03a2 0B       		.uleb128 0xb
 1466 03a3 1C010000 		.4byte	.LASF50
 1467 03a7 04       		.byte	0x4
 1468 03a8 4A01     		.2byte	0x14a
 1469 03aa 7A060000 		.4byte	0x67a
 1470 03ae 00       		.byte	0
 1471 03af 0B       		.uleb128 0xb
 1472 03b0 57000000 		.4byte	.LASF53
 1473 03b4 04       		.byte	0x4
 1474 03b5 4C01     		.2byte	0x14c
 1475 03b7 7A060000 		.4byte	0x67a
 1476 03bb 04       		.byte	0x4
 1477 03bc 0B       		.uleb128 0xb
 1478 03bd 14000000 		.4byte	.LASF60
ARM GAS  /var/folders/vd/czx34qs52cd_f3nb04sxmghc0000gn/T//cc6c6qTE.s 			page 27


 1479 03c1 04       		.byte	0x4
 1480 03c2 4E01     		.2byte	0x14e
 1481 03c4 61040000 		.4byte	0x461
 1482 03c8 08       		.byte	0x8
 1483 03c9 0B       		.uleb128 0xb
 1484 03ca 04060000 		.4byte	.LASF64
 1485 03ce 04       		.byte	0x4
 1486 03cf 5601     		.2byte	0x156
 1487 03d1 56040000 		.4byte	0x456
 1488 03d5 0C       		.byte	0xc
 1489 03d6 00       		.byte	0
 1490 03d7 03       		.uleb128 0x3
 1491 03d8 68000000 		.4byte	.LASF65
 1492 03dc 09       		.byte	0x9
 1493 03dd 60       		.byte	0x60
 1494 03de E2030000 		.4byte	0x3e2
 1495 03e2 0D       		.uleb128 0xd
 1496 03e3 14030000 		.4byte	.LASF66
 1497 03e7 04       		.byte	0x4
 1498 03e8 04       		.byte	0x4
 1499 03e9 7001     		.2byte	0x170
 1500 03eb FD030000 		.4byte	0x3fd
 1501 03ef 0B       		.uleb128 0xb
 1502 03f0 85070000 		.4byte	.LASF67
 1503 03f4 04       		.byte	0x4
 1504 03f5 7801     		.2byte	0x178
 1505 03f7 63060000 		.4byte	0x663
 1506 03fb 00       		.byte	0
 1507 03fc 00       		.byte	0
 1508 03fd 03       		.uleb128 0x3
 1509 03fe 57040000 		.4byte	.LASF68
 1510 0402 09       		.byte	0x9
 1511 0403 65       		.byte	0x65
 1512 0404 08040000 		.4byte	0x408
 1513 0408 0D       		.uleb128 0xd
 1514 0409 25060000 		.4byte	.LASF69
 1515 040d 78       		.byte	0x78
 1516 040e 04       		.byte	0x4
 1517 040f 9001     		.2byte	0x190
 1518 0411 56040000 		.4byte	0x456
 1519 0415 0B       		.uleb128 0xb
 1520 0416 3B020000 		.4byte	.LASF70
 1521 041a 04       		.byte	0x4
 1522 041b 9401     		.2byte	0x194
 1523 041d A6020000 		.4byte	0x2a6
 1524 0421 00       		.byte	0
 1525 0422 0B       		.uleb128 0xb
 1526 0423 49020000 		.4byte	.LASF71
 1527 0427 04       		.byte	0x4
 1528 0428 9801     		.2byte	0x198
 1529 042a 8A030000 		.4byte	0x38a
 1530 042e 1C       		.byte	0x1c
 1531 042f 0A       		.uleb128 0xa
 1532 0430 64626700 		.ascii	"dbg\000"
 1533 0434 04       		.byte	0x4
 1534 0435 9C01     		.2byte	0x19c
 1535 0437 D7030000 		.4byte	0x3d7
ARM GAS  /var/folders/vd/czx34qs52cd_f3nb04sxmghc0000gn/T//cc6c6qTE.s 			page 28


 1536 043b 2C       		.byte	0x2c
 1537 043c 0B       		.uleb128 0xb
 1538 043d D8000000 		.4byte	.LASF72
 1539 0441 04       		.byte	0x4
 1540 0442 A001     		.2byte	0x1a0
 1541 0444 58010000 		.4byte	0x158
 1542 0448 30       		.byte	0x30
 1543 0449 0A       		.uleb128 0xa
 1544 044a 746D00   		.ascii	"tm\000"
 1545 044d 04       		.byte	0x4
 1546 044e A501     		.2byte	0x1a5
 1547 0450 88050000 		.4byte	0x588
 1548 0454 74       		.byte	0x74
 1549 0455 00       		.byte	0
 1550 0456 03       		.uleb128 0x3
 1551 0457 64070000 		.4byte	.LASF73
 1552 045b 0A       		.byte	0xa
 1553 045c 8C       		.byte	0x8c
 1554 045d DF000000 		.4byte	0xdf
 1555 0461 03       		.uleb128 0x3
 1556 0462 4D030000 		.4byte	.LASF74
 1557 0466 0A       		.byte	0xa
 1558 0467 98       		.byte	0x98
 1559 0468 DF000000 		.4byte	0xdf
 1560 046c 11       		.uleb128 0x11
 1561 046d 01010000 		.4byte	.LASF75
 1562 0471 0B       		.byte	0xb
 1563 0472 F407     		.2byte	0x7f4
 1564 0474 DA000000 		.4byte	0xda
 1565 0478 12       		.uleb128 0x12
 1566 0479 75030000 		.4byte	.LASF76
 1567 047d 0C       		.byte	0xc
 1568 047e 4C       		.byte	0x4c
 1569 047f DF000000 		.4byte	0xdf
 1570 0483 13       		.uleb128 0x13
 1571 0484 BF000000 		.4byte	0xbf
 1572 0488 93040000 		.4byte	0x493
 1573 048c 14       		.uleb128 0x14
 1574 048d 37000000 		.4byte	0x37
 1575 0491 0F       		.byte	0xf
 1576 0492 00       		.byte	0
 1577 0493 05       		.uleb128 0x5
 1578 0494 83040000 		.4byte	0x483
 1579 0498 12       		.uleb128 0x12
 1580 0499 8B040000 		.4byte	.LASF77
 1581 049d 0C       		.byte	0xc
 1582 049e 4E       		.byte	0x4e
 1583 049f 93040000 		.4byte	0x493
 1584 04a3 13       		.uleb128 0x13
 1585 04a4 BF000000 		.4byte	0xbf
 1586 04a8 B3040000 		.4byte	0x4b3
 1587 04ac 14       		.uleb128 0x14
 1588 04ad 37000000 		.4byte	0x37
 1589 04b1 07       		.byte	0x7
 1590 04b2 00       		.byte	0
 1591 04b3 05       		.uleb128 0x5
 1592 04b4 A3040000 		.4byte	0x4a3
ARM GAS  /var/folders/vd/czx34qs52cd_f3nb04sxmghc0000gn/T//cc6c6qTE.s 			page 29


 1593 04b8 12       		.uleb128 0x12
 1594 04b9 2C030000 		.4byte	.LASF78
 1595 04bd 0C       		.byte	0xc
 1596 04be 4F       		.byte	0x4f
 1597 04bf B3040000 		.4byte	0x4b3
 1598 04c3 03       		.uleb128 0x3
 1599 04c4 F0020000 		.4byte	.LASF79
 1600 04c8 0D       		.byte	0xd
 1601 04c9 65       		.byte	0x65
 1602 04ca 29030000 		.4byte	0x329
 1603 04ce 03       		.uleb128 0x3
 1604 04cf A0040000 		.4byte	.LASF80
 1605 04d3 0D       		.byte	0xd
 1606 04d4 6D       		.byte	0x6d
 1607 04d5 EA000000 		.4byte	0xea
 1608 04d9 07       		.uleb128 0x7
 1609 04da 16050000 		.4byte	.LASF81
 1610 04de 04       		.byte	0x4
 1611 04df 0D       		.byte	0xd
 1612 04e0 89       		.byte	0x89
 1613 04e1 F1040000 		.4byte	0x4f1
 1614 04e5 09       		.uleb128 0x9
 1615 04e6 737000   		.ascii	"sp\000"
 1616 04e9 0D       		.byte	0xd
 1617 04ea 8A       		.byte	0x8a
 1618 04eb 6D050000 		.4byte	0x56d
 1619 04ef 00       		.byte	0
 1620 04f0 00       		.byte	0
 1621 04f1 0D       		.uleb128 0xd
 1622 04f2 5C000000 		.4byte	.LASF82
 1623 04f6 24       		.byte	0x24
 1624 04f7 0E       		.byte	0xe
 1625 04f8 5901     		.2byte	0x159
 1626 04fa 6D050000 		.4byte	0x56d
 1627 04fe 0A       		.uleb128 0xa
 1628 04ff 723400   		.ascii	"r4\000"
 1629 0502 0E       		.byte	0xe
 1630 0503 6C01     		.2byte	0x16c
 1631 0505 C3040000 		.4byte	0x4c3
 1632 0509 00       		.byte	0
 1633 050a 0A       		.uleb128 0xa
 1634 050b 723500   		.ascii	"r5\000"
 1635 050e 0E       		.byte	0xe
 1636 050f 6D01     		.2byte	0x16d
 1637 0511 C3040000 		.4byte	0x4c3
 1638 0515 04       		.byte	0x4
 1639 0516 0A       		.uleb128 0xa
 1640 0517 723600   		.ascii	"r6\000"
 1641 051a 0E       		.byte	0xe
 1642 051b 6E01     		.2byte	0x16e
 1643 051d C3040000 		.4byte	0x4c3
 1644 0521 08       		.byte	0x8
 1645 0522 0A       		.uleb128 0xa
 1646 0523 723700   		.ascii	"r7\000"
 1647 0526 0E       		.byte	0xe
 1648 0527 6F01     		.2byte	0x16f
 1649 0529 C3040000 		.4byte	0x4c3
ARM GAS  /var/folders/vd/czx34qs52cd_f3nb04sxmghc0000gn/T//cc6c6qTE.s 			page 30


 1650 052d 0C       		.byte	0xc
 1651 052e 0A       		.uleb128 0xa
 1652 052f 723800   		.ascii	"r8\000"
 1653 0532 0E       		.byte	0xe
 1654 0533 7001     		.2byte	0x170
 1655 0535 C3040000 		.4byte	0x4c3
 1656 0539 10       		.byte	0x10
 1657 053a 0A       		.uleb128 0xa
 1658 053b 723900   		.ascii	"r9\000"
 1659 053e 0E       		.byte	0xe
 1660 053f 7101     		.2byte	0x171
 1661 0541 C3040000 		.4byte	0x4c3
 1662 0545 14       		.byte	0x14
 1663 0546 0A       		.uleb128 0xa
 1664 0547 72313000 		.ascii	"r10\000"
 1665 054b 0E       		.byte	0xe
 1666 054c 7201     		.2byte	0x172
 1667 054e C3040000 		.4byte	0x4c3
 1668 0552 18       		.byte	0x18
 1669 0553 0A       		.uleb128 0xa
 1670 0554 72313100 		.ascii	"r11\000"
 1671 0558 0E       		.byte	0xe
 1672 0559 7301     		.2byte	0x173
 1673 055b C3040000 		.4byte	0x4c3
 1674 055f 1C       		.byte	0x1c
 1675 0560 0A       		.uleb128 0xa
 1676 0561 6C7200   		.ascii	"lr\000"
 1677 0564 0E       		.byte	0xe
 1678 0565 7401     		.2byte	0x174
 1679 0567 C3040000 		.4byte	0x4c3
 1680 056b 20       		.byte	0x20
 1681 056c 00       		.byte	0
 1682 056d 0C       		.uleb128 0xc
 1683 056e 04       		.byte	0x4
 1684 056f F1040000 		.4byte	0x4f1
 1685 0573 15       		.uleb128 0x15
 1686 0574 04       		.byte	0x4
 1687 0575 0F       		.byte	0xf
 1688 0576 38       		.byte	0x38
 1689 0577 88050000 		.4byte	0x588
 1690 057b 08       		.uleb128 0x8
 1691 057c 8F070000 		.4byte	.LASF83
 1692 0580 0F       		.byte	0xf
 1693 0581 3C       		.byte	0x3c
 1694 0582 F5000000 		.4byte	0xf5
 1695 0586 00       		.byte	0
 1696 0587 00       		.byte	0
 1697 0588 03       		.uleb128 0x3
 1698 0589 23050000 		.4byte	.LASF84
 1699 058d 0F       		.byte	0xf
 1700 058e 3D       		.byte	0x3d
 1701 058f 73050000 		.4byte	0x573
 1702 0593 16       		.uleb128 0x16
 1703 0594 04       		.byte	0x4
 1704 0595 04       		.byte	0x4
 1705 0596 C6       		.byte	0xc6
 1706 0597 F5050000 		.4byte	0x5f5
ARM GAS  /var/folders/vd/czx34qs52cd_f3nb04sxmghc0000gn/T//cc6c6qTE.s 			page 31


 1707 059b 17       		.uleb128 0x17
 1708 059c 1A000000 		.4byte	.LASF85
 1709 05a0 04       		.byte	0x4
 1710 05a1 CD       		.byte	0xcd
 1711 05a2 2C010000 		.4byte	0x12c
 1712 05a6 17       		.uleb128 0x17
 1713 05a7 CF000000 		.4byte	.LASF86
 1714 05ab 04       		.byte	0x4
 1715 05ac D4       		.byte	0xd4
 1716 05ad 2C010000 		.4byte	0x12c
 1717 05b1 17       		.uleb128 0x17
 1718 05b2 6B040000 		.4byte	.LASF87
 1719 05b6 04       		.byte	0x4
 1720 05b7 DB       		.byte	0xdb
 1721 05b8 29030000 		.4byte	0x329
 1722 05bc 17       		.uleb128 0x17
 1723 05bd C3030000 		.4byte	.LASF88
 1724 05c1 04       		.byte	0x4
 1725 05c2 E2       		.byte	0xe2
 1726 05c3 F5050000 		.4byte	0x5f5
 1727 05c7 17       		.uleb128 0x17
 1728 05c8 E3000000 		.4byte	.LASF89
 1729 05cc 04       		.byte	0x4
 1730 05cd E7       		.byte	0xe7
 1731 05ce 2C010000 		.4byte	0x12c
 1732 05d2 17       		.uleb128 0x17
 1733 05d3 85030000 		.4byte	.LASF90
 1734 05d7 04       		.byte	0x4
 1735 05d8 F0       		.byte	0xf0
 1736 05d9 20060000 		.4byte	0x620
 1737 05dd 17       		.uleb128 0x17
 1738 05de BE060000 		.4byte	.LASF91
 1739 05e2 04       		.byte	0x4
 1740 05e3 F9       		.byte	0xf9
 1741 05e4 57060000 		.4byte	0x657
 1742 05e8 18       		.uleb128 0x18
 1743 05e9 1E060000 		.4byte	.LASF92
 1744 05ed 04       		.byte	0x4
 1745 05ee 0101     		.2byte	0x101
 1746 05f0 37010000 		.4byte	0x137
 1747 05f4 00       		.byte	0
 1748 05f5 0C       		.uleb128 0xc
 1749 05f6 04       		.byte	0x4
 1750 05f7 41020000 		.4byte	0x241
 1751 05fb 07       		.uleb128 0x7
 1752 05fc 66060000 		.4byte	.LASF93
 1753 0600 0C       		.byte	0xc
 1754 0601 03       		.byte	0x3
 1755 0602 34       		.byte	0x34
 1756 0603 20060000 		.4byte	0x620
 1757 0607 08       		.uleb128 0x8
 1758 0608 F8030000 		.4byte	.LASF31
 1759 060c 03       		.byte	0x3
 1760 060d 35       		.byte	0x35
 1761 060e 76020000 		.4byte	0x276
 1762 0612 00       		.byte	0
 1763 0613 09       		.uleb128 0x9
ARM GAS  /var/folders/vd/czx34qs52cd_f3nb04sxmghc0000gn/T//cc6c6qTE.s 			page 32


 1764 0614 636E7400 		.ascii	"cnt\000"
 1765 0618 03       		.byte	0x3
 1766 0619 37       		.byte	0x37
 1767 061a 42010000 		.4byte	0x142
 1768 061e 08       		.byte	0x8
 1769 061f 00       		.byte	0
 1770 0620 0C       		.uleb128 0xc
 1771 0621 04       		.byte	0x4
 1772 0622 FB050000 		.4byte	0x5fb
 1773 0626 07       		.uleb128 0x7
 1774 0627 96070000 		.4byte	.LASF94
 1775 062b 10       		.byte	0x10
 1776 062c 10       		.byte	0x10
 1777 062d 39       		.byte	0x39
 1778 062e 57060000 		.4byte	0x657
 1779 0632 08       		.uleb128 0x8
 1780 0633 F8030000 		.4byte	.LASF31
 1781 0637 10       		.byte	0x10
 1782 0638 3A       		.byte	0x3a
 1783 0639 76020000 		.4byte	0x276
 1784 063d 00       		.byte	0
 1785 063e 08       		.uleb128 0x8
 1786 063f E1060000 		.4byte	.LASF95
 1787 0643 10       		.byte	0x10
 1788 0644 3C       		.byte	0x3c
 1789 0645 4C020000 		.4byte	0x24c
 1790 0649 08       		.byte	0x8
 1791 064a 08       		.uleb128 0x8
 1792 064b 1C010000 		.4byte	.LASF50
 1793 064f 10       		.byte	0x10
 1794 0650 3E       		.byte	0x3e
 1795 0651 C4070000 		.4byte	0x7c4
 1796 0655 0C       		.byte	0xc
 1797 0656 00       		.byte	0
 1798 0657 0C       		.uleb128 0xc
 1799 0658 04       		.byte	0x4
 1800 0659 26060000 		.4byte	0x626
 1801 065d 0C       		.uleb128 0xc
 1802 065e 04       		.byte	0x4
 1803 065f 6F060000 		.4byte	0x66f
 1804 0663 06       		.uleb128 0x6
 1805 0664 5D060000 		.4byte	0x65d
 1806 0668 04       		.uleb128 0x4
 1807 0669 01       		.byte	0x1
 1808 066a 08       		.byte	0x8
 1809 066b 00070000 		.4byte	.LASF96
 1810 066f 05       		.uleb128 0x5
 1811 0670 68060000 		.4byte	0x668
 1812 0674 0C       		.uleb128 0xc
 1813 0675 04       		.byte	0x4
 1814 0676 CE040000 		.4byte	0x4ce
 1815 067a 0C       		.uleb128 0xc
 1816 067b 04       		.byte	0x4
 1817 067c 2B030000 		.4byte	0x32b
 1818 0680 19       		.uleb128 0x19
 1819 0681 636800   		.ascii	"ch\000"
 1820 0684 04       		.byte	0x4
ARM GAS  /var/folders/vd/czx34qs52cd_f3nb04sxmghc0000gn/T//cc6c6qTE.s 			page 33


 1821 0685 C701     		.2byte	0x1c7
 1822 0687 FD030000 		.4byte	0x3fd
 1823 068b 13       		.uleb128 0x13
 1824 068c CE040000 		.4byte	0x4ce
 1825 0690 96060000 		.4byte	0x696
 1826 0694 1A       		.uleb128 0x1a
 1827 0695 00       		.byte	0
 1828 0696 11       		.uleb128 0x11
 1829 0697 7C060000 		.4byte	.LASF97
 1830 069b 11       		.byte	0x11
 1831 069c 1701     		.2byte	0x117
 1832 069e 8B060000 		.4byte	0x68b
 1833 06a2 15       		.uleb128 0x15
 1834 06a3 16       		.byte	0x16
 1835 06a4 12       		.byte	0x12
 1836 06a5 34       		.byte	0x34
 1837 06a6 83070000 		.4byte	0x783
 1838 06aa 08       		.uleb128 0x8
 1839 06ab 90020000 		.4byte	.LASF98
 1840 06af 12       		.byte	0x12
 1841 06b0 35       		.byte	0x35
 1842 06b1 83070000 		.4byte	0x783
 1843 06b5 00       		.byte	0
 1844 06b6 08       		.uleb128 0x8
 1845 06b7 3A030000 		.4byte	.LASF99
 1846 06bb 12       		.byte	0x12
 1847 06bc 36       		.byte	0x36
 1848 06bd B4000000 		.4byte	0xb4
 1849 06c1 04       		.byte	0x4
 1850 06c2 08       		.uleb128 0x8
 1851 06c3 36020000 		.4byte	.LASF100
 1852 06c7 12       		.byte	0x12
 1853 06c8 37       		.byte	0x37
 1854 06c9 B4000000 		.4byte	0xb4
 1855 06cd 05       		.byte	0x5
 1856 06ce 08       		.uleb128 0x8
 1857 06cf BA040000 		.4byte	.LASF101
 1858 06d3 12       		.byte	0x12
 1859 06d4 38       		.byte	0x38
 1860 06d5 C4000000 		.4byte	0xc4
 1861 06d9 06       		.byte	0x6
 1862 06da 08       		.uleb128 0x8
 1863 06db E8070000 		.4byte	.LASF102
 1864 06df 12       		.byte	0x12
 1865 06e0 39       		.byte	0x39
 1866 06e1 B4000000 		.4byte	0xb4
 1867 06e5 08       		.byte	0x8
 1868 06e6 08       		.uleb128 0x8
 1869 06e7 8E060000 		.4byte	.LASF103
 1870 06eb 12       		.byte	0x12
 1871 06ec 3A       		.byte	0x3a
 1872 06ed B4000000 		.4byte	0xb4
 1873 06f1 09       		.byte	0x9
 1874 06f2 08       		.uleb128 0x8
 1875 06f3 B4050000 		.4byte	.LASF104
 1876 06f7 12       		.byte	0x12
 1877 06f8 3B       		.byte	0x3b
ARM GAS  /var/folders/vd/czx34qs52cd_f3nb04sxmghc0000gn/T//cc6c6qTE.s 			page 34


 1878 06f9 B4000000 		.4byte	0xb4
 1879 06fd 0A       		.byte	0xa
 1880 06fe 08       		.uleb128 0x8
 1881 06ff DB050000 		.4byte	.LASF105
 1882 0703 12       		.byte	0x12
 1883 0704 3C       		.byte	0x3c
 1884 0705 B4000000 		.4byte	0xb4
 1885 0709 0B       		.byte	0xb
 1886 070a 08       		.uleb128 0x8
 1887 070b 63040000 		.4byte	.LASF106
 1888 070f 12       		.byte	0x12
 1889 0710 3D       		.byte	0x3d
 1890 0711 B4000000 		.4byte	0xb4
 1891 0715 0C       		.byte	0xc
 1892 0716 08       		.uleb128 0x8
 1893 0717 0C050000 		.4byte	.LASF107
 1894 071b 12       		.byte	0x12
 1895 071c 3E       		.byte	0x3e
 1896 071d B4000000 		.4byte	0xb4
 1897 0721 0D       		.byte	0xd
 1898 0722 08       		.uleb128 0x8
 1899 0723 9F070000 		.4byte	.LASF108
 1900 0727 12       		.byte	0x12
 1901 0728 3F       		.byte	0x3f
 1902 0729 B4000000 		.4byte	0xb4
 1903 072d 0E       		.byte	0xe
 1904 072e 08       		.uleb128 0x8
 1905 072f 1F080000 		.4byte	.LASF109
 1906 0733 12       		.byte	0x12
 1907 0734 40       		.byte	0x40
 1908 0735 B4000000 		.4byte	0xb4
 1909 0739 0F       		.byte	0xf
 1910 073a 08       		.uleb128 0x8
 1911 073b E4050000 		.4byte	.LASF110
 1912 073f 12       		.byte	0x12
 1913 0740 41       		.byte	0x41
 1914 0741 B4000000 		.4byte	0xb4
 1915 0745 10       		.byte	0x10
 1916 0746 08       		.uleb128 0x8
 1917 0747 60080000 		.4byte	.LASF111
 1918 074b 12       		.byte	0x12
 1919 074c 42       		.byte	0x42
 1920 074d B4000000 		.4byte	0xb4
 1921 0751 11       		.byte	0x11
 1922 0752 08       		.uleb128 0x8
 1923 0753 BE080000 		.4byte	.LASF112
 1924 0757 12       		.byte	0x12
 1925 0758 43       		.byte	0x43
 1926 0759 B4000000 		.4byte	0xb4
 1927 075d 12       		.byte	0x12
 1928 075e 08       		.uleb128 0x8
 1929 075f 1A040000 		.4byte	.LASF113
 1930 0763 12       		.byte	0x12
 1931 0764 44       		.byte	0x44
 1932 0765 B4000000 		.4byte	0xb4
 1933 0769 13       		.byte	0x13
 1934 076a 08       		.uleb128 0x8
ARM GAS  /var/folders/vd/czx34qs52cd_f3nb04sxmghc0000gn/T//cc6c6qTE.s 			page 35


 1935 076b AE020000 		.4byte	.LASF114
 1936 076f 12       		.byte	0x12
 1937 0770 45       		.byte	0x45
 1938 0771 B4000000 		.4byte	0xb4
 1939 0775 14       		.byte	0x14
 1940 0776 08       		.uleb128 0x8
 1941 0777 73060000 		.4byte	.LASF115
 1942 077b 12       		.byte	0x12
 1943 077c 46       		.byte	0x46
 1944 077d B4000000 		.4byte	0xb4
 1945 0781 15       		.byte	0x15
 1946 0782 00       		.byte	0
 1947 0783 13       		.uleb128 0x13
 1948 0784 68060000 		.4byte	0x668
 1949 0788 93070000 		.4byte	0x793
 1950 078c 14       		.uleb128 0x14
 1951 078d 37000000 		.4byte	0x37
 1952 0791 03       		.byte	0x3
 1953 0792 00       		.byte	0
 1954 0793 03       		.uleb128 0x3
 1955 0794 A4020000 		.4byte	.LASF116
 1956 0798 12       		.byte	0x12
 1957 0799 47       		.byte	0x47
 1958 079a A2060000 		.4byte	0x6a2
 1959 079e 05       		.uleb128 0x5
 1960 079f 93070000 		.4byte	0x793
 1961 07a3 12       		.uleb128 0x12
 1962 07a4 C9030000 		.4byte	.LASF117
 1963 07a8 12       		.byte	0x12
 1964 07a9 6C       		.byte	0x6c
 1965 07aa 9E070000 		.4byte	0x79e
 1966 07ae 03       		.uleb128 0x3
 1967 07af 49060000 		.4byte	.LASF118
 1968 07b3 03       		.byte	0x3
 1969 07b4 38       		.byte	0x38
 1970 07b5 FB050000 		.4byte	0x5fb
 1971 07b9 03       		.uleb128 0x3
 1972 07ba 3F030000 		.4byte	.LASF119
 1973 07be 10       		.byte	0x10
 1974 07bf 34       		.byte	0x34
 1975 07c0 26060000 		.4byte	0x626
 1976 07c4 0C       		.uleb128 0xc
 1977 07c5 04       		.byte	0x4
 1978 07c6 B9070000 		.4byte	0x7b9
 1979 07ca 04       		.uleb128 0x4
 1980 07cb 01       		.byte	0x1
 1981 07cc 02       		.byte	0x2
 1982 07cd BF050000 		.4byte	.LASF120
 1983 07d1 03       		.uleb128 0x3
 1984 07d2 9E000000 		.4byte	.LASF121
 1985 07d6 13       		.byte	0x13
 1986 07d7 4B       		.byte	0x4b
 1987 07d8 DC070000 		.4byte	0x7dc
 1988 07dc 0C       		.uleb128 0xc
 1989 07dd 04       		.byte	0x4
 1990 07de E2070000 		.4byte	0x7e2
 1991 07e2 1B       		.uleb128 0x1b
ARM GAS  /var/folders/vd/czx34qs52cd_f3nb04sxmghc0000gn/T//cc6c6qTE.s 			page 36


 1992 07e3 29030000 		.4byte	0x329
 1993 07e7 F6070000 		.4byte	0x7f6
 1994 07eb 0F       		.uleb128 0xf
 1995 07ec 2C000000 		.4byte	0x2c
 1996 07f0 0F       		.uleb128 0xf
 1997 07f1 37000000 		.4byte	0x37
 1998 07f5 00       		.byte	0
 1999 07f6 15       		.uleb128 0x15
 2000 07f7 08       		.byte	0x8
 2001 07f8 13       		.byte	0x13
 2002 07f9 55       		.byte	0x55
 2003 07fa 17080000 		.4byte	0x817
 2004 07fe 08       		.uleb128 0x8
 2005 07ff D0080000 		.4byte	.LASF122
 2006 0803 13       		.byte	0x13
 2007 0804 59       		.byte	0x59
 2008 0805 17080000 		.4byte	0x817
 2009 0809 00       		.byte	0
 2010 080a 08       		.uleb128 0x8
 2011 080b 99040000 		.4byte	.LASF123
 2012 080f 13       		.byte	0x13
 2013 0810 5D       		.byte	0x5d
 2014 0811 17080000 		.4byte	0x817
 2015 0815 04       		.byte	0x4
 2016 0816 00       		.byte	0
 2017 0817 0C       		.uleb128 0xc
 2018 0818 04       		.byte	0x4
 2019 0819 B4000000 		.4byte	0xb4
 2020 081d 03       		.uleb128 0x3
 2021 081e 55050000 		.4byte	.LASF124
 2022 0822 13       		.byte	0x13
 2023 0823 5E       		.byte	0x5e
 2024 0824 F6070000 		.4byte	0x7f6
 2025 0828 12       		.uleb128 0x12
 2026 0829 47070000 		.4byte	.LASF125
 2027 082d 13       		.byte	0x13
 2028 082e 69       		.byte	0x69
 2029 082f 1D080000 		.4byte	0x81d
 2030 0833 07       		.uleb128 0x7
 2031 0834 13080000 		.4byte	.LASF126
 2032 0838 04       		.byte	0x4
 2033 0839 14       		.byte	0x14
 2034 083a 3C       		.byte	0x3c
 2035 083b 4C080000 		.4byte	0x84c
 2036 083f 08       		.uleb128 0x8
 2037 0840 1C010000 		.4byte	.LASF50
 2038 0844 14       		.byte	0x14
 2039 0845 3D       		.byte	0x3d
 2040 0846 4C080000 		.4byte	0x84c
 2041 084a 00       		.byte	0
 2042 084b 00       		.byte	0
 2043 084c 0C       		.uleb128 0xc
 2044 084d 04       		.byte	0x4
 2045 084e 33080000 		.4byte	0x833
 2046 0852 15       		.uleb128 0x15
 2047 0853 10       		.byte	0x10
 2048 0854 14       		.byte	0x14
ARM GAS  /var/folders/vd/czx34qs52cd_f3nb04sxmghc0000gn/T//cc6c6qTE.s 			page 37


 2049 0855 44       		.byte	0x44
 2050 0856 8B080000 		.4byte	0x88b
 2051 085a 08       		.uleb128 0x8
 2052 085b 1C010000 		.4byte	.LASF50
 2053 085f 14       		.byte	0x14
 2054 0860 45       		.byte	0x45
 2055 0861 4C080000 		.4byte	0x84c
 2056 0865 00       		.byte	0
 2057 0866 08       		.uleb128 0x8
 2058 0867 DC070000 		.4byte	.LASF127
 2059 086b 14       		.byte	0x14
 2060 086c 46       		.byte	0x46
 2061 086d 2C000000 		.4byte	0x2c
 2062 0871 04       		.byte	0x4
 2063 0872 08       		.uleb128 0x8
 2064 0873 47030000 		.4byte	.LASF128
 2065 0877 14       		.byte	0x14
 2066 0878 48       		.byte	0x48
 2067 0879 37000000 		.4byte	0x37
 2068 087d 08       		.byte	0x8
 2069 087e 08       		.uleb128 0x8
 2070 087f 77000000 		.4byte	.LASF129
 2071 0883 14       		.byte	0x14
 2072 0884 49       		.byte	0x49
 2073 0885 D1070000 		.4byte	0x7d1
 2074 0889 0C       		.byte	0xc
 2075 088a 00       		.byte	0
 2076 088b 03       		.uleb128 0x3
 2077 088c E5030000 		.4byte	.LASF130
 2078 0890 14       		.byte	0x14
 2079 0891 4B       		.byte	0x4b
 2080 0892 52080000 		.4byte	0x852
 2081 0896 07       		.uleb128 0x7
 2082 0897 7C050000 		.4byte	.LASF131
 2083 089b 10       		.byte	0x10
 2084 089c 15       		.byte	0x15
 2085 089d 97       		.byte	0x97
 2086 089e C7080000 		.4byte	0x8c7
 2087 08a2 08       		.uleb128 0x8
 2088 08a3 1C010000 		.4byte	.LASF50
 2089 08a7 15       		.byte	0x15
 2090 08a8 9B       		.byte	0x9b
 2091 08a9 C7080000 		.4byte	0x8c7
 2092 08ad 00       		.byte	0
 2093 08ae 08       		.uleb128 0x8
 2094 08af 67050000 		.4byte	.LASF39
 2095 08b3 15       		.byte	0x15
 2096 08b4 9F       		.byte	0x9f
 2097 08b5 4D010000 		.4byte	0x14d
 2098 08b9 04       		.byte	0x4
 2099 08ba 08       		.uleb128 0x8
 2100 08bb F3030000 		.4byte	.LASF35
 2101 08bf 15       		.byte	0x15
 2102 08c0 A1       		.byte	0xa1
 2103 08c1 CD080000 		.4byte	0x8cd
 2104 08c5 08       		.byte	0x8
 2105 08c6 00       		.byte	0
ARM GAS  /var/folders/vd/czx34qs52cd_f3nb04sxmghc0000gn/T//cc6c6qTE.s 			page 38


 2106 08c7 0C       		.uleb128 0xc
 2107 08c8 04       		.byte	0x4
 2108 08c9 96080000 		.4byte	0x896
 2109 08cd 13       		.uleb128 0x13
 2110 08ce 68060000 		.4byte	0x668
 2111 08d2 DD080000 		.4byte	0x8dd
 2112 08d6 14       		.uleb128 0x14
 2113 08d7 37000000 		.4byte	0x37
 2114 08db 07       		.byte	0x7
 2115 08dc 00       		.byte	0
 2116 08dd 03       		.uleb128 0x3
 2117 08de 0E010000 		.4byte	.LASF132
 2118 08e2 15       		.byte	0x15
 2119 08e3 A5       		.byte	0xa5
 2120 08e4 96080000 		.4byte	0x896
 2121 08e8 07       		.uleb128 0x7
 2122 08e9 00050000 		.4byte	.LASF133
 2123 08ed 04       		.byte	0x4
 2124 08ee 15       		.byte	0x15
 2125 08ef AA       		.byte	0xaa
 2126 08f0 01090000 		.4byte	0x901
 2127 08f4 08       		.uleb128 0x8
 2128 08f5 1C010000 		.4byte	.LASF50
 2129 08f9 15       		.byte	0x15
 2130 08fa AB       		.byte	0xab
 2131 08fb 01090000 		.4byte	0x901
 2132 08ff 00       		.byte	0
 2133 0900 00       		.byte	0
 2134 0901 0C       		.uleb128 0xc
 2135 0902 04       		.byte	0x4
 2136 0903 DD080000 		.4byte	0x8dd
 2137 0907 03       		.uleb128 0x3
 2138 0908 4C040000 		.4byte	.LASF134
 2139 090c 15       		.byte	0x15
 2140 090d AC       		.byte	0xac
 2141 090e E8080000 		.4byte	0x8e8
 2142 0912 0D       		.uleb128 0xd
 2143 0913 F0070000 		.4byte	.LASF135
 2144 0917 44       		.byte	0x44
 2145 0918 15       		.byte	0x15
 2146 0919 1501     		.2byte	0x115
 2147 091b 88090000 		.4byte	0x988
 2148 091f 0A       		.uleb128 0xa
 2149 0920 6D747800 		.ascii	"mtx\000"
 2150 0924 15       		.byte	0x15
 2151 0925 1A01     		.2byte	0x11a
 2152 0927 B9070000 		.4byte	0x7b9
 2153 092b 00       		.byte	0
 2154 092c 0B       		.uleb128 0xb
 2155 092d 15070000 		.4byte	.LASF136
 2156 0931 15       		.byte	0x15
 2157 0932 2101     		.2byte	0x121
 2158 0934 07090000 		.4byte	0x907
 2159 0938 10       		.byte	0x10
 2160 0939 0B       		.uleb128 0xb
 2161 093a 40060000 		.4byte	.LASF137
 2162 093e 15       		.byte	0x15
ARM GAS  /var/folders/vd/czx34qs52cd_f3nb04sxmghc0000gn/T//cc6c6qTE.s 			page 39


 2163 093f 2501     		.2byte	0x125
 2164 0941 8B080000 		.4byte	0x88b
 2165 0945 14       		.byte	0x14
 2166 0946 0B       		.uleb128 0xb
 2167 0947 23040000 		.4byte	.LASF138
 2168 094b 15       		.byte	0x15
 2169 094c 2A01     		.2byte	0x12a
 2170 094e 07090000 		.4byte	0x907
 2171 0952 24       		.byte	0x24
 2172 0953 0B       		.uleb128 0xb
 2173 0954 8B000000 		.4byte	.LASF139
 2174 0958 15       		.byte	0x15
 2175 0959 3001     		.2byte	0x130
 2176 095b 07090000 		.4byte	0x907
 2177 095f 28       		.byte	0x28
 2178 0960 0B       		.uleb128 0xb
 2179 0961 39050000 		.4byte	.LASF140
 2180 0965 15       		.byte	0x15
 2181 0966 3401     		.2byte	0x134
 2182 0968 8B080000 		.4byte	0x88b
 2183 096c 2C       		.byte	0x2c
 2184 096d 0B       		.uleb128 0xb
 2185 096e 0B030000 		.4byte	.LASF141
 2186 0972 15       		.byte	0x15
 2187 0973 3A01     		.2byte	0x13a
 2188 0975 07090000 		.4byte	0x907
 2189 0979 3C       		.byte	0x3c
 2190 097a 0B       		.uleb128 0xb
 2191 097b 36080000 		.4byte	.LASF142
 2192 097f 15       		.byte	0x15
 2193 0980 4001     		.2byte	0x140
 2194 0982 07090000 		.4byte	0x907
 2195 0986 40       		.byte	0x40
 2196 0987 00       		.byte	0
 2197 0988 1C       		.uleb128 0x1c
 2198 0989 AC080000 		.4byte	.LASF143
 2199 098d 15       		.byte	0x15
 2200 098e 4201     		.2byte	0x142
 2201 0990 12090000 		.4byte	0x912
 2202 0994 11       		.uleb128 0x11
 2203 0995 D2030000 		.4byte	.LASF144
 2204 0999 15       		.byte	0x15
 2205 099a 4D01     		.2byte	0x14d
 2206 099c 88090000 		.4byte	0x988
 2207 09a0 1D       		.uleb128 0x1d
 2208 09a1 80060000 		.4byte	0x680
 2209 09a5 01       		.byte	0x1
 2210 09a6 2A       		.byte	0x2a
 2211 09a7 05       		.uleb128 0x5
 2212 09a8 03       		.byte	0x3
 2213 09a9 00000000 		.4byte	ch
 2214 09ad 1E       		.uleb128 0x1e
 2215 09ae F9020000 		.4byte	.LASF178
 2216 09b2 01       		.byte	0x1
 2217 09b3 3A02     		.2byte	0x23a
 2218 09b5 C6090000 		.4byte	0x9c6
 2219 09b9 1F       		.uleb128 0x1f
ARM GAS  /var/folders/vd/czx34qs52cd_f3nb04sxmghc0000gn/T//cc6c6qTE.s 			page 40


 2220 09ba 6F747000 		.ascii	"otp\000"
 2221 09be 01       		.byte	0x1
 2222 09bf 3B02     		.2byte	0x23b
 2223 09c1 4C020000 		.4byte	0x24c
 2224 09c5 00       		.byte	0
 2225 09c6 20       		.uleb128 0x20
 2226 09c7 2A000000 		.4byte	.LASF145
 2227 09cb 01       		.byte	0x1
 2228 09cc 1C02     		.2byte	0x21c
 2229 09ce 00000000 		.4byte	.LFB290
 2230 09d2 3C000000 		.4byte	.LFE290-.LFB290
 2231 09d6 01       		.uleb128 0x1
 2232 09d7 9C       		.byte	0x9c
 2233 09d8 510A0000 		.4byte	0xa51
 2234 09dc 21       		.uleb128 0x21
 2235 09dd 6F747000 		.ascii	"otp\000"
 2236 09e1 01       		.byte	0x1
 2237 09e2 1D02     		.2byte	0x21d
 2238 09e4 4C020000 		.4byte	0x24c
 2239 09e8 00000000 		.4byte	.LLST27
 2240 09ec 22       		.uleb128 0x22
 2241 09ed 940E0000 		.4byte	0xe94
 2242 09f1 02000000 		.4byte	.LBB202
 2243 09f5 10010000 		.4byte	.Ldebug_ranges0+0x110
 2244 09f9 01       		.byte	0x1
 2245 09fa 2002     		.2byte	0x220
 2246 09fc 190A0000 		.4byte	0xa19
 2247 0a00 23       		.uleb128 0x23
 2248 0a01 A50E0000 		.4byte	0xea5
 2249 0a05 13000000 		.4byte	.LLST28
 2250 0a09 24       		.uleb128 0x24
 2251 0a0a 10010000 		.4byte	.Ldebug_ranges0+0x110
 2252 0a0e 25       		.uleb128 0x25
 2253 0a0f B10E0000 		.4byte	0xeb1
 2254 0a13 2B000000 		.4byte	.LLST29
 2255 0a17 00       		.byte	0
 2256 0a18 00       		.byte	0
 2257 0a19 22       		.uleb128 0x22
 2258 0a1a 590D0000 		.4byte	0xd59
 2259 0a1e 14000000 		.4byte	.LBB206
 2260 0a22 28010000 		.4byte	.Ldebug_ranges0+0x128
 2261 0a26 01       		.byte	0x1
 2262 0a27 2902     		.2byte	0x229
 2263 0a29 470A0000 		.4byte	0xa47
 2264 0a2d 23       		.uleb128 0x23
 2265 0a2e 6A0D0000 		.4byte	0xd6a
 2266 0a32 3E000000 		.4byte	.LLST30
 2267 0a36 24       		.uleb128 0x24
 2268 0a37 28010000 		.4byte	.Ldebug_ranges0+0x128
 2269 0a3b 26       		.uleb128 0x26
 2270 0a3c 2B110000 		.4byte	0x112b
 2271 0a40 26       		.uleb128 0x26
 2272 0a41 32110000 		.4byte	0x1132
 2273 0a45 00       		.byte	0
 2274 0a46 00       		.byte	0
 2275 0a47 27       		.uleb128 0x27
 2276 0a48 38000000 		.4byte	.LVL67
ARM GAS  /var/folders/vd/czx34qs52cd_f3nb04sxmghc0000gn/T//cc6c6qTE.s 			page 41


 2277 0a4c 38110000 		.4byte	0x1138
 2278 0a50 00       		.byte	0
 2279 0a51 20       		.uleb128 0x20
 2280 0a52 94080000 		.4byte	.LASF146
 2281 0a56 01       		.byte	0x1
 2282 0a57 FB01     		.2byte	0x1fb
 2283 0a59 00000000 		.4byte	.LFB289
 2284 0a5d 3C000000 		.4byte	.LFE289-.LFB289
 2285 0a61 01       		.uleb128 0x1
 2286 0a62 9C       		.byte	0x9c
 2287 0a63 DC0A0000 		.4byte	0xadc
 2288 0a67 21       		.uleb128 0x21
 2289 0a68 6F747000 		.ascii	"otp\000"
 2290 0a6c 01       		.byte	0x1
 2291 0a6d FC01     		.2byte	0x1fc
 2292 0a6f 4C020000 		.4byte	0x24c
 2293 0a73 51000000 		.4byte	.LLST23
 2294 0a77 22       		.uleb128 0x22
 2295 0a78 940E0000 		.4byte	0xe94
 2296 0a7c 02000000 		.4byte	.LBB190
 2297 0a80 D0000000 		.4byte	.Ldebug_ranges0+0xd0
 2298 0a84 01       		.byte	0x1
 2299 0a85 FF01     		.2byte	0x1ff
 2300 0a87 A40A0000 		.4byte	0xaa4
 2301 0a8b 23       		.uleb128 0x23
 2302 0a8c A50E0000 		.4byte	0xea5
 2303 0a90 64000000 		.4byte	.LLST24
 2304 0a94 24       		.uleb128 0x24
 2305 0a95 D0000000 		.4byte	.Ldebug_ranges0+0xd0
 2306 0a99 25       		.uleb128 0x25
 2307 0a9a B10E0000 		.4byte	0xeb1
 2308 0a9e 7C000000 		.4byte	.LLST25
 2309 0aa2 00       		.byte	0
 2310 0aa3 00       		.byte	0
 2311 0aa4 22       		.uleb128 0x22
 2312 0aa5 A30D0000 		.4byte	0xda3
 2313 0aa9 14000000 		.4byte	.LBB194
 2314 0aad E8000000 		.4byte	.Ldebug_ranges0+0xe8
 2315 0ab1 01       		.byte	0x1
 2316 0ab2 0D02     		.2byte	0x20d
 2317 0ab4 D20A0000 		.4byte	0xad2
 2318 0ab8 23       		.uleb128 0x23
 2319 0ab9 B30D0000 		.4byte	0xdb3
 2320 0abd 8F000000 		.4byte	.LLST26
 2321 0ac1 24       		.uleb128 0x24
 2322 0ac2 E8000000 		.4byte	.Ldebug_ranges0+0xe8
 2323 0ac6 26       		.uleb128 0x26
 2324 0ac7 02110000 		.4byte	0x1102
 2325 0acb 26       		.uleb128 0x26
 2326 0acc 09110000 		.4byte	0x1109
 2327 0ad0 00       		.byte	0
 2328 0ad1 00       		.byte	0
 2329 0ad2 27       		.uleb128 0x27
 2330 0ad3 38000000 		.4byte	.LVL59
 2331 0ad7 38110000 		.4byte	0x1138
 2332 0adb 00       		.byte	0
 2333 0adc 28       		.uleb128 0x28
ARM GAS  /var/folders/vd/czx34qs52cd_f3nb04sxmghc0000gn/T//cc6c6qTE.s 			page 42


 2334 0add BA020000 		.4byte	.LASF149
 2335 0ae1 01       		.byte	0x1
 2336 0ae2 DF01     		.2byte	0x1df
 2337 0ae4 CA070000 		.4byte	0x7ca
 2338 0ae8 00000000 		.4byte	.LFB288
 2339 0aec 18000000 		.4byte	.LFE288-.LFB288
 2340 0af0 01       		.uleb128 0x1
 2341 0af1 9C       		.byte	0x9c
 2342 0af2 1F0B0000 		.4byte	0xb1f
 2343 0af6 29       		.uleb128 0x29
 2344 0af7 703100   		.ascii	"p1\000"
 2345 0afa 01       		.byte	0x1
 2346 0afb E001     		.2byte	0x1e0
 2347 0afd 21010000 		.4byte	0x121
 2348 0b01 08       		.uleb128 0x8
 2349 0b02 03       		.byte	0x3
 2350 0b03 00000000 		.4byte	ch
 2351 0b07 06       		.byte	0x6
 2352 0b08 23       		.byte	0x23
 2353 0b09 08       		.uleb128 0x8
 2354 0b0a 29       		.uleb128 0x29
 2355 0b0b 703200   		.ascii	"p2\000"
 2356 0b0e 01       		.byte	0x1
 2357 0b0f E101     		.2byte	0x1e1
 2358 0b11 21010000 		.4byte	0x121
 2359 0b15 08       		.uleb128 0x8
 2360 0b16 03       		.byte	0x3
 2361 0b17 18000000 		.4byte	ch+24
 2362 0b1b 06       		.byte	0x6
 2363 0b1c 23       		.byte	0x23
 2364 0b1d 08       		.uleb128 0x8
 2365 0b1e 00       		.byte	0
 2366 0b1f 20       		.uleb128 0x20
 2367 0b20 D4020000 		.4byte	.LASF147
 2368 0b24 01       		.byte	0x1
 2369 0b25 C801     		.2byte	0x1c8
 2370 0b27 00000000 		.4byte	.LFB287
 2371 0b2b 18000000 		.4byte	.LFE287-.LFB287
 2372 0b2f 01       		.uleb128 0x1
 2373 0b30 9C       		.byte	0x9c
 2374 0b31 4F0B0000 		.4byte	0xb4f
 2375 0b35 2A       		.uleb128 0x2a
 2376 0b36 6A0E0000 		.4byte	0xe6a
 2377 0b3a 00000000 		.4byte	.LBB214
 2378 0b3e 06000000 		.4byte	.LBE214-.LBB214
 2379 0b42 01       		.byte	0x1
 2380 0b43 CC01     		.2byte	0x1cc
 2381 0b45 27       		.uleb128 0x27
 2382 0b46 14000000 		.4byte	.LVL68
 2383 0b4a C6090000 		.4byte	0x9c6
 2384 0b4e 00       		.byte	0
 2385 0b4f 20       		.uleb128 0x20
 2386 0b50 CF070000 		.4byte	.LASF148
 2387 0b54 01       		.byte	0x1
 2388 0b55 9C01     		.2byte	0x19c
 2389 0b57 00000000 		.4byte	.LFB286
 2390 0b5b 60000000 		.4byte	.LFE286-.LFB286
ARM GAS  /var/folders/vd/czx34qs52cd_f3nb04sxmghc0000gn/T//cc6c6qTE.s 			page 43


 2391 0b5f 01       		.uleb128 0x1
 2392 0b60 9C       		.byte	0x9c
 2393 0b61 0C0C0000 		.4byte	0xc0c
 2394 0b65 2B       		.uleb128 0x2b
 2395 0b66 6E747000 		.ascii	"ntp\000"
 2396 0b6a 01       		.byte	0x1
 2397 0b6b 9C01     		.2byte	0x19c
 2398 0b6d 4C020000 		.4byte	0x24c
 2399 0b71 A2000000 		.4byte	.LLST18
 2400 0b75 2B       		.uleb128 0x2b
 2401 0b76 6D736700 		.ascii	"msg\000"
 2402 0b7a 01       		.byte	0x1
 2403 0b7b 9C01     		.2byte	0x19c
 2404 0b7d 2C010000 		.4byte	0x12c
 2405 0b81 F0000000 		.4byte	.LLST19
 2406 0b85 21       		.uleb128 0x21
 2407 0b86 6F747000 		.ascii	"otp\000"
 2408 0b8a 01       		.byte	0x1
 2409 0b8b 9D01     		.2byte	0x19d
 2410 0b8d 4C020000 		.4byte	0x24c
 2411 0b91 11010000 		.4byte	.LLST20
 2412 0b95 2C       		.uleb128 0x2c
 2413 0b96 37060000 		.4byte	.LASF154
 2414 0b9a 1C0C0000 		.4byte	0xc1c
 2415 0b9e 22       		.uleb128 0x22
 2416 0b9f A30D0000 		.4byte	0xda3
 2417 0ba3 10000000 		.4byte	.LBB182
 2418 0ba7 A0000000 		.4byte	.Ldebug_ranges0+0xa0
 2419 0bab 01       		.byte	0x1
 2420 0bac AE01     		.2byte	0x1ae
 2421 0bae CC0B0000 		.4byte	0xbcc
 2422 0bb2 23       		.uleb128 0x23
 2423 0bb3 B30D0000 		.4byte	0xdb3
 2424 0bb7 2F010000 		.4byte	.LLST21
 2425 0bbb 24       		.uleb128 0x24
 2426 0bbc A0000000 		.4byte	.Ldebug_ranges0+0xa0
 2427 0bc0 26       		.uleb128 0x26
 2428 0bc1 02110000 		.4byte	0x1102
 2429 0bc5 26       		.uleb128 0x26
 2430 0bc6 09110000 		.4byte	0x1109
 2431 0bca 00       		.byte	0
 2432 0bcb 00       		.byte	0
 2433 0bcc 22       		.uleb128 0x22
 2434 0bcd A30D0000 		.4byte	0xda3
 2435 0bd1 30000000 		.4byte	.LBB186
 2436 0bd5 B8000000 		.4byte	.Ldebug_ranges0+0xb8
 2437 0bd9 01       		.byte	0x1
 2438 0bda B101     		.2byte	0x1b1
 2439 0bdc FA0B0000 		.4byte	0xbfa
 2440 0be0 23       		.uleb128 0x23
 2441 0be1 B30D0000 		.4byte	0xdb3
 2442 0be5 4E010000 		.4byte	.LLST22
 2443 0be9 24       		.uleb128 0x24
 2444 0bea B8000000 		.4byte	.Ldebug_ranges0+0xb8
 2445 0bee 26       		.uleb128 0x26
 2446 0bef 02110000 		.4byte	0x1102
 2447 0bf3 26       		.uleb128 0x26
ARM GAS  /var/folders/vd/czx34qs52cd_f3nb04sxmghc0000gn/T//cc6c6qTE.s 			page 44


 2448 0bf4 09110000 		.4byte	0x1109
 2449 0bf8 00       		.byte	0
 2450 0bf9 00       		.byte	0
 2451 0bfa 2D       		.uleb128 0x2d
 2452 0bfb 5A000000 		.4byte	.LVL50
 2453 0bff 38110000 		.4byte	0x1138
 2454 0c03 2E       		.uleb128 0x2e
 2455 0c04 01       		.uleb128 0x1
 2456 0c05 50       		.byte	0x50
 2457 0c06 03       		.uleb128 0x3
 2458 0c07 F3       		.byte	0xf3
 2459 0c08 01       		.uleb128 0x1
 2460 0c09 50       		.byte	0x50
 2461 0c0a 00       		.byte	0
 2462 0c0b 00       		.byte	0
 2463 0c0c 13       		.uleb128 0x13
 2464 0c0d 6F060000 		.4byte	0x66f
 2465 0c11 1C0C0000 		.4byte	0xc1c
 2466 0c15 14       		.uleb128 0x14
 2467 0c16 37000000 		.4byte	0x37
 2468 0c1a 0C       		.byte	0xc
 2469 0c1b 00       		.byte	0
 2470 0c1c 05       		.uleb128 0x5
 2471 0c1d 0C0C0000 		.4byte	0xc0c
 2472 0c21 28       		.uleb128 0x28
 2473 0c22 6A080000 		.4byte	.LASF150
 2474 0c26 01       		.byte	0x1
 2475 0c27 7701     		.2byte	0x177
 2476 0c29 2C010000 		.4byte	0x12c
 2477 0c2d 00000000 		.4byte	.LFB285
 2478 0c31 44000000 		.4byte	.LFE285-.LFB285
 2479 0c35 01       		.uleb128 0x1
 2480 0c36 9C       		.byte	0x9c
 2481 0c37 C90C0000 		.4byte	0xcc9
 2482 0c3b 2F       		.uleb128 0x2f
 2483 0c3c F1050000 		.4byte	.LASF151
 2484 0c40 01       		.byte	0x1
 2485 0c41 7701     		.2byte	0x177
 2486 0c43 0B010000 		.4byte	0x10b
 2487 0c47 61010000 		.4byte	.LLST16
 2488 0c4b 2F       		.uleb128 0x2f
 2489 0c4c DD030000 		.4byte	.LASF152
 2490 0c50 01       		.byte	0x1
 2491 0c51 7701     		.2byte	0x177
 2492 0c53 61040000 		.4byte	0x461
 2493 0c57 9B010000 		.4byte	.LLST17
 2494 0c5b 30       		.uleb128 0x30
 2495 0c5c 08000000 		.4byte	.LBB181
 2496 0c60 1E000000 		.4byte	.LBE181-.LBB181
 2497 0c64 BF0C0000 		.4byte	0xcbf
 2498 0c68 29       		.uleb128 0x29
 2499 0c69 767400   		.ascii	"vt\000"
 2500 0c6c 01       		.byte	0x1
 2501 0c6d 7C01     		.2byte	0x17c
 2502 0c6f 2B030000 		.4byte	0x32b
 2503 0c73 02       		.uleb128 0x2
 2504 0c74 91       		.byte	0x91
ARM GAS  /var/folders/vd/czx34qs52cd_f3nb04sxmghc0000gn/T//cc6c6qTE.s 			page 45


 2505 0c75 5C       		.sleb128 -36
 2506 0c76 31       		.uleb128 0x31
 2507 0c77 16000000 		.4byte	.LVL31
 2508 0c7b 44110000 		.4byte	0x1144
 2509 0c7f 9A0C0000 		.4byte	0xc9a
 2510 0c83 2E       		.uleb128 0x2e
 2511 0c84 01       		.uleb128 0x1
 2512 0c85 50       		.byte	0x50
 2513 0c86 02       		.uleb128 0x2
 2514 0c87 91       		.byte	0x91
 2515 0c88 5C       		.sleb128 -36
 2516 0c89 2E       		.uleb128 0x2e
 2517 0c8a 01       		.uleb128 0x1
 2518 0c8b 51       		.byte	0x51
 2519 0c8c 03       		.uleb128 0x3
 2520 0c8d F3       		.byte	0xf3
 2521 0c8e 01       		.uleb128 0x1
 2522 0c8f 51       		.byte	0x51
 2523 0c90 2E       		.uleb128 0x2e
 2524 0c91 01       		.uleb128 0x1
 2525 0c92 52       		.byte	0x52
 2526 0c93 05       		.uleb128 0x5
 2527 0c94 03       		.byte	0x3
 2528 0c95 00000000 		.4byte	wakeup
 2529 0c99 00       		.byte	0
 2530 0c9a 31       		.uleb128 0x31
 2531 0c9b 1C000000 		.4byte	.LVL32
 2532 0c9f EC0C0000 		.4byte	0xcec
 2533 0ca3 AE0C0000 		.4byte	0xcae
 2534 0ca7 2E       		.uleb128 0x2e
 2535 0ca8 01       		.uleb128 0x1
 2536 0ca9 50       		.byte	0x50
 2537 0caa 02       		.uleb128 0x2
 2538 0cab 75       		.byte	0x75
 2539 0cac 00       		.sleb128 0
 2540 0cad 00       		.byte	0
 2541 0cae 32       		.uleb128 0x32
 2542 0caf 26000000 		.4byte	.LVL34
 2543 0cb3 4F110000 		.4byte	0x114f
 2544 0cb7 2E       		.uleb128 0x2e
 2545 0cb8 01       		.uleb128 0x1
 2546 0cb9 50       		.byte	0x50
 2547 0cba 02       		.uleb128 0x2
 2548 0cbb 91       		.byte	0x91
 2549 0cbc 5C       		.sleb128 -36
 2550 0cbd 00       		.byte	0
 2551 0cbe 00       		.byte	0
 2552 0cbf 33       		.uleb128 0x33
 2553 0cc0 34000000 		.4byte	.LVL36
 2554 0cc4 EC0C0000 		.4byte	0xcec
 2555 0cc8 00       		.byte	0
 2556 0cc9 34       		.uleb128 0x34
 2557 0cca 6E030000 		.4byte	.LASF158
 2558 0cce 01       		.byte	0x1
 2559 0ccf 3F01     		.2byte	0x13f
 2560 0cd1 01       		.byte	0x1
 2561 0cd2 EC0C0000 		.4byte	0xcec
ARM GAS  /var/folders/vd/czx34qs52cd_f3nb04sxmghc0000gn/T//cc6c6qTE.s 			page 46


 2562 0cd6 35       		.uleb128 0x35
 2563 0cd7 7000     		.ascii	"p\000"
 2564 0cd9 01       		.byte	0x1
 2565 0cda 3F01     		.2byte	0x13f
 2566 0cdc 29030000 		.4byte	0x329
 2567 0ce0 1F       		.uleb128 0x1f
 2568 0ce1 747000   		.ascii	"tp\000"
 2569 0ce4 01       		.byte	0x1
 2570 0ce5 4001     		.2byte	0x140
 2571 0ce7 4C020000 		.4byte	0x24c
 2572 0ceb 00       		.byte	0
 2573 0cec 20       		.uleb128 0x20
 2574 0ced A6050000 		.4byte	.LASF153
 2575 0cf1 01       		.byte	0x1
 2576 0cf2 2101     		.2byte	0x121
 2577 0cf4 00000000 		.4byte	.LFB283
 2578 0cf8 28000000 		.4byte	.LFE283-.LFB283
 2579 0cfc 01       		.uleb128 0x1
 2580 0cfd 9C       		.byte	0x9c
 2581 0cfe 590D0000 		.4byte	0xd59
 2582 0d02 2F       		.uleb128 0x2f
 2583 0d03 F1050000 		.4byte	.LASF151
 2584 0d07 01       		.byte	0x1
 2585 0d08 2101     		.2byte	0x121
 2586 0d0a 0B010000 		.4byte	0x10b
 2587 0d0e D5010000 		.4byte	.LLST12
 2588 0d12 21       		.uleb128 0x21
 2589 0d13 6F747000 		.ascii	"otp\000"
 2590 0d17 01       		.byte	0x1
 2591 0d18 2201     		.2byte	0x122
 2592 0d1a 4C020000 		.4byte	0x24c
 2593 0d1e 02020000 		.4byte	.LLST13
 2594 0d22 22       		.uleb128 0x22
 2595 0d23 940E0000 		.4byte	0xe94
 2596 0d27 04000000 		.4byte	.LBB175
 2597 0d2b 80000000 		.4byte	.Ldebug_ranges0+0x80
 2598 0d2f 01       		.byte	0x1
 2599 0d30 3001     		.2byte	0x130
 2600 0d32 4F0D0000 		.4byte	0xd4f
 2601 0d36 23       		.uleb128 0x23
 2602 0d37 A50E0000 		.4byte	0xea5
 2603 0d3b 15020000 		.4byte	.LLST14
 2604 0d3f 24       		.uleb128 0x24
 2605 0d40 80000000 		.4byte	.Ldebug_ranges0+0x80
 2606 0d44 25       		.uleb128 0x25
 2607 0d45 B10E0000 		.4byte	0xeb1
 2608 0d49 2D020000 		.4byte	.LLST15
 2609 0d4d 00       		.byte	0
 2610 0d4e 00       		.byte	0
 2611 0d4f 27       		.uleb128 0x27
 2612 0d50 22000000 		.4byte	.LVL28
 2613 0d54 38110000 		.4byte	0x1138
 2614 0d58 00       		.byte	0
 2615 0d59 36       		.uleb128 0x36
 2616 0d5a A4060000 		.4byte	.LASF155
 2617 0d5e 01       		.byte	0x1
 2618 0d5f 0101     		.2byte	0x101
ARM GAS  /var/folders/vd/czx34qs52cd_f3nb04sxmghc0000gn/T//cc6c6qTE.s 			page 47


 2619 0d61 4C020000 		.4byte	0x24c
 2620 0d65 01       		.byte	0x1
 2621 0d66 8E0D0000 		.4byte	0xd8e
 2622 0d6a 35       		.uleb128 0x35
 2623 0d6b 747000   		.ascii	"tp\000"
 2624 0d6e 01       		.byte	0x1
 2625 0d6f 0101     		.2byte	0x101
 2626 0d71 4C020000 		.4byte	0x24c
 2627 0d75 1F       		.uleb128 0x1f
 2628 0d76 637000   		.ascii	"cp\000"
 2629 0d79 01       		.byte	0x1
 2630 0d7a 0201     		.2byte	0x102
 2631 0d7c 4C020000 		.4byte	0x24c
 2632 0d80 37       		.uleb128 0x37
 2633 0d81 37060000 		.4byte	.LASF154
 2634 0d85 9E0D0000 		.4byte	0xd9e
 2635 0d89 A4060000 		.4byte	.LASF155
 2636 0d8d 00       		.byte	0
 2637 0d8e 13       		.uleb128 0x13
 2638 0d8f 6F060000 		.4byte	0x66f
 2639 0d93 9E0D0000 		.4byte	0xd9e
 2640 0d97 14       		.uleb128 0x14
 2641 0d98 37000000 		.4byte	0x37
 2642 0d9c 10       		.byte	0x10
 2643 0d9d 00       		.byte	0
 2644 0d9e 05       		.uleb128 0x5
 2645 0d9f 8E0D0000 		.4byte	0xd8e
 2646 0da3 38       		.uleb128 0x38
 2647 0da4 C5060000 		.4byte	.LASF156
 2648 0da8 01       		.byte	0x1
 2649 0da9 DA       		.byte	0xda
 2650 0daa 4C020000 		.4byte	0x24c
 2651 0dae 01       		.byte	0x1
 2652 0daf D50D0000 		.4byte	0xdd5
 2653 0db3 39       		.uleb128 0x39
 2654 0db4 747000   		.ascii	"tp\000"
 2655 0db7 01       		.byte	0x1
 2656 0db8 DA       		.byte	0xda
 2657 0db9 4C020000 		.4byte	0x24c
 2658 0dbd 3A       		.uleb128 0x3a
 2659 0dbe 637000   		.ascii	"cp\000"
 2660 0dc1 01       		.byte	0x1
 2661 0dc2 DB       		.byte	0xdb
 2662 0dc3 4C020000 		.4byte	0x24c
 2663 0dc7 37       		.uleb128 0x37
 2664 0dc8 37060000 		.4byte	.LASF154
 2665 0dcc E50D0000 		.4byte	0xde5
 2666 0dd0 C5060000 		.4byte	.LASF156
 2667 0dd4 00       		.byte	0
 2668 0dd5 13       		.uleb128 0x13
 2669 0dd6 6F060000 		.4byte	0x66f
 2670 0dda E50D0000 		.4byte	0xde5
 2671 0dde 14       		.uleb128 0x14
 2672 0ddf 37000000 		.4byte	0x37
 2673 0de3 0B       		.byte	0xb
 2674 0de4 00       		.byte	0
 2675 0de5 05       		.uleb128 0x5
ARM GAS  /var/folders/vd/czx34qs52cd_f3nb04sxmghc0000gn/T//cc6c6qTE.s 			page 48


 2676 0de6 D50D0000 		.4byte	0xdd5
 2677 0dea 3B       		.uleb128 0x3b
 2678 0deb 0C020000 		.4byte	.LASF157
 2679 0def 01       		.byte	0x1
 2680 0df0 41       		.byte	0x41
 2681 0df1 00000000 		.4byte	.LFB280
 2682 0df5 14000000 		.4byte	.LFE280-.LFB280
 2683 0df9 01       		.uleb128 0x1
 2684 0dfa 9C       		.byte	0x9c
 2685 0dfb 190E0000 		.4byte	0xe19
 2686 0dff 3C       		.uleb128 0x3c
 2687 0e00 C30E0000 		.4byte	0xec3
 2688 0e04 00000000 		.4byte	.LBB171
 2689 0e08 68000000 		.4byte	.Ldebug_ranges0+0x68
 2690 0e0c 01       		.byte	0x1
 2691 0e0d 43       		.byte	0x43
 2692 0e0e 23       		.uleb128 0x23
 2693 0e0f D00E0000 		.4byte	0xed0
 2694 0e13 40020000 		.4byte	.LLST9
 2695 0e17 00       		.byte	0
 2696 0e18 00       		.byte	0
 2697 0e19 3D       		.uleb128 0x3d
 2698 0e1a 0D060000 		.4byte	.LASF159
 2699 0e1e 03       		.byte	0x3
 2700 0e1f 86       		.byte	0x86
 2701 0e20 03       		.byte	0x3
 2702 0e21 300E0000 		.4byte	0xe30
 2703 0e25 39       		.uleb128 0x39
 2704 0e26 737000   		.ascii	"sp\000"
 2705 0e29 03       		.byte	0x3
 2706 0e2a 86       		.byte	0x86
 2707 0e2b 300E0000 		.4byte	0xe30
 2708 0e2f 00       		.byte	0
 2709 0e30 0C       		.uleb128 0xc
 2710 0e31 04       		.byte	0x4
 2711 0e32 AE070000 		.4byte	0x7ae
 2712 0e36 3E       		.uleb128 0x3e
 2713 0e37 97060000 		.4byte	.LASF162
 2714 0e3b 16       		.byte	0x16
 2715 0e3c F1       		.byte	0xf1
 2716 0e3d CA070000 		.4byte	0x7ca
 2717 0e41 03       		.byte	0x3
 2718 0e42 520E0000 		.4byte	0xe52
 2719 0e46 39       		.uleb128 0x39
 2720 0e47 76747000 		.ascii	"vtp\000"
 2721 0e4b 16       		.byte	0x16
 2722 0e4c F1       		.byte	0xf1
 2723 0e4d 520E0000 		.4byte	0xe52
 2724 0e51 00       		.byte	0
 2725 0e52 0C       		.uleb128 0xc
 2726 0e53 04       		.byte	0x4
 2727 0e54 36030000 		.4byte	0x336
 2728 0e58 3F       		.uleb128 0x3f
 2729 0e59 93050000 		.4byte	.LASF160
 2730 0e5d 11       		.byte	0x11
 2731 0e5e 9D01     		.2byte	0x19d
 2732 0e60 03       		.byte	0x3
ARM GAS  /var/folders/vd/czx34qs52cd_f3nb04sxmghc0000gn/T//cc6c6qTE.s 			page 49


 2733 0e61 3F       		.uleb128 0x3f
 2734 0e62 40080000 		.4byte	.LASF161
 2735 0e66 11       		.byte	0x11
 2736 0e67 8901     		.2byte	0x189
 2737 0e69 03       		.byte	0x3
 2738 0e6a 40       		.uleb128 0x40
 2739 0e6b 7F080000 		.4byte	.LASF179
 2740 0e6f 04       		.byte	0x4
 2741 0e70 8402     		.2byte	0x284
 2742 0e72 CA070000 		.4byte	0x7ca
 2743 0e76 03       		.byte	0x3
 2744 0e77 41       		.uleb128 0x41
 2745 0e78 74020000 		.4byte	.LASF163
 2746 0e7c 04       		.byte	0x4
 2747 0e7d 7002     		.2byte	0x270
 2748 0e7f 4C020000 		.4byte	0x24c
 2749 0e83 03       		.byte	0x3
 2750 0e84 940E0000 		.4byte	0xe94
 2751 0e88 35       		.uleb128 0x35
 2752 0e89 747000   		.ascii	"tp\000"
 2753 0e8c 04       		.byte	0x4
 2754 0e8d 7002     		.2byte	0x270
 2755 0e8f 4C020000 		.4byte	0x24c
 2756 0e93 00       		.byte	0
 2757 0e94 41       		.uleb128 0x41
 2758 0e95 52070000 		.4byte	.LASF164
 2759 0e99 04       		.byte	0x4
 2760 0e9a 5E02     		.2byte	0x25e
 2761 0e9c 4C020000 		.4byte	0x24c
 2762 0ea0 03       		.byte	0x3
 2763 0ea1 BD0E0000 		.4byte	0xebd
 2764 0ea5 35       		.uleb128 0x35
 2765 0ea6 74717000 		.ascii	"tqp\000"
 2766 0eaa 04       		.byte	0x4
 2767 0eab 5E02     		.2byte	0x25e
 2768 0ead BD0E0000 		.4byte	0xebd
 2769 0eb1 1F       		.uleb128 0x1f
 2770 0eb2 747000   		.ascii	"tp\000"
 2771 0eb5 04       		.byte	0x4
 2772 0eb6 5F02     		.2byte	0x25f
 2773 0eb8 4C020000 		.4byte	0x24c
 2774 0ebc 00       		.byte	0
 2775 0ebd 0C       		.uleb128 0xc
 2776 0ebe 04       		.byte	0x4
 2777 0ebf 76020000 		.4byte	0x276
 2778 0ec3 34       		.uleb128 0x34
 2779 0ec4 80000000 		.4byte	.LASF165
 2780 0ec8 04       		.byte	0x4
 2781 0ec9 1902     		.2byte	0x219
 2782 0ecb 03       		.byte	0x3
 2783 0ecc DD0E0000 		.4byte	0xedd
 2784 0ed0 35       		.uleb128 0x35
 2785 0ed1 74717000 		.ascii	"tqp\000"
 2786 0ed5 04       		.byte	0x4
 2787 0ed6 1902     		.2byte	0x219
 2788 0ed8 BD0E0000 		.4byte	0xebd
 2789 0edc 00       		.byte	0
ARM GAS  /var/folders/vd/czx34qs52cd_f3nb04sxmghc0000gn/T//cc6c6qTE.s 			page 50


 2790 0edd 3F       		.uleb128 0x3f
 2791 0ede 29070000 		.4byte	.LASF166
 2792 0ee2 0E       		.byte	0xe
 2793 0ee3 8402     		.2byte	0x284
 2794 0ee5 03       		.byte	0x3
 2795 0ee6 3F       		.uleb128 0x3f
 2796 0ee7 BC070000 		.4byte	.LASF167
 2797 0eeb 0E       		.byte	0xe
 2798 0eec 7902     		.2byte	0x279
 2799 0eee 03       		.byte	0x3
 2800 0eef 3F       		.uleb128 0x3f
 2801 0ef0 50020000 		.4byte	.LASF168
 2802 0ef4 0E       		.byte	0xe
 2803 0ef5 6A02     		.2byte	0x26a
 2804 0ef7 03       		.byte	0x3
 2805 0ef8 3F       		.uleb128 0x3f
 2806 0ef9 94000000 		.4byte	.LASF169
 2807 0efd 0E       		.byte	0xe
 2808 0efe 5202     		.2byte	0x252
 2809 0f00 03       		.byte	0x3
 2810 0f01 34       		.uleb128 0x34
 2811 0f02 77070000 		.4byte	.LASF170
 2812 0f06 02       		.byte	0x2
 2813 0f07 E801     		.2byte	0x1e8
 2814 0f09 03       		.byte	0x3
 2815 0f0a 1B0F0000 		.4byte	0xf1b
 2816 0f0e 42       		.uleb128 0x42
 2817 0f0f 41020000 		.4byte	.LASF171
 2818 0f13 02       		.byte	0x2
 2819 0f14 E801     		.2byte	0x1e8
 2820 0f16 DF000000 		.4byte	0xdf
 2821 0f1a 00       		.byte	0
 2822 0f1b 43       		.uleb128 0x43
 2823 0f1c C90C0000 		.4byte	0xcc9
 2824 0f20 00000000 		.4byte	.LFB284
 2825 0f24 70000000 		.4byte	.LFE284-.LFB284
 2826 0f28 01       		.uleb128 0x1
 2827 0f29 9C       		.byte	0x9c
 2828 0f2a E6100000 		.4byte	0x10e6
 2829 0f2e 44       		.uleb128 0x44
 2830 0f2f D60C0000 		.4byte	0xcd6
 2831 0f33 01       		.uleb128 0x1
 2832 0f34 50       		.byte	0x50
 2833 0f35 45       		.uleb128 0x45
 2834 0f36 E00C0000 		.4byte	0xce0
 2835 0f3a 01       		.uleb128 0x1
 2836 0f3b 50       		.byte	0x50
 2837 0f3c 46       		.uleb128 0x46
 2838 0f3d 610E0000 		.4byte	0xe61
 2839 0f41 00000000 		.4byte	.LBB133
 2840 0f45 06000000 		.4byte	.LBE133-.LBB133
 2841 0f49 01       		.byte	0x1
 2842 0f4a 4201     		.2byte	0x142
 2843 0f4c 8D0F0000 		.4byte	0xf8d
 2844 0f50 47       		.uleb128 0x47
 2845 0f51 E60E0000 		.4byte	0xee6
 2846 0f55 00000000 		.4byte	.LBB134
ARM GAS  /var/folders/vd/czx34qs52cd_f3nb04sxmghc0000gn/T//cc6c6qTE.s 			page 51


 2847 0f59 06000000 		.4byte	.LBE134-.LBB134
 2848 0f5d 11       		.byte	0x11
 2849 0f5e 8B01     		.2byte	0x18b
 2850 0f60 47       		.uleb128 0x47
 2851 0f61 F80E0000 		.4byte	0xef8
 2852 0f65 00000000 		.4byte	.LBB135
 2853 0f69 06000000 		.4byte	.LBE135-.LBB135
 2854 0f6d 0E       		.byte	0xe
 2855 0f6e 7B02     		.2byte	0x27b
 2856 0f70 47       		.uleb128 0x47
 2857 0f71 010F0000 		.4byte	0xf01
 2858 0f75 00000000 		.4byte	.LBB136
 2859 0f79 06000000 		.4byte	.LBE136-.LBB136
 2860 0f7d 0E       		.byte	0xe
 2861 0f7e 5A02     		.2byte	0x25a
 2862 0f80 23       		.uleb128 0x23
 2863 0f81 0E0F0000 		.4byte	0xf0e
 2864 0f85 58020000 		.4byte	.LLST0
 2865 0f89 00       		.byte	0
 2866 0f8a 00       		.byte	0
 2867 0f8b 00       		.byte	0
 2868 0f8c 00       		.byte	0
 2869 0f8d 46       		.uleb128 0x46
 2870 0f8e 190E0000 		.4byte	0xe19
 2871 0f92 1C000000 		.4byte	.LBB138
 2872 0f96 06000000 		.4byte	.LBE138-.LBB138
 2873 0f9a 01       		.byte	0x1
 2874 0f9b 4E01     		.2byte	0x14e
 2875 0f9d AB0F0000 		.4byte	0xfab
 2876 0fa1 23       		.uleb128 0x23
 2877 0fa2 250E0000 		.4byte	0xe25
 2878 0fa6 6D020000 		.4byte	.LLST1
 2879 0faa 00       		.byte	0
 2880 0fab 46       		.uleb128 0x46
 2881 0fac 770E0000 		.4byte	0xe77
 2882 0fb0 22000000 		.4byte	.LBB140
 2883 0fb4 0A000000 		.4byte	.LBE140-.LBB140
 2884 0fb8 01       		.byte	0x1
 2885 0fb9 5701     		.2byte	0x157
 2886 0fbb C90F0000 		.4byte	0xfc9
 2887 0fbf 23       		.uleb128 0x23
 2888 0fc0 880E0000 		.4byte	0xe88
 2889 0fc4 80020000 		.4byte	.LLST2
 2890 0fc8 00       		.byte	0
 2891 0fc9 22       		.uleb128 0x22
 2892 0fca A30D0000 		.4byte	0xda3
 2893 0fce 2E000000 		.4byte	.LBB142
 2894 0fd2 00000000 		.4byte	.Ldebug_ranges0+0
 2895 0fd6 01       		.byte	0x1
 2896 0fd7 5E01     		.2byte	0x15e
 2897 0fd9 FB0F0000 		.4byte	0xffb
 2898 0fdd 23       		.uleb128 0x23
 2899 0fde B30D0000 		.4byte	0xdb3
 2900 0fe2 93020000 		.4byte	.LLST3
 2901 0fe6 24       		.uleb128 0x24
 2902 0fe7 00000000 		.4byte	.Ldebug_ranges0+0
 2903 0feb 25       		.uleb128 0x25
ARM GAS  /var/folders/vd/czx34qs52cd_f3nb04sxmghc0000gn/T//cc6c6qTE.s 			page 52


 2904 0fec BD0D0000 		.4byte	0xdbd
 2905 0ff0 A6020000 		.4byte	.LLST4
 2906 0ff4 26       		.uleb128 0x26
 2907 0ff5 C70D0000 		.4byte	0xdc7
 2908 0ff9 00       		.byte	0
 2909 0ffa 00       		.byte	0
 2910 0ffb 48       		.uleb128 0x48
 2911 0ffc C90C0000 		.4byte	0xcc9
 2912 1000 18000000 		.4byte	.Ldebug_ranges0+0x18
 2913 1004 98100000 		.4byte	0x1098
 2914 1008 23       		.uleb128 0x23
 2915 1009 D60C0000 		.4byte	0xcd6
 2916 100d BE020000 		.4byte	.LLST5
 2917 1011 24       		.uleb128 0x24
 2918 1012 18000000 		.4byte	.Ldebug_ranges0+0x18
 2919 1016 26       		.uleb128 0x26
 2920 1017 350F0000 		.4byte	0xf35
 2921 101b 22       		.uleb128 0x22
 2922 101c A30D0000 		.4byte	0xda3
 2923 1020 34000000 		.4byte	.LBB147
 2924 1024 30000000 		.4byte	.Ldebug_ranges0+0x30
 2925 1028 01       		.byte	0x1
 2926 1029 5E01     		.2byte	0x15e
 2927 102b 49100000 		.4byte	0x1049
 2928 102f 49       		.uleb128 0x49
 2929 1030 B30D0000 		.4byte	0xdb3
 2930 1034 24       		.uleb128 0x24
 2931 1035 30000000 		.4byte	.Ldebug_ranges0+0x30
 2932 1039 25       		.uleb128 0x25
 2933 103a BD0D0000 		.4byte	0xdbd
 2934 103e D1020000 		.4byte	.LLST6
 2935 1042 26       		.uleb128 0x26
 2936 1043 C70D0000 		.4byte	0xdc7
 2937 1047 00       		.byte	0
 2938 1048 00       		.byte	0
 2939 1049 4A       		.uleb128 0x4a
 2940 104a 580E0000 		.4byte	0xe58
 2941 104e 48000000 		.4byte	.LBB152
 2942 1052 50000000 		.4byte	.Ldebug_ranges0+0x50
 2943 1056 01       		.byte	0x1
 2944 1057 5F01     		.2byte	0x15f
 2945 1059 4A       		.uleb128 0x4a
 2946 105a DD0E0000 		.4byte	0xedd
 2947 105e 48000000 		.4byte	.LBB153
 2948 1062 50000000 		.4byte	.Ldebug_ranges0+0x50
 2949 1066 11       		.byte	0x11
 2950 1067 A101     		.2byte	0x1a1
 2951 1069 4A       		.uleb128 0x4a
 2952 106a EF0E0000 		.4byte	0xeef
 2953 106e 48000000 		.4byte	.LBB154
 2954 1072 50000000 		.4byte	.Ldebug_ranges0+0x50
 2955 1076 0E       		.byte	0xe
 2956 1077 8602     		.2byte	0x286
 2957 1079 4A       		.uleb128 0x4a
 2958 107a 010F0000 		.4byte	0xf01
 2959 107e 48000000 		.4byte	.LBB155
 2960 1082 50000000 		.4byte	.Ldebug_ranges0+0x50
ARM GAS  /var/folders/vd/czx34qs52cd_f3nb04sxmghc0000gn/T//cc6c6qTE.s 			page 53


 2961 1086 0E       		.byte	0xe
 2962 1087 6D02     		.2byte	0x26d
 2963 1089 23       		.uleb128 0x23
 2964 108a 0E0F0000 		.4byte	0xf0e
 2965 108e E4020000 		.4byte	.LLST7
 2966 1092 00       		.byte	0
 2967 1093 00       		.byte	0
 2968 1094 00       		.byte	0
 2969 1095 00       		.byte	0
 2970 1096 00       		.byte	0
 2971 1097 00       		.byte	0
 2972 1098 47       		.uleb128 0x47
 2973 1099 580E0000 		.4byte	0xe58
 2974 109d 62000000 		.4byte	.LBB166
 2975 10a1 0E000000 		.4byte	.LBE166-.LBB166
 2976 10a5 01       		.byte	0x1
 2977 10a6 4701     		.2byte	0x147
 2978 10a8 47       		.uleb128 0x47
 2979 10a9 DD0E0000 		.4byte	0xedd
 2980 10ad 62000000 		.4byte	.LBB167
 2981 10b1 0E000000 		.4byte	.LBE167-.LBB167
 2982 10b5 11       		.byte	0x11
 2983 10b6 A101     		.2byte	0x1a1
 2984 10b8 47       		.uleb128 0x47
 2985 10b9 EF0E0000 		.4byte	0xeef
 2986 10bd 62000000 		.4byte	.LBB168
 2987 10c1 0E000000 		.4byte	.LBE168-.LBB168
 2988 10c5 0E       		.byte	0xe
 2989 10c6 8602     		.2byte	0x286
 2990 10c8 47       		.uleb128 0x47
 2991 10c9 010F0000 		.4byte	0xf01
 2992 10cd 62000000 		.4byte	.LBB169
 2993 10d1 0E000000 		.4byte	.LBE169-.LBB169
 2994 10d5 0E       		.byte	0xe
 2995 10d6 6D02     		.2byte	0x26d
 2996 10d8 23       		.uleb128 0x23
 2997 10d9 0E0F0000 		.4byte	0xf0e
 2998 10dd F8020000 		.4byte	.LLST8
 2999 10e1 00       		.byte	0
 3000 10e2 00       		.byte	0
 3001 10e3 00       		.byte	0
 3002 10e4 00       		.byte	0
 3003 10e5 00       		.byte	0
 3004 10e6 43       		.uleb128 0x43
 3005 10e7 A30D0000 		.4byte	0xda3
 3006 10eb 00000000 		.4byte	.LFB281
 3007 10ef 28000000 		.4byte	.LFE281-.LFB281
 3008 10f3 01       		.uleb128 0x1
 3009 10f4 9C       		.byte	0x9c
 3010 10f5 0F110000 		.4byte	0x110f
 3011 10f9 23       		.uleb128 0x23
 3012 10fa B30D0000 		.4byte	0xdb3
 3013 10fe 0C030000 		.4byte	.LLST10
 3014 1102 45       		.uleb128 0x45
 3015 1103 BD0D0000 		.4byte	0xdbd
 3016 1107 01       		.uleb128 0x1
 3017 1108 53       		.byte	0x53
ARM GAS  /var/folders/vd/czx34qs52cd_f3nb04sxmghc0000gn/T//cc6c6qTE.s 			page 54


 3018 1109 26       		.uleb128 0x26
 3019 110a C70D0000 		.4byte	0xdc7
 3020 110e 00       		.byte	0
 3021 110f 43       		.uleb128 0x43
 3022 1110 590D0000 		.4byte	0xd59
 3023 1114 00000000 		.4byte	.LFB282
 3024 1118 28000000 		.4byte	.LFE282-.LFB282
 3025 111c 01       		.uleb128 0x1
 3026 111d 9C       		.byte	0x9c
 3027 111e 38110000 		.4byte	0x1138
 3028 1122 23       		.uleb128 0x23
 3029 1123 6A0D0000 		.4byte	0xd6a
 3030 1127 2A030000 		.4byte	.LLST11
 3031 112b 45       		.uleb128 0x45
 3032 112c 750D0000 		.4byte	0xd75
 3033 1130 01       		.uleb128 0x1
 3034 1131 53       		.byte	0x53
 3035 1132 26       		.uleb128 0x26
 3036 1133 800D0000 		.4byte	0xd80
 3037 1137 00       		.byte	0
 3038 1138 4B       		.uleb128 0x4b
 3039 1139 8C030000 		.4byte	.LASF172
 3040 113d 8C030000 		.4byte	.LASF172
 3041 1141 0E       		.byte	0xe
 3042 1142 EB01     		.2byte	0x1eb
 3043 1144 4C       		.uleb128 0x4c
 3044 1145 80040000 		.4byte	.LASF173
 3045 1149 80040000 		.4byte	.LASF173
 3046 114d 16       		.byte	0x16
 3047 114e 4B       		.byte	0x4b
 3048 114f 4C       		.uleb128 0x4c
 3049 1150 C2000000 		.4byte	.LASF174
 3050 1154 C2000000 		.4byte	.LASF174
 3051 1158 16       		.byte	0x16
 3052 1159 4D       		.byte	0x4d
 3053 115a 00       		.byte	0
 3054              		.section	.debug_abbrev,"",%progbits
 3055              	.Ldebug_abbrev0:
 3056 0000 01       		.uleb128 0x1
 3057 0001 11       		.uleb128 0x11
 3058 0002 01       		.byte	0x1
 3059 0003 25       		.uleb128 0x25
 3060 0004 0E       		.uleb128 0xe
 3061 0005 13       		.uleb128 0x13
 3062 0006 0B       		.uleb128 0xb
 3063 0007 03       		.uleb128 0x3
 3064 0008 0E       		.uleb128 0xe
 3065 0009 1B       		.uleb128 0x1b
 3066 000a 0E       		.uleb128 0xe
 3067 000b 55       		.uleb128 0x55
 3068 000c 17       		.uleb128 0x17
 3069 000d 11       		.uleb128 0x11
 3070 000e 01       		.uleb128 0x1
 3071 000f 10       		.uleb128 0x10
 3072 0010 17       		.uleb128 0x17
 3073 0011 00       		.byte	0
 3074 0012 00       		.byte	0
ARM GAS  /var/folders/vd/czx34qs52cd_f3nb04sxmghc0000gn/T//cc6c6qTE.s 			page 55


 3075 0013 02       		.uleb128 0x2
 3076 0014 24       		.uleb128 0x24
 3077 0015 00       		.byte	0
 3078 0016 0B       		.uleb128 0xb
 3079 0017 0B       		.uleb128 0xb
 3080 0018 3E       		.uleb128 0x3e
 3081 0019 0B       		.uleb128 0xb
 3082 001a 03       		.uleb128 0x3
 3083 001b 08       		.uleb128 0x8
 3084 001c 00       		.byte	0
 3085 001d 00       		.byte	0
 3086 001e 03       		.uleb128 0x3
 3087 001f 16       		.uleb128 0x16
 3088 0020 00       		.byte	0
 3089 0021 03       		.uleb128 0x3
 3090 0022 0E       		.uleb128 0xe
 3091 0023 3A       		.uleb128 0x3a
 3092 0024 0B       		.uleb128 0xb
 3093 0025 3B       		.uleb128 0x3b
 3094 0026 0B       		.uleb128 0xb
 3095 0027 49       		.uleb128 0x49
 3096 0028 13       		.uleb128 0x13
 3097 0029 00       		.byte	0
 3098 002a 00       		.byte	0
 3099 002b 04       		.uleb128 0x4
 3100 002c 24       		.uleb128 0x24
 3101 002d 00       		.byte	0
 3102 002e 0B       		.uleb128 0xb
 3103 002f 0B       		.uleb128 0xb
 3104 0030 3E       		.uleb128 0x3e
 3105 0031 0B       		.uleb128 0xb
 3106 0032 03       		.uleb128 0x3
 3107 0033 0E       		.uleb128 0xe
 3108 0034 00       		.byte	0
 3109 0035 00       		.byte	0
 3110 0036 05       		.uleb128 0x5
 3111 0037 26       		.uleb128 0x26
 3112 0038 00       		.byte	0
 3113 0039 49       		.uleb128 0x49
 3114 003a 13       		.uleb128 0x13
 3115 003b 00       		.byte	0
 3116 003c 00       		.byte	0
 3117 003d 06       		.uleb128 0x6
 3118 003e 35       		.uleb128 0x35
 3119 003f 00       		.byte	0
 3120 0040 49       		.uleb128 0x49
 3121 0041 13       		.uleb128 0x13
 3122 0042 00       		.byte	0
 3123 0043 00       		.byte	0
 3124 0044 07       		.uleb128 0x7
 3125 0045 13       		.uleb128 0x13
 3126 0046 01       		.byte	0x1
 3127 0047 03       		.uleb128 0x3
 3128 0048 0E       		.uleb128 0xe
 3129 0049 0B       		.uleb128 0xb
 3130 004a 0B       		.uleb128 0xb
 3131 004b 3A       		.uleb128 0x3a
ARM GAS  /var/folders/vd/czx34qs52cd_f3nb04sxmghc0000gn/T//cc6c6qTE.s 			page 56


 3132 004c 0B       		.uleb128 0xb
 3133 004d 3B       		.uleb128 0x3b
 3134 004e 0B       		.uleb128 0xb
 3135 004f 01       		.uleb128 0x1
 3136 0050 13       		.uleb128 0x13
 3137 0051 00       		.byte	0
 3138 0052 00       		.byte	0
 3139 0053 08       		.uleb128 0x8
 3140 0054 0D       		.uleb128 0xd
 3141 0055 00       		.byte	0
 3142 0056 03       		.uleb128 0x3
 3143 0057 0E       		.uleb128 0xe
 3144 0058 3A       		.uleb128 0x3a
 3145 0059 0B       		.uleb128 0xb
 3146 005a 3B       		.uleb128 0x3b
 3147 005b 0B       		.uleb128 0xb
 3148 005c 49       		.uleb128 0x49
 3149 005d 13       		.uleb128 0x13
 3150 005e 38       		.uleb128 0x38
 3151 005f 0B       		.uleb128 0xb
 3152 0060 00       		.byte	0
 3153 0061 00       		.byte	0
 3154 0062 09       		.uleb128 0x9
 3155 0063 0D       		.uleb128 0xd
 3156 0064 00       		.byte	0
 3157 0065 03       		.uleb128 0x3
 3158 0066 08       		.uleb128 0x8
 3159 0067 3A       		.uleb128 0x3a
 3160 0068 0B       		.uleb128 0xb
 3161 0069 3B       		.uleb128 0x3b
 3162 006a 0B       		.uleb128 0xb
 3163 006b 49       		.uleb128 0x49
 3164 006c 13       		.uleb128 0x13
 3165 006d 38       		.uleb128 0x38
 3166 006e 0B       		.uleb128 0xb
 3167 006f 00       		.byte	0
 3168 0070 00       		.byte	0
 3169 0071 0A       		.uleb128 0xa
 3170 0072 0D       		.uleb128 0xd
 3171 0073 00       		.byte	0
 3172 0074 03       		.uleb128 0x3
 3173 0075 08       		.uleb128 0x8
 3174 0076 3A       		.uleb128 0x3a
 3175 0077 0B       		.uleb128 0xb
 3176 0078 3B       		.uleb128 0x3b
 3177 0079 05       		.uleb128 0x5
 3178 007a 49       		.uleb128 0x49
 3179 007b 13       		.uleb128 0x13
 3180 007c 38       		.uleb128 0x38
 3181 007d 0B       		.uleb128 0xb
 3182 007e 00       		.byte	0
 3183 007f 00       		.byte	0
 3184 0080 0B       		.uleb128 0xb
 3185 0081 0D       		.uleb128 0xd
 3186 0082 00       		.byte	0
 3187 0083 03       		.uleb128 0x3
 3188 0084 0E       		.uleb128 0xe
ARM GAS  /var/folders/vd/czx34qs52cd_f3nb04sxmghc0000gn/T//cc6c6qTE.s 			page 57


 3189 0085 3A       		.uleb128 0x3a
 3190 0086 0B       		.uleb128 0xb
 3191 0087 3B       		.uleb128 0x3b
 3192 0088 05       		.uleb128 0x5
 3193 0089 49       		.uleb128 0x49
 3194 008a 13       		.uleb128 0x13
 3195 008b 38       		.uleb128 0x38
 3196 008c 0B       		.uleb128 0xb
 3197 008d 00       		.byte	0
 3198 008e 00       		.byte	0
 3199 008f 0C       		.uleb128 0xc
 3200 0090 0F       		.uleb128 0xf
 3201 0091 00       		.byte	0
 3202 0092 0B       		.uleb128 0xb
 3203 0093 0B       		.uleb128 0xb
 3204 0094 49       		.uleb128 0x49
 3205 0095 13       		.uleb128 0x13
 3206 0096 00       		.byte	0
 3207 0097 00       		.byte	0
 3208 0098 0D       		.uleb128 0xd
 3209 0099 13       		.uleb128 0x13
 3210 009a 01       		.byte	0x1
 3211 009b 03       		.uleb128 0x3
 3212 009c 0E       		.uleb128 0xe
 3213 009d 0B       		.uleb128 0xb
 3214 009e 0B       		.uleb128 0xb
 3215 009f 3A       		.uleb128 0x3a
 3216 00a0 0B       		.uleb128 0xb
 3217 00a1 3B       		.uleb128 0x3b
 3218 00a2 05       		.uleb128 0x5
 3219 00a3 01       		.uleb128 0x1
 3220 00a4 13       		.uleb128 0x13
 3221 00a5 00       		.byte	0
 3222 00a6 00       		.byte	0
 3223 00a7 0E       		.uleb128 0xe
 3224 00a8 15       		.uleb128 0x15
 3225 00a9 01       		.byte	0x1
 3226 00aa 27       		.uleb128 0x27
 3227 00ab 19       		.uleb128 0x19
 3228 00ac 01       		.uleb128 0x1
 3229 00ad 13       		.uleb128 0x13
 3230 00ae 00       		.byte	0
 3231 00af 00       		.byte	0
 3232 00b0 0F       		.uleb128 0xf
 3233 00b1 05       		.uleb128 0x5
 3234 00b2 00       		.byte	0
 3235 00b3 49       		.uleb128 0x49
 3236 00b4 13       		.uleb128 0x13
 3237 00b5 00       		.byte	0
 3238 00b6 00       		.byte	0
 3239 00b7 10       		.uleb128 0x10
 3240 00b8 0F       		.uleb128 0xf
 3241 00b9 00       		.byte	0
 3242 00ba 0B       		.uleb128 0xb
 3243 00bb 0B       		.uleb128 0xb
 3244 00bc 00       		.byte	0
 3245 00bd 00       		.byte	0
ARM GAS  /var/folders/vd/czx34qs52cd_f3nb04sxmghc0000gn/T//cc6c6qTE.s 			page 58


 3246 00be 11       		.uleb128 0x11
 3247 00bf 34       		.uleb128 0x34
 3248 00c0 00       		.byte	0
 3249 00c1 03       		.uleb128 0x3
 3250 00c2 0E       		.uleb128 0xe
 3251 00c3 3A       		.uleb128 0x3a
 3252 00c4 0B       		.uleb128 0xb
 3253 00c5 3B       		.uleb128 0x3b
 3254 00c6 05       		.uleb128 0x5
 3255 00c7 49       		.uleb128 0x49
 3256 00c8 13       		.uleb128 0x13
 3257 00c9 3F       		.uleb128 0x3f
 3258 00ca 19       		.uleb128 0x19
 3259 00cb 3C       		.uleb128 0x3c
 3260 00cc 19       		.uleb128 0x19
 3261 00cd 00       		.byte	0
 3262 00ce 00       		.byte	0
 3263 00cf 12       		.uleb128 0x12
 3264 00d0 34       		.uleb128 0x34
 3265 00d1 00       		.byte	0
 3266 00d2 03       		.uleb128 0x3
 3267 00d3 0E       		.uleb128 0xe
 3268 00d4 3A       		.uleb128 0x3a
 3269 00d5 0B       		.uleb128 0xb
 3270 00d6 3B       		.uleb128 0x3b
 3271 00d7 0B       		.uleb128 0xb
 3272 00d8 49       		.uleb128 0x49
 3273 00d9 13       		.uleb128 0x13
 3274 00da 3F       		.uleb128 0x3f
 3275 00db 19       		.uleb128 0x19
 3276 00dc 3C       		.uleb128 0x3c
 3277 00dd 19       		.uleb128 0x19
 3278 00de 00       		.byte	0
 3279 00df 00       		.byte	0
 3280 00e0 13       		.uleb128 0x13
 3281 00e1 01       		.uleb128 0x1
 3282 00e2 01       		.byte	0x1
 3283 00e3 49       		.uleb128 0x49
 3284 00e4 13       		.uleb128 0x13
 3285 00e5 01       		.uleb128 0x1
 3286 00e6 13       		.uleb128 0x13
 3287 00e7 00       		.byte	0
 3288 00e8 00       		.byte	0
 3289 00e9 14       		.uleb128 0x14
 3290 00ea 21       		.uleb128 0x21
 3291 00eb 00       		.byte	0
 3292 00ec 49       		.uleb128 0x49
 3293 00ed 13       		.uleb128 0x13
 3294 00ee 2F       		.uleb128 0x2f
 3295 00ef 0B       		.uleb128 0xb
 3296 00f0 00       		.byte	0
 3297 00f1 00       		.byte	0
 3298 00f2 15       		.uleb128 0x15
 3299 00f3 13       		.uleb128 0x13
 3300 00f4 01       		.byte	0x1
 3301 00f5 0B       		.uleb128 0xb
 3302 00f6 0B       		.uleb128 0xb
ARM GAS  /var/folders/vd/czx34qs52cd_f3nb04sxmghc0000gn/T//cc6c6qTE.s 			page 59


 3303 00f7 3A       		.uleb128 0x3a
 3304 00f8 0B       		.uleb128 0xb
 3305 00f9 3B       		.uleb128 0x3b
 3306 00fa 0B       		.uleb128 0xb
 3307 00fb 01       		.uleb128 0x1
 3308 00fc 13       		.uleb128 0x13
 3309 00fd 00       		.byte	0
 3310 00fe 00       		.byte	0
 3311 00ff 16       		.uleb128 0x16
 3312 0100 17       		.uleb128 0x17
 3313 0101 01       		.byte	0x1
 3314 0102 0B       		.uleb128 0xb
 3315 0103 0B       		.uleb128 0xb
 3316 0104 3A       		.uleb128 0x3a
 3317 0105 0B       		.uleb128 0xb
 3318 0106 3B       		.uleb128 0x3b
 3319 0107 0B       		.uleb128 0xb
 3320 0108 01       		.uleb128 0x1
 3321 0109 13       		.uleb128 0x13
 3322 010a 00       		.byte	0
 3323 010b 00       		.byte	0
 3324 010c 17       		.uleb128 0x17
 3325 010d 0D       		.uleb128 0xd
 3326 010e 00       		.byte	0
 3327 010f 03       		.uleb128 0x3
 3328 0110 0E       		.uleb128 0xe
 3329 0111 3A       		.uleb128 0x3a
 3330 0112 0B       		.uleb128 0xb
 3331 0113 3B       		.uleb128 0x3b
 3332 0114 0B       		.uleb128 0xb
 3333 0115 49       		.uleb128 0x49
 3334 0116 13       		.uleb128 0x13
 3335 0117 00       		.byte	0
 3336 0118 00       		.byte	0
 3337 0119 18       		.uleb128 0x18
 3338 011a 0D       		.uleb128 0xd
 3339 011b 00       		.byte	0
 3340 011c 03       		.uleb128 0x3
 3341 011d 0E       		.uleb128 0xe
 3342 011e 3A       		.uleb128 0x3a
 3343 011f 0B       		.uleb128 0xb
 3344 0120 3B       		.uleb128 0x3b
 3345 0121 05       		.uleb128 0x5
 3346 0122 49       		.uleb128 0x49
 3347 0123 13       		.uleb128 0x13
 3348 0124 00       		.byte	0
 3349 0125 00       		.byte	0
 3350 0126 19       		.uleb128 0x19
 3351 0127 34       		.uleb128 0x34
 3352 0128 00       		.byte	0
 3353 0129 03       		.uleb128 0x3
 3354 012a 08       		.uleb128 0x8
 3355 012b 3A       		.uleb128 0x3a
 3356 012c 0B       		.uleb128 0xb
 3357 012d 3B       		.uleb128 0x3b
 3358 012e 05       		.uleb128 0x5
 3359 012f 49       		.uleb128 0x49
ARM GAS  /var/folders/vd/czx34qs52cd_f3nb04sxmghc0000gn/T//cc6c6qTE.s 			page 60


 3360 0130 13       		.uleb128 0x13
 3361 0131 3F       		.uleb128 0x3f
 3362 0132 19       		.uleb128 0x19
 3363 0133 3C       		.uleb128 0x3c
 3364 0134 19       		.uleb128 0x19
 3365 0135 00       		.byte	0
 3366 0136 00       		.byte	0
 3367 0137 1A       		.uleb128 0x1a
 3368 0138 21       		.uleb128 0x21
 3369 0139 00       		.byte	0
 3370 013a 00       		.byte	0
 3371 013b 00       		.byte	0
 3372 013c 1B       		.uleb128 0x1b
 3373 013d 15       		.uleb128 0x15
 3374 013e 01       		.byte	0x1
 3375 013f 27       		.uleb128 0x27
 3376 0140 19       		.uleb128 0x19
 3377 0141 49       		.uleb128 0x49
 3378 0142 13       		.uleb128 0x13
 3379 0143 01       		.uleb128 0x1
 3380 0144 13       		.uleb128 0x13
 3381 0145 00       		.byte	0
 3382 0146 00       		.byte	0
 3383 0147 1C       		.uleb128 0x1c
 3384 0148 16       		.uleb128 0x16
 3385 0149 00       		.byte	0
 3386 014a 03       		.uleb128 0x3
 3387 014b 0E       		.uleb128 0xe
 3388 014c 3A       		.uleb128 0x3a
 3389 014d 0B       		.uleb128 0xb
 3390 014e 3B       		.uleb128 0x3b
 3391 014f 05       		.uleb128 0x5
 3392 0150 49       		.uleb128 0x49
 3393 0151 13       		.uleb128 0x13
 3394 0152 00       		.byte	0
 3395 0153 00       		.byte	0
 3396 0154 1D       		.uleb128 0x1d
 3397 0155 34       		.uleb128 0x34
 3398 0156 00       		.byte	0
 3399 0157 47       		.uleb128 0x47
 3400 0158 13       		.uleb128 0x13
 3401 0159 3A       		.uleb128 0x3a
 3402 015a 0B       		.uleb128 0xb
 3403 015b 3B       		.uleb128 0x3b
 3404 015c 0B       		.uleb128 0xb
 3405 015d 02       		.uleb128 0x2
 3406 015e 18       		.uleb128 0x18
 3407 015f 00       		.byte	0
 3408 0160 00       		.byte	0
 3409 0161 1E       		.uleb128 0x1e
 3410 0162 2E       		.uleb128 0x2e
 3411 0163 01       		.byte	0x1
 3412 0164 3F       		.uleb128 0x3f
 3413 0165 19       		.uleb128 0x19
 3414 0166 03       		.uleb128 0x3
 3415 0167 0E       		.uleb128 0xe
 3416 0168 3A       		.uleb128 0x3a
ARM GAS  /var/folders/vd/czx34qs52cd_f3nb04sxmghc0000gn/T//cc6c6qTE.s 			page 61


 3417 0169 0B       		.uleb128 0xb
 3418 016a 3B       		.uleb128 0x3b
 3419 016b 05       		.uleb128 0x5
 3420 016c 27       		.uleb128 0x27
 3421 016d 19       		.uleb128 0x19
 3422 016e 01       		.uleb128 0x1
 3423 016f 13       		.uleb128 0x13
 3424 0170 00       		.byte	0
 3425 0171 00       		.byte	0
 3426 0172 1F       		.uleb128 0x1f
 3427 0173 34       		.uleb128 0x34
 3428 0174 00       		.byte	0
 3429 0175 03       		.uleb128 0x3
 3430 0176 08       		.uleb128 0x8
 3431 0177 3A       		.uleb128 0x3a
 3432 0178 0B       		.uleb128 0xb
 3433 0179 3B       		.uleb128 0x3b
 3434 017a 05       		.uleb128 0x5
 3435 017b 49       		.uleb128 0x49
 3436 017c 13       		.uleb128 0x13
 3437 017d 00       		.byte	0
 3438 017e 00       		.byte	0
 3439 017f 20       		.uleb128 0x20
 3440 0180 2E       		.uleb128 0x2e
 3441 0181 01       		.byte	0x1
 3442 0182 3F       		.uleb128 0x3f
 3443 0183 19       		.uleb128 0x19
 3444 0184 03       		.uleb128 0x3
 3445 0185 0E       		.uleb128 0xe
 3446 0186 3A       		.uleb128 0x3a
 3447 0187 0B       		.uleb128 0xb
 3448 0188 3B       		.uleb128 0x3b
 3449 0189 05       		.uleb128 0x5
 3450 018a 27       		.uleb128 0x27
 3451 018b 19       		.uleb128 0x19
 3452 018c 11       		.uleb128 0x11
 3453 018d 01       		.uleb128 0x1
 3454 018e 12       		.uleb128 0x12
 3455 018f 06       		.uleb128 0x6
 3456 0190 40       		.uleb128 0x40
 3457 0191 18       		.uleb128 0x18
 3458 0192 9742     		.uleb128 0x2117
 3459 0194 19       		.uleb128 0x19
 3460 0195 01       		.uleb128 0x1
 3461 0196 13       		.uleb128 0x13
 3462 0197 00       		.byte	0
 3463 0198 00       		.byte	0
 3464 0199 21       		.uleb128 0x21
 3465 019a 34       		.uleb128 0x34
 3466 019b 00       		.byte	0
 3467 019c 03       		.uleb128 0x3
 3468 019d 08       		.uleb128 0x8
 3469 019e 3A       		.uleb128 0x3a
 3470 019f 0B       		.uleb128 0xb
 3471 01a0 3B       		.uleb128 0x3b
 3472 01a1 05       		.uleb128 0x5
 3473 01a2 49       		.uleb128 0x49
ARM GAS  /var/folders/vd/czx34qs52cd_f3nb04sxmghc0000gn/T//cc6c6qTE.s 			page 62


 3474 01a3 13       		.uleb128 0x13
 3475 01a4 02       		.uleb128 0x2
 3476 01a5 17       		.uleb128 0x17
 3477 01a6 00       		.byte	0
 3478 01a7 00       		.byte	0
 3479 01a8 22       		.uleb128 0x22
 3480 01a9 1D       		.uleb128 0x1d
 3481 01aa 01       		.byte	0x1
 3482 01ab 31       		.uleb128 0x31
 3483 01ac 13       		.uleb128 0x13
 3484 01ad 52       		.uleb128 0x52
 3485 01ae 01       		.uleb128 0x1
 3486 01af 55       		.uleb128 0x55
 3487 01b0 17       		.uleb128 0x17
 3488 01b1 58       		.uleb128 0x58
 3489 01b2 0B       		.uleb128 0xb
 3490 01b3 59       		.uleb128 0x59
 3491 01b4 05       		.uleb128 0x5
 3492 01b5 01       		.uleb128 0x1
 3493 01b6 13       		.uleb128 0x13
 3494 01b7 00       		.byte	0
 3495 01b8 00       		.byte	0
 3496 01b9 23       		.uleb128 0x23
 3497 01ba 05       		.uleb128 0x5
 3498 01bb 00       		.byte	0
 3499 01bc 31       		.uleb128 0x31
 3500 01bd 13       		.uleb128 0x13
 3501 01be 02       		.uleb128 0x2
 3502 01bf 17       		.uleb128 0x17
 3503 01c0 00       		.byte	0
 3504 01c1 00       		.byte	0
 3505 01c2 24       		.uleb128 0x24
 3506 01c3 0B       		.uleb128 0xb
 3507 01c4 01       		.byte	0x1
 3508 01c5 55       		.uleb128 0x55
 3509 01c6 17       		.uleb128 0x17
 3510 01c7 00       		.byte	0
 3511 01c8 00       		.byte	0
 3512 01c9 25       		.uleb128 0x25
 3513 01ca 34       		.uleb128 0x34
 3514 01cb 00       		.byte	0
 3515 01cc 31       		.uleb128 0x31
 3516 01cd 13       		.uleb128 0x13
 3517 01ce 02       		.uleb128 0x2
 3518 01cf 17       		.uleb128 0x17
 3519 01d0 00       		.byte	0
 3520 01d1 00       		.byte	0
 3521 01d2 26       		.uleb128 0x26
 3522 01d3 34       		.uleb128 0x34
 3523 01d4 00       		.byte	0
 3524 01d5 31       		.uleb128 0x31
 3525 01d6 13       		.uleb128 0x13
 3526 01d7 00       		.byte	0
 3527 01d8 00       		.byte	0
 3528 01d9 27       		.uleb128 0x27
 3529 01da 898201   		.uleb128 0x4109
 3530 01dd 00       		.byte	0
ARM GAS  /var/folders/vd/czx34qs52cd_f3nb04sxmghc0000gn/T//cc6c6qTE.s 			page 63


 3531 01de 11       		.uleb128 0x11
 3532 01df 01       		.uleb128 0x1
 3533 01e0 9542     		.uleb128 0x2115
 3534 01e2 19       		.uleb128 0x19
 3535 01e3 31       		.uleb128 0x31
 3536 01e4 13       		.uleb128 0x13
 3537 01e5 00       		.byte	0
 3538 01e6 00       		.byte	0
 3539 01e7 28       		.uleb128 0x28
 3540 01e8 2E       		.uleb128 0x2e
 3541 01e9 01       		.byte	0x1
 3542 01ea 3F       		.uleb128 0x3f
 3543 01eb 19       		.uleb128 0x19
 3544 01ec 03       		.uleb128 0x3
 3545 01ed 0E       		.uleb128 0xe
 3546 01ee 3A       		.uleb128 0x3a
 3547 01ef 0B       		.uleb128 0xb
 3548 01f0 3B       		.uleb128 0x3b
 3549 01f1 05       		.uleb128 0x5
 3550 01f2 27       		.uleb128 0x27
 3551 01f3 19       		.uleb128 0x19
 3552 01f4 49       		.uleb128 0x49
 3553 01f5 13       		.uleb128 0x13
 3554 01f6 11       		.uleb128 0x11
 3555 01f7 01       		.uleb128 0x1
 3556 01f8 12       		.uleb128 0x12
 3557 01f9 06       		.uleb128 0x6
 3558 01fa 40       		.uleb128 0x40
 3559 01fb 18       		.uleb128 0x18
 3560 01fc 9742     		.uleb128 0x2117
 3561 01fe 19       		.uleb128 0x19
 3562 01ff 01       		.uleb128 0x1
 3563 0200 13       		.uleb128 0x13
 3564 0201 00       		.byte	0
 3565 0202 00       		.byte	0
 3566 0203 29       		.uleb128 0x29
 3567 0204 34       		.uleb128 0x34
 3568 0205 00       		.byte	0
 3569 0206 03       		.uleb128 0x3
 3570 0207 08       		.uleb128 0x8
 3571 0208 3A       		.uleb128 0x3a
 3572 0209 0B       		.uleb128 0xb
 3573 020a 3B       		.uleb128 0x3b
 3574 020b 05       		.uleb128 0x5
 3575 020c 49       		.uleb128 0x49
 3576 020d 13       		.uleb128 0x13
 3577 020e 02       		.uleb128 0x2
 3578 020f 18       		.uleb128 0x18
 3579 0210 00       		.byte	0
 3580 0211 00       		.byte	0
 3581 0212 2A       		.uleb128 0x2a
 3582 0213 1D       		.uleb128 0x1d
 3583 0214 00       		.byte	0
 3584 0215 31       		.uleb128 0x31
 3585 0216 13       		.uleb128 0x13
 3586 0217 11       		.uleb128 0x11
 3587 0218 01       		.uleb128 0x1
ARM GAS  /var/folders/vd/czx34qs52cd_f3nb04sxmghc0000gn/T//cc6c6qTE.s 			page 64


 3588 0219 12       		.uleb128 0x12
 3589 021a 06       		.uleb128 0x6
 3590 021b 58       		.uleb128 0x58
 3591 021c 0B       		.uleb128 0xb
 3592 021d 59       		.uleb128 0x59
 3593 021e 05       		.uleb128 0x5
 3594 021f 00       		.byte	0
 3595 0220 00       		.byte	0
 3596 0221 2B       		.uleb128 0x2b
 3597 0222 05       		.uleb128 0x5
 3598 0223 00       		.byte	0
 3599 0224 03       		.uleb128 0x3
 3600 0225 08       		.uleb128 0x8
 3601 0226 3A       		.uleb128 0x3a
 3602 0227 0B       		.uleb128 0xb
 3603 0228 3B       		.uleb128 0x3b
 3604 0229 05       		.uleb128 0x5
 3605 022a 49       		.uleb128 0x49
 3606 022b 13       		.uleb128 0x13
 3607 022c 02       		.uleb128 0x2
 3608 022d 17       		.uleb128 0x17
 3609 022e 00       		.byte	0
 3610 022f 00       		.byte	0
 3611 0230 2C       		.uleb128 0x2c
 3612 0231 34       		.uleb128 0x34
 3613 0232 00       		.byte	0
 3614 0233 03       		.uleb128 0x3
 3615 0234 0E       		.uleb128 0xe
 3616 0235 49       		.uleb128 0x49
 3617 0236 13       		.uleb128 0x13
 3618 0237 34       		.uleb128 0x34
 3619 0238 19       		.uleb128 0x19
 3620 0239 00       		.byte	0
 3621 023a 00       		.byte	0
 3622 023b 2D       		.uleb128 0x2d
 3623 023c 898201   		.uleb128 0x4109
 3624 023f 01       		.byte	0x1
 3625 0240 11       		.uleb128 0x11
 3626 0241 01       		.uleb128 0x1
 3627 0242 9542     		.uleb128 0x2115
 3628 0244 19       		.uleb128 0x19
 3629 0245 31       		.uleb128 0x31
 3630 0246 13       		.uleb128 0x13
 3631 0247 00       		.byte	0
 3632 0248 00       		.byte	0
 3633 0249 2E       		.uleb128 0x2e
 3634 024a 8A8201   		.uleb128 0x410a
 3635 024d 00       		.byte	0
 3636 024e 02       		.uleb128 0x2
 3637 024f 18       		.uleb128 0x18
 3638 0250 9142     		.uleb128 0x2111
 3639 0252 18       		.uleb128 0x18
 3640 0253 00       		.byte	0
 3641 0254 00       		.byte	0
 3642 0255 2F       		.uleb128 0x2f
 3643 0256 05       		.uleb128 0x5
 3644 0257 00       		.byte	0
ARM GAS  /var/folders/vd/czx34qs52cd_f3nb04sxmghc0000gn/T//cc6c6qTE.s 			page 65


 3645 0258 03       		.uleb128 0x3
 3646 0259 0E       		.uleb128 0xe
 3647 025a 3A       		.uleb128 0x3a
 3648 025b 0B       		.uleb128 0xb
 3649 025c 3B       		.uleb128 0x3b
 3650 025d 05       		.uleb128 0x5
 3651 025e 49       		.uleb128 0x49
 3652 025f 13       		.uleb128 0x13
 3653 0260 02       		.uleb128 0x2
 3654 0261 17       		.uleb128 0x17
 3655 0262 00       		.byte	0
 3656 0263 00       		.byte	0
 3657 0264 30       		.uleb128 0x30
 3658 0265 0B       		.uleb128 0xb
 3659 0266 01       		.byte	0x1
 3660 0267 11       		.uleb128 0x11
 3661 0268 01       		.uleb128 0x1
 3662 0269 12       		.uleb128 0x12
 3663 026a 06       		.uleb128 0x6
 3664 026b 01       		.uleb128 0x1
 3665 026c 13       		.uleb128 0x13
 3666 026d 00       		.byte	0
 3667 026e 00       		.byte	0
 3668 026f 31       		.uleb128 0x31
 3669 0270 898201   		.uleb128 0x4109
 3670 0273 01       		.byte	0x1
 3671 0274 11       		.uleb128 0x11
 3672 0275 01       		.uleb128 0x1
 3673 0276 31       		.uleb128 0x31
 3674 0277 13       		.uleb128 0x13
 3675 0278 01       		.uleb128 0x1
 3676 0279 13       		.uleb128 0x13
 3677 027a 00       		.byte	0
 3678 027b 00       		.byte	0
 3679 027c 32       		.uleb128 0x32
 3680 027d 898201   		.uleb128 0x4109
 3681 0280 01       		.byte	0x1
 3682 0281 11       		.uleb128 0x11
 3683 0282 01       		.uleb128 0x1
 3684 0283 31       		.uleb128 0x31
 3685 0284 13       		.uleb128 0x13
 3686 0285 00       		.byte	0
 3687 0286 00       		.byte	0
 3688 0287 33       		.uleb128 0x33
 3689 0288 898201   		.uleb128 0x4109
 3690 028b 00       		.byte	0
 3691 028c 11       		.uleb128 0x11
 3692 028d 01       		.uleb128 0x1
 3693 028e 31       		.uleb128 0x31
 3694 028f 13       		.uleb128 0x13
 3695 0290 00       		.byte	0
 3696 0291 00       		.byte	0
 3697 0292 34       		.uleb128 0x34
 3698 0293 2E       		.uleb128 0x2e
 3699 0294 01       		.byte	0x1
 3700 0295 03       		.uleb128 0x3
 3701 0296 0E       		.uleb128 0xe
ARM GAS  /var/folders/vd/czx34qs52cd_f3nb04sxmghc0000gn/T//cc6c6qTE.s 			page 66


 3702 0297 3A       		.uleb128 0x3a
 3703 0298 0B       		.uleb128 0xb
 3704 0299 3B       		.uleb128 0x3b
 3705 029a 05       		.uleb128 0x5
 3706 029b 27       		.uleb128 0x27
 3707 029c 19       		.uleb128 0x19
 3708 029d 20       		.uleb128 0x20
 3709 029e 0B       		.uleb128 0xb
 3710 029f 01       		.uleb128 0x1
 3711 02a0 13       		.uleb128 0x13
 3712 02a1 00       		.byte	0
 3713 02a2 00       		.byte	0
 3714 02a3 35       		.uleb128 0x35
 3715 02a4 05       		.uleb128 0x5
 3716 02a5 00       		.byte	0
 3717 02a6 03       		.uleb128 0x3
 3718 02a7 08       		.uleb128 0x8
 3719 02a8 3A       		.uleb128 0x3a
 3720 02a9 0B       		.uleb128 0xb
 3721 02aa 3B       		.uleb128 0x3b
 3722 02ab 05       		.uleb128 0x5
 3723 02ac 49       		.uleb128 0x49
 3724 02ad 13       		.uleb128 0x13
 3725 02ae 00       		.byte	0
 3726 02af 00       		.byte	0
 3727 02b0 36       		.uleb128 0x36
 3728 02b1 2E       		.uleb128 0x2e
 3729 02b2 01       		.byte	0x1
 3730 02b3 3F       		.uleb128 0x3f
 3731 02b4 19       		.uleb128 0x19
 3732 02b5 03       		.uleb128 0x3
 3733 02b6 0E       		.uleb128 0xe
 3734 02b7 3A       		.uleb128 0x3a
 3735 02b8 0B       		.uleb128 0xb
 3736 02b9 3B       		.uleb128 0x3b
 3737 02ba 05       		.uleb128 0x5
 3738 02bb 27       		.uleb128 0x27
 3739 02bc 19       		.uleb128 0x19
 3740 02bd 49       		.uleb128 0x49
 3741 02be 13       		.uleb128 0x13
 3742 02bf 20       		.uleb128 0x20
 3743 02c0 0B       		.uleb128 0xb
 3744 02c1 01       		.uleb128 0x1
 3745 02c2 13       		.uleb128 0x13
 3746 02c3 00       		.byte	0
 3747 02c4 00       		.byte	0
 3748 02c5 37       		.uleb128 0x37
 3749 02c6 34       		.uleb128 0x34
 3750 02c7 00       		.byte	0
 3751 02c8 03       		.uleb128 0x3
 3752 02c9 0E       		.uleb128 0xe
 3753 02ca 49       		.uleb128 0x49
 3754 02cb 13       		.uleb128 0x13
 3755 02cc 34       		.uleb128 0x34
 3756 02cd 19       		.uleb128 0x19
 3757 02ce 1C       		.uleb128 0x1c
 3758 02cf 0E       		.uleb128 0xe
ARM GAS  /var/folders/vd/czx34qs52cd_f3nb04sxmghc0000gn/T//cc6c6qTE.s 			page 67


 3759 02d0 00       		.byte	0
 3760 02d1 00       		.byte	0
 3761 02d2 38       		.uleb128 0x38
 3762 02d3 2E       		.uleb128 0x2e
 3763 02d4 01       		.byte	0x1
 3764 02d5 3F       		.uleb128 0x3f
 3765 02d6 19       		.uleb128 0x19
 3766 02d7 03       		.uleb128 0x3
 3767 02d8 0E       		.uleb128 0xe
 3768 02d9 3A       		.uleb128 0x3a
 3769 02da 0B       		.uleb128 0xb
 3770 02db 3B       		.uleb128 0x3b
 3771 02dc 0B       		.uleb128 0xb
 3772 02dd 27       		.uleb128 0x27
 3773 02de 19       		.uleb128 0x19
 3774 02df 49       		.uleb128 0x49
 3775 02e0 13       		.uleb128 0x13
 3776 02e1 20       		.uleb128 0x20
 3777 02e2 0B       		.uleb128 0xb
 3778 02e3 01       		.uleb128 0x1
 3779 02e4 13       		.uleb128 0x13
 3780 02e5 00       		.byte	0
 3781 02e6 00       		.byte	0
 3782 02e7 39       		.uleb128 0x39
 3783 02e8 05       		.uleb128 0x5
 3784 02e9 00       		.byte	0
 3785 02ea 03       		.uleb128 0x3
 3786 02eb 08       		.uleb128 0x8
 3787 02ec 3A       		.uleb128 0x3a
 3788 02ed 0B       		.uleb128 0xb
 3789 02ee 3B       		.uleb128 0x3b
 3790 02ef 0B       		.uleb128 0xb
 3791 02f0 49       		.uleb128 0x49
 3792 02f1 13       		.uleb128 0x13
 3793 02f2 00       		.byte	0
 3794 02f3 00       		.byte	0
 3795 02f4 3A       		.uleb128 0x3a
 3796 02f5 34       		.uleb128 0x34
 3797 02f6 00       		.byte	0
 3798 02f7 03       		.uleb128 0x3
 3799 02f8 08       		.uleb128 0x8
 3800 02f9 3A       		.uleb128 0x3a
 3801 02fa 0B       		.uleb128 0xb
 3802 02fb 3B       		.uleb128 0x3b
 3803 02fc 0B       		.uleb128 0xb
 3804 02fd 49       		.uleb128 0x49
 3805 02fe 13       		.uleb128 0x13
 3806 02ff 00       		.byte	0
 3807 0300 00       		.byte	0
 3808 0301 3B       		.uleb128 0x3b
 3809 0302 2E       		.uleb128 0x2e
 3810 0303 01       		.byte	0x1
 3811 0304 3F       		.uleb128 0x3f
 3812 0305 19       		.uleb128 0x19
 3813 0306 03       		.uleb128 0x3
 3814 0307 0E       		.uleb128 0xe
 3815 0308 3A       		.uleb128 0x3a
ARM GAS  /var/folders/vd/czx34qs52cd_f3nb04sxmghc0000gn/T//cc6c6qTE.s 			page 68


 3816 0309 0B       		.uleb128 0xb
 3817 030a 3B       		.uleb128 0x3b
 3818 030b 0B       		.uleb128 0xb
 3819 030c 27       		.uleb128 0x27
 3820 030d 19       		.uleb128 0x19
 3821 030e 11       		.uleb128 0x11
 3822 030f 01       		.uleb128 0x1
 3823 0310 12       		.uleb128 0x12
 3824 0311 06       		.uleb128 0x6
 3825 0312 40       		.uleb128 0x40
 3826 0313 18       		.uleb128 0x18
 3827 0314 9742     		.uleb128 0x2117
 3828 0316 19       		.uleb128 0x19
 3829 0317 01       		.uleb128 0x1
 3830 0318 13       		.uleb128 0x13
 3831 0319 00       		.byte	0
 3832 031a 00       		.byte	0
 3833 031b 3C       		.uleb128 0x3c
 3834 031c 1D       		.uleb128 0x1d
 3835 031d 01       		.byte	0x1
 3836 031e 31       		.uleb128 0x31
 3837 031f 13       		.uleb128 0x13
 3838 0320 52       		.uleb128 0x52
 3839 0321 01       		.uleb128 0x1
 3840 0322 55       		.uleb128 0x55
 3841 0323 17       		.uleb128 0x17
 3842 0324 58       		.uleb128 0x58
 3843 0325 0B       		.uleb128 0xb
 3844 0326 59       		.uleb128 0x59
 3845 0327 0B       		.uleb128 0xb
 3846 0328 00       		.byte	0
 3847 0329 00       		.byte	0
 3848 032a 3D       		.uleb128 0x3d
 3849 032b 2E       		.uleb128 0x2e
 3850 032c 01       		.byte	0x1
 3851 032d 03       		.uleb128 0x3
 3852 032e 0E       		.uleb128 0xe
 3853 032f 3A       		.uleb128 0x3a
 3854 0330 0B       		.uleb128 0xb
 3855 0331 3B       		.uleb128 0x3b
 3856 0332 0B       		.uleb128 0xb
 3857 0333 27       		.uleb128 0x27
 3858 0334 19       		.uleb128 0x19
 3859 0335 20       		.uleb128 0x20
 3860 0336 0B       		.uleb128 0xb
 3861 0337 01       		.uleb128 0x1
 3862 0338 13       		.uleb128 0x13
 3863 0339 00       		.byte	0
 3864 033a 00       		.byte	0
 3865 033b 3E       		.uleb128 0x3e
 3866 033c 2E       		.uleb128 0x2e
 3867 033d 01       		.byte	0x1
 3868 033e 03       		.uleb128 0x3
 3869 033f 0E       		.uleb128 0xe
 3870 0340 3A       		.uleb128 0x3a
 3871 0341 0B       		.uleb128 0xb
 3872 0342 3B       		.uleb128 0x3b
ARM GAS  /var/folders/vd/czx34qs52cd_f3nb04sxmghc0000gn/T//cc6c6qTE.s 			page 69


 3873 0343 0B       		.uleb128 0xb
 3874 0344 27       		.uleb128 0x27
 3875 0345 19       		.uleb128 0x19
 3876 0346 49       		.uleb128 0x49
 3877 0347 13       		.uleb128 0x13
 3878 0348 20       		.uleb128 0x20
 3879 0349 0B       		.uleb128 0xb
 3880 034a 01       		.uleb128 0x1
 3881 034b 13       		.uleb128 0x13
 3882 034c 00       		.byte	0
 3883 034d 00       		.byte	0
 3884 034e 3F       		.uleb128 0x3f
 3885 034f 2E       		.uleb128 0x2e
 3886 0350 00       		.byte	0
 3887 0351 03       		.uleb128 0x3
 3888 0352 0E       		.uleb128 0xe
 3889 0353 3A       		.uleb128 0x3a
 3890 0354 0B       		.uleb128 0xb
 3891 0355 3B       		.uleb128 0x3b
 3892 0356 05       		.uleb128 0x5
 3893 0357 27       		.uleb128 0x27
 3894 0358 19       		.uleb128 0x19
 3895 0359 20       		.uleb128 0x20
 3896 035a 0B       		.uleb128 0xb
 3897 035b 00       		.byte	0
 3898 035c 00       		.byte	0
 3899 035d 40       		.uleb128 0x40
 3900 035e 2E       		.uleb128 0x2e
 3901 035f 00       		.byte	0
 3902 0360 03       		.uleb128 0x3
 3903 0361 0E       		.uleb128 0xe
 3904 0362 3A       		.uleb128 0x3a
 3905 0363 0B       		.uleb128 0xb
 3906 0364 3B       		.uleb128 0x3b
 3907 0365 05       		.uleb128 0x5
 3908 0366 27       		.uleb128 0x27
 3909 0367 19       		.uleb128 0x19
 3910 0368 49       		.uleb128 0x49
 3911 0369 13       		.uleb128 0x13
 3912 036a 20       		.uleb128 0x20
 3913 036b 0B       		.uleb128 0xb
 3914 036c 00       		.byte	0
 3915 036d 00       		.byte	0
 3916 036e 41       		.uleb128 0x41
 3917 036f 2E       		.uleb128 0x2e
 3918 0370 01       		.byte	0x1
 3919 0371 03       		.uleb128 0x3
 3920 0372 0E       		.uleb128 0xe
 3921 0373 3A       		.uleb128 0x3a
 3922 0374 0B       		.uleb128 0xb
 3923 0375 3B       		.uleb128 0x3b
 3924 0376 05       		.uleb128 0x5
 3925 0377 27       		.uleb128 0x27
 3926 0378 19       		.uleb128 0x19
 3927 0379 49       		.uleb128 0x49
 3928 037a 13       		.uleb128 0x13
 3929 037b 20       		.uleb128 0x20
ARM GAS  /var/folders/vd/czx34qs52cd_f3nb04sxmghc0000gn/T//cc6c6qTE.s 			page 70


 3930 037c 0B       		.uleb128 0xb
 3931 037d 01       		.uleb128 0x1
 3932 037e 13       		.uleb128 0x13
 3933 037f 00       		.byte	0
 3934 0380 00       		.byte	0
 3935 0381 42       		.uleb128 0x42
 3936 0382 05       		.uleb128 0x5
 3937 0383 00       		.byte	0
 3938 0384 03       		.uleb128 0x3
 3939 0385 0E       		.uleb128 0xe
 3940 0386 3A       		.uleb128 0x3a
 3941 0387 0B       		.uleb128 0xb
 3942 0388 3B       		.uleb128 0x3b
 3943 0389 05       		.uleb128 0x5
 3944 038a 49       		.uleb128 0x49
 3945 038b 13       		.uleb128 0x13
 3946 038c 00       		.byte	0
 3947 038d 00       		.byte	0
 3948 038e 43       		.uleb128 0x43
 3949 038f 2E       		.uleb128 0x2e
 3950 0390 01       		.byte	0x1
 3951 0391 31       		.uleb128 0x31
 3952 0392 13       		.uleb128 0x13
 3953 0393 11       		.uleb128 0x11
 3954 0394 01       		.uleb128 0x1
 3955 0395 12       		.uleb128 0x12
 3956 0396 06       		.uleb128 0x6
 3957 0397 40       		.uleb128 0x40
 3958 0398 18       		.uleb128 0x18
 3959 0399 9742     		.uleb128 0x2117
 3960 039b 19       		.uleb128 0x19
 3961 039c 01       		.uleb128 0x1
 3962 039d 13       		.uleb128 0x13
 3963 039e 00       		.byte	0
 3964 039f 00       		.byte	0
 3965 03a0 44       		.uleb128 0x44
 3966 03a1 05       		.uleb128 0x5
 3967 03a2 00       		.byte	0
 3968 03a3 31       		.uleb128 0x31
 3969 03a4 13       		.uleb128 0x13
 3970 03a5 02       		.uleb128 0x2
 3971 03a6 18       		.uleb128 0x18
 3972 03a7 00       		.byte	0
 3973 03a8 00       		.byte	0
 3974 03a9 45       		.uleb128 0x45
 3975 03aa 34       		.uleb128 0x34
 3976 03ab 00       		.byte	0
 3977 03ac 31       		.uleb128 0x31
 3978 03ad 13       		.uleb128 0x13
 3979 03ae 02       		.uleb128 0x2
 3980 03af 18       		.uleb128 0x18
 3981 03b0 00       		.byte	0
 3982 03b1 00       		.byte	0
 3983 03b2 46       		.uleb128 0x46
 3984 03b3 1D       		.uleb128 0x1d
 3985 03b4 01       		.byte	0x1
 3986 03b5 31       		.uleb128 0x31
ARM GAS  /var/folders/vd/czx34qs52cd_f3nb04sxmghc0000gn/T//cc6c6qTE.s 			page 71


 3987 03b6 13       		.uleb128 0x13
 3988 03b7 11       		.uleb128 0x11
 3989 03b8 01       		.uleb128 0x1
 3990 03b9 12       		.uleb128 0x12
 3991 03ba 06       		.uleb128 0x6
 3992 03bb 58       		.uleb128 0x58
 3993 03bc 0B       		.uleb128 0xb
 3994 03bd 59       		.uleb128 0x59
 3995 03be 05       		.uleb128 0x5
 3996 03bf 01       		.uleb128 0x1
 3997 03c0 13       		.uleb128 0x13
 3998 03c1 00       		.byte	0
 3999 03c2 00       		.byte	0
 4000 03c3 47       		.uleb128 0x47
 4001 03c4 1D       		.uleb128 0x1d
 4002 03c5 01       		.byte	0x1
 4003 03c6 31       		.uleb128 0x31
 4004 03c7 13       		.uleb128 0x13
 4005 03c8 11       		.uleb128 0x11
 4006 03c9 01       		.uleb128 0x1
 4007 03ca 12       		.uleb128 0x12
 4008 03cb 06       		.uleb128 0x6
 4009 03cc 58       		.uleb128 0x58
 4010 03cd 0B       		.uleb128 0xb
 4011 03ce 59       		.uleb128 0x59
 4012 03cf 05       		.uleb128 0x5
 4013 03d0 00       		.byte	0
 4014 03d1 00       		.byte	0
 4015 03d2 48       		.uleb128 0x48
 4016 03d3 0B       		.uleb128 0xb
 4017 03d4 01       		.byte	0x1
 4018 03d5 31       		.uleb128 0x31
 4019 03d6 13       		.uleb128 0x13
 4020 03d7 55       		.uleb128 0x55
 4021 03d8 17       		.uleb128 0x17
 4022 03d9 01       		.uleb128 0x1
 4023 03da 13       		.uleb128 0x13
 4024 03db 00       		.byte	0
 4025 03dc 00       		.byte	0
 4026 03dd 49       		.uleb128 0x49
 4027 03de 05       		.uleb128 0x5
 4028 03df 00       		.byte	0
 4029 03e0 31       		.uleb128 0x31
 4030 03e1 13       		.uleb128 0x13
 4031 03e2 00       		.byte	0
 4032 03e3 00       		.byte	0
 4033 03e4 4A       		.uleb128 0x4a
 4034 03e5 1D       		.uleb128 0x1d
 4035 03e6 01       		.byte	0x1
 4036 03e7 31       		.uleb128 0x31
 4037 03e8 13       		.uleb128 0x13
 4038 03e9 52       		.uleb128 0x52
 4039 03ea 01       		.uleb128 0x1
 4040 03eb 55       		.uleb128 0x55
 4041 03ec 17       		.uleb128 0x17
 4042 03ed 58       		.uleb128 0x58
 4043 03ee 0B       		.uleb128 0xb
ARM GAS  /var/folders/vd/czx34qs52cd_f3nb04sxmghc0000gn/T//cc6c6qTE.s 			page 72


 4044 03ef 59       		.uleb128 0x59
 4045 03f0 05       		.uleb128 0x5
 4046 03f1 00       		.byte	0
 4047 03f2 00       		.byte	0
 4048 03f3 4B       		.uleb128 0x4b
 4049 03f4 2E       		.uleb128 0x2e
 4050 03f5 00       		.byte	0
 4051 03f6 3F       		.uleb128 0x3f
 4052 03f7 19       		.uleb128 0x19
 4053 03f8 3C       		.uleb128 0x3c
 4054 03f9 19       		.uleb128 0x19
 4055 03fa 6E       		.uleb128 0x6e
 4056 03fb 0E       		.uleb128 0xe
 4057 03fc 03       		.uleb128 0x3
 4058 03fd 0E       		.uleb128 0xe
 4059 03fe 3A       		.uleb128 0x3a
 4060 03ff 0B       		.uleb128 0xb
 4061 0400 3B       		.uleb128 0x3b
 4062 0401 05       		.uleb128 0x5
 4063 0402 00       		.byte	0
 4064 0403 00       		.byte	0
 4065 0404 4C       		.uleb128 0x4c
 4066 0405 2E       		.uleb128 0x2e
 4067 0406 00       		.byte	0
 4068 0407 3F       		.uleb128 0x3f
 4069 0408 19       		.uleb128 0x19
 4070 0409 3C       		.uleb128 0x3c
 4071 040a 19       		.uleb128 0x19
 4072 040b 6E       		.uleb128 0x6e
 4073 040c 0E       		.uleb128 0xe
 4074 040d 03       		.uleb128 0x3
 4075 040e 0E       		.uleb128 0xe
 4076 040f 3A       		.uleb128 0x3a
 4077 0410 0B       		.uleb128 0xb
 4078 0411 3B       		.uleb128 0x3b
 4079 0412 0B       		.uleb128 0xb
 4080 0413 00       		.byte	0
 4081 0414 00       		.byte	0
 4082 0415 00       		.byte	0
 4083              		.section	.debug_loc,"",%progbits
 4084              	.Ldebug_loc0:
 4085              	.LLST27:
 4086 0000 0C000000 		.4byte	.LVL60
 4087 0004 32000000 		.4byte	.LVL66
 4088 0008 0100     		.2byte	0x1
 4089 000a 54       		.byte	0x54
 4090 000b 00000000 		.4byte	0
 4091 000f 00000000 		.4byte	0
 4092              	.LLST28:
 4093 0013 0C000000 		.4byte	.LVL60
 4094 0017 10000000 		.4byte	.LVL61
 4095 001b 0600     		.2byte	0x6
 4096 001d 03       		.byte	0x3
 4097 001e 00000000 		.4byte	ch
 4098 0022 9F       		.byte	0x9f
 4099 0023 00000000 		.4byte	0
 4100 0027 00000000 		.4byte	0
ARM GAS  /var/folders/vd/czx34qs52cd_f3nb04sxmghc0000gn/T//cc6c6qTE.s 			page 73


 4101              	.LLST29:
 4102 002b 0C000000 		.4byte	.LVL60
 4103 002f 10000000 		.4byte	.LVL61
 4104 0033 0100     		.2byte	0x1
 4105 0035 50       		.byte	0x50
 4106 0036 00000000 		.4byte	0
 4107 003a 00000000 		.4byte	0
 4108              	.LLST30:
 4109 003e 18000000 		.4byte	.LVL62
 4110 0042 32000000 		.4byte	.LVL66
 4111 0046 0100     		.2byte	0x1
 4112 0048 54       		.byte	0x54
 4113 0049 00000000 		.4byte	0
 4114 004d 00000000 		.4byte	0
 4115              	.LLST23:
 4116 0051 0C000000 		.4byte	.LVL52
 4117 0055 32000000 		.4byte	.LVL58
 4118 0059 0100     		.2byte	0x1
 4119 005b 54       		.byte	0x54
 4120 005c 00000000 		.4byte	0
 4121 0060 00000000 		.4byte	0
 4122              	.LLST24:
 4123 0064 0C000000 		.4byte	.LVL52
 4124 0068 10000000 		.4byte	.LVL53
 4125 006c 0600     		.2byte	0x6
 4126 006e 03       		.byte	0x3
 4127 006f 00000000 		.4byte	ch
 4128 0073 9F       		.byte	0x9f
 4129 0074 00000000 		.4byte	0
 4130 0078 00000000 		.4byte	0
 4131              	.LLST25:
 4132 007c 0C000000 		.4byte	.LVL52
 4133 0080 10000000 		.4byte	.LVL53
 4134 0084 0100     		.2byte	0x1
 4135 0086 50       		.byte	0x50
 4136 0087 00000000 		.4byte	0
 4137 008b 00000000 		.4byte	0
 4138              	.LLST26:
 4139 008f 18000000 		.4byte	.LVL54
 4140 0093 32000000 		.4byte	.LVL58
 4141 0097 0100     		.2byte	0x1
 4142 0099 54       		.byte	0x54
 4143 009a 00000000 		.4byte	0
 4144 009e 00000000 		.4byte	0
 4145              	.LLST18:
 4146 00a2 00000000 		.4byte	.LVL37
 4147 00a6 0C000000 		.4byte	.LVL39
 4148 00aa 0100     		.2byte	0x1
 4149 00ac 50       		.byte	0x50
 4150 00ad 0C000000 		.4byte	.LVL39
 4151 00b1 2E000000 		.4byte	.LVL43
 4152 00b5 0100     		.2byte	0x1
 4153 00b7 54       		.byte	0x54
 4154 00b8 2E000000 		.4byte	.LVL43
 4155 00bc 30000000 		.4byte	.LVL44
 4156 00c0 0200     		.2byte	0x2
 4157 00c2 73       		.byte	0x73
ARM GAS  /var/folders/vd/czx34qs52cd_f3nb04sxmghc0000gn/T//cc6c6qTE.s 			page 74


 4158 00c3 04       		.sleb128 4
 4159 00c4 30000000 		.4byte	.LVL44
 4160 00c8 56000000 		.4byte	.LVL49
 4161 00cc 0100     		.2byte	0x1
 4162 00ce 54       		.byte	0x54
 4163 00cf 56000000 		.4byte	.LVL49
 4164 00d3 59000000 		.4byte	.LVL50-1
 4165 00d7 0100     		.2byte	0x1
 4166 00d9 50       		.byte	0x50
 4167 00da 59000000 		.4byte	.LVL50-1
 4168 00de 60000000 		.4byte	.LFE286
 4169 00e2 0400     		.2byte	0x4
 4170 00e4 F3       		.byte	0xf3
 4171 00e5 01       		.uleb128 0x1
 4172 00e6 50       		.byte	0x50
 4173 00e7 9F       		.byte	0x9f
 4174 00e8 00000000 		.4byte	0
 4175 00ec 00000000 		.4byte	0
 4176              	.LLST19:
 4177 00f0 00000000 		.4byte	.LVL37
 4178 00f4 36000000 		.4byte	.LVL46
 4179 00f8 0100     		.2byte	0x1
 4180 00fa 51       		.byte	0x51
 4181 00fb 36000000 		.4byte	.LVL46
 4182 00ff 60000000 		.4byte	.LFE286
 4183 0103 0400     		.2byte	0x4
 4184 0105 F3       		.byte	0xf3
 4185 0106 01       		.uleb128 0x1
 4186 0107 51       		.byte	0x51
 4187 0108 9F       		.byte	0x9f
 4188 0109 00000000 		.4byte	0
 4189 010d 00000000 		.4byte	0
 4190              	.LLST20:
 4191 0111 06000000 		.4byte	.LVL38
 4192 0115 2E000000 		.4byte	.LVL43
 4193 0119 0100     		.2byte	0x1
 4194 011b 56       		.byte	0x56
 4195 011c 30000000 		.4byte	.LVL44
 4196 0120 4A000000 		.4byte	.LVL48
 4197 0124 0100     		.2byte	0x1
 4198 0126 56       		.byte	0x56
 4199 0127 00000000 		.4byte	0
 4200 012b 00000000 		.4byte	0
 4201              	.LLST21:
 4202 012f 16000000 		.4byte	.LVL40
 4203 0133 2E000000 		.4byte	.LVL43
 4204 0137 0100     		.2byte	0x1
 4205 0139 54       		.byte	0x54
 4206 013a 2E000000 		.4byte	.LVL43
 4207 013e 30000000 		.4byte	.LVL44
 4208 0142 0200     		.2byte	0x2
 4209 0144 73       		.byte	0x73
 4210 0145 04       		.sleb128 4
 4211 0146 00000000 		.4byte	0
 4212 014a 00000000 		.4byte	0
 4213              	.LLST22:
 4214 014e 30000000 		.4byte	.LVL44
ARM GAS  /var/folders/vd/czx34qs52cd_f3nb04sxmghc0000gn/T//cc6c6qTE.s 			page 75


 4215 0152 4A000000 		.4byte	.LVL48
 4216 0156 0100     		.2byte	0x1
 4217 0158 56       		.byte	0x56
 4218 0159 00000000 		.4byte	0
 4219 015d 00000000 		.4byte	0
 4220              	.LLST16:
 4221 0161 00000000 		.4byte	.LVL29
 4222 0165 12000000 		.4byte	.LVL30
 4223 0169 0100     		.2byte	0x1
 4224 016b 50       		.byte	0x50
 4225 016c 12000000 		.4byte	.LVL30
 4226 0170 2E000000 		.4byte	.LVL35
 4227 0174 0400     		.2byte	0x4
 4228 0176 F3       		.byte	0xf3
 4229 0177 01       		.uleb128 0x1
 4230 0178 50       		.byte	0x50
 4231 0179 9F       		.byte	0x9f
 4232 017a 2E000000 		.4byte	.LVL35
 4233 017e 33000000 		.4byte	.LVL36-1
 4234 0182 0100     		.2byte	0x1
 4235 0184 50       		.byte	0x50
 4236 0185 33000000 		.4byte	.LVL36-1
 4237 0189 44000000 		.4byte	.LFE285
 4238 018d 0400     		.2byte	0x4
 4239 018f F3       		.byte	0xf3
 4240 0190 01       		.uleb128 0x1
 4241 0191 50       		.byte	0x50
 4242 0192 9F       		.byte	0x9f
 4243 0193 00000000 		.4byte	0
 4244 0197 00000000 		.4byte	0
 4245              	.LLST17:
 4246 019b 00000000 		.4byte	.LVL29
 4247 019f 15000000 		.4byte	.LVL31-1
 4248 01a3 0100     		.2byte	0x1
 4249 01a5 51       		.byte	0x51
 4250 01a6 15000000 		.4byte	.LVL31-1
 4251 01aa 2E000000 		.4byte	.LVL35
 4252 01ae 0400     		.2byte	0x4
 4253 01b0 F3       		.byte	0xf3
 4254 01b1 01       		.uleb128 0x1
 4255 01b2 51       		.byte	0x51
 4256 01b3 9F       		.byte	0x9f
 4257 01b4 2E000000 		.4byte	.LVL35
 4258 01b8 33000000 		.4byte	.LVL36-1
 4259 01bc 0100     		.2byte	0x1
 4260 01be 51       		.byte	0x51
 4261 01bf 33000000 		.4byte	.LVL36-1
 4262 01c3 44000000 		.4byte	.LFE285
 4263 01c7 0400     		.2byte	0x4
 4264 01c9 F3       		.byte	0xf3
 4265 01ca 01       		.uleb128 0x1
 4266 01cb 51       		.byte	0x51
 4267 01cc 9F       		.byte	0x9f
 4268 01cd 00000000 		.4byte	0
 4269 01d1 00000000 		.4byte	0
 4270              	.LLST12:
 4271 01d5 00000000 		.4byte	.LVL23
ARM GAS  /var/folders/vd/czx34qs52cd_f3nb04sxmghc0000gn/T//cc6c6qTE.s 			page 76


 4272 01d9 0E000000 		.4byte	.LVL26
 4273 01dd 0100     		.2byte	0x1
 4274 01df 50       		.byte	0x50
 4275 01e0 0E000000 		.4byte	.LVL26
 4276 01e4 14000000 		.4byte	.LVL27
 4277 01e8 0200     		.2byte	0x2
 4278 01ea 71       		.byte	0x71
 4279 01eb 20       		.sleb128 32
 4280 01ec 14000000 		.4byte	.LVL27
 4281 01f0 28000000 		.4byte	.LFE283
 4282 01f4 0400     		.2byte	0x4
 4283 01f6 F3       		.byte	0xf3
 4284 01f7 01       		.uleb128 0x1
 4285 01f8 50       		.byte	0x50
 4286 01f9 9F       		.byte	0x9f
 4287 01fa 00000000 		.4byte	0
 4288 01fe 00000000 		.4byte	0
 4289              	.LLST13:
 4290 0202 04000000 		.4byte	.LVL24
 4291 0206 21000000 		.4byte	.LVL28-1
 4292 020a 0100     		.2byte	0x1
 4293 020c 51       		.byte	0x51
 4294 020d 00000000 		.4byte	0
 4295 0211 00000000 		.4byte	0
 4296              	.LLST14:
 4297 0215 0C000000 		.4byte	.LVL25
 4298 0219 14000000 		.4byte	.LVL27
 4299 021d 0600     		.2byte	0x6
 4300 021f 03       		.byte	0x3
 4301 0220 00000000 		.4byte	ch
 4302 0224 9F       		.byte	0x9f
 4303 0225 00000000 		.4byte	0
 4304 0229 00000000 		.4byte	0
 4305              	.LLST15:
 4306 022d 0C000000 		.4byte	.LVL25
 4307 0231 14000000 		.4byte	.LVL27
 4308 0235 0100     		.2byte	0x1
 4309 0237 52       		.byte	0x52
 4310 0238 00000000 		.4byte	0
 4311 023c 00000000 		.4byte	0
 4312              	.LLST9:
 4313 0240 00000000 		.4byte	.LVL13
 4314 0244 08000000 		.4byte	.LVL14
 4315 0248 0600     		.2byte	0x6
 4316 024a 03       		.byte	0x3
 4317 024b 00000000 		.4byte	ch
 4318 024f 9F       		.byte	0x9f
 4319 0250 00000000 		.4byte	0
 4320 0254 00000000 		.4byte	0
 4321              	.LLST0:
 4322 0258 00000000 		.4byte	.LVL0
 4323 025c 06000000 		.4byte	.LVL1
 4324 0260 0300     		.2byte	0x3
 4325 0262 08       		.byte	0x8
 4326 0263 20       		.byte	0x20
 4327 0264 9F       		.byte	0x9f
 4328 0265 00000000 		.4byte	0
ARM GAS  /var/folders/vd/czx34qs52cd_f3nb04sxmghc0000gn/T//cc6c6qTE.s 			page 77


 4329 0269 00000000 		.4byte	0
 4330              	.LLST1:
 4331 026d 1C000000 		.4byte	.LVL2
 4332 0271 22000000 		.4byte	.LVL3
 4333 0275 0100     		.2byte	0x1
 4334 0277 52       		.byte	0x52
 4335 0278 00000000 		.4byte	0
 4336 027c 00000000 		.4byte	0
 4337              	.LLST2:
 4338 0280 22000000 		.4byte	.LVL3
 4339 0284 2C000000 		.4byte	.LVL4
 4340 0288 0100     		.2byte	0x1
 4341 028a 50       		.byte	0x50
 4342 028b 00000000 		.4byte	0
 4343 028f 00000000 		.4byte	0
 4344              	.LLST3:
 4345 0293 3A000000 		.4byte	.LVL5
 4346 0297 5A000000 		.4byte	.LVL10
 4347 029b 0100     		.2byte	0x1
 4348 029d 50       		.byte	0x50
 4349 029e 00000000 		.4byte	0
 4350 02a2 00000000 		.4byte	0
 4351              	.LLST4:
 4352 02a6 3E000000 		.4byte	.LVL6
 4353 02aa 5A000000 		.4byte	.LVL10
 4354 02ae 0600     		.2byte	0x6
 4355 02b0 03       		.byte	0x3
 4356 02b1 00000000 		.4byte	ch
 4357 02b5 9F       		.byte	0x9f
 4358 02b6 00000000 		.4byte	0
 4359 02ba 00000000 		.4byte	0
 4360              	.LLST5:
 4361 02be 3E000000 		.4byte	.LVL6
 4362 02c2 5A000000 		.4byte	.LVL10
 4363 02c6 0100     		.2byte	0x1
 4364 02c8 50       		.byte	0x50
 4365 02c9 00000000 		.4byte	0
 4366 02cd 00000000 		.4byte	0
 4367              	.LLST6:
 4368 02d1 3E000000 		.4byte	.LVL6
 4369 02d5 52000000 		.4byte	.LVL8
 4370 02d9 0100     		.2byte	0x1
 4371 02db 53       		.byte	0x53
 4372 02dc 00000000 		.4byte	0
 4373 02e0 00000000 		.4byte	0
 4374              	.LLST7:
 4375 02e4 52000000 		.4byte	.LVL8
 4376 02e8 56000000 		.4byte	.LVL9
 4377 02ec 0200     		.2byte	0x2
 4378 02ee 30       		.byte	0x30
 4379 02ef 9F       		.byte	0x9f
 4380 02f0 00000000 		.4byte	0
 4381 02f4 00000000 		.4byte	0
 4382              	.LLST8:
 4383 02f8 62000000 		.4byte	.LVL11
 4384 02fc 68000000 		.4byte	.LVL12
 4385 0300 0200     		.2byte	0x2
ARM GAS  /var/folders/vd/czx34qs52cd_f3nb04sxmghc0000gn/T//cc6c6qTE.s 			page 78


 4386 0302 30       		.byte	0x30
 4387 0303 9F       		.byte	0x9f
 4388 0304 00000000 		.4byte	0
 4389 0308 00000000 		.4byte	0
 4390              	.LLST10:
 4391 030c 00000000 		.4byte	.LVL15
 4392 0310 08000000 		.4byte	.LVL16
 4393 0314 0100     		.2byte	0x1
 4394 0316 50       		.byte	0x50
 4395 0317 08000000 		.4byte	.LVL16
 4396 031b 28000000 		.4byte	.LFE281
 4397 031f 0100     		.2byte	0x1
 4398 0321 51       		.byte	0x51
 4399 0322 00000000 		.4byte	0
 4400 0326 00000000 		.4byte	0
 4401              	.LLST11:
 4402 032a 00000000 		.4byte	.LVL19
 4403 032e 08000000 		.4byte	.LVL20
 4404 0332 0100     		.2byte	0x1
 4405 0334 50       		.byte	0x50
 4406 0335 08000000 		.4byte	.LVL20
 4407 0339 28000000 		.4byte	.LFE282
 4408 033d 0100     		.2byte	0x1
 4409 033f 51       		.byte	0x51
 4410 0340 00000000 		.4byte	0
 4411 0344 00000000 		.4byte	0
 4412              		.section	.debug_aranges,"",%progbits
 4413 0000 6C000000 		.4byte	0x6c
 4414 0004 0200     		.2byte	0x2
 4415 0006 00000000 		.4byte	.Ldebug_info0
 4416 000a 04       		.byte	0x4
 4417 000b 00       		.byte	0
 4418 000c 0000     		.2byte	0
 4419 000e 0000     		.2byte	0
 4420 0010 00000000 		.4byte	.LFB284
 4421 0014 70000000 		.4byte	.LFE284-.LFB284
 4422 0018 00000000 		.4byte	.LFB280
 4423 001c 14000000 		.4byte	.LFE280-.LFB280
 4424 0020 00000000 		.4byte	.LFB281
 4425 0024 28000000 		.4byte	.LFE281-.LFB281
 4426 0028 00000000 		.4byte	.LFB282
 4427 002c 28000000 		.4byte	.LFE282-.LFB282
 4428 0030 00000000 		.4byte	.LFB283
 4429 0034 28000000 		.4byte	.LFE283-.LFB283
 4430 0038 00000000 		.4byte	.LFB285
 4431 003c 44000000 		.4byte	.LFE285-.LFB285
 4432 0040 00000000 		.4byte	.LFB286
 4433 0044 60000000 		.4byte	.LFE286-.LFB286
 4434 0048 00000000 		.4byte	.LFB288
 4435 004c 18000000 		.4byte	.LFE288-.LFB288
 4436 0050 00000000 		.4byte	.LFB289
 4437 0054 3C000000 		.4byte	.LFE289-.LFB289
 4438 0058 00000000 		.4byte	.LFB290
 4439 005c 3C000000 		.4byte	.LFE290-.LFB290
 4440 0060 00000000 		.4byte	.LFB287
 4441 0064 18000000 		.4byte	.LFE287-.LFB287
 4442 0068 00000000 		.4byte	0
ARM GAS  /var/folders/vd/czx34qs52cd_f3nb04sxmghc0000gn/T//cc6c6qTE.s 			page 79


 4443 006c 00000000 		.4byte	0
 4444              		.section	.debug_ranges,"",%progbits
 4445              	.Ldebug_ranges0:
 4446 0000 2E000000 		.4byte	.LBB142
 4447 0004 30000000 		.4byte	.LBE142
 4448 0008 3A000000 		.4byte	.LBB164
 4449 000c 3E000000 		.4byte	.LBE164
 4450 0010 00000000 		.4byte	0
 4451 0014 00000000 		.4byte	0
 4452 0018 34000000 		.4byte	.LBB145
 4453 001c 38000000 		.4byte	.LBE145
 4454 0020 3E000000 		.4byte	.LBB165
 4455 0024 56000000 		.4byte	.LBE165
 4456 0028 00000000 		.4byte	0
 4457 002c 00000000 		.4byte	0
 4458 0030 34000000 		.4byte	.LBB147
 4459 0034 38000000 		.4byte	.LBE147
 4460 0038 3E000000 		.4byte	.LBB151
 4461 003c 48000000 		.4byte	.LBE151
 4462 0040 4A000000 		.4byte	.LBB161
 4463 0044 52000000 		.4byte	.LBE161
 4464 0048 00000000 		.4byte	0
 4465 004c 00000000 		.4byte	0
 4466 0050 48000000 		.4byte	.LBB152
 4467 0054 4A000000 		.4byte	.LBE152
 4468 0058 52000000 		.4byte	.LBB162
 4469 005c 56000000 		.4byte	.LBE162
 4470 0060 00000000 		.4byte	0
 4471 0064 00000000 		.4byte	0
 4472 0068 00000000 		.4byte	.LBB171
 4473 006c 02000000 		.4byte	.LBE171
 4474 0070 04000000 		.4byte	.LBB174
 4475 0074 08000000 		.4byte	.LBE174
 4476 0078 00000000 		.4byte	0
 4477 007c 00000000 		.4byte	0
 4478 0080 04000000 		.4byte	.LBB175
 4479 0084 06000000 		.4byte	.LBE175
 4480 0088 0C000000 		.4byte	.LBB179
 4481 008c 10000000 		.4byte	.LBE179
 4482 0090 12000000 		.4byte	.LBB180
 4483 0094 14000000 		.4byte	.LBE180
 4484 0098 00000000 		.4byte	0
 4485 009c 00000000 		.4byte	0
 4486 00a0 10000000 		.4byte	.LBB182
 4487 00a4 14000000 		.4byte	.LBE182
 4488 00a8 16000000 		.4byte	.LBB185
 4489 00ac 2C000000 		.4byte	.LBE185
 4490 00b0 00000000 		.4byte	0
 4491 00b4 00000000 		.4byte	0
 4492 00b8 30000000 		.4byte	.LBB186
 4493 00bc 42000000 		.4byte	.LBE186
 4494 00c0 44000000 		.4byte	.LBB189
 4495 00c4 4A000000 		.4byte	.LBE189
 4496 00c8 00000000 		.4byte	0
 4497 00cc 00000000 		.4byte	0
 4498 00d0 02000000 		.4byte	.LBB190
 4499 00d4 06000000 		.4byte	.LBE190
ARM GAS  /var/folders/vd/czx34qs52cd_f3nb04sxmghc0000gn/T//cc6c6qTE.s 			page 80


 4500 00d8 0C000000 		.4byte	.LBB193
 4501 00dc 10000000 		.4byte	.LBE193
 4502 00e0 00000000 		.4byte	0
 4503 00e4 00000000 		.4byte	0
 4504 00e8 14000000 		.4byte	.LBB194
 4505 00ec 16000000 		.4byte	.LBE194
 4506 00f0 18000000 		.4byte	.LBB199
 4507 00f4 1C000000 		.4byte	.LBE199
 4508 00f8 1E000000 		.4byte	.LBB200
 4509 00fc 28000000 		.4byte	.LBE200
 4510 0100 2A000000 		.4byte	.LBB201
 4511 0104 32000000 		.4byte	.LBE201
 4512 0108 00000000 		.4byte	0
 4513 010c 00000000 		.4byte	0
 4514 0110 02000000 		.4byte	.LBB202
 4515 0114 06000000 		.4byte	.LBE202
 4516 0118 0C000000 		.4byte	.LBB205
 4517 011c 10000000 		.4byte	.LBE205
 4518 0120 00000000 		.4byte	0
 4519 0124 00000000 		.4byte	0
 4520 0128 14000000 		.4byte	.LBB206
 4521 012c 16000000 		.4byte	.LBE206
 4522 0130 18000000 		.4byte	.LBB211
 4523 0134 1C000000 		.4byte	.LBE211
 4524 0138 1E000000 		.4byte	.LBB212
 4525 013c 28000000 		.4byte	.LBE212
 4526 0140 2A000000 		.4byte	.LBB213
 4527 0144 32000000 		.4byte	.LBE213
 4528 0148 00000000 		.4byte	0
 4529 014c 00000000 		.4byte	0
 4530 0150 00000000 		.4byte	.LFB284
 4531 0154 70000000 		.4byte	.LFE284
 4532 0158 00000000 		.4byte	.LFB280
 4533 015c 14000000 		.4byte	.LFE280
 4534 0160 00000000 		.4byte	.LFB281
 4535 0164 28000000 		.4byte	.LFE281
 4536 0168 00000000 		.4byte	.LFB282
 4537 016c 28000000 		.4byte	.LFE282
 4538 0170 00000000 		.4byte	.LFB283
 4539 0174 28000000 		.4byte	.LFE283
 4540 0178 00000000 		.4byte	.LFB285
 4541 017c 44000000 		.4byte	.LFE285
 4542 0180 00000000 		.4byte	.LFB286
 4543 0184 60000000 		.4byte	.LFE286
 4544 0188 00000000 		.4byte	.LFB288
 4545 018c 18000000 		.4byte	.LFE288
 4546 0190 00000000 		.4byte	.LFB289
 4547 0194 3C000000 		.4byte	.LFE289
 4548 0198 00000000 		.4byte	.LFB290
 4549 019c 3C000000 		.4byte	.LFE290
 4550 01a0 00000000 		.4byte	.LFB287
 4551 01a4 18000000 		.4byte	.LFE287
 4552 01a8 00000000 		.4byte	0
 4553 01ac 00000000 		.4byte	0
 4554              		.section	.debug_line,"",%progbits
 4555              	.Ldebug_line0:
 4556 0000 54050000 		.section	.debug_str,"MS",%progbits,1
ARM GAS  /var/folders/vd/czx34qs52cd_f3nb04sxmghc0000gn/T//cc6c6qTE.s 			page 81


 4556      0200E702 
 4556      00000201 
 4556      FB0E0D00 
 4556      01010101 
 4557              	.LASF54:
 4558 0000 72656164 		.ascii	"ready_list_t\000"
 4558      795F6C69 
 4558      73745F74 
 4558      00
 4559              	.LASF4:
 4560 000d 73697A65 		.ascii	"size_t\000"
 4560      5F7400
 4561              	.LASF60:
 4562 0014 64656C74 		.ascii	"delta\000"
 4562      6100
 4563              	.LASF85:
 4564 001a 7264796D 		.ascii	"rdymsg\000"
 4564      736700
 4565              	.LASF20:
 4566 0021 75696E74 		.ascii	"uint64_t\000"
 4566      36345F74 
 4566      00
 4567              	.LASF145:
 4568 002a 63685363 		.ascii	"chSchDoRescheduleAhead\000"
 4568      68446F52 
 4568      65736368 
 4568      6564756C 
 4568      65416865 
 4569              	.LASF27:
 4570 0041 6576656E 		.ascii	"eventmask_t\000"
 4570      746D6173 
 4570      6B5F7400 
 4571              	.LASF5:
 4572 004d 5F5F7569 		.ascii	"__uint8_t\000"
 4572      6E74385F 
 4572      7400
 4573              	.LASF53:
 4574 0057 70726576 		.ascii	"prev\000"
 4574      00
 4575              	.LASF82:
 4576 005c 706F7274 		.ascii	"port_intctx\000"
 4576      5F696E74 
 4576      63747800 
 4577              	.LASF65:
 4578 0068 73797374 		.ascii	"system_debug_t\000"
 4578      656D5F64 
 4578      65627567 
 4578      5F7400
 4579              	.LASF129:
 4580 0077 70726F76 		.ascii	"provider\000"
 4580      69646572 
 4580      00
 4581              	.LASF165:
 4582 0080 71756575 		.ascii	"queue_init\000"
 4582      655F696E 
 4582      697400
 4583              	.LASF139:
ARM GAS  /var/folders/vd/czx34qs52cd_f3nb04sxmghc0000gn/T//cc6c6qTE.s 			page 82


 4584 008b 73656D5F 		.ascii	"sem_list\000"
 4584      6C697374 
 4584      00
 4585              	.LASF169:
 4586 0094 706F7274 		.ascii	"port_lock\000"
 4586      5F6C6F63 
 4586      6B00
 4587              	.LASF121:
 4588 009e 6D656D67 		.ascii	"memgetfunc_t\000"
 4588      65746675 
 4588      6E635F74 
 4588      00
 4589              	.LASF15:
 4590 00ab 6C6F6E67 		.ascii	"long long unsigned int\000"
 4590      206C6F6E 
 4590      6720756E 
 4590      7369676E 
 4590      65642069 
 4591              	.LASF174:
 4592 00c2 63685654 		.ascii	"chVTDoResetI\000"
 4592      446F5265 
 4592      73657449 
 4592      00
 4593              	.LASF86:
 4594 00cf 65786974 		.ascii	"exitcode\000"
 4594      636F6465 
 4594      00
 4595              	.LASF72:
 4596 00d8 6D61696E 		.ascii	"mainthread\000"
 4596      74687265 
 4596      616400
 4597              	.LASF89:
 4598 00e3 73656E74 		.ascii	"sentmsg\000"
 4598      6D736700 
 4599              	.LASF62:
 4600 00eb 76697274 		.ascii	"virtual_timers_list_t\000"
 4600      75616C5F 
 4600      74696D65 
 4600      72735F6C 
 4600      6973745F 
 4601              	.LASF75:
 4602 0101 49544D5F 		.ascii	"ITM_RxBuffer\000"
 4602      52784275 
 4602      66666572 
 4602      00
 4603              	.LASF132:
 4604 010e 64796E5F 		.ascii	"dyn_element_t\000"
 4604      656C656D 
 4604      656E745F 
 4604      7400
 4605              	.LASF50:
 4606 011c 6E657874 		.ascii	"next\000"
 4606      00
 4607              	.LASF52:
 4608 0121 63685F74 		.ascii	"ch_threads_queue\000"
 4608      68726561 
 4608      64735F71 
ARM GAS  /var/folders/vd/czx34qs52cd_f3nb04sxmghc0000gn/T//cc6c6qTE.s 			page 83


 4608      75657565 
 4608      00
 4609              	.LASF175:
 4610 0132 474E5520 		.ascii	"GNU C11 7.2.1 20170904 (release) [ARM/embedded-7-br"
 4610      43313120 
 4610      372E322E 
 4610      31203230 
 4610      31373039 
 4611 0165 616E6368 		.ascii	"anch revision 255204] -mcpu=cortex-m4 -mno-thumb-in"
 4611      20726576 
 4611      6973696F 
 4611      6E203235 
 4611      35323034 
 4612 0198 74657277 		.ascii	"terwork -mthumb -ggdb -O2 -fomit-frame-pointer -fal"
 4612      6F726B20 
 4612      2D6D7468 
 4612      756D6220 
 4612      2D676764 
 4613 01cb 69676E2D 		.ascii	"ign-functions=16 -ffunction-sections -fdata-section"
 4613      66756E63 
 4613      74696F6E 
 4613      733D3136 
 4613      202D6666 
 4614 01fe 73202D66 		.ascii	"s -fno-common\000"
 4614      6E6F2D63 
 4614      6F6D6D6F 
 4614      6E00
 4615              	.LASF157:
 4616 020c 5F736368 		.ascii	"_scheduler_init\000"
 4616      6564756C 
 4616      65725F69 
 4616      6E697400 
 4617              	.LASF1:
 4618 021c 6C6F6E67 		.ascii	"long long int\000"
 4618      206C6F6E 
 4618      6720696E 
 4618      7400
 4619              	.LASF3:
 4620 022a 7369676E 		.ascii	"signed char\000"
 4620      65642063 
 4620      68617200 
 4621              	.LASF100:
 4622 0236 73697A65 		.ascii	"size\000"
 4622      00
 4623              	.LASF70:
 4624 023b 726C6973 		.ascii	"rlist\000"
 4624      7400
 4625              	.LASF171:
 4626 0241 62617365 		.ascii	"basePri\000"
 4626      50726900 
 4627              	.LASF71:
 4628 0249 76746C69 		.ascii	"vtlist\000"
 4628      737400
 4629              	.LASF168:
 4630 0250 706F7274 		.ascii	"port_unlock\000"
 4630      5F756E6C 
 4630      6F636B00 
ARM GAS  /var/folders/vd/czx34qs52cd_f3nb04sxmghc0000gn/T//cc6c6qTE.s 			page 84


 4631              	.LASF41:
 4632 025c 6D736771 		.ascii	"msgqueue\000"
 4632      75657565 
 4632      00
 4633              	.LASF37:
 4634 0265 73746174 		.ascii	"state\000"
 4634      6500
 4635              	.LASF11:
 4636 026b 6C6F6E67 		.ascii	"long int\000"
 4636      20696E74 
 4636      00
 4637              	.LASF163:
 4638 0274 71756575 		.ascii	"queue_dequeue\000"
 4638      655F6465 
 4638      71756575 
 4638      6500
 4639              	.LASF23:
 4640 0282 74737461 		.ascii	"tstate_t\000"
 4640      74655F74 
 4640      00
 4641              	.LASF61:
 4642 028b 66756E63 		.ascii	"func\000"
 4642      00
 4643              	.LASF98:
 4644 0290 6964656E 		.ascii	"identifier\000"
 4644      74696669 
 4644      657200
 4645              	.LASF17:
 4646 029b 75696E74 		.ascii	"uint16_t\000"
 4646      31365F74 
 4646      00
 4647              	.LASF116:
 4648 02a4 63686465 		.ascii	"chdebug_t\000"
 4648      6275675F 
 4648      7400
 4649              	.LASF114:
 4650 02ae 6F66665F 		.ascii	"off_preempt\000"
 4650      70726565 
 4650      6D707400 
 4651              	.LASF149:
 4652 02ba 63685363 		.ascii	"chSchIsPreemptionRequired\000"
 4652      68497350 
 4652      7265656D 
 4652      7074696F 
 4652      6E526571 
 4653              	.LASF147:
 4654 02d4 63685363 		.ascii	"chSchRescheduleS\000"
 4654      68526573 
 4654      63686564 
 4654      756C6553 
 4654      00
 4655              	.LASF12:
 4656 02e5 5F5F7569 		.ascii	"__uint32_t\000"
 4656      6E743332 
 4656      5F7400
 4657              	.LASF79:
 4658 02f0 72656761 		.ascii	"regarm_t\000"
ARM GAS  /var/folders/vd/czx34qs52cd_f3nb04sxmghc0000gn/T//cc6c6qTE.s 			page 85


 4658      726D5F74 
 4658      00
 4659              	.LASF178:
 4660 02f9 63685363 		.ascii	"chSchDoReschedule\000"
 4660      68446F52 
 4660      65736368 
 4660      6564756C 
 4660      6500
 4661              	.LASF141:
 4662 030b 6D62785F 		.ascii	"mbx_list\000"
 4662      6C697374 
 4662      00
 4663              	.LASF66:
 4664 0314 63685F73 		.ascii	"ch_system_debug\000"
 4664      79737465 
 4664      6D5F6465 
 4664      62756700 
 4665              	.LASF40:
 4666 0324 77616974 		.ascii	"waiting\000"
 4666      696E6700 
 4667              	.LASF78:
 4668 032c 41504250 		.ascii	"APBPrescTable\000"
 4668      72657363 
 4668      5461626C 
 4668      6500
 4669              	.LASF99:
 4670 033a 7A65726F 		.ascii	"zero\000"
 4670      00
 4671              	.LASF119:
 4672 033f 6D757465 		.ascii	"mutex_t\000"
 4672      785F7400 
 4673              	.LASF128:
 4674 0347 616C6967 		.ascii	"align\000"
 4674      6E00
 4675              	.LASF74:
 4676 034d 73797369 		.ascii	"sysinterval_t\000"
 4676      6E746572 
 4676      76616C5F 
 4676      7400
 4677              	.LASF28:
 4678 035b 636E745F 		.ascii	"cnt_t\000"
 4678      7400
 4679              	.LASF0:
 4680 0361 756E7369 		.ascii	"unsigned int\000"
 4680      676E6564 
 4680      20696E74 
 4680      00
 4681              	.LASF158:
 4682 036e 77616B65 		.ascii	"wakeup\000"
 4682      757000
 4683              	.LASF76:
 4684 0375 53797374 		.ascii	"SystemCoreClock\000"
 4684      656D436F 
 4684      7265436C 
 4684      6F636B00 
 4685              	.LASF90:
 4686 0385 77747365 		.ascii	"wtsemp\000"
ARM GAS  /var/folders/vd/czx34qs52cd_f3nb04sxmghc0000gn/T//cc6c6qTE.s 			page 86


 4686      6D7000
 4687              	.LASF172:
 4688 038c 5F706F72 		.ascii	"_port_switch\000"
 4688      745F7377 
 4688      69746368 
 4688      00
 4689              	.LASF177:
 4690 0399 2F557365 		.ascii	"/Users/lantian/Projects/stm32f407vet6/dev\000"
 4690      72732F6C 
 4690      616E7469 
 4690      616E2F50 
 4690      726F6A65 
 4691              	.LASF88:
 4692 03c3 77747472 		.ascii	"wttrp\000"
 4692      7000
 4693              	.LASF117:
 4694 03c9 63685F64 		.ascii	"ch_debug\000"
 4694      65627567 
 4694      00
 4695              	.LASF144:
 4696 03d2 63685F66 		.ascii	"ch_factory\000"
 4696      6163746F 
 4696      727900
 4697              	.LASF152:
 4698 03dd 74696D65 		.ascii	"timeout\000"
 4698      6F757400 
 4699              	.LASF130:
 4700 03e5 6D656D6F 		.ascii	"memory_pool_t\000"
 4700      72795F70 
 4700      6F6F6C5F 
 4700      7400
 4701              	.LASF35:
 4702 03f3 6E616D65 		.ascii	"name\000"
 4702      00
 4703              	.LASF31:
 4704 03f8 71756575 		.ascii	"queue\000"
 4704      6500
 4705              	.LASF45:
 4706 03fe 6D706F6F 		.ascii	"mpool\000"
 4706      6C00
 4707              	.LASF176:
 4708 0404 2E2E2F6F 		.ascii	"../os/rt/src/chschd.c\000"
 4708      732F7274 
 4708      2F737263 
 4708      2F636873 
 4708      6368642E 
 4709              	.LASF113:
 4710 041a 6F66665F 		.ascii	"off_refs\000"
 4710      72656673 
 4710      00
 4711              	.LASF138:
 4712 0423 6275665F 		.ascii	"buf_list\000"
 4712      6C697374 
 4712      00
 4713              	.LASF48:
 4714 042c 63685F74 		.ascii	"ch_thread\000"
 4714      68726561 
ARM GAS  /var/folders/vd/czx34qs52cd_f3nb04sxmghc0000gn/T//cc6c6qTE.s 			page 87


 4714      6400
 4715              	.LASF26:
 4716 0436 6D73675F 		.ascii	"msg_t\000"
 4716      7400
 4717              	.LASF29:
 4718 043c 75636E74 		.ascii	"ucnt_t\000"
 4718      5F7400
 4719              	.LASF42:
 4720 0443 6570656E 		.ascii	"epending\000"
 4720      64696E67 
 4720      00
 4721              	.LASF134:
 4722 044c 64796E5F 		.ascii	"dyn_list_t\000"
 4722      6C697374 
 4722      5F7400
 4723              	.LASF68:
 4724 0457 63685F73 		.ascii	"ch_system_t\000"
 4724      79737465 
 4724      6D5F7400 
 4725              	.LASF106:
 4726 0463 6F66665F 		.ascii	"off_ctx\000"
 4726      63747800 
 4727              	.LASF87:
 4728 046b 77746F62 		.ascii	"wtobjp\000"
 4728      6A7000
 4729              	.LASF55:
 4730 0472 63685F72 		.ascii	"ch_ready_list\000"
 4730      65616479 
 4730      5F6C6973 
 4730      7400
 4731              	.LASF173:
 4732 0480 63685654 		.ascii	"chVTDoSetI\000"
 4732      446F5365 
 4732      744900
 4733              	.LASF77:
 4734 048b 41484250 		.ascii	"AHBPrescTable\000"
 4734      72657363 
 4734      5461626C 
 4734      6500
 4735              	.LASF123:
 4736 0499 656E646D 		.ascii	"endmem\000"
 4736      656D00
 4737              	.LASF80:
 4738 04a0 73746B61 		.ascii	"stkalign_t\000"
 4738      6C69676E 
 4738      5F7400
 4739              	.LASF33:
 4740 04ab 6E657765 		.ascii	"newer\000"
 4740      7200
 4741              	.LASF44:
 4742 04b1 7265616C 		.ascii	"realprio\000"
 4742      7072696F 
 4742      00
 4743              	.LASF101:
 4744 04ba 76657273 		.ascii	"version\000"
 4744      696F6E00 
 4745              	.LASF21:
ARM GAS  /var/folders/vd/czx34qs52cd_f3nb04sxmghc0000gn/T//cc6c6qTE.s 			page 88


 4746 04c2 7274636E 		.ascii	"rtcnt_t\000"
 4746      745F7400 
 4747              	.LASF46:
 4748 04ca 74687265 		.ascii	"thread_reference_t\000"
 4748      61645F72 
 4748      65666572 
 4748      656E6365 
 4748      5F7400
 4749              	.LASF63:
 4750 04dd 63685F76 		.ascii	"ch_virtual_timers_list\000"
 4750      69727475 
 4750      616C5F74 
 4750      696D6572 
 4750      735F6C69 
 4751              	.LASF2:
 4752 04f4 6C6F6E67 		.ascii	"long double\000"
 4752      20646F75 
 4752      626C6500 
 4753              	.LASF133:
 4754 0500 63685F64 		.ascii	"ch_dyn_list\000"
 4754      796E5F6C 
 4754      69737400 
 4755              	.LASF107:
 4756 050c 6F66665F 		.ascii	"off_newer\000"
 4756      6E657765 
 4756      7200
 4757              	.LASF81:
 4758 0516 706F7274 		.ascii	"port_context\000"
 4758      5F636F6E 
 4758      74657874 
 4758      00
 4759              	.LASF84:
 4760 0523 746D5F63 		.ascii	"tm_calibration_t\000"
 4760      616C6962 
 4760      72617469 
 4760      6F6E5F74 
 4760      00
 4761              	.LASF32:
 4762 0534 7072696F 		.ascii	"prio\000"
 4762      00
 4763              	.LASF140:
 4764 0539 73656D5F 		.ascii	"sem_pool\000"
 4764      706F6F6C 
 4764      00
 4765              	.LASF56:
 4766 0542 63757272 		.ascii	"current\000"
 4766      656E7400 
 4767              	.LASF14:
 4768 054a 5F5F7569 		.ascii	"__uint64_t\000"
 4768      6E743634 
 4768      5F7400
 4769              	.LASF124:
 4770 0555 6D656D63 		.ascii	"memcore_t\000"
 4770      6F72655F 
 4770      7400
 4771              	.LASF24:
 4772 055f 74726566 		.ascii	"trefs_t\000"
ARM GAS  /var/folders/vd/czx34qs52cd_f3nb04sxmghc0000gn/T//cc6c6qTE.s 			page 89


 4772      735F7400 
 4773              	.LASF39:
 4774 0567 72656673 		.ascii	"refs\000"
 4774      00
 4775              	.LASF58:
 4776 056c 76697274 		.ascii	"virtual_timer_t\000"
 4776      75616C5F 
 4776      74696D65 
 4776      725F7400 
 4777              	.LASF131:
 4778 057c 63685F64 		.ascii	"ch_dyn_element\000"
 4778      796E5F65 
 4778      6C656D65 
 4778      6E7400
 4779              	.LASF25:
 4780 058b 74707269 		.ascii	"tprio_t\000"
 4780      6F5F7400 
 4781              	.LASF160:
 4782 0593 63685379 		.ascii	"chSysUnlockFromISR\000"
 4782      73556E6C 
 4782      6F636B46 
 4782      726F6D49 
 4782      535200
 4783              	.LASF153:
 4784 05a6 63685363 		.ascii	"chSchGoSleepS\000"
 4784      68476F53 
 4784      6C656570 
 4784      5300
 4785              	.LASF104:
 4786 05b4 74687265 		.ascii	"threadsize\000"
 4786      61647369 
 4786      7A6500
 4787              	.LASF120:
 4788 05bf 5F426F6F 		.ascii	"_Bool\000"
 4788      6C00
 4789              	.LASF18:
 4790 05c5 696E7433 		.ascii	"int32_t\000"
 4790      325F7400 
 4791              	.LASF6:
 4792 05cd 756E7369 		.ascii	"unsigned char\000"
 4792      676E6564 
 4792      20636861 
 4792      7200
 4793              	.LASF105:
 4794 05db 6F66665F 		.ascii	"off_prio\000"
 4794      7072696F 
 4794      00
 4795              	.LASF110:
 4796 05e4 6F66665F 		.ascii	"off_stklimit\000"
 4796      73746B6C 
 4796      696D6974 
 4796      00
 4797              	.LASF151:
 4798 05f1 6E657773 		.ascii	"newstate\000"
 4798      74617465 
 4798      00
 4799              	.LASF7:
ARM GAS  /var/folders/vd/czx34qs52cd_f3nb04sxmghc0000gn/T//cc6c6qTE.s 			page 90


 4800 05fa 73686F72 		.ascii	"short int\000"
 4800      7420696E 
 4800      7400
 4801              	.LASF64:
 4802 0604 6C617374 		.ascii	"lasttime\000"
 4802      74696D65 
 4802      00
 4803              	.LASF159:
 4804 060d 63685365 		.ascii	"chSemFastSignalI\000"
 4804      6D466173 
 4804      74536967 
 4804      6E616C49 
 4804      00
 4805              	.LASF92:
 4806 061e 65776D61 		.ascii	"ewmask\000"
 4806      736B00
 4807              	.LASF69:
 4808 0625 63685F73 		.ascii	"ch_system\000"
 4808      79737465 
 4808      6D00
 4809              	.LASF22:
 4810 062f 746D6F64 		.ascii	"tmode_t\000"
 4810      655F7400 
 4811              	.LASF154:
 4812 0637 5F5F6675 		.ascii	"__func__\000"
 4812      6E635F5F 
 4812      00
 4813              	.LASF137:
 4814 0640 6F626A5F 		.ascii	"obj_pool\000"
 4814      706F6F6C 
 4814      00
 4815              	.LASF118:
 4816 0649 73656D61 		.ascii	"semaphore_t\000"
 4816      70686F72 
 4816      655F7400 
 4817              	.LASF59:
 4818 0655 63685F76 		.ascii	"ch_virtual_timer\000"
 4818      69727475 
 4818      616C5F74 
 4818      696D6572 
 4818      00
 4819              	.LASF93:
 4820 0666 63685F73 		.ascii	"ch_semaphore\000"
 4820      656D6170 
 4820      686F7265 
 4820      00
 4821              	.LASF115:
 4822 0673 6F66665F 		.ascii	"off_time\000"
 4822      74696D65 
 4822      00
 4823              	.LASF97:
 4824 067c 63685F69 		.ascii	"ch_idle_thread_wa\000"
 4824      646C655F 
 4824      74687265 
 4824      61645F77 
 4824      6100
 4825              	.LASF103:
ARM GAS  /var/folders/vd/czx34qs52cd_f3nb04sxmghc0000gn/T//cc6c6qTE.s 			page 91


 4826 068e 74696D65 		.ascii	"timesize\000"
 4826      73697A65 
 4826      00
 4827              	.LASF162:
 4828 0697 63685654 		.ascii	"chVTIsArmedI\000"
 4828      49734172 
 4828      6D656449 
 4828      00
 4829              	.LASF155:
 4830 06a4 63685363 		.ascii	"chSchReadyAheadI\000"
 4830      68526561 
 4830      64794168 
 4830      65616449 
 4830      00
 4831              	.LASF19:
 4832 06b5 75696E74 		.ascii	"uint32_t\000"
 4832      33325F74 
 4832      00
 4833              	.LASF91:
 4834 06be 77746D74 		.ascii	"wtmtxp\000"
 4834      787000
 4835              	.LASF156:
 4836 06c5 63685363 		.ascii	"chSchReadyI\000"
 4836      68526561 
 4836      64794900 
 4837              	.LASF49:
 4838 06d1 63685F74 		.ascii	"ch_threads_list\000"
 4838      68726561 
 4838      64735F6C 
 4838      69737400 
 4839              	.LASF95:
 4840 06e1 6F776E65 		.ascii	"owner\000"
 4840      7200
 4841              	.LASF13:
 4842 06e7 6C6F6E67 		.ascii	"long unsigned int\000"
 4842      20756E73 
 4842      69676E65 
 4842      6420696E 
 4842      7400
 4843              	.LASF36:
 4844 06f9 77616261 		.ascii	"wabase\000"
 4844      736500
 4845              	.LASF96:
 4846 0700 63686172 		.ascii	"char\000"
 4846      00
 4847              	.LASF34:
 4848 0705 6F6C6465 		.ascii	"older\000"
 4848      7200
 4849              	.LASF10:
 4850 070b 5F5F696E 		.ascii	"__int32_t\000"
 4850      7433325F 
 4850      7400
 4851              	.LASF136:
 4852 0715 6F626A5F 		.ascii	"obj_list\000"
 4852      6C697374 
 4852      00
 4853              	.LASF8:
ARM GAS  /var/folders/vd/czx34qs52cd_f3nb04sxmghc0000gn/T//cc6c6qTE.s 			page 92


 4854 071e 5F5F7569 		.ascii	"__uint16_t\000"
 4854      6E743136 
 4854      5F7400
 4855              	.LASF166:
 4856 0729 706F7274 		.ascii	"port_unlock_from_isr\000"
 4856      5F756E6C 
 4856      6F636B5F 
 4856      66726F6D 
 4856      5F697372 
 4857              	.LASF30:
 4858 073e 74687265 		.ascii	"thread_t\000"
 4858      61645F74 
 4858      00
 4859              	.LASF125:
 4860 0747 63685F6D 		.ascii	"ch_memcore\000"
 4860      656D636F 
 4860      726500
 4861              	.LASF164:
 4862 0752 71756575 		.ascii	"queue_fifo_remove\000"
 4862      655F6669 
 4862      666F5F72 
 4862      656D6F76 
 4862      6500
 4863              	.LASF73:
 4864 0764 73797374 		.ascii	"systime_t\000"
 4864      696D655F 
 4864      7400
 4865              	.LASF57:
 4866 076e 76746675 		.ascii	"vtfunc_t\000"
 4866      6E635F74 
 4866      00
 4867              	.LASF170:
 4868 0777 5F5F7365 		.ascii	"__set_BASEPRI\000"
 4868      745F4241 
 4868      53455052 
 4868      4900
 4869              	.LASF67:
 4870 0785 70616E69 		.ascii	"panic_msg\000"
 4870      635F6D73 
 4870      6700
 4871              	.LASF83:
 4872 078f 6F666673 		.ascii	"offset\000"
 4872      657400
 4873              	.LASF94:
 4874 0796 63685F6D 		.ascii	"ch_mutex\000"
 4874      75746578 
 4874      00
 4875              	.LASF108:
 4876 079f 6F66665F 		.ascii	"off_older\000"
 4876      6F6C6465 
 4876      7200
 4877              	.LASF9:
 4878 07a9 73686F72 		.ascii	"short unsigned int\000"
 4878      7420756E 
 4878      7369676E 
 4878      65642069 
 4878      6E7400
ARM GAS  /var/folders/vd/czx34qs52cd_f3nb04sxmghc0000gn/T//cc6c6qTE.s 			page 93


 4879              	.LASF167:
 4880 07bc 706F7274 		.ascii	"port_lock_from_isr\000"
 4880      5F6C6F63 
 4880      6B5F6672 
 4880      6F6D5F69 
 4880      737200
 4881              	.LASF148:
 4882 07cf 63685363 		.ascii	"chSchWakeupS\000"
 4882      6857616B 
 4882      65757053 
 4882      00
 4883              	.LASF127:
 4884 07dc 6F626A65 		.ascii	"object_size\000"
 4884      63745F73 
 4884      697A6500 
 4885              	.LASF102:
 4886 07e8 70747273 		.ascii	"ptrsize\000"
 4886      697A6500 
 4887              	.LASF135:
 4888 07f0 63685F6F 		.ascii	"ch_objects_factory\000"
 4888      626A6563 
 4888      74735F66 
 4888      6163746F 
 4888      727900
 4889              	.LASF51:
 4890 0803 74687265 		.ascii	"threads_queue_t\000"
 4890      6164735F 
 4890      71756575 
 4890      655F7400 
 4891              	.LASF126:
 4892 0813 706F6F6C 		.ascii	"pool_header\000"
 4892      5F686561 
 4892      64657200 
 4893              	.LASF109:
 4894 081f 6F66665F 		.ascii	"off_name\000"
 4894      6E616D65 
 4894      00
 4895              	.LASF16:
 4896 0828 75696E74 		.ascii	"uint8_t\000"
 4896      385F7400 
 4897              	.LASF38:
 4898 0830 666C6167 		.ascii	"flags\000"
 4898      7300
 4899              	.LASF142:
 4900 0836 6669666F 		.ascii	"fifo_list\000"
 4900      5F6C6973 
 4900      7400
 4901              	.LASF161:
 4902 0840 63685379 		.ascii	"chSysLockFromISR\000"
 4902      734C6F63 
 4902      6B46726F 
 4902      6D495352 
 4902      00
 4903              	.LASF47:
 4904 0851 74687265 		.ascii	"threads_list_t\000"
 4904      6164735F 
 4904      6C697374 
ARM GAS  /var/folders/vd/czx34qs52cd_f3nb04sxmghc0000gn/T//cc6c6qTE.s 			page 94


 4904      5F7400
 4905              	.LASF111:
 4906 0860 6F66665F 		.ascii	"off_state\000"
 4906      73746174 
 4906      6500
 4907              	.LASF150:
 4908 086a 63685363 		.ascii	"chSchGoSleepTimeoutS\000"
 4908      68476F53 
 4908      6C656570 
 4908      54696D65 
 4908      6F757453 
 4909              	.LASF179:
 4910 087f 63685363 		.ascii	"chSchIsRescRequiredI\000"
 4910      68497352 
 4910      65736352 
 4910      65717569 
 4910      72656449 
 4911              	.LASF146:
 4912 0894 63685363 		.ascii	"chSchDoRescheduleBehind\000"
 4912      68446F52 
 4912      65736368 
 4912      6564756C 
 4912      65426568 
 4913              	.LASF143:
 4914 08ac 6F626A65 		.ascii	"objects_factory_t\000"
 4914      6374735F 
 4914      66616374 
 4914      6F72795F 
 4914      7400
 4915              	.LASF112:
 4916 08be 6F66665F 		.ascii	"off_flags\000"
 4916      666C6167 
 4916      7300
 4917              	.LASF43:
 4918 08c8 6D74786C 		.ascii	"mtxlist\000"
 4918      69737400 
 4919              	.LASF122:
 4920 08d0 6E657874 		.ascii	"nextmem\000"
 4920      6D656D00 
 4921              		.ident	"GCC: (GNU Tools for Arm Embedded Processors 7-2017-q4-major) 7.2.1 20170904 (release) [ARM
ARM GAS  /var/folders/vd/czx34qs52cd_f3nb04sxmghc0000gn/T//cc6c6qTE.s 			page 95


DEFINED SYMBOLS
                            *ABS*:0000000000000000 chschd.c
/var/folders/vd/czx34qs52cd_f3nb04sxmghc0000gn/T//cc6c6qTE.s:16     .text.wakeup:0000000000000000 $t
/var/folders/vd/czx34qs52cd_f3nb04sxmghc0000gn/T//cc6c6qTE.s:23     .text.wakeup:0000000000000000 wakeup
/var/folders/vd/czx34qs52cd_f3nb04sxmghc0000gn/T//cc6c6qTE.s:58     .text.wakeup:0000000000000012 $d
/var/folders/vd/czx34qs52cd_f3nb04sxmghc0000gn/T//cc6c6qTE.s:66     .text.wakeup:000000000000001a $t
/var/folders/vd/czx34qs52cd_f3nb04sxmghc0000gn/T//cc6c6qTE.s:221    .text.wakeup:000000000000006c $d
/var/folders/vd/czx34qs52cd_f3nb04sxmghc0000gn/T//cc6c6qTE.s:231    .text._scheduler_init:0000000000000000 $t
/var/folders/vd/czx34qs52cd_f3nb04sxmghc0000gn/T//cc6c6qTE.s:239    .text._scheduler_init:0000000000000000 _scheduler_init
/var/folders/vd/czx34qs52cd_f3nb04sxmghc0000gn/T//cc6c6qTE.s:271    .text._scheduler_init:0000000000000010 $d
/var/folders/vd/czx34qs52cd_f3nb04sxmghc0000gn/T//cc6c6qTE.s:276    .text.chSchReadyI:0000000000000000 $t
/var/folders/vd/czx34qs52cd_f3nb04sxmghc0000gn/T//cc6c6qTE.s:284    .text.chSchReadyI:0000000000000000 chSchReadyI
/var/folders/vd/czx34qs52cd_f3nb04sxmghc0000gn/T//cc6c6qTE.s:327    .text.chSchReadyI:0000000000000024 $d
/var/folders/vd/czx34qs52cd_f3nb04sxmghc0000gn/T//cc6c6qTE.s:332    .text.chSchReadyAheadI:0000000000000000 $t
/var/folders/vd/czx34qs52cd_f3nb04sxmghc0000gn/T//cc6c6qTE.s:340    .text.chSchReadyAheadI:0000000000000000 chSchReadyAheadI
/var/folders/vd/czx34qs52cd_f3nb04sxmghc0000gn/T//cc6c6qTE.s:383    .text.chSchReadyAheadI:0000000000000024 $d
/var/folders/vd/czx34qs52cd_f3nb04sxmghc0000gn/T//cc6c6qTE.s:388    .text.chSchGoSleepS:0000000000000000 $t
/var/folders/vd/czx34qs52cd_f3nb04sxmghc0000gn/T//cc6c6qTE.s:396    .text.chSchGoSleepS:0000000000000000 chSchGoSleepS
/var/folders/vd/czx34qs52cd_f3nb04sxmghc0000gn/T//cc6c6qTE.s:454    .text.chSchGoSleepS:0000000000000024 $d
/var/folders/vd/czx34qs52cd_f3nb04sxmghc0000gn/T//cc6c6qTE.s:459    .text.chSchGoSleepTimeoutS:0000000000000000 $t
/var/folders/vd/czx34qs52cd_f3nb04sxmghc0000gn/T//cc6c6qTE.s:467    .text.chSchGoSleepTimeoutS:0000000000000000 chSchGoSleepTimeoutS
/var/folders/vd/czx34qs52cd_f3nb04sxmghc0000gn/T//cc6c6qTE.s:537    .text.chSchGoSleepTimeoutS:000000000000003c $d
/var/folders/vd/czx34qs52cd_f3nb04sxmghc0000gn/T//cc6c6qTE.s:543    .text.chSchWakeupS:0000000000000000 $t
/var/folders/vd/czx34qs52cd_f3nb04sxmghc0000gn/T//cc6c6qTE.s:551    .text.chSchWakeupS:0000000000000000 chSchWakeupS
/var/folders/vd/czx34qs52cd_f3nb04sxmghc0000gn/T//cc6c6qTE.s:678    .text.chSchWakeupS:000000000000005c $d
/var/folders/vd/czx34qs52cd_f3nb04sxmghc0000gn/T//cc6c6qTE.s:683    .text.chSchIsPreemptionRequired:0000000000000000 $t
/var/folders/vd/czx34qs52cd_f3nb04sxmghc0000gn/T//cc6c6qTE.s:691    .text.chSchIsPreemptionRequired:0000000000000000 chSchIsPreemptionRequired
/var/folders/vd/czx34qs52cd_f3nb04sxmghc0000gn/T//cc6c6qTE.s:716    .text.chSchIsPreemptionRequired:0000000000000014 $d
/var/folders/vd/czx34qs52cd_f3nb04sxmghc0000gn/T//cc6c6qTE.s:721    .text.chSchDoRescheduleBehind:0000000000000000 $t
/var/folders/vd/czx34qs52cd_f3nb04sxmghc0000gn/T//cc6c6qTE.s:729    .text.chSchDoRescheduleBehind:0000000000000000 chSchDoRescheduleBehind
/var/folders/vd/czx34qs52cd_f3nb04sxmghc0000gn/T//cc6c6qTE.s:822    .text.chSchDoRescheduleBehind:0000000000000038 $d
/var/folders/vd/czx34qs52cd_f3nb04sxmghc0000gn/T//cc6c6qTE.s:827    .text.chSchDoRescheduleAhead:0000000000000000 $t
/var/folders/vd/czx34qs52cd_f3nb04sxmghc0000gn/T//cc6c6qTE.s:835    .text.chSchDoRescheduleAhead:0000000000000000 chSchDoRescheduleAhead
/var/folders/vd/czx34qs52cd_f3nb04sxmghc0000gn/T//cc6c6qTE.s:928    .text.chSchDoRescheduleAhead:0000000000000038 $d
/var/folders/vd/czx34qs52cd_f3nb04sxmghc0000gn/T//cc6c6qTE.s:933    .text.chSchRescheduleS:0000000000000000 $t
/var/folders/vd/czx34qs52cd_f3nb04sxmghc0000gn/T//cc6c6qTE.s:941    .text.chSchRescheduleS:0000000000000000 chSchRescheduleS
/var/folders/vd/czx34qs52cd_f3nb04sxmghc0000gn/T//cc6c6qTE.s:970    .text.chSchRescheduleS:0000000000000014 $d
/var/folders/vd/czx34qs52cd_f3nb04sxmghc0000gn/T//cc6c6qTE.s:975    .text.chSchDoReschedule:0000000000000000 $t
/var/folders/vd/czx34qs52cd_f3nb04sxmghc0000gn/T//cc6c6qTE.s:983    .text.chSchDoReschedule:0000000000000000 chSchDoReschedule
/var/folders/vd/czx34qs52cd_f3nb04sxmghc0000gn/T//cc6c6qTE.s:999    .bss.ch:0000000000000000 ch
/var/folders/vd/czx34qs52cd_f3nb04sxmghc0000gn/T//cc6c6qTE.s:995    .bss.ch:0000000000000000 $d

UNDEFINED SYMBOLS
_port_switch
chVTDoSetI
chVTDoResetI
