ARM GAS  /var/folders/vd/czx34qs52cd_f3nb04sxmghc0000gn/T//cclY2Ho9.s 			page 1


   1              		.cpu cortex-m4
   2              		.eabi_attribute 20, 1
   3              		.eabi_attribute 21, 1
   4              		.eabi_attribute 23, 3
   5              		.eabi_attribute 24, 1
   6              		.eabi_attribute 25, 1
   7              		.eabi_attribute 26, 1
   8              		.eabi_attribute 30, 2
   9              		.eabi_attribute 34, 1
  10              		.eabi_attribute 18, 4
  11              		.file	"chsys.c"
  12              		.text
  13              	.Ltext0:
  14              		.cfi_sections	.debug_frame
  15              		.section	.text._idle_thread,"ax",%progbits
  16              		.align	1
  17              		.p2align 4,,15
  18              		.syntax unified
  19              		.thumb
  20              		.thumb_func
  21              		.fpu softvfp
  22              		.type	_idle_thread, %function
  23              	_idle_thread:
  24              	.LFB280:
  25              		.file 1 "../os/rt/src/chsys.c"
  26              		.loc 1 72 0
  27              		.cfi_startproc
  28              		@ Volatile: function does not return.
  29              		@ args = 0, pretend = 0, frame = 0
  30              		@ frame_needed = 0, uses_anonymous_args = 0
  31              		@ link register save eliminated.
  32              	.LVL0:
  33              	.L2:
  34 0000 FEE7     		b	.L2
  35              		.cfi_endproc
  36              	.LFE280:
  37              		.size	_idle_thread, .-_idle_thread
  38 0002 00BF     		.section	.text.chSysInit,"ax",%progbits
  39              		.align	1
  40              		.p2align 4,,15
  41              		.global	chSysInit
  42              		.syntax unified
  43              		.thumb
  44              		.thumb_func
  45              		.fpu softvfp
  46              		.type	chSysInit, %function
  47              	chSysInit:
  48              	.LFB281:
  49              		.loc 1 100 0
  50              		.cfi_startproc
  51              		@ args = 0, pretend = 0, frame = 0
  52              		@ frame_needed = 0, uses_anonymous_args = 0
  53              		.loc 1 100 0
  54 0000 70B5     		push	{r4, r5, r6, lr}
  55              		.cfi_def_cfa_offset 16
  56              		.cfi_offset 4, -16
  57              		.cfi_offset 5, -12
ARM GAS  /var/folders/vd/czx34qs52cd_f3nb04sxmghc0000gn/T//cclY2Ho9.s 			page 2


  58              		.cfi_offset 6, -8
  59              		.cfi_offset 14, -4
  60              		.loc 1 129 0
  61 0002 1C4C     		ldr	r4, .L6
  62              	.LBB156:
  63              	.LBB157:
  64              		.file 2 "../os/common/ports/ARMCMx/chcore_v7m.h"
  65              		.loc 2 512 0
  66 0004 1C4E     		ldr	r6, .L6+4
  67              		.loc 2 516 0
  68 0006 1D4D     		ldr	r5, .L6+8
  69              	.LBE157:
  70              	.LBE156:
  71              		.loc 1 102 0
  72 0008 FFF7FEFF 		bl	_scheduler_init
  73              	.LVL1:
  74              		.loc 1 103 0
  75 000c FFF7FEFF 		bl	_vt_init
  76              	.LVL2:
  77              		.loc 1 111 0
  78 0010 FFF7FEFF 		bl	_tm_init
  79              	.LVL3:
  80              		.loc 1 114 0
  81 0014 FFF7FEFF 		bl	_core_init
  82              	.LVL4:
  83              		.loc 1 117 0
  84 0018 FFF7FEFF 		bl	_heap_init
  85              	.LVL5:
  86              		.loc 1 120 0
  87 001c FFF7FEFF 		bl	_factory_init
  88              	.LVL6:
  89              		.loc 1 129 0
  90 0020 2046     		mov	r0, r4
  91 0022 8022     		movs	r2, #128
  92 0024 1649     		ldr	r1, .L6+12
  93 0026 FFF7FEFF 		bl	_thread_init
  94              	.LVL7:
  95              	.LBB175:
  96              	.LBB172:
  97              	.LBB158:
  98              	.LBB159:
  99              		.file 3 "../os/common/ext/ARM/CMSIS/Core/Include/core_cm4.h"
 100              		.loc 3 1646 0
 101 002a 164B     		ldr	r3, .L6+16
 102              	.LBE159:
 103              	.LBE158:
 104              	.LBE172:
 105              	.LBE175:
 106              		.loc 1 150 0
 107 002c 0122     		movs	r2, #1
 108 002e 80F82020 		strb	r2, [r0, #32]
 109              	.LVL8:
 110              	.LBB176:
 111              	.LBB173:
 112              	.LBB162:
 113              	.LBB160:
 114              		.loc 3 1646 0
ARM GAS  /var/folders/vd/czx34qs52cd_f3nb04sxmghc0000gn/T//cclY2Ho9.s 			page 3


 115 0032 D968     		ldr	r1, [r3, #12]
 116              	.LVL9:
 117              	.LBE160:
 118              	.LBE162:
 119              	.LBE173:
 120              	.LBE176:
 121              		.loc 1 129 0
 122 0034 44F8180C 		str	r0, [r4, #-24]
 123              		.loc 1 146 0
 124 0038 0024     		movs	r4, #0
 125 003a C461     		str	r4, [r0, #28]
 126              	.LBB177:
 127              	.LBB174:
 128              	.LBB163:
 129              	.LBB161:
 130              		.loc 3 1648 0
 131 003c 124A     		ldr	r2, .L6+20
 132              		.loc 3 1647 0
 133 003e 4FF6FF00 		movw	r0, #63743
 134 0042 0140     		ands	r1, r1, r0
 135              	.LVL10:
 136              		.loc 3 1648 0
 137 0044 0A43     		orrs	r2, r2, r1
 138              	.LVL11:
 139              		.loc 3 1651 0
 140 0046 DA60     		str	r2, [r3, #12]
 141              	.LVL12:
 142              	.LBE161:
 143              	.LBE163:
 144              		.loc 2 512 0
 145 0048 F268     		ldr	r2, [r6, #12]
 146 004a 42F08072 		orr	r2, r2, #16777216
 147 004e F260     		str	r2, [r6, #12]
 148              		.loc 2 516 0
 149 0050 2A68     		ldr	r2, [r5]
 150              	.LBB164:
 151              	.LBB165:
 152              		.loc 3 1808 0
 153 0052 1020     		movs	r0, #16
 154              	.LBE165:
 155              	.LBE164:
 156              		.loc 2 516 0
 157 0054 42F00102 		orr	r2, r2, #1
 158              	.LBB167:
 159              	.LBB168:
 160              		.loc 3 1808 0
 161 0058 2021     		movs	r1, #32
 162              	.LBE168:
 163              	.LBE167:
 164              		.loc 2 516 0
 165 005a 2A60     		str	r2, [r5]
 166              	.LVL13:
 167              	.LBB170:
 168              	.LBB166:
 169              		.loc 3 1808 0
 170 005c D877     		strb	r0, [r3, #31]
 171              	.LVL14:
ARM GAS  /var/folders/vd/czx34qs52cd_f3nb04sxmghc0000gn/T//cclY2Ho9.s 			page 4


 172              	.LBE166:
 173              	.LBE170:
 174              	.LBB171:
 175              	.LBB169:
 176 005e 83F82210 		strb	r1, [r3, #34]
 177              	.LVL15:
 178              	.LBE169:
 179              	.LBE171:
 180              	.LBE174:
 181              	.LBE177:
 182              	.LBB178:
 183              	.LBB179:
 184              	.LBB180:
 185              	.LBB181:
 186              		.file 4 "../os/common/ext/ARM/CMSIS/Core/Include/cmsis_gcc.h"
 187              		.loc 4 490 0
 188              		.syntax unified
 189              	@ 490 "../os/common/ext/ARM/CMSIS/Core/Include/cmsis_gcc.h" 1
 190 0062 84F31188 		MSR basepri, r4
 191              	@ 0 "" 2
 192              	.LVL16:
 193              		.thumb
 194              		.syntax unified
 195              	.LBE181:
 196              	.LBE180:
 197              	.LBB182:
 198              	.LBB183:
 199              		.loc 4 128 0
 200              		.syntax unified
 201              	@ 128 "../os/common/ext/ARM/CMSIS/Core/Include/cmsis_gcc.h" 1
 202 0066 62B6     		cpsie i
 203              	@ 0 "" 2
 204              		.thumb
 205              		.syntax unified
 206              	.LBE183:
 207              	.LBE182:
 208              	.LBE179:
 209              	.LBE178:
 210              	.LBB184:
 211              		.loc 1 181 0
 212 0068 0848     		ldr	r0, .L6+24
 213              	.LBE184:
 214              		.loc 1 184 0
 215 006a BDE87040 		pop	{r4, r5, r6, lr}
 216              		.cfi_restore 14
 217              		.cfi_restore 6
 218              		.cfi_restore 5
 219              		.cfi_restore 4
 220              		.cfi_def_cfa_offset 0
 221              	.LBB185:
 222              		.loc 1 181 0
 223 006e FFF7FEBF 		b	chThdCreate
 224              	.LVL17:
 225              	.L7:
 226 0072 00BF     		.align	2
 227              	.L6:
 228 0074 30000000 		.word	ch+48
ARM GAS  /var/folders/vd/czx34qs52cd_f3nb04sxmghc0000gn/T//cclY2Ho9.s 			page 5


 229 0078 F0ED00E0 		.word	-536810000
 230 007c 001000E0 		.word	-536866816
 231 0080 00000000 		.word	ch_debug
 232 0084 00ED00E0 		.word	-536810240
 233 0088 0003FA05 		.word	100270848
 234 008c 00000000 		.word	.LANCHOR0
 235              	.LBE185:
 236              		.cfi_endproc
 237              	.LFE281:
 238              		.size	chSysInit, .-chSysInit
 239              		.section	.text.chSysHalt,"ax",%progbits
 240              		.align	1
 241              		.p2align 4,,15
 242              		.global	chSysHalt
 243              		.syntax unified
 244              		.thumb
 245              		.thumb_func
 246              		.fpu softvfp
 247              		.type	chSysHalt, %function
 248              	chSysHalt:
 249              	.LFB282:
 250              		.loc 1 198 0
 251              		.cfi_startproc
 252              		@ Volatile: function does not return.
 253              		@ args = 0, pretend = 0, frame = 0
 254              		@ frame_needed = 0, uses_anonymous_args = 0
 255              		@ link register save eliminated.
 256              	.LVL18:
 257              	.LBB186:
 258              	.LBB187:
 259              	.LBB188:
 260              		.loc 4 139 0
 261              		.syntax unified
 262              	@ 139 "../os/common/ext/ARM/CMSIS/Core/Include/cmsis_gcc.h" 1
 263 0000 72B6     		cpsid i
 264              	@ 0 "" 2
 265              		.thumb
 266              		.syntax unified
 267              	.LBE188:
 268              	.LBE187:
 269              	.LBE186:
 270              		.loc 1 206 0
 271 0002 014B     		ldr	r3, .L10
 272 0004 D862     		str	r0, [r3, #44]
 273              	.L9:
 274 0006 FEE7     		b	.L9
 275              	.L11:
 276              		.align	2
 277              	.L10:
 278 0008 00000000 		.word	ch
 279              		.cfi_endproc
 280              	.LFE282:
 281              		.size	chSysHalt, .-chSysHalt
 282              		.section	.text.chSysIntegrityCheckI,"ax",%progbits
 283              		.align	1
 284              		.p2align 4,,15
 285              		.global	chSysIntegrityCheckI
ARM GAS  /var/folders/vd/czx34qs52cd_f3nb04sxmghc0000gn/T//cclY2Ho9.s 			page 6


 286              		.syntax unified
 287              		.thumb
 288              		.thumb_func
 289              		.fpu softvfp
 290              		.type	chSysIntegrityCheckI, %function
 291              	chSysIntegrityCheckI:
 292              	.LFB283:
 293              		.loc 1 240 0
 294              		.cfi_startproc
 295              		@ args = 0, pretend = 0, frame = 0
 296              		@ frame_needed = 0, uses_anonymous_args = 0
 297              		@ link register save eliminated.
 298              	.LVL19:
 299              		.loc 1 246 0
 300 0000 C207     		lsls	r2, r0, #31
 301              		.loc 1 240 0
 302 0002 10B4     		push	{r4}
 303              		.cfi_def_cfa_offset 4
 304              		.cfi_offset 4, -4
 305              		.loc 1 246 0
 306 0004 12D5     		bpl	.L13
 307              	.LVL20:
 308              	.LBB189:
 309              		.loc 1 251 0
 310 0006 294B     		ldr	r3, .L56
 311 0008 D3E90014 		ldrd	r1, r4, [r3]
 312              		.loc 1 252 0
 313 000c 9942     		cmp	r1, r3
 314 000e 41D0     		beq	.L14
 315              		.loc 1 250 0
 316 0010 0022     		movs	r2, #0
 317              	.LVL21:
 318              	.L15:
 319              		.loc 1 254 0
 320 0012 0968     		ldr	r1, [r1]
 321              	.LVL22:
 322              		.loc 1 252 0
 323 0014 9942     		cmp	r1, r3
 324              		.loc 1 253 0
 325 0016 02F10102 		add	r2, r2, #1
 326              	.LVL23:
 327              		.loc 1 252 0
 328 001a FAD1     		bne	.L15
 329              	.LVL24:
 330              		.loc 1 259 0
 331 001c 8C42     		cmp	r4, r1
 332 001e 36D0     		beq	.L39
 333              	.LVL25:
 334              	.L19:
 335              		.loc 1 261 0
 336 0020 6468     		ldr	r4, [r4, #4]
 337              	.LVL26:
 338              		.loc 1 259 0
 339 0022 9C42     		cmp	r4, r3
 340              		.loc 1 260 0
 341 0024 02F1FF32 		add	r2, r2, #-1
 342              	.LVL27:
ARM GAS  /var/folders/vd/czx34qs52cd_f3nb04sxmghc0000gn/T//cclY2Ho9.s 			page 7


 343              		.loc 1 259 0
 344 0028 FAD1     		bne	.L19
 345              		.loc 1 265 0
 346 002a 82BB     		cbnz	r2, .L39
 347              	.LVL28:
 348              	.L13:
 349              	.LBE189:
 350              		.loc 1 271 0
 351 002c 8307     		lsls	r3, r0, #30
 352 002e 13D5     		bpl	.L20
 353              	.LVL29:
 354              	.LBB190:
 355              		.loc 1 276 0
 356 0030 1E4C     		ldr	r4, .L56
 357 0032 D4E90721 		ldrd	r2, r1, [r4, #28]
 358              		.loc 1 277 0
 359 0036 1C34     		adds	r4, r4, #28
 360 0038 A242     		cmp	r2, r4
 361 003a 2FD0     		beq	.L21
 362              		.loc 1 275 0
 363 003c 0023     		movs	r3, #0
 364              	.LVL30:
 365              	.L22:
 366              		.loc 1 279 0
 367 003e 1268     		ldr	r2, [r2]
 368              	.LVL31:
 369              		.loc 1 277 0
 370 0040 A242     		cmp	r2, r4
 371              		.loc 1 278 0
 372 0042 03F10103 		add	r3, r3, #1
 373              	.LVL32:
 374              		.loc 1 277 0
 375 0046 FAD1     		bne	.L22
 376              	.LVL33:
 377              		.loc 1 284 0
 378 0048 9142     		cmp	r1, r2
 379 004a 20D0     		beq	.L39
 380              	.LVL34:
 381              	.L25:
 382              		.loc 1 286 0
 383 004c 4968     		ldr	r1, [r1, #4]
 384              	.LVL35:
 385              		.loc 1 284 0
 386 004e A142     		cmp	r1, r4
 387              		.loc 1 285 0
 388 0050 03F1FF33 		add	r3, r3, #-1
 389              	.LVL36:
 390              		.loc 1 284 0
 391 0054 FAD1     		bne	.L25
 392              		.loc 1 290 0
 393 0056 D3B9     		cbnz	r3, .L39
 394              	.LVL37:
 395              	.L20:
 396              	.LBE190:
 397              		.loc 1 296 0
 398 0058 10F00400 		ands	r0, r0, #4
 399              	.LVL38:
ARM GAS  /var/folders/vd/czx34qs52cd_f3nb04sxmghc0000gn/T//cclY2Ho9.s 			page 8


 400 005c 15D0     		beq	.L18
 401              	.LVL39:
 402              	.LBB191:
 403              		.loc 1 301 0
 404 005e 134B     		ldr	r3, .L56
 405 0060 D3E90421 		ldrd	r2, r1, [r3, #16]
 406              		.loc 1 302 0
 407 0064 9A42     		cmp	r2, r3
 408              		.loc 1 300 0
 409 0066 4FF00000 		mov	r0, #0
 410              		.loc 1 302 0
 411 006a 1BD0     		beq	.L26
 412              	.LVL40:
 413              	.L27:
 414              		.loc 1 304 0
 415 006c 1269     		ldr	r2, [r2, #16]
 416              	.LVL41:
 417              		.loc 1 302 0
 418 006e 9A42     		cmp	r2, r3
 419              		.loc 1 303 0
 420 0070 00F10100 		add	r0, r0, #1
 421              	.LVL42:
 422              		.loc 1 302 0
 423 0074 FAD1     		bne	.L27
 424              	.LVL43:
 425              		.loc 1 309 0
 426 0076 9142     		cmp	r1, r2
 427 0078 09D0     		beq	.L39
 428              	.LVL44:
 429              	.L30:
 430              		.loc 1 311 0
 431 007a 4969     		ldr	r1, [r1, #20]
 432              	.LVL45:
 433              		.loc 1 309 0
 434 007c 9942     		cmp	r1, r3
 435              		.loc 1 310 0
 436 007e 00F1FF30 		add	r0, r0, #-1
 437              	.LVL46:
 438              		.loc 1 309 0
 439 0082 FAD1     		bne	.L30
 440              		.loc 1 315 0
 441 0084 0030     		adds	r0, r0, #0
 442 0086 18BF     		it	ne
 443 0088 0120     		movne	r0, #1
 444              	.LVL47:
 445              	.L18:
 446              	.LBE191:
 447              		.loc 1 328 0
 448 008a 10BC     		pop	{r4}
 449              		.cfi_remember_state
 450              		.cfi_restore 4
 451              		.cfi_def_cfa_offset 0
 452 008c 7047     		bx	lr
 453              	.L39:
 454              		.cfi_restore_state
 455              	.LBB192:
 456              		.loc 1 266 0
ARM GAS  /var/folders/vd/czx34qs52cd_f3nb04sxmghc0000gn/T//cclY2Ho9.s 			page 9


 457 008e 0120     		movs	r0, #1
 458              	.LBE192:
 459              		.loc 1 328 0
 460 0090 10BC     		pop	{r4}
 461              		.cfi_remember_state
 462              		.cfi_restore 4
 463              		.cfi_def_cfa_offset 0
 464 0092 7047     		bx	lr
 465              	.LVL48:
 466              	.L14:
 467              		.cfi_restore_state
 468              	.LBB193:
 469              		.loc 1 259 0
 470 0094 9C42     		cmp	r4, r3
 471 0096 C9D0     		beq	.L13
 472              		.loc 1 250 0
 473 0098 0022     		movs	r2, #0
 474 009a C1E7     		b	.L19
 475              	.LVL49:
 476              	.L21:
 477              	.LBE193:
 478              	.LBB194:
 479              		.loc 1 284 0
 480 009c A142     		cmp	r1, r4
 481 009e DBD0     		beq	.L20
 482              		.loc 1 275 0
 483 00a0 0023     		movs	r3, #0
 484 00a2 D3E7     		b	.L25
 485              	.LVL50:
 486              	.L26:
 487              	.LBE194:
 488              	.LBB195:
 489              		.loc 1 309 0
 490 00a4 9142     		cmp	r1, r2
 491 00a6 E8D1     		bne	.L30
 492 00a8 EFE7     		b	.L18
 493              	.L57:
 494 00aa 00BF     		.align	2
 495              	.L56:
 496 00ac 00000000 		.word	ch
 497              	.LBE195:
 498              		.cfi_endproc
 499              	.LFE283:
 500              		.size	chSysIntegrityCheckI, .-chSysIntegrityCheckI
 501              		.section	.text.chSysTimerHandlerI,"ax",%progbits
 502              		.align	1
 503              		.p2align 4,,15
 504              		.global	chSysTimerHandlerI
 505              		.syntax unified
 506              		.thumb
 507              		.thumb_func
 508              		.fpu softvfp
 509              		.type	chSysTimerHandlerI, %function
 510              	chSysTimerHandlerI:
 511              	.LFB284:
 512              		.loc 1 341 0
 513              		.cfi_startproc
ARM GAS  /var/folders/vd/czx34qs52cd_f3nb04sxmghc0000gn/T//cclY2Ho9.s 			page 10


 514              		@ args = 0, pretend = 0, frame = 0
 515              		@ frame_needed = 0, uses_anonymous_args = 0
 516 0000 2DE9F84F 		push	{r3, r4, r5, r6, r7, r8, r9, r10, fp, lr}
 517              		.cfi_def_cfa_offset 40
 518              		.cfi_offset 3, -40
 519              		.cfi_offset 4, -36
 520              		.cfi_offset 5, -32
 521              		.cfi_offset 6, -28
 522              		.cfi_offset 7, -24
 523              		.cfi_offset 8, -20
 524              		.cfi_offset 9, -16
 525              		.cfi_offset 10, -12
 526              		.cfi_offset 11, -8
 527              		.cfi_offset 14, -4
 528              	.LBB221:
 529              	.LBB222:
 530              		.file 5 "../os/rt/include/chvt.h"
 531              		.loc 5 399 0
 532 0004 DFF88890 		ldr	r9, .L66
 533 0008 4D46     		mov	r5, r9
 534              	.LBB223:
 535              	.LBB224:
 536              	.LBB225:
 537              	.LBB226:
 538              		.file 6 "../os/hal/ports/STM32/LLD/TIMv1/hal_st_lld.h"
 539              		.loc 6 141 0
 540 000a 4FF08048 		mov	r8, #1073741824
 541              	.LBE226:
 542              	.LBE225:
 543              	.LBE224:
 544              	.LBE223:
 545              		.loc 5 399 0
 546 000e 55F81C4F 		ldr	r4, [r5, #28]!
 547              	.LVL51:
 548 0012 A368     		ldr	r3, [r4, #8]
 549              	.LBB230:
 550              		.loc 5 424 0
 551 0014 0026     		movs	r6, #0
 552              	.L61:
 553              	.LBE230:
 554              	.LBB248:
 555              	.LBB229:
 556              	.LBB228:
 557              	.LBB227:
 558              		.loc 6 141 0
 559 0016 D8F82410 		ldr	r1, [r8, #36]
 560              	.LBE227:
 561              	.LBE228:
 562              	.LBE229:
 563              	.LBE248:
 564              		.loc 5 404 0
 565 001a D9F82820 		ldr	r2, [r9, #40]
 566              	.LVL52:
 567              	.LBB249:
 568              	.LBB250:
 569              		.file 7 "../os/rt/include/chtime.h"
 570              		.loc 7 495 0
ARM GAS  /var/folders/vd/czx34qs52cd_f3nb04sxmghc0000gn/T//cclY2Ho9.s 			page 11


 571 001e A1EB020A 		sub	r10, r1, r2
 572              	.LVL53:
 573              	.LBE250:
 574              	.LBE249:
 575              		.loc 5 409 0
 576 0022 9A45     		cmp	r10, r3
 577 0024 1FD3     		bcc	.L59
 578              	.LBB251:
 579              	.LBB231:
 580              	.LBB232:
 581              	.LBB233:
 582              	.LBB234:
 583              	.LBB235:
 584              		.loc 4 490 0
 585 0026 2027     		movs	r7, #32
 586 0028 0CE0     		b	.L62
 587              	.LVL54:
 588              	.L60:
 589              	.LBE235:
 590              	.LBE234:
 591              	.LBE233:
 592              	.LBE232:
 593              	.LBE231:
 594              	.LBB240:
 595              	.LBB241:
 596              	.LBB242:
 597              	.LBB243:
 598              	.LBB244:
 599              		.syntax unified
 600              	@ 490 "../os/common/ext/ARM/CMSIS/Core/Include/cmsis_gcc.h" 1
 601 002a 86F31188 		MSR basepri, r6
 602              	@ 0 "" 2
 603              	.LVL55:
 604              		.thumb
 605              		.syntax unified
 606              	.LBE244:
 607              	.LBE243:
 608              	.LBE242:
 609              	.LBE241:
 610              	.LBE240:
 611              		.loc 5 433 0
 612 002e 2069     		ldr	r0, [r4, #16]
 613 0030 D847     		blx	fp
 614              	.LVL56:
 615              	.LBB245:
 616              	.LBB239:
 617              	.LBB238:
 618              	.LBB237:
 619              	.LBB236:
 620              		.loc 4 490 0
 621              		.syntax unified
 622              	@ 490 "../os/common/ext/ARM/CMSIS/Core/Include/cmsis_gcc.h" 1
 623 0032 87F31188 		MSR basepri, r7
 624              	@ 0 "" 2
 625              	.LVL57:
 626              		.thumb
 627              		.syntax unified
ARM GAS  /var/folders/vd/czx34qs52cd_f3nb04sxmghc0000gn/T//cclY2Ho9.s 			page 12


 628              	.LBE236:
 629              	.LBE237:
 630              	.LBE238:
 631              	.LBE239:
 632              	.LBE245:
 633              		.loc 5 437 0
 634 0036 D9F81C40 		ldr	r4, [r9, #28]
 635              	.LVL58:
 636              	.LBE251:
 637              		.loc 5 439 0
 638 003a A368     		ldr	r3, [r4, #8]
 639 003c 9A45     		cmp	r10, r3
 640 003e EAD3     		bcc	.L61
 641 0040 D9F82820 		ldr	r2, [r9, #40]
 642              	.LVL59:
 643              	.L62:
 644              	.LBB252:
 645              		.loc 5 421 0
 646 0044 2168     		ldr	r1, [r4]
 647              		.loc 5 423 0
 648 0046 D4F80CB0 		ldr	fp, [r4, #12]
 649              		.loc 5 418 0
 650 004a 1A44     		add	r2, r2, r3
 651              		.loc 5 427 0
 652 004c A942     		cmp	r1, r5
 653              		.loc 5 418 0
 654 004e C9F82820 		str	r2, [r9, #40]
 655              		.loc 5 419 0
 656 0052 AAEB030A 		sub	r10, r10, r3
 657              	.LVL60:
 658              		.loc 5 421 0
 659 0056 4D60     		str	r5, [r1, #4]
 660              		.loc 5 422 0
 661 0058 C9F81C10 		str	r1, [r9, #28]
 662              		.loc 5 424 0
 663 005c E660     		str	r6, [r4, #12]
 664              		.loc 5 427 0
 665 005e E4D1     		bne	.L60
 666              	.LBB246:
 667              	.LBB247:
 668              		.file 8 "../os/common/ports/ARMCMx/chcore_timer.h"
 669              		.loc 8 83 0
 670 0060 FFF7FEFF 		bl	stStopAlarm
 671              	.LVL61:
 672 0064 E1E7     		b	.L60
 673              	.LVL62:
 674              	.L59:
 675              	.LBE247:
 676              	.LBE246:
 677              	.LBE252:
 678              		.loc 5 443 0
 679 0066 D9F81C30 		ldr	r3, [r9, #28]
 680 006a AB42     		cmp	r3, r5
 681 006c 0ED0     		beq	.L58
 682              		.loc 5 450 0
 683 006e 9A68     		ldr	r2, [r3, #8]
 684              		.loc 5 449 0
ARM GAS  /var/folders/vd/czx34qs52cd_f3nb04sxmghc0000gn/T//cclY2Ho9.s 			page 13


 685 0070 C9F82810 		str	r1, [r9, #40]
 686              		.loc 5 450 0
 687 0074 A2EB0A02 		sub	r2, r2, r10
 688 0078 9A60     		str	r2, [r3, #8]
 689              	.LVL63:
 690              	.LBB253:
 691              	.LBB254:
 692              		.loc 7 479 0
 693 007a A068     		ldr	r0, [r4, #8]
 694              	.LBE254:
 695              	.LBE253:
 696              	.LBE222:
 697              	.LBE221:
 698              		.loc 1 357 0
 699 007c BDE8F84F 		pop	{r3, r4, r5, r6, r7, r8, r9, r10, fp, lr}
 700              		.cfi_remember_state
 701              		.cfi_restore 14
 702              		.cfi_restore 11
 703              		.cfi_restore 10
 704              		.cfi_restore 9
 705              		.cfi_restore 8
 706              		.cfi_restore 7
 707              		.cfi_restore 6
 708              		.cfi_restore 5
 709              		.cfi_restore 4
 710              		.cfi_restore 3
 711              		.cfi_def_cfa_offset 0
 712              	.LVL64:
 713              	.LBB258:
 714              	.LBB257:
 715              	.LBB255:
 716              	.LBB256:
 717              		.loc 8 95 0
 718 0080 0228     		cmp	r0, #2
 719 0082 2CBF     		ite	cs
 720 0084 0818     		addcs	r0, r1, r0
 721 0086 881C     		addcc	r0, r1, #2
 722              	.LVL65:
 723 0088 FFF7FEBF 		b	stSetAlarm
 724              	.LVL66:
 725              	.L58:
 726              		.cfi_restore_state
 727              	.LBE256:
 728              	.LBE255:
 729              	.LBE257:
 730              	.LBE258:
 731              		.loc 1 357 0
 732 008c BDE8F88F 		pop	{r3, r4, r5, r6, r7, r8, r9, r10, fp, pc}
 733              	.LVL67:
 734              	.L67:
 735              		.align	2
 736              	.L66:
 737 0090 00000000 		.word	ch
 738              		.cfi_endproc
 739              	.LFE284:
 740              		.size	chSysTimerHandlerI, .-chSysTimerHandlerI
 741              		.section	.text.chSysGetStatusAndLockX,"ax",%progbits
ARM GAS  /var/folders/vd/czx34qs52cd_f3nb04sxmghc0000gn/T//cclY2Ho9.s 			page 14


 742              		.align	1
 743              		.p2align 4,,15
 744              		.global	chSysGetStatusAndLockX
 745              		.syntax unified
 746              		.thumb
 747              		.thumb_func
 748              		.fpu softvfp
 749              		.type	chSysGetStatusAndLockX, %function
 750              	chSysGetStatusAndLockX:
 751              	.LFB285:
 752              		.loc 1 372 0
 753              		.cfi_startproc
 754              		@ args = 0, pretend = 0, frame = 0
 755              		@ frame_needed = 0, uses_anonymous_args = 0
 756              		@ link register save eliminated.
 757              	.LBB259:
 758              	.LBB260:
 759              	.LBB261:
 760              	.LBB262:
 761              		.loc 4 462 0
 762              		.syntax unified
 763              	@ 462 "../os/common/ext/ARM/CMSIS/Core/Include/cmsis_gcc.h" 1
 764 0000 EFF31180 		MRS r0, basepri
 765              	@ 0 "" 2
 766              		.thumb
 767              		.syntax unified
 768              	.LBE262:
 769              	.LBE261:
 770              	.LBE260:
 771              	.LBE259:
 772              		.loc 1 375 0
 773 0004 20B9     		cbnz	r0, .L68
 774              	.LBB263:
 775              	.LBB264:
 776              	.LBB265:
 777              	.LBB266:
 778              		.loc 4 206 0
 779              		.syntax unified
 780              	@ 206 "../os/common/ext/ARM/CMSIS/Core/Include/cmsis_gcc.h" 1
 781 0006 EFF30583 		MRS r3, ipsr
 782              	@ 0 "" 2
 783              	.LVL68:
 784              		.thumb
 785              		.syntax unified
 786              	.LBE266:
 787              	.LBE265:
 788              	.LBE264:
 789              	.LBE263:
 790              	.LBB267:
 791              	.LBB268:
 792              	.LBB269:
 793              	.LBB270:
 794              		.loc 4 490 0
 795 000a 2023     		movs	r3, #32
 796              		.syntax unified
 797              	@ 490 "../os/common/ext/ARM/CMSIS/Core/Include/cmsis_gcc.h" 1
 798 000c 83F31188 		MSR basepri, r3
ARM GAS  /var/folders/vd/czx34qs52cd_f3nb04sxmghc0000gn/T//cclY2Ho9.s 			page 15


 799              	@ 0 "" 2
 800              	.LVL69:
 801              		.thumb
 802              		.syntax unified
 803              	.L68:
 804              	.LBE270:
 805              	.LBE269:
 806              	.LBE268:
 807              	.LBE267:
 808              		.loc 1 384 0
 809 0010 7047     		bx	lr
 810              		.cfi_endproc
 811              	.LFE285:
 812              		.size	chSysGetStatusAndLockX, .-chSysGetStatusAndLockX
 813 0012 00BF     		.section	.text.chSysRestoreStatusX,"ax",%progbits
 814              		.align	1
 815              		.p2align 4,,15
 816              		.global	chSysRestoreStatusX
 817              		.syntax unified
 818              		.thumb
 819              		.thumb_func
 820              		.fpu softvfp
 821              		.type	chSysRestoreStatusX, %function
 822              	chSysRestoreStatusX:
 823              	.LFB286:
 824              		.loc 1 395 0
 825              		.cfi_startproc
 826              		@ args = 0, pretend = 0, frame = 0
 827              		@ frame_needed = 0, uses_anonymous_args = 0
 828              	.LVL70:
 829              		.loc 1 397 0
 830 0000 40B9     		cbnz	r0, .L75
 831              		.loc 1 395 0
 832 0002 10B5     		push	{r4, lr}
 833              		.cfi_def_cfa_offset 8
 834              		.cfi_offset 4, -8
 835              		.cfi_offset 14, -4
 836              	.LBB271:
 837              	.LBB272:
 838              	.LBB273:
 839              	.LBB274:
 840              		.loc 4 206 0
 841              		.syntax unified
 842              	@ 206 "../os/common/ext/ARM/CMSIS/Core/Include/cmsis_gcc.h" 1
 843 0004 EFF30584 		MRS r4, ipsr
 844              	@ 0 "" 2
 845              		.thumb
 846              		.syntax unified
 847              	.LBE274:
 848              	.LBE273:
 849              		.loc 2 586 0
 850 0008 C4F30804 		ubfx	r4, r4, #0, #9
 851              	.LBE272:
 852              	.LBE271:
 853              		.loc 1 398 0
 854 000c 1CB1     		cbz	r4, .L73
 855              	.LVL71:
ARM GAS  /var/folders/vd/czx34qs52cd_f3nb04sxmghc0000gn/T//cclY2Ho9.s 			page 16


 856              	.LBB275:
 857              	.LBB276:
 858              	.LBB277:
 859              	.LBB278:
 860              	.LBB279:
 861              		.loc 4 490 0
 862              		.syntax unified
 863              	@ 490 "../os/common/ext/ARM/CMSIS/Core/Include/cmsis_gcc.h" 1
 864 000e 80F31188 		MSR basepri, r0
 865              	@ 0 "" 2
 866              	.LVL72:
 867              		.thumb
 868              		.syntax unified
 869              	.LBE279:
 870              	.LBE278:
 871              	.LBE277:
 872              	.LBE276:
 873              	.LBE275:
 874              		.loc 1 406 0
 875 0012 10BD     		pop	{r4, pc}
 876              	.L75:
 877              		.cfi_def_cfa_offset 0
 878              		.cfi_restore 4
 879              		.cfi_restore 14
 880 0014 7047     		bx	lr
 881              	.L73:
 882              		.cfi_def_cfa_offset 8
 883              		.cfi_offset 4, -8
 884              		.cfi_offset 14, -4
 885              		.loc 1 402 0
 886 0016 FFF7FEFF 		bl	chSchRescheduleS
 887              	.LVL73:
 888              	.LBB280:
 889              	.LBB281:
 890              	.LBB282:
 891              	.LBB283:
 892              	.LBB284:
 893              		.loc 4 490 0
 894              		.syntax unified
 895              	@ 490 "../os/common/ext/ARM/CMSIS/Core/Include/cmsis_gcc.h" 1
 896 001a 84F31188 		MSR basepri, r4
 897              	@ 0 "" 2
 898              	.LVL74:
 899              		.thumb
 900              		.syntax unified
 901              	.LBE284:
 902              	.LBE283:
 903              	.LBE282:
 904              	.LBE281:
 905              	.LBE280:
 906              		.loc 1 406 0
 907 001e 10BD     		pop	{r4, pc}
 908              		.cfi_endproc
 909              	.LFE286:
 910              		.size	chSysRestoreStatusX, .-chSysRestoreStatusX
 911              		.section	.text.chSysIsCounterWithinX,"ax",%progbits
 912              		.align	1
ARM GAS  /var/folders/vd/czx34qs52cd_f3nb04sxmghc0000gn/T//cclY2Ho9.s 			page 17


 913              		.p2align 4,,15
 914              		.global	chSysIsCounterWithinX
 915              		.syntax unified
 916              		.thumb
 917              		.thumb_func
 918              		.fpu softvfp
 919              		.type	chSysIsCounterWithinX, %function
 920              	chSysIsCounterWithinX:
 921              	.LFB287:
 922              		.loc 1 427 0
 923              		.cfi_startproc
 924              		@ args = 0, pretend = 0, frame = 0
 925              		@ frame_needed = 0, uses_anonymous_args = 0
 926              		@ link register save eliminated.
 927              	.LVL75:
 928              		.loc 1 429 0
 929 0000 401A     		subs	r0, r0, r1
 930              	.LVL76:
 931 0002 521A     		subs	r2, r2, r1
 932              	.LVL77:
 933              		.loc 1 430 0
 934 0004 9042     		cmp	r0, r2
 935 0006 2CBF     		ite	cs
 936 0008 0020     		movcs	r0, #0
 937 000a 0120     		movcc	r0, #1
 938 000c 7047     		bx	lr
 939              		.cfi_endproc
 940              	.LFE287:
 941              		.size	chSysIsCounterWithinX, .-chSysIsCounterWithinX
 942 000e 00BF     		.section	.text.chSysPolledDelayX,"ax",%progbits
 943              		.align	1
 944              		.p2align 4,,15
 945              		.global	chSysPolledDelayX
 946              		.syntax unified
 947              		.thumb
 948              		.thumb_func
 949              		.fpu softvfp
 950              		.type	chSysPolledDelayX, %function
 951              	chSysPolledDelayX:
 952              	.LFB288:
 953              		.loc 1 443 0
 954              		.cfi_startproc
 955              		@ args = 0, pretend = 0, frame = 0
 956              		@ frame_needed = 0, uses_anonymous_args = 0
 957              		@ link register save eliminated.
 958              	.LVL78:
 959              	.LBB285:
 960              	.LBB286:
 961              		.loc 2 708 0
 962 0000 034A     		ldr	r2, .L82
 963 0002 5168     		ldr	r1, [r2, #4]
 964              	.LVL79:
 965              	.L80:
 966              	.LBE286:
 967              	.LBE285:
 968              	.LBB287:
 969              	.LBB288:
ARM GAS  /var/folders/vd/czx34qs52cd_f3nb04sxmghc0000gn/T//cclY2Ho9.s 			page 18


 970              		.loc 2 708 0 is_stmt 0 discriminator 1
 971 0004 5368     		ldr	r3, [r2, #4]
 972              	.LBE288:
 973              	.LBE287:
 974              	.LBB289:
 975              	.LBB290:
 976              		.loc 1 429 0 is_stmt 1 discriminator 1
 977 0006 5B1A     		subs	r3, r3, r1
 978              	.LBE290:
 979              	.LBE289:
 980              		.loc 1 447 0 discriminator 1
 981 0008 9842     		cmp	r0, r3
 982 000a FBD8     		bhi	.L80
 983              		.loc 1 449 0
 984 000c 7047     		bx	lr
 985              	.L83:
 986 000e 00BF     		.align	2
 987              	.L82:
 988 0010 001000E0 		.word	-536866816
 989              		.cfi_endproc
 990              	.LFE288:
 991              		.size	chSysPolledDelayX, .-chSysPolledDelayX
 992              		.global	ch_idle_thread_wa
 993              		.section	.bss.ch_idle_thread_wa,"aw",%nobits
 994              		.align	3
 995              		.type	ch_idle_thread_wa, %object
 996              		.size	ch_idle_thread_wa, 216
 997              	ch_idle_thread_wa:
 998 0000 00000000 		.space	216
 998      00000000 
 998      00000000 
 998      00000000 
 998      00000000 
 999              		.section	.rodata.idle_descriptor.6898,"a",%progbits
 1000              		.align	2
 1001              		.set	.LANCHOR0,. + 0
 1002              		.type	idle_descriptor.6898, %object
 1003              		.size	idle_descriptor.6898, 24
 1004              	idle_descriptor.6898:
 1005 0000 00000000 		.word	.LC0
 1006 0004 00000000 		.word	ch_idle_thread_wa
 1007 0008 D8000000 		.word	ch_idle_thread_wa+216
 1008 000c 01000000 		.word	1
 1009 0010 00000000 		.word	_idle_thread
 1010 0014 00000000 		.word	0
 1011              		.section	.rodata.str1.4,"aMS",%progbits,1
 1012              		.align	2
 1013              	.LC0:
 1014 0000 69646C65 		.ascii	"idle\000"
 1014      00
 1015              		.text
 1016              	.Letext0:
 1017              		.file 9 "/usr/local/Cellar/gcc-arm-none-eabi/20171218/lib/gcc/arm-none-eabi/7.2.1/include/stddef.h
 1018              		.file 10 "/usr/local/Cellar/gcc-arm-none-eabi/20171218/arm-none-eabi/include/machine/_default_type
 1019              		.file 11 "/usr/local/Cellar/gcc-arm-none-eabi/20171218/arm-none-eabi/include/sys/_stdint.h"
 1020              		.file 12 "../os/common/ports/ARMCMx/compilers/GCC/chtypes.h"
 1021              		.file 13 "../os/rt/include/chsystypes.h"
ARM GAS  /var/folders/vd/czx34qs52cd_f3nb04sxmghc0000gn/T//cclY2Ho9.s 			page 19


 1022              		.file 14 "../os/rt/include/chschd.h"
 1023              		.file 15 "../os/common/ext/ST/STM32F4xx/stm32f407xx.h"
 1024              		.file 16 "../os/common/ext/ST/STM32F4xx/system_stm32f4xx.h"
 1025              		.file 17 "../os/common/ports/ARMCMx/chcore.h"
 1026              		.file 18 "../os/hal/ports/STM32/LLD/TIMv1/stm32_tim.h"
 1027              		.file 19 "../os/rt/include/chtm.h"
 1028              		.file 20 "../os/rt/include/chsem.h"
 1029              		.file 21 "../os/rt/include/chmtx.h"
 1030              		.file 22 "../os/rt/include/chsys.h"
 1031              		.file 23 "../os/rt/include/chthreads.h"
 1032              		.file 24 "../os/rt/include/chregistry.h"
 1033              		.file 25 "../os/common/oslib/include/chmemcore.h"
 1034              		.file 26 "../os/common/oslib/include/chmempools.h"
 1035              		.file 27 "../os/common/oslib/include/chfactory.h"
 1036              		.file 28 "../os/hal/include/hal_st.h"
 1037              		.file 29 "../os/common/oslib/include/chheap.h"