ARM GAS  /var/folders/vd/czx34qs52cd_f3nb04sxmghc0000gn/T//ccyGfnuL.s 			page 1


   1              		.cpu cortex-m4
   2              		.eabi_attribute 20, 1
   3              		.eabi_attribute 21, 1
   4              		.eabi_attribute 23, 3
   5              		.eabi_attribute 24, 1
   6              		.eabi_attribute 25, 1
   7              		.eabi_attribute 26, 1
   8              		.eabi_attribute 30, 2
   9              		.eabi_attribute 34, 1
  10              		.eabi_attribute 18, 4
  11              		.file	"chthreads.c"
  12              		.text
  13              	.Ltext0:
  14              		.cfi_sections	.debug_frame
  15              		.section	.text._thread_init,"ax",%progbits
  16              		.align	1
  17              		.p2align 4,,15
  18              		.global	_thread_init
  19              		.syntax unified
  20              		.thumb
  21              		.thumb_func
  22              		.fpu softvfp
  23              		.type	_thread_init, %function
  24              	_thread_init:
  25              	.LFB280:
  26              		.file 1 "../os/rt/src/chthreads.c"
  27              		.loc 1 88 0
  28              		.cfi_startproc
  29              		@ args = 0, pretend = 0, frame = 0
  30              		@ frame_needed = 0, uses_anonymous_args = 0
  31              		@ link register save eliminated.
  32              	.LVL0:
  33 0000 70B4     		push	{r4, r5, r6}
  34              		.cfi_def_cfa_offset 12
  35              		.cfi_offset 4, -12
  36              		.cfi_offset 5, -8
  37              		.cfi_offset 6, -4
  38              		.loc 1 109 0
  39 0002 0D4C     		ldr	r4, .L4
  40              		.loc 1 97 0
  41 0004 C263     		str	r2, [r0, #60]
  42              		.loc 1 109 0
  43 0006 6569     		ldr	r5, [r4, #20]
  44              		.loc 1 90 0
  45 0008 8260     		str	r2, [r0, #8]
  46              		.loc 1 91 0
  47 000a 0226     		movs	r6, #2
  48              		.loc 1 92 0
  49 000c 0122     		movs	r2, #1
  50              	.LVL1:
  51              		.loc 1 108 0
  52 000e 8161     		str	r1, [r0, #24]
  53              		.loc 1 91 0
  54 0010 0684     		strh	r6, [r0, #32]	@ movhi
  55              		.loc 1 92 0
  56 0012 80F82220 		strb	r2, [r0, #34]
  57              		.loc 1 114 0
ARM GAS  /var/folders/vd/czx34qs52cd_f3nb04sxmghc0000gn/T//ccyGfnuL.s 			page 2


  58 0016 00F12806 		add	r6, r0, #40
  59              		.loc 1 117 0
  60 001a 00F12C02 		add	r2, r0, #44
  61              		.loc 1 98 0
  62 001e 0021     		movs	r1, #0
  63              	.LVL2:
  64              		.loc 1 109 0
  65 0020 4561     		str	r5, [r0, #20]
  66 0022 0461     		str	r4, [r0, #16]
  67              		.loc 1 101 0
  68 0024 C0E90D11 		strd	r1, r1, [r0, #52]
  69              		.loc 1 109 0
  70 0028 2861     		str	r0, [r5, #16]
  71 002a 6061     		str	r0, [r4, #20]
  72              	.LVL3:
  73              	.LBB267:
  74              	.LBB268:
  75              		.file 2 "../os/rt/include/chschd.h"
  76              		.loc 2 539 0
  77 002c C0E90A62 		strd	r6, r2, [r0, #40]
  78              		.loc 2 540 0
  79 0030 0263     		str	r2, [r0, #48]
  80              	.LBE268:
  81              	.LBE267:
  82              		.loc 1 124 0
  83 0032 70BC     		pop	{r4, r5, r6}
  84              		.cfi_restore 6
  85              		.cfi_restore 5
  86              		.cfi_restore 4
  87              		.cfi_def_cfa_offset 0
  88              	.LVL4:
  89 0034 7047     		bx	lr
  90              	.L5:
  91 0036 00BF     		.align	2
  92              	.L4:
  93 0038 00000000 		.word	ch
  94              		.cfi_endproc
  95              	.LFE280:
  96              		.size	_thread_init, .-_thread_init
  97              		.section	.text.chThdCreateSuspendedI,"ax",%progbits
  98              		.align	1
  99              		.p2align 4,,15
 100              		.global	chThdCreateSuspendedI
 101              		.syntax unified
 102              		.thumb
 103              		.thumb_func
 104              		.fpu softvfp
 105              		.type	chThdCreateSuspendedI, %function
 106              	chThdCreateSuspendedI:
 107              	.LFB281:
 108              		.loc 1 167 0
 109              		.cfi_startproc
 110              		@ args = 0, pretend = 0, frame = 0
 111              		@ frame_needed = 0, uses_anonymous_args = 0
 112              		@ link register save eliminated.
 113              	.LVL5:
 114              		.loc 1 181 0
ARM GAS  /var/folders/vd/czx34qs52cd_f3nb04sxmghc0000gn/T//ccyGfnuL.s 			page 3


 115 0000 8368     		ldr	r3, [r0, #8]
 116              		.loc 1 186 0
 117 0002 4168     		ldr	r1, [r0, #4]
 118              	.LBB269:
 119              	.LBB270:
 120              		.loc 1 109 0
 121 0004 194A     		ldr	r2, .L8
 122              	.LBE270:
 123              	.LBE269:
 124              		.loc 1 167 0
 125 0006 F0B4     		push	{r4, r5, r6, r7}
 126              		.cfi_def_cfa_offset 16
 127              		.cfi_offset 4, -16
 128              		.cfi_offset 5, -12
 129              		.cfi_offset 6, -8
 130              		.cfi_offset 7, -4
 131              		.loc 1 190 0
 132 0008 D0E90475 		ldrd	r7, r5, [r0, #16]
 133              	.LBB277:
 134              	.LBB273:
 135              		.loc 1 91 0
 136 000c 0226     		movs	r6, #2
 137              	.LBE273:
 138              	.LBE277:
 139              		.loc 1 186 0
 140 000e 43F82C1C 		str	r1, [r3, #-44]
 141              	.LBB278:
 142              	.LBB274:
 143              		.loc 1 107 0
 144 0012 0124     		movs	r4, #1
 145              		.loc 1 92 0
 146 0014 0021     		movs	r1, #0
 147              	.LBE274:
 148              	.LBE278:
 149              		.loc 1 190 0
 150 0016 43E91B75 		strd	r7, r5, [r3, #-108]
 151              		.loc 1 193 0
 152 001a 0568     		ldr	r5, [r0]
 153 001c C068     		ldr	r0, [r0, #12]
 154              	.LVL6:
 155              	.LBB279:
 156              	.LBB275:
 157              		.loc 1 92 0
 158 001e 03F8271C 		strb	r1, [r3, #-39]
 159              		.loc 1 91 0
 160 0022 03F8286C 		strb	r6, [r3, #-40]
 161              		.loc 1 107 0
 162 0026 03F8264C 		strb	r4, [r3, #-38]
 163              		.loc 1 109 0
 164 002a 5469     		ldr	r4, [r2, #20]
 165              		.loc 1 90 0
 166 002c 43F8400C 		str	r0, [r3, #-64]
 167              		.loc 1 97 0
 168 0030 43F80C0C 		str	r0, [r3, #-12]
 169              		.loc 1 108 0
 170 0034 43F8305C 		str	r5, [r3, #-48]
 171              	.LBE275:
ARM GAS  /var/folders/vd/czx34qs52cd_f3nb04sxmghc0000gn/T//ccyGfnuL.s 			page 4


 172              	.LBE279:
 173              		.loc 1 190 0
 174 0038 A3F16C00 		sub	r0, r3, #108
 175 003c 0C4D     		ldr	r5, .L8+4
 176 003e 43F83C0C 		str	r0, [r3, #-60]
 177 0042 43F84C5C 		str	r5, [r3, #-76]
 178              		.loc 1 181 0
 179 0046 A3F14800 		sub	r0, r3, #72
 180              	.LVL7:
 181              	.LBB280:
 182              	.LBB276:
 183              		.loc 1 101 0
 184 004a 43E90511 		strd	r1, r1, [r3, #-20]
 185              		.loc 1 114 0
 186 004e A3F12005 		sub	r5, r3, #32
 187              		.loc 1 117 0
 188 0052 A3F11C01 		sub	r1, r3, #28
 189              		.loc 1 109 0
 190 0056 43E90E24 		strd	r2, r4, [r3, #-56]
 191 005a 2061     		str	r0, [r4, #16]
 192 005c 5061     		str	r0, [r2, #20]
 193              	.LVL8:
 194              	.LBB271:
 195              	.LBB272:
 196              		.loc 2 539 0
 197 005e 43E90851 		strd	r5, r1, [r3, #-32]
 198              		.loc 2 540 0
 199 0062 43F8181C 		str	r1, [r3, #-24]
 200              	.LVL9:
 201              	.LBE272:
 202              	.LBE271:
 203              	.LBE276:
 204              	.LBE280:
 205              		.loc 1 194 0
 206 0066 F0BC     		pop	{r4, r5, r6, r7}
 207              		.cfi_restore 7
 208              		.cfi_restore 6
 209              		.cfi_restore 5
 210              		.cfi_restore 4
 211              		.cfi_def_cfa_offset 0
 212              	.LVL10:
 213 0068 7047     		bx	lr
 214              	.L9:
 215 006a 00BF     		.align	2
 216              	.L8:
 217 006c 00000000 		.word	ch
 218 0070 00000000 		.word	_port_thread_start
 219              		.cfi_endproc
 220              	.LFE281:
 221              		.size	chThdCreateSuspendedI, .-chThdCreateSuspendedI
 222              		.section	.text.chThdCreateSuspended,"ax",%progbits
 223              		.align	1
 224              		.p2align 4,,15
 225              		.global	chThdCreateSuspended
 226              		.syntax unified
 227              		.thumb
 228              		.thumb_func
ARM GAS  /var/folders/vd/czx34qs52cd_f3nb04sxmghc0000gn/T//ccyGfnuL.s 			page 5


 229              		.fpu softvfp
 230              		.type	chThdCreateSuspended, %function
 231              	chThdCreateSuspended:
 232              	.LFB282:
 233              		.loc 1 216 0
 234              		.cfi_startproc
 235              		@ args = 0, pretend = 0, frame = 0
 236              		@ frame_needed = 0, uses_anonymous_args = 0
 237              	.LVL11:
 238 0000 08B5     		push	{r3, lr}
 239              		.cfi_def_cfa_offset 8
 240              		.cfi_offset 3, -8
 241              		.cfi_offset 14, -4
 242              	.LBB281:
 243              	.LBB282:
 244              	.LBB283:
 245              	.LBB284:
 246              		.file 3 "../os/common/ext/ARM/CMSIS/Core/Include/cmsis_gcc.h"
 247              		.loc 3 490 0
 248 0002 2023     		movs	r3, #32
 249              		.syntax unified
 250              	@ 490 "../os/common/ext/ARM/CMSIS/Core/Include/cmsis_gcc.h" 1
 251 0004 83F31188 		MSR basepri, r3
 252              	@ 0 "" 2
 253              	.LVL12:
 254              		.thumb
 255              		.syntax unified
 256              	.LBE284:
 257              	.LBE283:
 258              	.LBE282:
 259              	.LBE281:
 260              		.loc 1 231 0
 261 0008 FFF7FEFF 		bl	chThdCreateSuspendedI
 262              	.LVL13:
 263              	.LBB285:
 264              	.LBB286:
 265              	.LBB287:
 266              	.LBB288:
 267              	.LBB289:
 268              		.loc 3 490 0
 269 000c 0023     		movs	r3, #0
 270              		.syntax unified
 271              	@ 490 "../os/common/ext/ARM/CMSIS/Core/Include/cmsis_gcc.h" 1
 272 000e 83F31188 		MSR basepri, r3
 273              	@ 0 "" 2
 274              	.LVL14:
 275              		.thumb
 276              		.syntax unified
 277              	.LBE289:
 278              	.LBE288:
 279              	.LBE287:
 280              	.LBE286:
 281              	.LBE285:
 282              		.loc 1 235 0
 283 0012 08BD     		pop	{r3, pc}
 284              		.cfi_endproc
 285              	.LFE282:
ARM GAS  /var/folders/vd/czx34qs52cd_f3nb04sxmghc0000gn/T//ccyGfnuL.s 			page 6


 286              		.size	chThdCreateSuspended, .-chThdCreateSuspended
 287              		.section	.text.chThdCreateI,"ax",%progbits
 288              		.align	1
 289              		.p2align 4,,15
 290              		.global	chThdCreateI
 291              		.syntax unified
 292              		.thumb
 293              		.thumb_func
 294              		.fpu softvfp
 295              		.type	chThdCreateI, %function
 296              	chThdCreateI:
 297              	.LFB283:
 298              		.loc 1 259 0
 299              		.cfi_startproc
 300              		@ args = 0, pretend = 0, frame = 0
 301              		@ frame_needed = 0, uses_anonymous_args = 0
 302              	.LVL15:
 303 0000 08B5     		push	{r3, lr}
 304              		.cfi_def_cfa_offset 8
 305              		.cfi_offset 3, -8
 306              		.cfi_offset 14, -4
 307              		.loc 1 261 0
 308 0002 FFF7FEFF 		bl	chThdCreateSuspendedI
 309              	.LVL16:
 310              		.loc 1 262 0
 311 0006 BDE80840 		pop	{r3, lr}
 312              		.cfi_restore 14
 313              		.cfi_restore 3
 314              		.cfi_def_cfa_offset 0
 315              		.loc 1 261 0
 316 000a FFF7FEBF 		b	chSchReadyI
 317              	.LVL17:
 318              		.cfi_endproc
 319              	.LFE283:
 320              		.size	chThdCreateI, .-chThdCreateI
 321 000e 00BF     		.section	.text.chThdCreate,"ax",%progbits
 322              		.align	1
 323              		.p2align 4,,15
 324              		.global	chThdCreate
 325              		.syntax unified
 326              		.thumb
 327              		.thumb_func
 328              		.fpu softvfp
 329              		.type	chThdCreate, %function
 330              	chThdCreate:
 331              	.LFB284:
 332              		.loc 1 280 0
 333              		.cfi_startproc
 334              		@ args = 0, pretend = 0, frame = 0
 335              		@ frame_needed = 0, uses_anonymous_args = 0
 336              	.LVL18:
 337 0000 10B5     		push	{r4, lr}
 338              		.cfi_def_cfa_offset 8
 339              		.cfi_offset 4, -8
 340              		.cfi_offset 14, -4
 341              	.LBB290:
 342              	.LBB291:
ARM GAS  /var/folders/vd/czx34qs52cd_f3nb04sxmghc0000gn/T//ccyGfnuL.s 			page 7


 343              	.LBB292:
 344              	.LBB293:
 345              		.loc 3 490 0
 346 0002 2023     		movs	r3, #32
 347              		.syntax unified
 348              	@ 490 "../os/common/ext/ARM/CMSIS/Core/Include/cmsis_gcc.h" 1
 349 0004 83F31188 		MSR basepri, r3
 350              	@ 0 "" 2
 351              	.LVL19:
 352              		.thumb
 353              		.syntax unified
 354              	.LBE293:
 355              	.LBE292:
 356              	.LBE291:
 357              	.LBE290:
 358              		.loc 1 296 0
 359 0008 FFF7FEFF 		bl	chThdCreateSuspendedI
 360              	.LVL20:
 361              		.loc 1 297 0
 362 000c 0021     		movs	r1, #0
 363              		.loc 1 296 0
 364 000e 0446     		mov	r4, r0
 365              	.LVL21:
 366              		.loc 1 297 0
 367 0010 FFF7FEFF 		bl	chSchWakeupS
 368              	.LVL22:
 369              	.LBB294:
 370              	.LBB295:
 371              	.LBB296:
 372              	.LBB297:
 373              	.LBB298:
 374              		.loc 3 490 0
 375 0014 0023     		movs	r3, #0
 376              		.syntax unified
 377              	@ 490 "../os/common/ext/ARM/CMSIS/Core/Include/cmsis_gcc.h" 1
 378 0016 83F31188 		MSR basepri, r3
 379              	@ 0 "" 2
 380              	.LVL23:
 381              		.thumb
 382              		.syntax unified
 383              	.LBE298:
 384              	.LBE297:
 385              	.LBE296:
 386              	.LBE295:
 387              	.LBE294:
 388              		.loc 1 301 0
 389 001a 2046     		mov	r0, r4
 390 001c 10BD     		pop	{r4, pc}
 391              		.cfi_endproc
 392              	.LFE284:
 393              		.size	chThdCreate, .-chThdCreate
 394 001e 00BF     		.section	.text.chThdCreateStatic,"ax",%progbits
 395              		.align	1
 396              		.p2align 4,,15
 397              		.global	chThdCreateStatic
 398              		.syntax unified
 399              		.thumb
ARM GAS  /var/folders/vd/czx34qs52cd_f3nb04sxmghc0000gn/T//ccyGfnuL.s 			page 8


 400              		.thumb_func
 401              		.fpu softvfp
 402              		.type	chThdCreateStatic, %function
 403              	chThdCreateStatic:
 404              	.LFB285:
 405              		.loc 1 324 0
 406              		.cfi_startproc
 407              		@ args = 4, pretend = 0, frame = 0
 408              		@ frame_needed = 0, uses_anonymous_args = 0
 409              	.LVL24:
 410 0000 F8B5     		push	{r3, r4, r5, r6, r7, lr}
 411              		.cfi_def_cfa_offset 24
 412              		.cfi_offset 3, -24
 413              		.cfi_offset 4, -20
 414              		.cfi_offset 5, -16
 415              		.cfi_offset 6, -12
 416              		.cfi_offset 7, -8
 417              		.cfi_offset 14, -4
 418              		.loc 1 324 0
 419 0002 069D     		ldr	r5, [sp, #24]
 420              	.LBB299:
 421              	.LBB300:
 422              	.LBB301:
 423              	.LBB302:
 424              		.loc 3 490 0
 425 0004 2024     		movs	r4, #32
 426              		.syntax unified
 427              	@ 490 "../os/common/ext/ARM/CMSIS/Core/Include/cmsis_gcc.h" 1
 428 0006 84F31188 		MSR basepri, r4
 429              	@ 0 "" 2
 430              	.LVL25:
 431              		.thumb
 432              		.syntax unified
 433              	.LBE302:
 434              	.LBE301:
 435              	.LBE300:
 436              	.LBE299:
 437              		.loc 1 350 0
 438 000a 4839     		subs	r1, r1, #72
 439              	.LVL26:
 440 000c 4418     		adds	r4, r0, r1
 441              	.LVL27:
 442              	.LBB303:
 443              	.LBB304:
 444              		.loc 1 109 0
 445 000e 164E     		ldr	r6, .L18
 446              	.LBE304:
 447              	.LBE303:
 448              		.loc 1 355 0
 449 0010 E061     		str	r0, [r4, #28]
 450              	.LBB314:
 451              	.LBB307:
 452              		.loc 1 109 0
 453 0012 7169     		ldr	r1, [r6, #20]
 454              	.LVL28:
 455              	.LBE307:
 456              	.LBE314:
ARM GAS  /var/folders/vd/czx34qs52cd_f3nb04sxmghc0000gn/T//ccyGfnuL.s 			page 9


 457              		.loc 1 359 0
 458 0014 44F8243C 		str	r3, [r4, #-36]
 459 0018 44F8205C 		str	r5, [r4, #-32]
 460 001c A4F12400 		sub	r0, r4, #36
 461              	.LVL29:
 462              	.LBB315:
 463              	.LBB308:
 464              		.loc 1 91 0
 465 0020 0225     		movs	r5, #2
 466              		.loc 1 92 0
 467 0022 0123     		movs	r3, #1
 468              	.LVL30:
 469              		.loc 1 90 0
 470 0024 A260     		str	r2, [r4, #8]
 471              	.LBE308:
 472              	.LBE315:
 473              		.loc 1 359 0
 474 0026 E060     		str	r0, [r4, #12]
 475              	.LBB316:
 476              	.LBB309:
 477              		.loc 1 97 0
 478 0028 E263     		str	r2, [r4, #60]
 479              		.loc 1 91 0
 480 002a 2584     		strh	r5, [r4, #32]	@ movhi
 481              		.loc 1 92 0
 482 002c 84F82230 		strb	r3, [r4, #34]
 483              		.loc 1 114 0
 484 0030 04F12802 		add	r2, r4, #40
 485              	.LVL31:
 486              		.loc 1 117 0
 487 0034 04F12C03 		add	r3, r4, #44
 488              		.loc 1 98 0
 489 0038 0025     		movs	r5, #0
 490              	.LBE309:
 491              	.LBE316:
 492              		.loc 1 359 0
 493 003a 0C4F     		ldr	r7, .L18+4
 494              	.LBB317:
 495              	.LBB310:
 496              		.loc 1 108 0
 497 003c 0C48     		ldr	r0, .L18+8
 498              	.LVL32:
 499              	.LBE310:
 500              	.LBE317:
 501              		.loc 1 359 0
 502 003e 44F8047C 		str	r7, [r4, #-4]
 503              	.LVL33:
 504              	.LBB318:
 505              	.LBB311:
 506              		.loc 1 109 0
 507 0042 C4E90461 		strd	r6, r1, [r4, #16]
 508              		.loc 1 108 0
 509 0046 A061     		str	r0, [r4, #24]
 510              		.loc 1 101 0
 511 0048 C4E90D55 		strd	r5, r5, [r4, #52]
 512              	.LBE311:
 513              	.LBE318:
ARM GAS  /var/folders/vd/czx34qs52cd_f3nb04sxmghc0000gn/T//ccyGfnuL.s 			page 10


 514              		.loc 1 364 0
 515 004c 2046     		mov	r0, r4
 516              	.LBB319:
 517              	.LBB312:
 518              		.loc 1 109 0
 519 004e 0C61     		str	r4, [r1, #16]
 520              	.LBB305:
 521              	.LBB306:
 522              		.loc 2 539 0
 523 0050 C4E90A23 		strd	r2, r3, [r4, #40]
 524              		.loc 2 540 0
 525 0054 2363     		str	r3, [r4, #48]
 526              	.LBE306:
 527              	.LBE305:
 528              	.LBE312:
 529              	.LBE319:
 530              		.loc 1 364 0
 531 0056 2946     		mov	r1, r5
 532              	.LBB320:
 533              	.LBB313:
 534              		.loc 1 109 0
 535 0058 7461     		str	r4, [r6, #20]
 536              	.LVL34:
 537              	.LBE313:
 538              	.LBE320:
 539              		.loc 1 364 0
 540 005a FFF7FEFF 		bl	chSchWakeupS
 541              	.LVL35:
 542              	.LBB321:
 543              	.LBB322:
 544              	.LBB323:
 545              	.LBB324:
 546              	.LBB325:
 547              		.loc 3 490 0
 548              		.syntax unified
 549              	@ 490 "../os/common/ext/ARM/CMSIS/Core/Include/cmsis_gcc.h" 1
 550 005e 85F31188 		MSR basepri, r5
 551              	@ 0 "" 2
 552              	.LVL36:
 553              		.thumb
 554              		.syntax unified
 555              	.LBE325:
 556              	.LBE324:
 557              	.LBE323:
 558              	.LBE322:
 559              	.LBE321:
 560              		.loc 1 368 0
 561 0062 2046     		mov	r0, r4
 562 0064 F8BD     		pop	{r3, r4, r5, r6, r7, pc}
 563              	.LVL37:
 564              	.L19:
 565 0066 00BF     		.align	2
 566              	.L18:
 567 0068 00000000 		.word	ch
 568 006c 00000000 		.word	_port_thread_start
 569 0070 00000000 		.word	.LC0
 570              		.cfi_endproc
ARM GAS  /var/folders/vd/czx34qs52cd_f3nb04sxmghc0000gn/T//ccyGfnuL.s 			page 11


 571              	.LFE285:
 572              		.size	chThdCreateStatic, .-chThdCreateStatic
 573              		.section	.text.chThdStart,"ax",%progbits
 574              		.align	1
 575              		.p2align 4,,15
 576              		.global	chThdStart
 577              		.syntax unified
 578              		.thumb
 579              		.thumb_func
 580              		.fpu softvfp
 581              		.type	chThdStart, %function
 582              	chThdStart:
 583              	.LFB286:
 584              		.loc 1 379 0
 585              		.cfi_startproc
 586              		@ args = 0, pretend = 0, frame = 0
 587              		@ frame_needed = 0, uses_anonymous_args = 0
 588              	.LVL38:
 589 0000 10B5     		push	{r4, lr}
 590              		.cfi_def_cfa_offset 8
 591              		.cfi_offset 4, -8
 592              		.cfi_offset 14, -4
 593              	.LBB326:
 594              	.LBB327:
 595              	.LBB328:
 596              	.LBB329:
 597              		.loc 3 490 0
 598 0002 2023     		movs	r3, #32
 599              	.LBE329:
 600              	.LBE328:
 601              	.LBE327:
 602              	.LBE326:
 603              		.loc 1 379 0
 604 0004 0446     		mov	r4, r0
 605              	.LBB333:
 606              	.LBB332:
 607              	.LBB331:
 608              	.LBB330:
 609              		.loc 3 490 0
 610              		.syntax unified
 611              	@ 490 "../os/common/ext/ARM/CMSIS/Core/Include/cmsis_gcc.h" 1
 612 0006 83F31188 		MSR basepri, r3
 613              	@ 0 "" 2
 614              	.LVL39:
 615              		.thumb
 616              		.syntax unified
 617              	.LBE330:
 618              	.LBE331:
 619              	.LBE332:
 620              	.LBE333:
 621              		.loc 1 383 0
 622 000a 0021     		movs	r1, #0
 623 000c FFF7FEFF 		bl	chSchWakeupS
 624              	.LVL40:
 625              	.LBB334:
 626              	.LBB335:
 627              	.LBB336:
ARM GAS  /var/folders/vd/czx34qs52cd_f3nb04sxmghc0000gn/T//ccyGfnuL.s 			page 12


 628              	.LBB337:
 629              	.LBB338:
 630              		.loc 3 490 0
 631 0010 0023     		movs	r3, #0
 632              		.syntax unified
 633              	@ 490 "../os/common/ext/ARM/CMSIS/Core/Include/cmsis_gcc.h" 1
 634 0012 83F31188 		MSR basepri, r3
 635              	@ 0 "" 2
 636              	.LVL41:
 637              		.thumb
 638              		.syntax unified
 639              	.LBE338:
 640              	.LBE337:
 641              	.LBE336:
 642              	.LBE335:
 643              	.LBE334:
 644              		.loc 1 387 0
 645 0016 2046     		mov	r0, r4
 646 0018 10BD     		pop	{r4, pc}
 647              		.cfi_endproc
 648              	.LFE286:
 649              		.size	chThdStart, .-chThdStart
 650 001a 00BF     		.section	.text.chThdAddRef,"ax",%progbits
 651              		.align	1
 652              		.p2align 4,,15
 653              		.global	chThdAddRef
 654              		.syntax unified
 655              		.thumb
 656              		.thumb_func
 657              		.fpu softvfp
 658              		.type	chThdAddRef, %function
 659              	chThdAddRef:
 660              	.LFB287:
 661              		.loc 1 401 0
 662              		.cfi_startproc
 663              		@ args = 0, pretend = 0, frame = 0
 664              		@ frame_needed = 0, uses_anonymous_args = 0
 665              		@ link register save eliminated.
 666              	.LVL42:
 667              	.LBB339:
 668              	.LBB340:
 669              	.LBB341:
 670              	.LBB342:
 671              		.loc 3 490 0
 672 0000 2023     		movs	r3, #32
 673              		.syntax unified
 674              	@ 490 "../os/common/ext/ARM/CMSIS/Core/Include/cmsis_gcc.h" 1
 675 0002 83F31188 		MSR basepri, r3
 676              	@ 0 "" 2
 677              	.LVL43:
 678              		.thumb
 679              		.syntax unified
 680              	.LBE342:
 681              	.LBE341:
 682              	.LBE340:
 683              	.LBE339:
 684              		.loc 1 405 0
ARM GAS  /var/folders/vd/czx34qs52cd_f3nb04sxmghc0000gn/T//ccyGfnuL.s 			page 13


 685 0006 90F82230 		ldrb	r3, [r0, #34]	@ zero_extendqisi2
 686 000a 0133     		adds	r3, r3, #1
 687 000c 80F82230 		strb	r3, [r0, #34]
 688              	.LVL44:
 689              	.LBB343:
 690              	.LBB344:
 691              	.LBB345:
 692              	.LBB346:
 693              	.LBB347:
 694              		.loc 3 490 0
 695 0010 0023     		movs	r3, #0
 696              		.syntax unified
 697              	@ 490 "../os/common/ext/ARM/CMSIS/Core/Include/cmsis_gcc.h" 1
 698 0012 83F31188 		MSR basepri, r3
 699              	@ 0 "" 2
 700              	.LVL45:
 701              		.thumb
 702              		.syntax unified
 703              	.LBE347:
 704              	.LBE346:
 705              	.LBE345:
 706              	.LBE344:
 707              	.LBE343:
 708              		.loc 1 409 0
 709 0016 7047     		bx	lr
 710              		.cfi_endproc
 711              	.LFE287:
 712              		.size	chThdAddRef, .-chThdAddRef
 713              		.section	.text.chThdRelease,"ax",%progbits
 714              		.align	1
 715              		.p2align 4,,15
 716              		.global	chThdRelease
 717              		.syntax unified
 718              		.thumb
 719              		.thumb_func
 720              		.fpu softvfp
 721              		.type	chThdRelease, %function
 722              	chThdRelease:
 723              	.LFB288:
 724              		.loc 1 427 0
 725              		.cfi_startproc
 726              		@ args = 0, pretend = 0, frame = 0
 727              		@ frame_needed = 0, uses_anonymous_args = 0
 728              		@ link register save eliminated.
 729              	.LVL46:
 730              	.LBB382:
 731              	.LBB383:
 732              	.LBB384:
 733              	.LBB385:
 734              		.loc 3 490 0
 735 0000 2023     		movs	r3, #32
 736              		.syntax unified
 737              	@ 490 "../os/common/ext/ARM/CMSIS/Core/Include/cmsis_gcc.h" 1
 738 0002 83F31188 		MSR basepri, r3
 739              	@ 0 "" 2
 740              	.LVL47:
 741              		.thumb
ARM GAS  /var/folders/vd/czx34qs52cd_f3nb04sxmghc0000gn/T//ccyGfnuL.s 			page 14


 742              		.syntax unified
 743              	.LBE385:
 744              	.LBE384:
 745              	.LBE383:
 746              	.LBE382:
 747              		.loc 1 431 0
 748 0006 90F82230 		ldrb	r3, [r0, #34]	@ zero_extendqisi2
 749 000a 013B     		subs	r3, r3, #1
 750 000c 80F82230 		strb	r3, [r0, #34]
 751              		.loc 1 436 0
 752 0010 036A     		ldr	r3, [r0, #32]
 753 0012 03F0FF13 		and	r3, r3, #16711935
 754 0016 0F2B     		cmp	r3, #15
 755 0018 03D0     		beq	.L28
 756              	.LVL48:
 757              	.LBB386:
 758              	.LBB387:
 759              	.LBB388:
 760              	.LBB389:
 761              	.LBB390:
 762              		.loc 3 490 0
 763 001a 0023     		movs	r3, #0
 764              		.syntax unified
 765              	@ 490 "../os/common/ext/ARM/CMSIS/Core/Include/cmsis_gcc.h" 1
 766 001c 83F31188 		MSR basepri, r3
 767              	@ 0 "" 2
 768              	.LVL49:
 769              		.thumb
 770              		.syntax unified
 771              	.LBE390:
 772              	.LBE389:
 773              	.LBE388:
 774              	.LBE387:
 775              	.LBE386:
 776              		.loc 1 460 0
 777 0020 7047     		bx	lr
 778              	.L28:
 779              		.loc 1 437 0
 780 0022 D0E90423 		ldrd	r2, r3, [r0, #16]
 781 0026 1A61     		str	r2, [r3, #16]
 782 0028 0169     		ldr	r1, [r0, #16]
 783              	.LBB391:
 784              	.LBB392:
 785              	.LBB393:
 786              	.LBB394:
 787              	.LBB395:
 788              		.loc 3 490 0
 789 002a 0022     		movs	r2, #0
 790              	.LBE395:
 791              	.LBE394:
 792              	.LBE393:
 793              	.LBE392:
 794              	.LBE391:
 795              		.loc 1 437 0
 796 002c 4B61     		str	r3, [r1, #20]
 797              	.LVL50:
 798              	.LBB400:
ARM GAS  /var/folders/vd/czx34qs52cd_f3nb04sxmghc0000gn/T//ccyGfnuL.s 			page 15


 799              	.LBB399:
 800              	.LBB398:
 801              	.LBB397:
 802              	.LBB396:
 803              		.loc 3 490 0
 804              		.syntax unified
 805              	@ 490 "../os/common/ext/ARM/CMSIS/Core/Include/cmsis_gcc.h" 1
 806 002e 82F31188 		MSR basepri, r2
 807              	@ 0 "" 2
 808              	.LVL51:
 809              		.thumb
 810              		.syntax unified
 811              	.LBE396:
 812              	.LBE397:
 813              	.LBE398:
 814              	.LBE399:
 815              	.LBE400:
 816              		.loc 1 441 0
 817 0032 90F82130 		ldrb	r3, [r0, #33]	@ zero_extendqisi2
 818 0036 03F00303 		and	r3, r3, #3
 819 003a 012B     		cmp	r3, #1
 820 003c 06D0     		beq	.L26
 821 003e 022B     		cmp	r3, #2
 822 0040 03D1     		bne	.L29
 823              	.LVL52:
 824              	.LBB401:
 825              	.LBB402:
 826              		.loc 1 449 0
 827 0042 C169     		ldr	r1, [r0, #28]
 828 0044 006C     		ldr	r0, [r0, #64]
 829              	.LVL53:
 830 0046 FFF7FEBF 		b	chPoolFree
 831              	.LVL54:
 832              	.L29:
 833 004a 7047     		bx	lr
 834              	.L26:
 835              	.LVL55:
 836              	.LBE402:
 837              	.LBE401:
 838              		.loc 1 444 0
 839 004c C069     		ldr	r0, [r0, #28]
 840              	.LVL56:
 841 004e FFF7FEBF 		b	chHeapFree
 842              	.LVL57:
 843              		.cfi_endproc
 844              	.LFE288:
 845              		.size	chThdRelease, .-chThdRelease
 846 0052 00BF     		.section	.text.chThdExitS,"ax",%progbits
 847              		.align	1
 848              		.p2align 4,,15
 849              		.global	chThdExitS
 850              		.syntax unified
 851              		.thumb
 852              		.thumb_func
 853              		.fpu softvfp
 854              		.type	chThdExitS, %function
 855              	chThdExitS:
ARM GAS  /var/folders/vd/czx34qs52cd_f3nb04sxmghc0000gn/T//ccyGfnuL.s 			page 16


 856              	.LFB290:
 857              		.loc 1 501 0
 858              		.cfi_startproc
 859              		@ args = 0, pretend = 0, frame = 0
 860              		@ frame_needed = 0, uses_anonymous_args = 0
 861              	.LVL58:
 862 0000 38B5     		push	{r3, r4, r5, lr}
 863              		.cfi_def_cfa_offset 16
 864              		.cfi_offset 3, -16
 865              		.cfi_offset 4, -12
 866              		.cfi_offset 5, -8
 867              		.cfi_offset 14, -4
 868              		.loc 1 502 0
 869 0002 104B     		ldr	r3, .L36
 870 0004 9C69     		ldr	r4, [r3, #24]
 871              	.LVL59:
 872              	.LBB403:
 873              	.LBB404:
 874              		.loc 2 527 0
 875 0006 A36A     		ldr	r3, [r4, #40]
 876              	.LBE404:
 877              	.LBE403:
 878              		.loc 1 505 0
 879 0008 6062     		str	r0, [r4, #36]
 880              		.loc 1 512 0
 881 000a 04F12805 		add	r5, r4, #40
 882 000e AB42     		cmp	r3, r5
 883 0010 07D0     		beq	.L31
 884              	.LVL60:
 885              	.L32:
 886              	.LBB406:
 887              	.LBB407:
 888              		.loc 2 581 0
 889 0012 1A68     		ldr	r2, [r3]
 890 0014 A262     		str	r2, [r4, #40]
 891              	.LVL61:
 892              	.LBE407:
 893              	.LBE406:
 894              		.loc 1 513 0
 895 0016 1846     		mov	r0, r3
 896 0018 FFF7FEFF 		bl	chSchReadyI
 897              	.LVL62:
 898              	.LBB408:
 899              	.LBB405:
 900              		.loc 2 527 0
 901 001c A36A     		ldr	r3, [r4, #40]
 902              	.LVL63:
 903              	.LBE405:
 904              	.LBE408:
 905              		.loc 1 512 0
 906 001e AB42     		cmp	r3, r5
 907 0020 F7D1     		bne	.L32
 908              	.L31:
 909              		.loc 1 521 0
 910 0022 94F82230 		ldrb	r3, [r4, #34]	@ zero_extendqisi2
 911 0026 43B9     		cbnz	r3, .L33
 912              		.loc 1 521 0 is_stmt 0 discriminator 1
ARM GAS  /var/folders/vd/czx34qs52cd_f3nb04sxmghc0000gn/T//ccyGfnuL.s 			page 17


 913 0028 94F82130 		ldrb	r3, [r4, #33]	@ zero_extendqisi2
 914 002c 9B07     		lsls	r3, r3, #30
 915 002e 04D1     		bne	.L33
 916              		.loc 1 523 0 is_stmt 1
 917 0030 D4E90423 		ldrd	r2, r3, [r4, #16]
 918 0034 1A61     		str	r2, [r3, #16]
 919 0036 2269     		ldr	r2, [r4, #16]
 920 0038 5361     		str	r3, [r2, #20]
 921              	.L33:
 922              		.loc 1 533 0
 923 003a 0F20     		movs	r0, #15
 924              		.loc 1 537 0
 925 003c BDE83840 		pop	{r3, r4, r5, lr}
 926              		.cfi_restore 14
 927              		.cfi_restore 5
 928              		.cfi_restore 4
 929              		.cfi_restore 3
 930              		.cfi_def_cfa_offset 0
 931              	.LVL64:
 932              		.loc 1 533 0
 933 0040 FFF7FEBF 		b	chSchGoSleepS
 934              	.LVL65:
 935              	.L37:
 936              		.align	2
 937              	.L36:
 938 0044 00000000 		.word	ch
 939              		.cfi_endproc
 940              	.LFE290:
 941              		.size	chThdExitS, .-chThdExitS
 942              		.section	.text.chThdExit,"ax",%progbits
 943              		.align	1
 944              		.p2align 4,,15
 945              		.global	chThdExit
 946              		.syntax unified
 947              		.thumb
 948              		.thumb_func
 949              		.fpu softvfp
 950              		.type	chThdExit, %function
 951              	chThdExit:
 952              	.LFB289:
 953              		.loc 1 477 0
 954              		.cfi_startproc
 955              		@ args = 0, pretend = 0, frame = 0
 956              		@ frame_needed = 0, uses_anonymous_args = 0
 957              		@ link register save eliminated.
 958              	.LVL66:
 959              	.LBB409:
 960              	.LBB410:
 961              	.LBB411:
 962              	.LBB412:
 963              		.loc 3 490 0
 964 0000 2023     		movs	r3, #32
 965              		.syntax unified
 966              	@ 490 "../os/common/ext/ARM/CMSIS/Core/Include/cmsis_gcc.h" 1
 967 0002 83F31188 		MSR basepri, r3
 968              	@ 0 "" 2
 969              	.LVL67:
ARM GAS  /var/folders/vd/czx34qs52cd_f3nb04sxmghc0000gn/T//ccyGfnuL.s 			page 18


 970              		.thumb
 971              		.syntax unified
 972              	.LBE412:
 973              	.LBE411:
 974              	.LBE410:
 975              	.LBE409:
 976              		.loc 1 480 0
 977 0006 FFF7FEBF 		b	chThdExitS
 978              	.LVL68:
 979              		.cfi_endproc
 980              	.LFE289:
 981              		.size	chThdExit, .-chThdExit
 982 000a 00BF     		.section	.text.chThdWait,"ax",%progbits
 983              		.align	1
 984              		.p2align 4,,15
 985              		.global	chThdWait
 986              		.syntax unified
 987              		.thumb
 988              		.thumb_func
 989              		.fpu softvfp
 990              		.type	chThdWait, %function
 991              	chThdWait:
 992              	.LFB291:
 993              		.loc 1 559 0
 994              		.cfi_startproc
 995              		@ args = 0, pretend = 0, frame = 0
 996              		@ frame_needed = 0, uses_anonymous_args = 0
 997              	.LVL69:
 998 0000 38B5     		push	{r3, r4, r5, lr}
 999              		.cfi_def_cfa_offset 16
 1000              		.cfi_offset 3, -16
 1001              		.cfi_offset 4, -12
 1002              		.cfi_offset 5, -8
 1003              		.cfi_offset 14, -4
 1004              		.loc 1 559 0
 1005 0002 0446     		mov	r4, r0
 1006              	.LBB413:
 1007              	.LBB414:
 1008              	.LBB415:
 1009              	.LBB416:
 1010              		.loc 3 490 0
 1011 0004 2023     		movs	r3, #32
 1012              		.syntax unified
 1013              	@ 490 "../os/common/ext/ARM/CMSIS/Core/Include/cmsis_gcc.h" 1
 1014 0006 83F31188 		MSR basepri, r3
 1015              	@ 0 "" 2
 1016              	.LVL70:
 1017              		.thumb
 1018              		.syntax unified
 1019              	.LBE416:
 1020              	.LBE415:
 1021              	.LBE414:
 1022              	.LBE413:
 1023              		.loc 1 570 0
 1024 000a 90F82030 		ldrb	r3, [r0, #32]	@ zero_extendqisi2
 1025 000e 0F2B     		cmp	r3, #15
 1026 0010 07D0     		beq	.L40
ARM GAS  /var/folders/vd/czx34qs52cd_f3nb04sxmghc0000gn/T//ccyGfnuL.s 			page 19


 1027              		.loc 1 571 0
 1028 0012 084B     		ldr	r3, .L45
 1029              	.LBB417:
 1030              	.LBB418:
 1031              		.loc 2 574 0
 1032 0014 826A     		ldr	r2, [r0, #40]
 1033              	.LBE418:
 1034              	.LBE417:
 1035              		.loc 1 571 0
 1036 0016 9B69     		ldr	r3, [r3, #24]
 1037              	.LVL71:
 1038              		.loc 1 572 0
 1039 0018 0920     		movs	r0, #9
 1040              	.LVL72:
 1041              	.LBB420:
 1042              	.LBB419:
 1043              		.loc 2 574 0
 1044 001a 1A60     		str	r2, [r3]
 1045              		.loc 2 575 0
 1046 001c A362     		str	r3, [r4, #40]
 1047              	.LVL73:
 1048              	.LBE419:
 1049              	.LBE420:
 1050              		.loc 1 572 0
 1051 001e FFF7FEFF 		bl	chSchGoSleepS
 1052              	.LVL74:
 1053              	.L40:
 1054              		.loc 1 574 0
 1055 0022 656A     		ldr	r5, [r4, #36]
 1056              	.LVL75:
 1057              	.LBB421:
 1058              	.LBB422:
 1059              	.LBB423:
 1060              	.LBB424:
 1061              	.LBB425:
 1062              		.loc 3 490 0
 1063 0024 0023     		movs	r3, #0
 1064              		.syntax unified
 1065              	@ 490 "../os/common/ext/ARM/CMSIS/Core/Include/cmsis_gcc.h" 1
 1066 0026 83F31188 		MSR basepri, r3
 1067              	@ 0 "" 2
 1068              	.LVL76:
 1069              		.thumb
 1070              		.syntax unified
 1071              	.LBE425:
 1072              	.LBE424:
 1073              	.LBE423:
 1074              	.LBE422:
 1075              	.LBE421:
 1076              		.loc 1 579 0
 1077 002a 2046     		mov	r0, r4
 1078 002c FFF7FEFF 		bl	chThdRelease
 1079              	.LVL77:
 1080              		.loc 1 583 0
 1081 0030 2846     		mov	r0, r5
 1082 0032 38BD     		pop	{r3, r4, r5, pc}
 1083              	.LVL78:
ARM GAS  /var/folders/vd/czx34qs52cd_f3nb04sxmghc0000gn/T//ccyGfnuL.s 			page 20


 1084              	.L46:
 1085              		.align	2
 1086              	.L45:
 1087 0034 00000000 		.word	ch
 1088              		.cfi_endproc
 1089              	.LFE291:
 1090              		.size	chThdWait, .-chThdWait
 1091              		.section	.text.chThdSetPriority,"ax",%progbits
 1092              		.align	1
 1093              		.p2align 4,,15
 1094              		.global	chThdSetPriority
 1095              		.syntax unified
 1096              		.thumb
 1097              		.thumb_func
 1098              		.fpu softvfp
 1099              		.type	chThdSetPriority, %function
 1100              	chThdSetPriority:
 1101              	.LFB292:
 1102              		.loc 1 598 0
 1103              		.cfi_startproc
 1104              		@ args = 0, pretend = 0, frame = 0
 1105              		@ frame_needed = 0, uses_anonymous_args = 0
 1106              	.LVL79:
 1107 0000 10B5     		push	{r4, lr}
 1108              		.cfi_def_cfa_offset 8
 1109              		.cfi_offset 4, -8
 1110              		.cfi_offset 14, -4
 1111              	.LBB426:
 1112              	.LBB427:
 1113              	.LBB428:
 1114              	.LBB429:
 1115              		.loc 3 490 0
 1116 0002 2023     		movs	r3, #32
 1117              		.syntax unified
 1118              	@ 490 "../os/common/ext/ARM/CMSIS/Core/Include/cmsis_gcc.h" 1
 1119 0004 83F31188 		MSR basepri, r3
 1120              	@ 0 "" 2
 1121              	.LVL80:
 1122              		.thumb
 1123              		.syntax unified
 1124              	.LBE429:
 1125              	.LBE428:
 1126              	.LBE427:
 1127              	.LBE426:
 1128              		.loc 1 605 0
 1129 0008 084B     		ldr	r3, .L51
 1130 000a 9B69     		ldr	r3, [r3, #24]
 1131 000c DC6B     		ldr	r4, [r3, #60]
 1132              	.LVL81:
 1133              		.loc 1 606 0
 1134 000e 9968     		ldr	r1, [r3, #8]
 1135 0010 A142     		cmp	r1, r4
 1136 0012 01D0     		beq	.L48
 1137              		.loc 1 606 0 is_stmt 0 discriminator 1
 1138 0014 8142     		cmp	r1, r0
 1139 0016 00D2     		bcs	.L49
 1140              	.L48:
ARM GAS  /var/folders/vd/czx34qs52cd_f3nb04sxmghc0000gn/T//ccyGfnuL.s 			page 21


 1141              		.loc 1 607 0 is_stmt 1
 1142 0018 9860     		str	r0, [r3, #8]
 1143              	.L49:
 1144              		.loc 1 609 0
 1145 001a D863     		str	r0, [r3, #60]
 1146              		.loc 1 614 0
 1147 001c FFF7FEFF 		bl	chSchRescheduleS
 1148              	.LVL82:
 1149              	.LBB430:
 1150              	.LBB431:
 1151              	.LBB432:
 1152              	.LBB433:
 1153              	.LBB434:
 1154              		.loc 3 490 0
 1155 0020 0023     		movs	r3, #0
 1156              		.syntax unified
 1157              	@ 490 "../os/common/ext/ARM/CMSIS/Core/Include/cmsis_gcc.h" 1
 1158 0022 83F31188 		MSR basepri, r3
 1159              	@ 0 "" 2
 1160              	.LVL83:
 1161              		.thumb
 1162              		.syntax unified
 1163              	.LBE434:
 1164              	.LBE433:
 1165              	.LBE432:
 1166              	.LBE431:
 1167              	.LBE430:
 1168              		.loc 1 618 0
 1169 0026 2046     		mov	r0, r4
 1170 0028 10BD     		pop	{r4, pc}
 1171              	.LVL84:
 1172              	.L52:
 1173 002a 00BF     		.align	2
 1174              	.L51:
 1175 002c 00000000 		.word	ch
 1176              		.cfi_endproc
 1177              	.LFE292:
 1178              		.size	chThdSetPriority, .-chThdSetPriority
 1179              		.section	.text.chThdTerminate,"ax",%progbits
 1180              		.align	1
 1181              		.p2align 4,,15
 1182              		.global	chThdTerminate
 1183              		.syntax unified
 1184              		.thumb
 1185              		.thumb_func
 1186              		.fpu softvfp
 1187              		.type	chThdTerminate, %function
 1188              	chThdTerminate:
 1189              	.LFB293:
 1190              		.loc 1 632 0
 1191              		.cfi_startproc
 1192              		@ args = 0, pretend = 0, frame = 0
 1193              		@ frame_needed = 0, uses_anonymous_args = 0
 1194              		@ link register save eliminated.
 1195              	.LVL85:
 1196              	.LBB435:
 1197              	.LBB436:
ARM GAS  /var/folders/vd/czx34qs52cd_f3nb04sxmghc0000gn/T//ccyGfnuL.s 			page 22


 1198              	.LBB437:
 1199              	.LBB438:
 1200              		.loc 3 490 0
 1201 0000 2023     		movs	r3, #32
 1202              		.syntax unified
 1203              	@ 490 "../os/common/ext/ARM/CMSIS/Core/Include/cmsis_gcc.h" 1
 1204 0002 83F31188 		MSR basepri, r3
 1205              	@ 0 "" 2
 1206              	.LVL86:
 1207              		.thumb
 1208              		.syntax unified
 1209              	.LBE438:
 1210              	.LBE437:
 1211              	.LBE436:
 1212              	.LBE435:
 1213              		.loc 1 635 0
 1214 0006 90F82130 		ldrb	r3, [r0, #33]	@ zero_extendqisi2
 1215 000a 43F00403 		orr	r3, r3, #4
 1216 000e 80F82130 		strb	r3, [r0, #33]
 1217              	.LVL87:
 1218              	.LBB439:
 1219              	.LBB440:
 1220              	.LBB441:
 1221              	.LBB442:
 1222              	.LBB443:
 1223              		.loc 3 490 0
 1224 0012 0023     		movs	r3, #0
 1225              		.syntax unified
 1226              	@ 490 "../os/common/ext/ARM/CMSIS/Core/Include/cmsis_gcc.h" 1
 1227 0014 83F31188 		MSR basepri, r3
 1228              	@ 0 "" 2
 1229              	.LVL88:
 1230              		.thumb
 1231              		.syntax unified
 1232              	.LBE443:
 1233              	.LBE442:
 1234              	.LBE441:
 1235              	.LBE440:
 1236              	.LBE439:
 1237              		.loc 1 637 0
 1238 0018 7047     		bx	lr
 1239              		.cfi_endproc
 1240              	.LFE293:
 1241              		.size	chThdTerminate, .-chThdTerminate
 1242 001a 00BF     		.section	.text.chThdSleep,"ax",%progbits
 1243              		.align	1
 1244              		.p2align 4,,15
 1245              		.global	chThdSleep
 1246              		.syntax unified
 1247              		.thumb
 1248              		.thumb_func
 1249              		.fpu softvfp
 1250              		.type	chThdSleep, %function
 1251              	chThdSleep:
 1252              	.LFB294:
 1253              		.loc 1 651 0
 1254              		.cfi_startproc
ARM GAS  /var/folders/vd/czx34qs52cd_f3nb04sxmghc0000gn/T//ccyGfnuL.s 			page 23


 1255              		@ args = 0, pretend = 0, frame = 0
 1256              		@ frame_needed = 0, uses_anonymous_args = 0
 1257              	.LVL89:
 1258 0000 08B5     		push	{r3, lr}
 1259              		.cfi_def_cfa_offset 8
 1260              		.cfi_offset 3, -8
 1261              		.cfi_offset 14, -4
 1262              		.loc 1 651 0
 1263 0002 0146     		mov	r1, r0
 1264              	.LBB444:
 1265              	.LBB445:
 1266              	.LBB446:
 1267              	.LBB447:
 1268              		.loc 3 490 0
 1269 0004 2023     		movs	r3, #32
 1270              		.syntax unified
 1271              	@ 490 "../os/common/ext/ARM/CMSIS/Core/Include/cmsis_gcc.h" 1
 1272 0006 83F31188 		MSR basepri, r3
 1273              	@ 0 "" 2
 1274              	.LVL90:
 1275              		.thumb
 1276              		.syntax unified
 1277              	.LBE447:
 1278              	.LBE446:
 1279              	.LBE445:
 1280              	.LBE444:
 1281              	.LBB448:
 1282              	.LBB449:
 1283              		.file 4 "../os/rt/include/chthreads.h"
 1284              		.loc 4 382 0
 1285 000a 0820     		movs	r0, #8
 1286              	.LVL91:
 1287 000c FFF7FEFF 		bl	chSchGoSleepTimeoutS
 1288              	.LVL92:
 1289              	.LBE449:
 1290              	.LBE448:
 1291              	.LBB450:
 1292              	.LBB451:
 1293              	.LBB452:
 1294              	.LBB453:
 1295              	.LBB454:
 1296              		.loc 3 490 0
 1297 0010 0023     		movs	r3, #0
 1298              		.syntax unified
 1299              	@ 490 "../os/common/ext/ARM/CMSIS/Core/Include/cmsis_gcc.h" 1
 1300 0012 83F31188 		MSR basepri, r3
 1301              	@ 0 "" 2
 1302              	.LVL93:
 1303              		.thumb
 1304              		.syntax unified
 1305              	.LBE454:
 1306              	.LBE453:
 1307              	.LBE452:
 1308              	.LBE451:
 1309              	.LBE450:
 1310              		.loc 1 656 0
 1311 0016 08BD     		pop	{r3, pc}
ARM GAS  /var/folders/vd/czx34qs52cd_f3nb04sxmghc0000gn/T//ccyGfnuL.s 			page 24


 1312              		.cfi_endproc
 1313              	.LFE294:
 1314              		.size	chThdSleep, .-chThdSleep
 1315              		.section	.text.chThdSleepUntil,"ax",%progbits
 1316              		.align	1
 1317              		.p2align 4,,15
 1318              		.global	chThdSleepUntil
 1319              		.syntax unified
 1320              		.thumb
 1321              		.thumb_func
 1322              		.fpu softvfp
 1323              		.type	chThdSleepUntil, %function
 1324              	chThdSleepUntil:
 1325              	.LFB295:
 1326              		.loc 1 671 0
 1327              		.cfi_startproc
 1328              		@ args = 0, pretend = 0, frame = 0
 1329              		@ frame_needed = 0, uses_anonymous_args = 0
 1330              	.LVL94:
 1331 0000 08B5     		push	{r3, lr}
 1332              		.cfi_def_cfa_offset 8
 1333              		.cfi_offset 3, -8
 1334              		.cfi_offset 14, -4
 1335              	.LBB455:
 1336              	.LBB456:
 1337              	.LBB457:
 1338              	.LBB458:
 1339              		.loc 3 490 0
 1340 0002 2023     		movs	r3, #32
 1341              		.syntax unified
 1342              	@ 490 "../os/common/ext/ARM/CMSIS/Core/Include/cmsis_gcc.h" 1
 1343 0004 83F31188 		MSR basepri, r3
 1344              	@ 0 "" 2
 1345              	.LVL95:
 1346              		.thumb
 1347              		.syntax unified
 1348              	.LBE458:
 1349              	.LBE457:
 1350              	.LBE456:
 1351              	.LBE455:
 1352              	.LBB459:
 1353              	.LBB460:
 1354              	.LBB461:
 1355              	.LBB462:
 1356              		.file 5 "../os/hal/ports/STM32/LLD/TIMv1/hal_st_lld.h"
 1357              		.loc 5 141 0
 1358 0008 4FF08043 		mov	r3, #1073741824
 1359 000c 596A     		ldr	r1, [r3, #36]
 1360              	.LBE462:
 1361              	.LBE461:
 1362              	.LBE460:
 1363              	.LBE459:
 1364              		.loc 1 676 0
 1365 000e 411A     		subs	r1, r0, r1
 1366 0010 02D0     		beq	.L57
 1367              	.LVL96:
 1368              	.LBB463:
ARM GAS  /var/folders/vd/czx34qs52cd_f3nb04sxmghc0000gn/T//ccyGfnuL.s 			page 25


 1369              	.LBB464:
 1370              		.loc 4 382 0
 1371 0012 0820     		movs	r0, #8
 1372              	.LVL97:
 1373 0014 FFF7FEFF 		bl	chSchGoSleepTimeoutS
 1374              	.LVL98:
 1375              	.L57:
 1376              	.LBE464:
 1377              	.LBE463:
 1378              	.LBB465:
 1379              	.LBB466:
 1380              	.LBB467:
 1381              	.LBB468:
 1382              	.LBB469:
 1383              		.loc 3 490 0
 1384 0018 0023     		movs	r3, #0
 1385              		.syntax unified
 1386              	@ 490 "../os/common/ext/ARM/CMSIS/Core/Include/cmsis_gcc.h" 1
 1387 001a 83F31188 		MSR basepri, r3
 1388              	@ 0 "" 2
 1389              	.LVL99:
 1390              		.thumb
 1391              		.syntax unified
 1392              	.LBE469:
 1393              	.LBE468:
 1394              	.LBE467:
 1395              	.LBE466:
 1396              	.LBE465:
 1397              		.loc 1 680 0
 1398 001e 08BD     		pop	{r3, pc}
 1399              		.cfi_endproc
 1400              	.LFE295:
 1401              		.size	chThdSleepUntil, .-chThdSleepUntil
 1402              		.section	.text.chThdSleepUntilWindowed,"ax",%progbits
 1403              		.align	1
 1404              		.p2align 4,,15
 1405              		.global	chThdSleepUntilWindowed
 1406              		.syntax unified
 1407              		.thumb
 1408              		.thumb_func
 1409              		.fpu softvfp
 1410              		.type	chThdSleepUntilWindowed, %function
 1411              	chThdSleepUntilWindowed:
 1412              	.LFB296:
 1413              		.loc 1 696 0
 1414              		.cfi_startproc
 1415              		@ args = 0, pretend = 0, frame = 0
 1416              		@ frame_needed = 0, uses_anonymous_args = 0
 1417              	.LVL100:
 1418 0000 10B5     		push	{r4, lr}
 1419              		.cfi_def_cfa_offset 8
 1420              		.cfi_offset 4, -8
 1421              		.cfi_offset 14, -4
 1422              	.LBB470:
 1423              	.LBB471:
 1424              	.LBB472:
 1425              	.LBB473:
ARM GAS  /var/folders/vd/czx34qs52cd_f3nb04sxmghc0000gn/T//ccyGfnuL.s 			page 26


 1426              		.loc 3 490 0
 1427 0002 2023     		movs	r3, #32
 1428              	.LBE473:
 1429              	.LBE472:
 1430              	.LBE471:
 1431              	.LBE470:
 1432              		.loc 1 696 0
 1433 0004 0C46     		mov	r4, r1
 1434              	.LBB477:
 1435              	.LBB476:
 1436              	.LBB475:
 1437              	.LBB474:
 1438              		.loc 3 490 0
 1439              		.syntax unified
 1440              	@ 490 "../os/common/ext/ARM/CMSIS/Core/Include/cmsis_gcc.h" 1
 1441 0006 83F31188 		MSR basepri, r3
 1442              	@ 0 "" 2
 1443              	.LVL101:
 1444              		.thumb
 1445              		.syntax unified
 1446              	.LBE474:
 1447              	.LBE475:
 1448              	.LBE476:
 1449              	.LBE477:
 1450              	.LBB478:
 1451              	.LBB479:
 1452              	.LBB480:
 1453              	.LBB481:
 1454              		.loc 5 141 0
 1455 000a 4FF08042 		mov	r2, #1073741824
 1456              	.LBE481:
 1457              	.LBE480:
 1458              	.LBE479:
 1459              	.LBE478:
 1460              	.LBB485:
 1461              	.LBB486:
 1462              		.file 6 "../os/rt/include/chtime.h"
 1463              		.loc 6 516 0
 1464 000e 0B1A     		subs	r3, r1, r0
 1465              	.LBE486:
 1466              	.LBE485:
 1467              	.LBB488:
 1468              	.LBB484:
 1469              	.LBB483:
 1470              	.LBB482:
 1471              		.loc 5 141 0
 1472 0010 516A     		ldr	r1, [r2, #36]
 1473              	.LVL102:
 1474              	.LBE482:
 1475              	.LBE483:
 1476              	.LBE484:
 1477              	.LBE488:
 1478              	.LBB489:
 1479              	.LBB487:
 1480              		.loc 6 516 0
 1481 0012 081A     		subs	r0, r1, r0
 1482              	.LVL103:
ARM GAS  /var/folders/vd/czx34qs52cd_f3nb04sxmghc0000gn/T//ccyGfnuL.s 			page 27


 1483              	.LBE487:
 1484              	.LBE489:
 1485              		.loc 1 701 0
 1486 0014 8342     		cmp	r3, r0
 1487 0016 03D9     		bls	.L63
 1488              	.LBB490:
 1489              	.LBB491:
 1490              		.loc 4 382 0
 1491 0018 611A     		subs	r1, r4, r1
 1492 001a 0820     		movs	r0, #8
 1493 001c FFF7FEFF 		bl	chSchGoSleepTimeoutS
 1494              	.LVL104:
 1495              	.L63:
 1496              	.LBE491:
 1497              	.LBE490:
 1498              	.LBB492:
 1499              	.LBB493:
 1500              	.LBB494:
 1501              	.LBB495:
 1502              	.LBB496:
 1503              		.loc 3 490 0
 1504 0020 0023     		movs	r3, #0
 1505              		.syntax unified
 1506              	@ 490 "../os/common/ext/ARM/CMSIS/Core/Include/cmsis_gcc.h" 1
 1507 0022 83F31188 		MSR basepri, r3
 1508              	@ 0 "" 2
 1509              	.LVL105:
 1510              		.thumb
 1511              		.syntax unified
 1512              	.LBE496:
 1513              	.LBE495:
 1514              	.LBE494:
 1515              	.LBE493:
 1516              	.LBE492:
 1517              		.loc 1 707 0
 1518 0026 2046     		mov	r0, r4
 1519 0028 10BD     		pop	{r4, pc}
 1520              		.cfi_endproc
 1521              	.LFE296:
 1522              		.size	chThdSleepUntilWindowed, .-chThdSleepUntilWindowed
 1523 002a 00BF     		.section	.text.chThdYield,"ax",%progbits
 1524              		.align	1
 1525              		.p2align 4,,15
 1526              		.global	chThdYield
 1527              		.syntax unified
 1528              		.thumb
 1529              		.thumb_func
 1530              		.fpu softvfp
 1531              		.type	chThdYield, %function
 1532              	chThdYield:
 1533              	.LFB297:
 1534              		.loc 1 716 0
 1535              		.cfi_startproc
 1536              		@ args = 0, pretend = 0, frame = 0
 1537              		@ frame_needed = 0, uses_anonymous_args = 0
 1538              	.LVL106:
 1539 0000 08B5     		push	{r3, lr}
ARM GAS  /var/folders/vd/czx34qs52cd_f3nb04sxmghc0000gn/T//ccyGfnuL.s 			page 28


 1540              		.cfi_def_cfa_offset 8
 1541              		.cfi_offset 3, -8
 1542              		.cfi_offset 14, -4
 1543              	.LBB497:
 1544              	.LBB498:
 1545              	.LBB499:
 1546              	.LBB500:
 1547              		.loc 3 490 0
 1548 0002 2023     		movs	r3, #32
 1549              		.syntax unified
 1550              	@ 490 "../os/common/ext/ARM/CMSIS/Core/Include/cmsis_gcc.h" 1
 1551 0004 83F31188 		MSR basepri, r3
 1552              	@ 0 "" 2
 1553              	.LVL107:
 1554              		.thumb
 1555              		.syntax unified
 1556              	.LBE500:
 1557              	.LBE499:
 1558              	.LBE498:
 1559              	.LBE497:
 1560              	.LBB501:
 1561              	.LBB502:
 1562              	.LBB503:
 1563              	.LBB504:
 1564              		.loc 2 666 0
 1565 0008 064B     		ldr	r3, .L68
 1566 000a 1A68     		ldr	r2, [r3]
 1567 000c 9B69     		ldr	r3, [r3, #24]
 1568              	.LBE504:
 1569              	.LBE503:
 1570              		.loc 2 680 0
 1571 000e 9268     		ldr	r2, [r2, #8]
 1572 0010 9B68     		ldr	r3, [r3, #8]
 1573 0012 9A42     		cmp	r2, r3
 1574 0014 01D3     		bcc	.L66
 1575              		.loc 2 681 0
 1576 0016 FFF7FEFF 		bl	chSchDoRescheduleBehind
 1577              	.LVL108:
 1578              	.L66:
 1579              	.LBE502:
 1580              	.LBE501:
 1581              	.LBB505:
 1582              	.LBB506:
 1583              	.LBB507:
 1584              	.LBB508:
 1585              	.LBB509:
 1586              		.loc 3 490 0
 1587 001a 0023     		movs	r3, #0
 1588              		.syntax unified
 1589              	@ 490 "../os/common/ext/ARM/CMSIS/Core/Include/cmsis_gcc.h" 1
 1590 001c 83F31188 		MSR basepri, r3
 1591              	@ 0 "" 2
 1592              	.LVL109:
 1593              		.thumb
 1594              		.syntax unified
 1595              	.LBE509:
 1596              	.LBE508:
ARM GAS  /var/folders/vd/czx34qs52cd_f3nb04sxmghc0000gn/T//ccyGfnuL.s 			page 29


 1597              	.LBE507:
 1598              	.LBE506:
 1599              	.LBE505:
 1600              		.loc 1 721 0
 1601 0020 08BD     		pop	{r3, pc}
 1602              	.L69:
 1603 0022 00BF     		.align	2
 1604              	.L68:
 1605 0024 00000000 		.word	ch
 1606              		.cfi_endproc
 1607              	.LFE297:
 1608              		.size	chThdYield, .-chThdYield
 1609              		.section	.text.chThdSuspendS,"ax",%progbits
 1610              		.align	1
 1611              		.p2align 4,,15
 1612              		.global	chThdSuspendS
 1613              		.syntax unified
 1614              		.thumb
 1615              		.thumb_func
 1616              		.fpu softvfp
 1617              		.type	chThdSuspendS, %function
 1618              	chThdSuspendS:
 1619              	.LFB298:
 1620              		.loc 1 733 0
 1621              		.cfi_startproc
 1622              		@ args = 0, pretend = 0, frame = 0
 1623              		@ frame_needed = 0, uses_anonymous_args = 0
 1624              	.LVL110:
 1625 0000 10B5     		push	{r4, lr}
 1626              		.cfi_def_cfa_offset 8
 1627              		.cfi_offset 4, -8
 1628              		.cfi_offset 14, -4
 1629              	.LBB510:
 1630              	.LBB511:
 1631              		.loc 4 274 0
 1632 0002 054C     		ldr	r4, .L72
 1633 0004 A369     		ldr	r3, [r4, #24]
 1634              	.LBE511:
 1635              	.LBE510:
 1636              		.loc 1 738 0
 1637 0006 0360     		str	r3, [r0]
 1638              		.loc 1 733 0
 1639 0008 0246     		mov	r2, r0
 1640              		.loc 1 739 0
 1641 000a 5A62     		str	r2, [r3, #36]
 1642              		.loc 1 740 0
 1643 000c 0320     		movs	r0, #3
 1644              	.LVL111:
 1645 000e FFF7FEFF 		bl	chSchGoSleepS
 1646              	.LVL112:
 1647              		.loc 1 742 0
 1648 0012 A369     		ldr	r3, [r4, #24]
 1649              		.loc 1 743 0
 1650 0014 586A     		ldr	r0, [r3, #36]
 1651 0016 10BD     		pop	{r4, pc}
 1652              	.L73:
 1653              		.align	2
ARM GAS  /var/folders/vd/czx34qs52cd_f3nb04sxmghc0000gn/T//ccyGfnuL.s 			page 30


 1654              	.L72:
 1655 0018 00000000 		.word	ch
 1656              		.cfi_endproc
 1657              	.LFE298:
 1658              		.size	chThdSuspendS, .-chThdSuspendS
 1659              		.section	.text.chThdSuspendTimeoutS,"ax",%progbits
 1660              		.align	1
 1661              		.p2align 4,,15
 1662              		.global	chThdSuspendTimeoutS
 1663              		.syntax unified
 1664              		.thumb
 1665              		.thumb_func
 1666              		.fpu softvfp
 1667              		.type	chThdSuspendTimeoutS, %function
 1668              	chThdSuspendTimeoutS:
 1669              	.LFB299:
 1670              		.loc 1 764 0
 1671              		.cfi_startproc
 1672              		@ args = 0, pretend = 0, frame = 0
 1673              		@ frame_needed = 0, uses_anonymous_args = 0
 1674              		@ link register save eliminated.
 1675              	.LVL113:
 1676              	.LBB512:
 1677              	.LBB513:
 1678              		.loc 4 274 0
 1679 0000 054B     		ldr	r3, .L76
 1680              	.LBE513:
 1681              	.LBE512:
 1682              		.loc 1 764 0
 1683 0002 0246     		mov	r2, r0
 1684              	.LBB515:
 1685              	.LBB514:
 1686              		.loc 4 274 0
 1687 0004 9B69     		ldr	r3, [r3, #24]
 1688              	.LBE514:
 1689              	.LBE515:
 1690              		.loc 1 769 0
 1691 0006 21B1     		cbz	r1, .L75
 1692              		.loc 1 773 0
 1693 0008 0360     		str	r3, [r0]
 1694              		.loc 1 776 0
 1695 000a 0320     		movs	r0, #3
 1696              	.LVL114:
 1697              		.loc 1 774 0
 1698 000c 5A62     		str	r2, [r3, #36]
 1699              		.loc 1 776 0
 1700 000e FFF7FEBF 		b	chSchGoSleepTimeoutS
 1701              	.LVL115:
 1702              	.L75:
 1703              		.loc 1 777 0
 1704 0012 4FF0FF30 		mov	r0, #-1
 1705              	.LVL116:
 1706 0016 7047     		bx	lr
 1707              	.L77:
 1708              		.align	2
 1709              	.L76:
 1710 0018 00000000 		.word	ch
ARM GAS  /var/folders/vd/czx34qs52cd_f3nb04sxmghc0000gn/T//ccyGfnuL.s 			page 31


 1711              		.cfi_endproc
 1712              	.LFE299:
 1713              		.size	chThdSuspendTimeoutS, .-chThdSuspendTimeoutS
 1714              		.section	.text.chThdResumeI,"ax",%progbits
 1715              		.align	1
 1716              		.p2align 4,,15
 1717              		.global	chThdResumeI
 1718              		.syntax unified
 1719              		.thumb
 1720              		.thumb_func
 1721              		.fpu softvfp
 1722              		.type	chThdResumeI, %function
 1723              	chThdResumeI:
 1724              	.LFB300:
 1725              		.loc 1 789 0
 1726              		.cfi_startproc
 1727              		@ args = 0, pretend = 0, frame = 0
 1728              		@ frame_needed = 0, uses_anonymous_args = 0
 1729              		@ link register save eliminated.
 1730              	.LVL117:
 1731              		.loc 1 791 0
 1732 0000 0368     		ldr	r3, [r0]
 1733 0002 2BB1     		cbz	r3, .L78
 1734              	.LVL118:
 1735              	.LBB516:
 1736              		.loc 1 796 0
 1737 0004 0022     		movs	r2, #0
 1738 0006 0260     		str	r2, [r0]
 1739              		.loc 1 798 0
 1740 0008 1846     		mov	r0, r3
 1741              	.LVL119:
 1742              		.loc 1 797 0
 1743 000a 5962     		str	r1, [r3, #36]
 1744              		.loc 1 798 0
 1745 000c FFF7FEBF 		b	chSchReadyI
 1746              	.LVL120:
 1747              	.L78:
 1748              	.LBE516:
 1749              		.loc 1 800 0
 1750 0010 7047     		bx	lr
 1751              		.cfi_endproc
 1752              	.LFE300:
 1753              		.size	chThdResumeI, .-chThdResumeI
 1754 0012 00BF     		.section	.text.chThdResumeS,"ax",%progbits
 1755              		.align	1
 1756              		.p2align 4,,15
 1757              		.global	chThdResumeS
 1758              		.syntax unified
 1759              		.thumb
 1760              		.thumb_func
 1761              		.fpu softvfp
 1762              		.type	chThdResumeS, %function
 1763              	chThdResumeS:
 1764              	.LFB301:
 1765              		.loc 1 812 0
 1766              		.cfi_startproc
 1767              		@ args = 0, pretend = 0, frame = 0
ARM GAS  /var/folders/vd/czx34qs52cd_f3nb04sxmghc0000gn/T//ccyGfnuL.s 			page 32


 1768              		@ frame_needed = 0, uses_anonymous_args = 0
 1769              		@ link register save eliminated.
 1770              	.LVL121:
 1771              		.loc 1 812 0
 1772 0000 0346     		mov	r3, r0
 1773              		.loc 1 814 0
 1774 0002 0068     		ldr	r0, [r0]
 1775              	.LVL122:
 1776 0004 18B1     		cbz	r0, .L80
 1777              	.LVL123:
 1778              	.LBB517:
 1779              		.loc 1 819 0
 1780 0006 0022     		movs	r2, #0
 1781 0008 1A60     		str	r2, [r3]
 1782              		.loc 1 820 0
 1783 000a FFF7FEBF 		b	chSchWakeupS
 1784              	.LVL124:
 1785              	.L80:
 1786              	.LBE517:
 1787              		.loc 1 822 0
 1788 000e 7047     		bx	lr
 1789              		.cfi_endproc
 1790              	.LFE301:
 1791              		.size	chThdResumeS, .-chThdResumeS
 1792              		.section	.text.chThdResume,"ax",%progbits
 1793              		.align	1
 1794              		.p2align 4,,15
 1795              		.global	chThdResume
 1796              		.syntax unified
 1797              		.thumb
 1798              		.thumb_func
 1799              		.fpu softvfp
 1800              		.type	chThdResume, %function
 1801              	chThdResume:
 1802              	.LFB302:
 1803              		.loc 1 834 0
 1804              		.cfi_startproc
 1805              		@ args = 0, pretend = 0, frame = 0
 1806              		@ frame_needed = 0, uses_anonymous_args = 0
 1807              	.LVL125:
 1808              	.LBB518:
 1809              	.LBB519:
 1810              	.LBB520:
 1811              	.LBB521:
 1812              		.loc 3 490 0
 1813 0000 2023     		movs	r3, #32
 1814              		.syntax unified
 1815              	@ 490 "../os/common/ext/ARM/CMSIS/Core/Include/cmsis_gcc.h" 1
 1816 0002 83F31188 		MSR basepri, r3
 1817              	@ 0 "" 2
 1818              	.LVL126:
 1819              		.thumb
 1820              		.syntax unified
 1821              	.LBE521:
 1822              	.LBE520:
 1823              	.LBE519:
 1824              	.LBE518:
ARM GAS  /var/folders/vd/czx34qs52cd_f3nb04sxmghc0000gn/T//ccyGfnuL.s 			page 33


 1825              	.LBB522:
 1826              	.LBB523:
 1827              		.loc 1 814 0
 1828 0006 0268     		ldr	r2, [r0]
 1829 0008 52B1     		cbz	r2, .L88
 1830 000a 0346     		mov	r3, r0
 1831              	.LVL127:
 1832              	.LBE523:
 1833              	.LBE522:
 1834              		.loc 1 834 0
 1835 000c 10B5     		push	{r4, lr}
 1836              		.cfi_def_cfa_offset 8
 1837              		.cfi_offset 4, -8
 1838              		.cfi_offset 14, -4
 1839              	.LBB526:
 1840              	.LBB525:
 1841              	.LBB524:
 1842              		.loc 1 819 0
 1843 000e 0024     		movs	r4, #0
 1844 0010 1C60     		str	r4, [r3]
 1845              		.loc 1 820 0
 1846 0012 1046     		mov	r0, r2
 1847              	.LVL128:
 1848 0014 FFF7FEFF 		bl	chSchWakeupS
 1849              	.LVL129:
 1850              	.LBE524:
 1851              	.LBE525:
 1852              	.LBE526:
 1853              	.LBB527:
 1854              	.LBB528:
 1855              	.LBB529:
 1856              	.LBB530:
 1857              	.LBB531:
 1858              		.loc 3 490 0
 1859 0018 0023     		movs	r3, #0
 1860              		.syntax unified
 1861              	@ 490 "../os/common/ext/ARM/CMSIS/Core/Include/cmsis_gcc.h" 1
 1862 001a 83F31188 		MSR basepri, r3
 1863              	@ 0 "" 2
 1864              	.LVL130:
 1865              		.thumb
 1866              		.syntax unified
 1867              	.LBE531:
 1868              	.LBE530:
 1869              	.LBE529:
 1870              	.LBE528:
 1871              	.LBE527:
 1872              		.loc 1 839 0
 1873 001e 10BD     		pop	{r4, pc}
 1874              	.LVL131:
 1875              	.L88:
 1876              		.cfi_def_cfa_offset 0
 1877              		.cfi_restore 4
 1878              		.cfi_restore 14
 1879              	.LBB536:
 1880              	.LBB535:
 1881              	.LBB534:
ARM GAS  /var/folders/vd/czx34qs52cd_f3nb04sxmghc0000gn/T//ccyGfnuL.s 			page 34


 1882              	.LBB533:
 1883              	.LBB532:
 1884              		.loc 3 490 0
 1885 0020 0023     		movs	r3, #0
 1886              		.syntax unified
 1887              	@ 490 "../os/common/ext/ARM/CMSIS/Core/Include/cmsis_gcc.h" 1
 1888 0022 83F31188 		MSR basepri, r3
 1889              	@ 0 "" 2
 1890              	.LVL132:
 1891              		.thumb
 1892              		.syntax unified
 1893 0026 7047     		bx	lr
 1894              	.LBE532:
 1895              	.LBE533:
 1896              	.LBE534:
 1897              	.LBE535:
 1898              	.LBE536:
 1899              		.cfi_endproc
 1900              	.LFE302:
 1901              		.size	chThdResume, .-chThdResume
 1902              		.section	.text.chThdEnqueueTimeoutS,"ax",%progbits
 1903              		.align	1
 1904              		.p2align 4,,15
 1905              		.global	chThdEnqueueTimeoutS
 1906              		.syntax unified
 1907              		.thumb
 1908              		.thumb_func
 1909              		.fpu softvfp
 1910              		.type	chThdEnqueueTimeoutS, %function
 1911              	chThdEnqueueTimeoutS:
 1912              	.LFB303:
 1913              		.loc 1 864 0
 1914              		.cfi_startproc
 1915              		@ args = 0, pretend = 0, frame = 0
 1916              		@ frame_needed = 0, uses_anonymous_args = 0
 1917              		@ link register save eliminated.
 1918              	.LVL133:
 1919              		.loc 1 866 0
 1920 0000 61B1     		cbz	r1, .L92
 1921              		.loc 1 870 0
 1922 0002 084B     		ldr	r3, .L96
 1923              		.loc 1 864 0
 1924 0004 10B4     		push	{r4}
 1925              		.cfi_def_cfa_offset 4
 1926              		.cfi_offset 4, -4
 1927 0006 0246     		mov	r2, r0
 1928              	.LBB537:
 1929              	.LBB538:
 1930              		.loc 2 601 0
 1931 0008 4468     		ldr	r4, [r0, #4]
 1932              	.LBE538:
 1933              	.LBE537:
 1934              		.loc 1 870 0
 1935 000a 9B69     		ldr	r3, [r3, #24]
 1936              	.LVL134:
 1937              		.loc 1 872 0
 1938 000c 0420     		movs	r0, #4
ARM GAS  /var/folders/vd/czx34qs52cd_f3nb04sxmghc0000gn/T//ccyGfnuL.s 			page 35


 1939              	.LVL135:
 1940              	.LBB540:
 1941              	.LBB539:
 1942              		.loc 2 601 0
 1943 000e C3E90024 		strd	r2, r4, [r3]
 1944              		.loc 2 602 0
 1945 0012 2360     		str	r3, [r4]
 1946              		.loc 2 603 0
 1947 0014 5360     		str	r3, [r2, #4]
 1948              	.LVL136:
 1949              	.LBE539:
 1950              	.LBE540:
 1951              		.loc 1 873 0
 1952 0016 10BC     		pop	{r4}
 1953              		.cfi_restore 4
 1954              		.cfi_def_cfa_offset 0
 1955              		.loc 1 872 0
 1956 0018 FFF7FEBF 		b	chSchGoSleepTimeoutS
 1957              	.LVL137:
 1958              	.L92:
 1959              		.loc 1 873 0
 1960 001c 4FF0FF30 		mov	r0, #-1
 1961              	.LVL138:
 1962 0020 7047     		bx	lr
 1963              	.L97:
 1964 0022 00BF     		.align	2
 1965              	.L96:
 1966 0024 00000000 		.word	ch
 1967              		.cfi_endproc
 1968              	.LFE303:
 1969              		.size	chThdEnqueueTimeoutS, .-chThdEnqueueTimeoutS
 1970              		.section	.text.chThdDequeueNextI,"ax",%progbits
 1971              		.align	1
 1972              		.p2align 4,,15
 1973              		.global	chThdDequeueNextI
 1974              		.syntax unified
 1975              		.thumb
 1976              		.thumb_func
 1977              		.fpu softvfp
 1978              		.type	chThdDequeueNextI, %function
 1979              	chThdDequeueNextI:
 1980              	.LFB304:
 1981              		.loc 1 884 0
 1982              		.cfi_startproc
 1983              		@ args = 0, pretend = 0, frame = 0
 1984              		@ frame_needed = 0, uses_anonymous_args = 0
 1985              		@ link register save eliminated.
 1986              	.LVL139:
 1987              	.LBB541:
 1988              	.LBB542:
 1989              		.loc 2 566 0
 1990 0000 0268     		ldr	r2, [r0]
 1991              	.LVL140:
 1992              	.LBE542:
 1993              	.LBE541:
 1994              		.loc 1 886 0
 1995 0002 9042     		cmp	r0, r2
ARM GAS  /var/folders/vd/czx34qs52cd_f3nb04sxmghc0000gn/T//ccyGfnuL.s 			page 36


 1996 0004 09D0     		beq	.L98
 1997              		.loc 1 884 0
 1998 0006 10B4     		push	{r4}
 1999              		.cfi_def_cfa_offset 4
 2000              		.cfi_offset 4, -4
 2001              	.LBB543:
 2002              	.LBB544:
 2003              	.LBB545:
 2004              	.LBB546:
 2005              		.loc 2 609 0
 2006 0008 1468     		ldr	r4, [r2]
 2007 000a 0460     		str	r4, [r0]
 2008 000c 0346     		mov	r3, r0
 2009              	.LVL141:
 2010              		.loc 2 610 0
 2011 000e 6360     		str	r3, [r4, #4]
 2012              	.LVL142:
 2013              	.LBE546:
 2014              	.LBE545:
 2015              		.loc 4 435 0
 2016 0010 1046     		mov	r0, r2
 2017              	.LVL143:
 2018              		.loc 4 434 0
 2019 0012 5162     		str	r1, [r2, #36]
 2020              	.LBE544:
 2021              	.LBE543:
 2022              		.loc 1 889 0
 2023 0014 10BC     		pop	{r4}
 2024              		.cfi_restore 4
 2025              		.cfi_def_cfa_offset 0
 2026              	.LBB548:
 2027              	.LBB547:
 2028              		.loc 4 435 0
 2029 0016 FFF7FEBF 		b	chSchReadyI
 2030              	.LVL144:
 2031              	.L98:
 2032 001a 7047     		bx	lr
 2033              	.LBE547:
 2034              	.LBE548:
 2035              		.cfi_endproc
 2036              	.LFE304:
 2037              		.size	chThdDequeueNextI, .-chThdDequeueNextI
 2038              		.section	.text.chThdDequeueAllI,"ax",%progbits
 2039              		.align	1
 2040              		.p2align 4,,15
 2041              		.global	chThdDequeueAllI
 2042              		.syntax unified
 2043              		.thumb
 2044              		.thumb_func
 2045              		.fpu softvfp
 2046              		.type	chThdDequeueAllI, %function
 2047              	chThdDequeueAllI:
 2048              	.LFB305:
 2049              		.loc 1 899 0
 2050              		.cfi_startproc
 2051              		@ args = 0, pretend = 0, frame = 0
 2052              		@ frame_needed = 0, uses_anonymous_args = 0
ARM GAS  /var/folders/vd/czx34qs52cd_f3nb04sxmghc0000gn/T//ccyGfnuL.s 			page 37


 2053              	.LVL145:
 2054 0000 38B5     		push	{r3, r4, r5, lr}
 2055              		.cfi_def_cfa_offset 16
 2056              		.cfi_offset 3, -16
 2057              		.cfi_offset 4, -12
 2058              		.cfi_offset 5, -8
 2059              		.cfi_offset 14, -4
 2060              	.LBB549:
 2061              	.LBB550:
 2062              		.loc 2 566 0
 2063 0002 0368     		ldr	r3, [r0]
 2064              	.LVL146:
 2065              	.LBE550:
 2066              	.LBE549:
 2067              		.loc 1 901 0
 2068 0004 9842     		cmp	r0, r3
 2069 0006 0BD0     		beq	.L103
 2070 0008 0446     		mov	r4, r0
 2071 000a 0D46     		mov	r5, r1
 2072              	.LVL147:
 2073              	.L105:
 2074              	.LBB552:
 2075              	.LBB553:
 2076              	.LBB554:
 2077              	.LBB555:
 2078              		.loc 2 609 0
 2079 000c 1A68     		ldr	r2, [r3]
 2080 000e 2260     		str	r2, [r4]
 2081              	.LBE555:
 2082              	.LBE554:
 2083              		.loc 4 435 0
 2084 0010 1846     		mov	r0, r3
 2085              	.LBB557:
 2086              	.LBB556:
 2087              		.loc 2 610 0
 2088 0012 5460     		str	r4, [r2, #4]
 2089              	.LVL148:
 2090              	.LBE556:
 2091              	.LBE557:
 2092              		.loc 4 434 0
 2093 0014 5D62     		str	r5, [r3, #36]
 2094              		.loc 4 435 0
 2095 0016 FFF7FEFF 		bl	chSchReadyI
 2096              	.LVL149:
 2097              	.LBE553:
 2098              	.LBE552:
 2099              	.LBB558:
 2100              	.LBB551:
 2101              		.loc 2 566 0
 2102 001a 2368     		ldr	r3, [r4]
 2103              	.LVL150:
 2104              	.LBE551:
 2105              	.LBE558:
 2106              		.loc 1 901 0
 2107 001c 9C42     		cmp	r4, r3
 2108 001e F5D1     		bne	.L105
 2109              	.LVL151:
ARM GAS  /var/folders/vd/czx34qs52cd_f3nb04sxmghc0000gn/T//ccyGfnuL.s 			page 38


 2110              	.L103:
 2111              		.loc 1 904 0
 2112 0020 38BD     		pop	{r3, r4, r5, pc}
 2113              		.cfi_endproc
 2114              	.LFE305:
 2115              		.size	chThdDequeueAllI, .-chThdDequeueAllI
 2116 0022 00BF     		.section	.rodata.chThdCreateStatic.str1.4,"aMS",%progbits,1
 2117              		.align	2
 2118              	.LC0:
 2119 0000 6E6F6E61 		.ascii	"noname\000"
 2119      6D6500
 2120              		.text
 2121              	.Letext0:
 2122              		.file 7 "/usr/local/Cellar/gcc-arm-none-eabi/20171218/lib/gcc/arm-none-eabi/7.2.1/include/stddef.h
 2123              		.file 8 "/usr/local/Cellar/gcc-arm-none-eabi/20171218/arm-none-eabi/include/machine/_default_types
 2124              		.file 9 "/usr/local/Cellar/gcc-arm-none-eabi/20171218/arm-none-eabi/include/sys/_stdint.h"
 2125              		.file 10 "../os/common/ports/ARMCMx/compilers/GCC/chtypes.h"
 2126              		.file 11 "../os/rt/include/chsystypes.h"
 2127              		.file 12 "../os/common/ext/ARM/CMSIS/Core/Include/core_cm4.h"
 2128              		.file 13 "../os/common/ext/ST/STM32F4xx/system_stm32f4xx.h"
 2129              		.file 14 "../os/common/ports/ARMCMx/chcore.h"
 2130              		.file 15 "../os/common/ports/ARMCMx/chcore_v7m.h"
 2131              		.file 16 "../os/hal/ports/STM32/LLD/TIMv1/stm32_tim.h"
 2132              		.file 17 "../os/rt/include/chtm.h"
 2133              		.file 18 "../os/rt/include/chsem.h"
 2134              		.file 19 "../os/rt/include/chmtx.h"
 2135              		.file 20 "../os/rt/include/chsys.h"
 2136              		.file 21 "../os/rt/include/chregistry.h"
 2137              		.file 22 "../os/common/oslib/include/chmemcore.h"
 2138              		.file 23 "../os/common/oslib/include/chmempools.h"
 2139              		.file 24 "../os/common/oslib/include/chfactory.h"
 2140              		.file 25 "../os/rt/include/chvt.h"
 2141              		.file 26 "../os/common/ports/ARMCMx/chcore_timer.h"
 2142              		.file 27 "../os/common/oslib/include/chheap.h"