ARM GAS  /var/folders/vd/czx34qs52cd_f3nb04sxmghc0000gn/T//ccbnwpIb.s 			page 1


   1              		.cpu cortex-m4
   2              		.eabi_attribute 20, 1
   3              		.eabi_attribute 21, 1
   4              		.eabi_attribute 23, 3
   5              		.eabi_attribute 24, 1
   6              		.eabi_attribute 25, 1
   7              		.eabi_attribute 26, 1
   8              		.eabi_attribute 30, 2
   9              		.eabi_attribute 34, 1
  10              		.eabi_attribute 18, 4
  11              		.file	"chtm.c"
  12              		.text
  13              	.Ltext0:
  14              		.cfi_sections	.debug_frame
  15              		.section	.text.chTMObjectInit,"ax",%progbits
  16              		.align	1
  17              		.p2align 4,,15
  18              		.global	chTMObjectInit
  19              		.syntax unified
  20              		.thumb
  21              		.thumb_func
  22              		.fpu softvfp
  23              		.type	chTMObjectInit, %function
  24              	chTMObjectInit:
  25              	.LFB282:
  26              		.file 1 "../os/rt/src/chtm.c"
  27              		.loc 1 97 0
  28              		.cfi_startproc
  29              		@ args = 0, pretend = 0, frame = 0
  30              		@ frame_needed = 0, uses_anonymous_args = 0
  31              		@ link register save eliminated.
  32              	.LVL0:
  33              		.loc 1 103 0
  34 0000 0022     		movs	r2, #0
  35 0002 0023     		movs	r3, #0
  36 0004 C0E90423 		strd	r2, [r0, #16]
  37              		.loc 1 100 0
  38 0008 0023     		movs	r3, #0
  39 000a 4FF0FF32 		mov	r2, #-1
  40 000e C0E90023 		strd	r2, r3, [r0]
  41              		.loc 1 102 0
  42 0012 C0E90233 		strd	r3, r3, [r0, #8]
  43              		.loc 1 104 0
  44 0016 7047     		bx	lr
  45              		.cfi_endproc
  46              	.LFE282:
  47              		.size	chTMObjectInit, .-chTMObjectInit
  48              		.section	.text.chTMStartMeasurementX,"ax",%progbits
  49              		.align	1
  50              		.p2align 4,,15
  51              		.global	chTMStartMeasurementX
  52              		.syntax unified
  53              		.thumb
  54              		.thumb_func
  55              		.fpu softvfp
  56              		.type	chTMStartMeasurementX, %function
  57              	chTMStartMeasurementX:
ARM GAS  /var/folders/vd/czx34qs52cd_f3nb04sxmghc0000gn/T//ccbnwpIb.s 			page 2


  58              	.LFB283:
  59              		.loc 1 114 0
  60              		.cfi_startproc
  61              		@ args = 0, pretend = 0, frame = 0
  62              		@ frame_needed = 0, uses_anonymous_args = 0
  63              		@ link register save eliminated.
  64              	.LVL1:
  65              	.LBB14:
  66              	.LBB15:
  67              		.file 2 "../os/common/ports/ARMCMx/chcore_v7m.h"
  68              		.loc 2 708 0
  69 0000 014B     		ldr	r3, .L4
  70 0002 5B68     		ldr	r3, [r3, #4]
  71              	.LBE15:
  72              	.LBE14:
  73              		.loc 1 116 0
  74 0004 8360     		str	r3, [r0, #8]
  75              		.loc 1 117 0
  76 0006 7047     		bx	lr
  77              	.L5:
  78              		.align	2
  79              	.L4:
  80 0008 001000E0 		.word	-536866816
  81              		.cfi_endproc
  82              	.LFE283:
  83              		.size	chTMStartMeasurementX, .-chTMStartMeasurementX
  84              		.section	.text.chTMStopMeasurementX,"ax",%progbits
  85              		.align	1
  86              		.p2align 4,,15
  87              		.global	chTMStopMeasurementX
  88              		.syntax unified
  89              		.thumb
  90              		.thumb_func
  91              		.fpu softvfp
  92              		.type	chTMStopMeasurementX, %function
  93              	chTMStopMeasurementX:
  94              	.LFB284:
  95              		.loc 1 127 0
  96              		.cfi_startproc
  97              		@ args = 0, pretend = 0, frame = 0
  98              		@ frame_needed = 0, uses_anonymous_args = 0
  99              		@ link register save eliminated.
 100              	.LVL2:
 101              	.LBB16:
 102              	.LBB17:
 103              		.loc 2 708 0
 104 0000 0E4B     		ldr	r3, .L10
 105              	.LBE17:
 106              	.LBE16:
 107              		.loc 1 129 0
 108 0002 0F4A     		ldr	r2, .L10+4
 109              	.LBB19:
 110              	.LBB18:
 111              		.loc 2 708 0
 112 0004 5B68     		ldr	r3, [r3, #4]
 113              	.LBE18:
 114              	.LBE19:
ARM GAS  /var/folders/vd/czx34qs52cd_f3nb04sxmghc0000gn/T//ccbnwpIb.s 			page 3


 115              	.LBB20:
 116              	.LBB21:
 117              		.loc 1 57 0
 118 0006 C168     		ldr	r1, [r0, #12]
 119              	.LBE21:
 120              	.LBE20:
 121              		.loc 1 127 0
 122 0008 F0B4     		push	{r4, r5, r6, r7}
 123              		.cfi_def_cfa_offset 16
 124              		.cfi_offset 4, -16
 125              		.cfi_offset 5, -12
 126              		.cfi_offset 6, -8
 127              		.cfi_offset 7, -4
 128              	.LBB24:
 129              	.LBB22:
 130              		.loc 1 58 0
 131 000a 8468     		ldr	r4, [r0, #8]
 132              	.LBE22:
 133              	.LBE24:
 134              		.loc 1 129 0
 135 000c 566F     		ldr	r6, [r2, #116]
 136              	.LVL3:
 137              	.LBB25:
 138              	.LBB23:
 139              		.loc 1 60 0
 140 000e 4268     		ldr	r2, [r0, #4]
 141              		.loc 1 58 0
 142 0010 1B1B     		subs	r3, r3, r4
 143              		.loc 1 59 0
 144 0012 D0E90445 		ldrd	r4, [r0, #16]
 145              		.loc 1 58 0
 146 0016 9B1B     		subs	r3, r3, r6
 147              		.loc 1 59 0
 148 0018 E618     		adds	r6, r4, r3
 149              	.LVL4:
 150 001a 45F10007 		adc	r7, r5, #0
 151              		.loc 1 60 0
 152 001e 9342     		cmp	r3, r2
 153              		.loc 1 63 0
 154 0020 0268     		ldr	r2, [r0]
 155              		.loc 1 61 0
 156 0022 88BF     		it	hi
 157 0024 4360     		strhi	r3, [r0, #4]
 158              		.loc 1 57 0
 159 0026 0131     		adds	r1, r1, #1
 160              		.loc 1 63 0
 161 0028 9342     		cmp	r3, r2
 162              		.loc 1 59 0
 163 002a C0E90467 		strd	r6, [r0, #16]
 164              		.loc 1 58 0
 165 002e C0E90231 		strd	r3, r1, [r0, #8]
 166              		.loc 1 64 0
 167 0032 38BF     		it	cc
 168 0034 0360     		strcc	r3, [r0]
 169              	.LVL5:
 170              	.LBE23:
 171              	.LBE25:
ARM GAS  /var/folders/vd/czx34qs52cd_f3nb04sxmghc0000gn/T//ccbnwpIb.s 			page 4


 172              		.loc 1 130 0
 173 0036 F0BC     		pop	{r4, r5, r6, r7}
 174              		.cfi_restore 7
 175              		.cfi_restore 6
 176              		.cfi_restore 5
 177              		.cfi_restore 4
 178              		.cfi_def_cfa_offset 0
 179 0038 7047     		bx	lr
 180              	.L11:
 181 003a 00BF     		.align	2
 182              	.L10:
 183 003c 001000E0 		.word	-536866816
 184 0040 00000000 		.word	ch
 185              		.cfi_endproc
 186              	.LFE284:
 187              		.size	chTMStopMeasurementX, .-chTMStopMeasurementX
 188              		.section	.text._tm_init,"ax",%progbits
 189              		.align	1
 190              		.p2align 4,,15
 191              		.global	_tm_init
 192              		.syntax unified
 193              		.thumb
 194              		.thumb_func
 195              		.fpu softvfp
 196              		.type	_tm_init, %function
 197              	_tm_init:
 198              	.LFB281:
 199              		.loc 1 77 0
 200              		.cfi_startproc
 201              		@ args = 0, pretend = 0, frame = 24
 202              		@ frame_needed = 0, uses_anonymous_args = 0
 203 0000 10B5     		push	{r4, lr}
 204              		.cfi_def_cfa_offset 8
 205              		.cfi_offset 4, -8
 206              		.cfi_offset 14, -4
 207              		.loc 1 83 0
 208 0002 0C4C     		ldr	r4, .L14
 209              		.loc 1 77 0
 210 0004 86B0     		sub	sp, sp, #24
 211              		.cfi_def_cfa_offset 32
 212              		.loc 1 83 0
 213 0006 0023     		movs	r3, #0
 214              	.LBB26:
 215              	.LBB27:
 216              		.loc 1 99 0
 217 0008 4FF0FF31 		mov	r1, #-1
 218              		.loc 1 103 0
 219 000c 0022     		movs	r2, #0
 220              	.LBE27:
 221              	.LBE26:
 222              		.loc 1 85 0
 223 000e 6846     		mov	r0, sp
 224              		.loc 1 83 0
 225 0010 6367     		str	r3, [r4, #116]
 226              	.LVL6:
 227              	.LBB29:
 228              	.LBB28:
ARM GAS  /var/folders/vd/czx34qs52cd_f3nb04sxmghc0000gn/T//ccbnwpIb.s 			page 5


 229              		.loc 1 101 0
 230 0012 CDE90133 		strd	r3, r3, [sp, #4]
 231              		.loc 1 102 0
 232 0016 0393     		str	r3, [sp, #12]
 233              		.loc 1 103 0
 234 0018 0023     		movs	r3, #0
 235 001a CDE90423 		strd	r2, [sp, #16]
 236              	.LVL7:
 237              		.loc 1 99 0
 238 001e 0091     		str	r1, [sp]
 239              	.LBE28:
 240              	.LBE29:
 241              		.loc 1 85 0
 242 0020 FFF7FEFF 		bl	chTMStartMeasurementX
 243              	.LVL8:
 244              		.loc 1 86 0
 245 0024 6846     		mov	r0, sp
 246 0026 FFF7FEFF 		bl	chTMStopMeasurementX
 247              	.LVL9:
 248              		.loc 1 87 0
 249 002a 029B     		ldr	r3, [sp, #8]
 250 002c 6367     		str	r3, [r4, #116]
 251              		.loc 1 88 0
 252 002e 06B0     		add	sp, sp, #24
 253              		.cfi_def_cfa_offset 8
 254              		@ sp needed
 255 0030 10BD     		pop	{r4, pc}
 256              	.L15:
 257 0032 00BF     		.align	2
 258              	.L14:
 259 0034 00000000 		.word	ch
 260              		.cfi_endproc
 261              	.LFE281:
 262              		.size	_tm_init, .-_tm_init
 263              		.section	.text.chTMChainMeasurementToX,"ax",%progbits
 264              		.align	1
 265              		.p2align 4,,15
 266              		.global	chTMChainMeasurementToX
 267              		.syntax unified
 268              		.thumb
 269              		.thumb_func
 270              		.fpu softvfp
 271              		.type	chTMChainMeasurementToX, %function
 272              	chTMChainMeasurementToX:
 273              	.LFB285:
 274              		.loc 1 145 0
 275              		.cfi_startproc
 276              		@ args = 0, pretend = 0, frame = 0
 277              		@ frame_needed = 0, uses_anonymous_args = 0
 278              		@ link register save eliminated.
 279              	.LVL10:
 280              	.LBB30:
 281              	.LBB31:
 282              		.loc 2 708 0
 283 0000 0D4B     		ldr	r3, .L20
 284              	.LBE31:
 285              	.LBE30:
ARM GAS  /var/folders/vd/czx34qs52cd_f3nb04sxmghc0000gn/T//ccbnwpIb.s 			page 6


 286              	.LBB33:
 287              	.LBB34:
 288              		.loc 1 60 0
 289 0002 4268     		ldr	r2, [r0, #4]
 290              	.LBE34:
 291              	.LBE33:
 292              	.LBB36:
 293              	.LBB32:
 294              		.loc 2 708 0
 295 0004 5B68     		ldr	r3, [r3, #4]
 296              	.LBE32:
 297              	.LBE36:
 298              		.loc 1 145 0
 299 0006 F0B4     		push	{r4, r5, r6, r7}
 300              		.cfi_def_cfa_offset 16
 301              		.cfi_offset 4, -16
 302              		.cfi_offset 5, -12
 303              		.cfi_offset 6, -8
 304              		.cfi_offset 7, -4
 305              		.loc 1 148 0
 306 0008 8B60     		str	r3, [r1, #8]
 307              	.LVL11:
 308              	.LBB37:
 309              	.LBB35:
 310              		.loc 1 57 0
 311 000a D0E90261 		ldrd	r6, r1, [r0, #8]
 312              	.LVL12:
 313              		.loc 1 59 0
 314 000e D0E90445 		ldrd	r4, [r0, #16]
 315              		.loc 1 58 0
 316 0012 9B1B     		subs	r3, r3, r6
 317              	.LVL13:
 318              		.loc 1 59 0
 319 0014 E618     		adds	r6, r4, r3
 320 0016 45F10007 		adc	r7, r5, #0
 321              		.loc 1 60 0
 322 001a 9342     		cmp	r3, r2
 323              		.loc 1 63 0
 324 001c 0268     		ldr	r2, [r0]
 325              		.loc 1 61 0
 326 001e 88BF     		it	hi
 327 0020 4360     		strhi	r3, [r0, #4]
 328              		.loc 1 57 0
 329 0022 0131     		adds	r1, r1, #1
 330              		.loc 1 63 0
 331 0024 9342     		cmp	r3, r2
 332              		.loc 1 59 0
 333 0026 C0E90467 		strd	r6, [r0, #16]
 334              		.loc 1 58 0
 335 002a C0E90231 		strd	r3, r1, [r0, #8]
 336              	.LVL14:
 337              		.loc 1 64 0
 338 002e 38BF     		it	cc
 339 0030 0360     		strcc	r3, [r0]
 340              	.LVL15:
 341              	.LBE35:
 342              	.LBE37:
ARM GAS  /var/folders/vd/czx34qs52cd_f3nb04sxmghc0000gn/T//ccbnwpIb.s 			page 7


 343              		.loc 1 152 0
 344 0032 F0BC     		pop	{r4, r5, r6, r7}
 345              		.cfi_restore 7
 346              		.cfi_restore 6
 347              		.cfi_restore 5
 348              		.cfi_restore 4
 349              		.cfi_def_cfa_offset 0
 350 0034 7047     		bx	lr
 351              	.L21:
 352 0036 00BF     		.align	2
 353              	.L20:
 354 0038 001000E0 		.word	-536866816
 355              		.cfi_endproc
 356              	.LFE285:
 357              		.size	chTMChainMeasurementToX, .-chTMChainMeasurementToX
 358              		.text
 359              	.Letext0:
 360              		.file 3 "/usr/local/Cellar/gcc-arm-none-eabi/20171218/lib/gcc/arm-none-eabi/7.2.1/include/stddef.h
 361              		.file 4 "/usr/local/Cellar/gcc-arm-none-eabi/20171218/arm-none-eabi/include/machine/_default_types
 362              		.file 5 "/usr/local/Cellar/gcc-arm-none-eabi/20171218/arm-none-eabi/include/sys/_stdint.h"
 363              		.file 6 "../os/common/ports/ARMCMx/compilers/GCC/chtypes.h"
 364              		.file 7 "../os/rt/include/chsystypes.h"
 365              		.file 8 "../os/rt/include/chschd.h"
 366              		.file 9 "../os/rt/include/chtime.h"
 367              		.file 10 "../os/common/ext/ARM/CMSIS/Core/Include/core_cm4.h"
 368              		.file 11 "../os/common/ext/ST/STM32F4xx/system_stm32f4xx.h"
 369              		.file 12 "../os/common/ports/ARMCMx/chcore.h"
 370              		.file 13 "../os/rt/include/chtm.h"
 371              		.file 14 "../os/rt/include/chsem.h"
 372              		.file 15 "../os/rt/include/chmtx.h"
 373              		.file 16 "../os/rt/include/chsys.h"
 374              		.file 17 "../os/rt/include/chregistry.h"
 375              		.file 18 "../os/common/oslib/include/chmemcore.h"
 376              		.file 19 "../os/common/oslib/include/chmempools.h"
 377              		.file 20 "../os/common/oslib/include/chfactory.h"
 378              		.section	.debug_info,"",%progbits
 379              	.Ldebug_info0:
 380 0000 0C0D0000 		.4byte	0xd0c
 381 0004 0400     		.2byte	0x4
 382 0006 00000000 		.4byte	.Ldebug_abbrev0
 383 000a 04       		.byte	0x4
 384 000b 01       		.uleb128 0x1
 385 000c 11010000 		.4byte	.LASF180
 386 0010 0C       		.byte	0xc
 387 0011 28020000 		.4byte	.LASF181
 388 0015 69030000 		.4byte	.LASF182
 389 0019 80000000 		.4byte	.Ldebug_ranges0+0x80
 390 001d 00000000 		.4byte	0
 391 0021 00000000 		.4byte	.Ldebug_line0
 392 0025 02       		.uleb128 0x2
 393 0026 04       		.byte	0x4
 394 0027 05       		.byte	0x5
 395 0028 696E7400 		.ascii	"int\000"
 396 002c 03       		.uleb128 0x3
 397 002d 0D000000 		.4byte	.LASF4
 398 0031 03       		.byte	0x3
 399 0032 D8       		.byte	0xd8
ARM GAS  /var/folders/vd/czx34qs52cd_f3nb04sxmghc0000gn/T//ccbnwpIb.s 			page 8


 400 0033 37000000 		.4byte	0x37
 401 0037 04       		.uleb128 0x4
 402 0038 04       		.byte	0x4
 403 0039 07       		.byte	0x7
 404 003a 33030000 		.4byte	.LASF0
 405 003e 04       		.uleb128 0x4
 406 003f 08       		.byte	0x8
 407 0040 05       		.byte	0x5
 408 0041 F5010000 		.4byte	.LASF1
 409 0045 04       		.uleb128 0x4
 410 0046 08       		.byte	0x8
 411 0047 04       		.byte	0x4
 412 0048 AE020000 		.4byte	.LASF2
 413 004c 04       		.uleb128 0x4
 414 004d 01       		.byte	0x1
 415 004e 06       		.byte	0x6
 416 004f 03020000 		.4byte	.LASF3
 417 0053 03       		.uleb128 0x3
 418 0054 2A000000 		.4byte	.LASF5
 419 0058 04       		.byte	0x4
 420 0059 2B       		.byte	0x2b
 421 005a 5E000000 		.4byte	0x5e
 422 005e 04       		.uleb128 0x4
 423 005f 01       		.byte	0x1
 424 0060 08       		.byte	0x8
 425 0061 CE050000 		.4byte	.LASF6
 426 0065 04       		.uleb128 0x4
 427 0066 02       		.byte	0x2
 428 0067 05       		.byte	0x5
 429 0068 27060000 		.4byte	.LASF7
 430 006c 03       		.uleb128 0x3
 431 006d FB060000 		.4byte	.LASF8
 432 0071 04       		.byte	0x4
 433 0072 39       		.byte	0x39
 434 0073 77000000 		.4byte	0x77
 435 0077 04       		.uleb128 0x4
 436 0078 02       		.byte	0x2
 437 0079 07       		.byte	0x7
 438 007a 6B070000 		.4byte	.LASF9
 439 007e 03       		.uleb128 0x3
 440 007f 66040000 		.4byte	.LASF10
 441 0083 04       		.byte	0x4
 442 0084 4D       		.byte	0x4d
 443 0085 89000000 		.4byte	0x89
 444 0089 04       		.uleb128 0x4
 445 008a 04       		.byte	0x4
 446 008b 05       		.byte	0x5
 447 008c 6D020000 		.4byte	.LASF11
 448 0090 03       		.uleb128 0x3
 449 0091 BA020000 		.4byte	.LASF12
 450 0095 04       		.byte	0x4
 451 0096 4F       		.byte	0x4f
 452 0097 9B000000 		.4byte	0x9b
 453 009b 04       		.uleb128 0x4
 454 009c 04       		.byte	0x4
 455 009d 07       		.byte	0x7
 456 009e CE060000 		.4byte	.LASF13
ARM GAS  /var/folders/vd/czx34qs52cd_f3nb04sxmghc0000gn/T//ccbnwpIb.s 			page 9


 457 00a2 03       		.uleb128 0x3
 458 00a3 3E050000 		.4byte	.LASF14
 459 00a7 04       		.byte	0x4
 460 00a8 69       		.byte	0x69
 461 00a9 AD000000 		.4byte	0xad
 462 00ad 04       		.uleb128 0x4
 463 00ae 08       		.byte	0x8
 464 00af 07       		.byte	0x7
 465 00b0 9D000000 		.4byte	.LASF15
 466 00b4 03       		.uleb128 0x3
 467 00b5 E5070000 		.4byte	.LASF16
 468 00b9 05       		.byte	0x5
 469 00ba 18       		.byte	0x18
 470 00bb 53000000 		.4byte	0x53
 471 00bf 05       		.uleb128 0x5
 472 00c0 B4000000 		.4byte	0xb4
 473 00c4 03       		.uleb128 0x3
 474 00c5 8F020000 		.4byte	.LASF17
 475 00c9 05       		.byte	0x5
 476 00ca 24       		.byte	0x24
 477 00cb 6C000000 		.4byte	0x6c
 478 00cf 03       		.uleb128 0x3
 479 00d0 C6050000 		.4byte	.LASF18
 480 00d4 05       		.byte	0x5
 481 00d5 2C       		.byte	0x2c
 482 00d6 7E000000 		.4byte	0x7e
 483 00da 06       		.uleb128 0x6
 484 00db CF000000 		.4byte	0xcf
 485 00df 03       		.uleb128 0x3
 486 00e0 A8060000 		.4byte	.LASF19
 487 00e4 05       		.byte	0x5
 488 00e5 30       		.byte	0x30
 489 00e6 90000000 		.4byte	0x90
 490 00ea 06       		.uleb128 0x6
 491 00eb DF000000 		.4byte	0xdf
 492 00ef 05       		.uleb128 0x5
 493 00f0 EA000000 		.4byte	0xea
 494 00f4 03       		.uleb128 0x3
 495 00f5 21000000 		.4byte	.LASF20
 496 00f9 05       		.byte	0x5
 497 00fa 3C       		.byte	0x3c
 498 00fb A2000000 		.4byte	0xa2
 499 00ff 03       		.uleb128 0x3
 500 0100 B1040000 		.4byte	.LASF21
 501 0104 06       		.byte	0x6
 502 0105 39       		.byte	0x39
 503 0106 DF000000 		.4byte	0xdf
 504 010a 03       		.uleb128 0x3
 505 010b 08010000 		.4byte	.LASF22
 506 010f 06       		.byte	0x6
 507 0110 3A       		.byte	0x3a
 508 0111 F4000000 		.4byte	0xf4
 509 0115 03       		.uleb128 0x3
 510 0116 2F040000 		.4byte	.LASF23
 511 011a 06       		.byte	0x6
 512 011b 3C       		.byte	0x3c
 513 011c B4000000 		.4byte	0xb4
ARM GAS  /var/folders/vd/czx34qs52cd_f3nb04sxmghc0000gn/T//ccbnwpIb.s 			page 10


 514 0120 03       		.uleb128 0x3
 515 0121 76020000 		.4byte	.LASF24
 516 0125 06       		.byte	0x6
 517 0126 3D       		.byte	0x3d
 518 0127 B4000000 		.4byte	0xb4
 519 012b 03       		.uleb128 0x3
 520 012c 5E050000 		.4byte	.LASF25
 521 0130 06       		.byte	0x6
 522 0131 3E       		.byte	0x3e
 523 0132 B4000000 		.4byte	0xb4
 524 0136 03       		.uleb128 0x3
 525 0137 A8050000 		.4byte	.LASF26
 526 013b 06       		.byte	0x6
 527 013c 40       		.byte	0x40
 528 013d DF000000 		.4byte	0xdf
 529 0141 03       		.uleb128 0x3
 530 0142 F5030000 		.4byte	.LASF27
 531 0146 06       		.byte	0x6
 532 0147 41       		.byte	0x41
 533 0148 CF000000 		.4byte	0xcf
 534 014c 03       		.uleb128 0x3
 535 014d 45040000 		.4byte	.LASF28
 536 0151 06       		.byte	0x6
 537 0152 43       		.byte	0x43
 538 0153 DF000000 		.4byte	0xdf
 539 0157 03       		.uleb128 0x3
 540 0158 1E030000 		.4byte	.LASF29
 541 015c 06       		.byte	0x6
 542 015d 45       		.byte	0x45
 543 015e CF000000 		.4byte	0xcf
 544 0162 03       		.uleb128 0x3
 545 0163 00040000 		.4byte	.LASF30
 546 0167 06       		.byte	0x6
 547 0168 46       		.byte	0x46
 548 0169 DF000000 		.4byte	0xdf
 549 016d 03       		.uleb128 0x3
 550 016e 06070000 		.4byte	.LASF31
 551 0172 07       		.byte	0x7
 552 0173 34       		.byte	0x34
 553 0174 78010000 		.4byte	0x178
 554 0178 07       		.uleb128 0x7
 555 0179 A5030000 		.4byte	.LASF49
 556 017d 44       		.byte	0x44
 557 017e 08       		.byte	0x8
 558 017f 8E       		.byte	0x8e
 559 0180 56020000 		.4byte	0x256
 560 0184 08       		.uleb128 0x8
 561 0185 C2030000 		.4byte	.LASF32
 562 0189 08       		.byte	0x8
 563 018a 8F       		.byte	0x8f
 564 018b 8B020000 		.4byte	0x28b
 565 018f 00       		.byte	0
 566 0190 08       		.uleb128 0x8
 567 0191 28050000 		.4byte	.LASF33
 568 0195 08       		.byte	0x8
 569 0196 90       		.byte	0x90
 570 0197 36010000 		.4byte	0x136
ARM GAS  /var/folders/vd/czx34qs52cd_f3nb04sxmghc0000gn/T//ccbnwpIb.s 			page 11


 571 019b 08       		.byte	0x8
 572 019c 09       		.uleb128 0x9
 573 019d 63747800 		.ascii	"ctx\000"
 574 01a1 08       		.byte	0x8
 575 01a2 91       		.byte	0x91
 576 01a3 3A060000 		.4byte	0x63a
 577 01a7 0C       		.byte	0xc
 578 01a8 08       		.uleb128 0x8
 579 01a9 93040000 		.4byte	.LASF34
 580 01ad 08       		.byte	0x8
 581 01ae 93       		.byte	0x93
 582 01af 61020000 		.4byte	0x261
 583 01b3 10       		.byte	0x10
 584 01b4 08       		.uleb128 0x8
 585 01b5 EC060000 		.4byte	.LASF35
 586 01b9 08       		.byte	0x8
 587 01ba 94       		.byte	0x94
 588 01bb 61020000 		.4byte	0x261
 589 01bf 14       		.byte	0x14
 590 01c0 08       		.uleb128 0x8
 591 01c1 BD030000 		.4byte	.LASF36
 592 01c5 08       		.byte	0x8
 593 01c6 9B       		.byte	0x9b
 594 01c7 0C080000 		.4byte	0x80c
 595 01cb 18       		.byte	0x18
 596 01cc 08       		.uleb128 0x8
 597 01cd E0060000 		.4byte	.LASF37
 598 01d1 08       		.byte	0x8
 599 01d2 A4       		.byte	0xa4
 600 01d3 23080000 		.4byte	0x823
 601 01d7 1C       		.byte	0x1c
 602 01d8 08       		.uleb128 0x8
 603 01d9 52020000 		.4byte	.LASF38
 604 01dd 08       		.byte	0x8
 605 01de A9       		.byte	0xa9
 606 01df 20010000 		.4byte	0x120
 607 01e3 20       		.byte	0x20
 608 01e4 08       		.uleb128 0x8
 609 01e5 ED070000 		.4byte	.LASF39
 610 01e9 08       		.byte	0x8
 611 01ea AD       		.byte	0xad
 612 01eb 15010000 		.4byte	0x115
 613 01ef 21       		.byte	0x21
 614 01f0 08       		.uleb128 0x8
 615 01f1 84050000 		.4byte	.LASF40
 616 01f5 08       		.byte	0x8
 617 01f6 B2       		.byte	0xb2
 618 01f7 2B010000 		.4byte	0x12b
 619 01fb 22       		.byte	0x22
 620 01fc 0A       		.uleb128 0xa
 621 01fd 7500     		.ascii	"u\000"
 622 01ff 08       		.byte	0x8
 623 0200 0301     		.2byte	0x103
 624 0202 42070000 		.4byte	0x742
 625 0206 24       		.byte	0x24
 626 0207 0B       		.uleb128 0xb
 627 0208 E7020000 		.4byte	.LASF41
ARM GAS  /var/folders/vd/czx34qs52cd_f3nb04sxmghc0000gn/T//ccbnwpIb.s 			page 12


 628 020c 08       		.byte	0x8
 629 020d 0801     		.2byte	0x108
 630 020f 67020000 		.4byte	0x267
 631 0213 28       		.byte	0x28
 632 0214 0B       		.uleb128 0xb
 633 0215 24030000 		.4byte	.LASF42
 634 0219 08       		.byte	0x8
 635 021a 0E01     		.2byte	0x10e
 636 021c 8B020000 		.4byte	0x28b
 637 0220 2C       		.byte	0x2c
 638 0221 0B       		.uleb128 0xb
 639 0222 07040000 		.4byte	.LASF43
 640 0226 08       		.byte	0x8
 641 0227 1401     		.2byte	0x114
 642 0229 4C010000 		.4byte	0x14c
 643 022d 34       		.byte	0x34
 644 022e 0B       		.uleb128 0xb
 645 022f 41080000 		.4byte	.LASF44
 646 0233 08       		.byte	0x8
 647 0234 1B01     		.2byte	0x11b
 648 0236 06080000 		.4byte	0x806
 649 023a 38       		.byte	0x38
 650 023b 0B       		.uleb128 0xb
 651 023c A0040000 		.4byte	.LASF45
 652 0240 08       		.byte	0x8
 653 0241 1F01     		.2byte	0x11f
 654 0243 36010000 		.4byte	0x136
 655 0247 3C       		.byte	0x3c
 656 0248 0B       		.uleb128 0xb
 657 0249 C8030000 		.4byte	.LASF46
 658 024d 08       		.byte	0x8
 659 024e 2601     		.2byte	0x126
 660 0250 3E030000 		.4byte	0x33e
 661 0254 40       		.byte	0x40
 662 0255 00       		.byte	0
 663 0256 03       		.uleb128 0x3
 664 0257 B9040000 		.4byte	.LASF47
 665 025b 07       		.byte	0x7
 666 025c 39       		.byte	0x39
 667 025d 61020000 		.4byte	0x261
 668 0261 0C       		.uleb128 0xc
 669 0262 04       		.byte	0x4
 670 0263 6D010000 		.4byte	0x16d
 671 0267 03       		.uleb128 0x3
 672 0268 0C080000 		.4byte	.LASF48
 673 026c 07       		.byte	0x7
 674 026d 3E       		.byte	0x3e
 675 026e 72020000 		.4byte	0x272
 676 0272 07       		.uleb128 0x7
 677 0273 B8060000 		.4byte	.LASF50
 678 0277 04       		.byte	0x4
 679 0278 08       		.byte	0x8
 680 0279 7C       		.byte	0x7c
 681 027a 8B020000 		.4byte	0x28b
 682 027e 08       		.uleb128 0x8
 683 027f 03010000 		.4byte	.LASF51
 684 0283 08       		.byte	0x8
ARM GAS  /var/folders/vd/czx34qs52cd_f3nb04sxmghc0000gn/T//ccbnwpIb.s 			page 13


 685 0284 7D       		.byte	0x7d
 686 0285 61020000 		.4byte	0x261
 687 0289 00       		.byte	0
 688 028a 00       		.byte	0
 689 028b 03       		.uleb128 0x3
 690 028c C0070000 		.4byte	.LASF52
 691 0290 07       		.byte	0x7
 692 0291 45       		.byte	0x45
 693 0292 96020000 		.4byte	0x296
 694 0296 07       		.uleb128 0x7
 695 0297 45000000 		.4byte	.LASF53
 696 029b 08       		.byte	0x8
 697 029c 08       		.byte	0x8
 698 029d 83       		.byte	0x83
 699 029e BB020000 		.4byte	0x2bb
 700 02a2 08       		.uleb128 0x8
 701 02a3 03010000 		.4byte	.LASF51
 702 02a7 08       		.byte	0x8
 703 02a8 84       		.byte	0x84
 704 02a9 61020000 		.4byte	0x261
 705 02ad 00       		.byte	0
 706 02ae 08       		.uleb128 0x8
 707 02af 34000000 		.4byte	.LASF54
 708 02b3 08       		.byte	0x8
 709 02b4 85       		.byte	0x85
 710 02b5 61020000 		.4byte	0x261
 711 02b9 04       		.byte	0x4
 712 02ba 00       		.byte	0
 713 02bb 03       		.uleb128 0x3
 714 02bc 00000000 		.4byte	.LASF55
 715 02c0 07       		.byte	0x7
 716 02c1 4C       		.byte	0x4c
 717 02c2 C6020000 		.4byte	0x2c6
 718 02c6 0D       		.uleb128 0xd
 719 02c7 37040000 		.4byte	.LASF56
 720 02cb 1C       		.byte	0x1c
 721 02cc 08       		.byte	0x8
 722 02cd 5E01     		.2byte	0x15e
 723 02cf 22030000 		.4byte	0x322
 724 02d3 0B       		.uleb128 0xb
 725 02d4 C2030000 		.4byte	.LASF32
 726 02d8 08       		.byte	0x8
 727 02d9 5F01     		.2byte	0x15f
 728 02db 8B020000 		.4byte	0x28b
 729 02df 00       		.byte	0
 730 02e0 0B       		.uleb128 0xb
 731 02e1 28050000 		.4byte	.LASF33
 732 02e5 08       		.byte	0x8
 733 02e6 6001     		.2byte	0x160
 734 02e8 36010000 		.4byte	0x136
 735 02ec 08       		.byte	0x8
 736 02ed 0A       		.uleb128 0xa
 737 02ee 63747800 		.ascii	"ctx\000"
 738 02f2 08       		.byte	0x8
 739 02f3 6201     		.2byte	0x162
 740 02f5 3A060000 		.4byte	0x63a
 741 02f9 0C       		.byte	0xc
ARM GAS  /var/folders/vd/czx34qs52cd_f3nb04sxmghc0000gn/T//ccbnwpIb.s 			page 14


 742 02fa 0B       		.uleb128 0xb
 743 02fb 93040000 		.4byte	.LASF34
 744 02ff 08       		.byte	0x8
 745 0300 6501     		.2byte	0x165
 746 0302 61020000 		.4byte	0x261
 747 0306 10       		.byte	0x10
 748 0307 0B       		.uleb128 0xb
 749 0308 EC060000 		.4byte	.LASF35
 750 030c 08       		.byte	0x8
 751 030d 6601     		.2byte	0x166
 752 030f 61020000 		.4byte	0x261
 753 0313 14       		.byte	0x14
 754 0314 0B       		.uleb128 0xb
 755 0315 36050000 		.4byte	.LASF57
 756 0319 08       		.byte	0x8
 757 031a 6901     		.2byte	0x169
 758 031c 61020000 		.4byte	0x261
 759 0320 18       		.byte	0x18
 760 0321 00       		.byte	0
 761 0322 03       		.uleb128 0x3
 762 0323 3E070000 		.4byte	.LASF58
 763 0327 07       		.byte	0x7
 764 0328 51       		.byte	0x51
 765 0329 2D030000 		.4byte	0x32d
 766 032d 0C       		.uleb128 0xc
 767 032e 04       		.byte	0x4
 768 032f 33030000 		.4byte	0x333
 769 0333 0E       		.uleb128 0xe
 770 0334 3E030000 		.4byte	0x33e
 771 0338 0F       		.uleb128 0xf
 772 0339 3E030000 		.4byte	0x33e
 773 033d 00       		.byte	0
 774 033e 10       		.uleb128 0x10
 775 033f 04       		.byte	0x4
 776 0340 03       		.uleb128 0x3
 777 0341 89050000 		.4byte	.LASF59
 778 0345 07       		.byte	0x7
 779 0346 56       		.byte	0x56
 780 0347 4B030000 		.4byte	0x34b
 781 034b 0D       		.uleb128 0xd
 782 034c 5F060000 		.4byte	.LASF60
 783 0350 14       		.byte	0x14
 784 0351 08       		.byte	0x8
 785 0352 3901     		.2byte	0x139
 786 0354 9A030000 		.4byte	0x39a
 787 0358 0B       		.uleb128 0xb
 788 0359 03010000 		.4byte	.LASF51
 789 035d 08       		.byte	0x8
 790 035e 3A01     		.2byte	0x13a
 791 0360 29080000 		.4byte	0x829
 792 0364 00       		.byte	0
 793 0365 0B       		.uleb128 0xb
 794 0366 34000000 		.4byte	.LASF54
 795 036a 08       		.byte	0x8
 796 036b 3B01     		.2byte	0x13b
 797 036d 29080000 		.4byte	0x829
 798 0371 04       		.byte	0x4
ARM GAS  /var/folders/vd/czx34qs52cd_f3nb04sxmghc0000gn/T//ccbnwpIb.s 			page 15


 799 0372 0B       		.uleb128 0xb
 800 0373 14000000 		.4byte	.LASF61
 801 0377 08       		.byte	0x8
 802 0378 3C01     		.2byte	0x13c
 803 037a 71040000 		.4byte	0x471
 804 037e 08       		.byte	0x8
 805 037f 0B       		.uleb128 0xb
 806 0380 7F020000 		.4byte	.LASF62
 807 0384 08       		.byte	0x8
 808 0385 3D01     		.2byte	0x13d
 809 0387 22030000 		.4byte	0x322
 810 038b 0C       		.byte	0xc
 811 038c 0A       		.uleb128 0xa
 812 038d 70617200 		.ascii	"par\000"
 813 0391 08       		.byte	0x8
 814 0392 3F01     		.2byte	0x13f
 815 0394 3E030000 		.4byte	0x33e
 816 0398 10       		.byte	0x10
 817 0399 00       		.byte	0
 818 039a 03       		.uleb128 0x3
 819 039b D0000000 		.4byte	.LASF63
 820 039f 07       		.byte	0x7
 821 03a0 5B       		.byte	0x5b
 822 03a1 A5030000 		.4byte	0x3a5
 823 03a5 0D       		.uleb128 0xd
 824 03a6 CC040000 		.4byte	.LASF64
 825 03aa 10       		.byte	0x10
 826 03ab 08       		.byte	0x8
 827 03ac 4901     		.2byte	0x149
 828 03ae E7030000 		.4byte	0x3e7
 829 03b2 0B       		.uleb128 0xb
 830 03b3 03010000 		.4byte	.LASF51
 831 03b7 08       		.byte	0x8
 832 03b8 4A01     		.2byte	0x14a
 833 03ba 29080000 		.4byte	0x829
 834 03be 00       		.byte	0
 835 03bf 0B       		.uleb128 0xb
 836 03c0 34000000 		.4byte	.LASF54
 837 03c4 08       		.byte	0x8
 838 03c5 4C01     		.2byte	0x14c
 839 03c7 29080000 		.4byte	0x829
 840 03cb 04       		.byte	0x4
 841 03cc 0B       		.uleb128 0xb
 842 03cd 14000000 		.4byte	.LASF61
 843 03d1 08       		.byte	0x8
 844 03d2 4E01     		.2byte	0x14e
 845 03d4 71040000 		.4byte	0x471
 846 03d8 08       		.byte	0x8
 847 03d9 0B       		.uleb128 0xb
 848 03da 31060000 		.4byte	.LASF65
 849 03de 08       		.byte	0x8
 850 03df 5601     		.2byte	0x156
 851 03e1 66040000 		.4byte	0x466
 852 03e5 0C       		.byte	0xc
 853 03e6 00       		.byte	0
 854 03e7 03       		.uleb128 0x3
 855 03e8 56000000 		.4byte	.LASF66
ARM GAS  /var/folders/vd/czx34qs52cd_f3nb04sxmghc0000gn/T//ccbnwpIb.s 			page 16


 856 03ec 07       		.byte	0x7
 857 03ed 60       		.byte	0x60
 858 03ee F2030000 		.4byte	0x3f2
 859 03f2 0D       		.uleb128 0xd
 860 03f3 D7020000 		.4byte	.LASF67
 861 03f7 04       		.byte	0x4
 862 03f8 08       		.byte	0x8
 863 03f9 7001     		.2byte	0x170
 864 03fb 0D040000 		.4byte	0x40d
 865 03ff 0B       		.uleb128 0xb
 866 0400 47070000 		.4byte	.LASF68
 867 0404 08       		.byte	0x8
 868 0405 7801     		.2byte	0x178
 869 0407 12080000 		.4byte	0x812
 870 040b 00       		.byte	0
 871 040c 00       		.byte	0
 872 040d 03       		.uleb128 0x3
 873 040e 1B040000 		.4byte	.LASF69
 874 0412 07       		.byte	0x7
 875 0413 65       		.byte	0x65
 876 0414 18040000 		.4byte	0x418
 877 0418 0D       		.uleb128 0xd
 878 0419 41060000 		.4byte	.LASF70
 879 041d 78       		.byte	0x78
 880 041e 08       		.byte	0x8
 881 041f 9001     		.2byte	0x190
 882 0421 66040000 		.4byte	0x466
 883 0425 0B       		.uleb128 0xb
 884 0426 1B020000 		.4byte	.LASF71
 885 042a 08       		.byte	0x8
 886 042b 9401     		.2byte	0x194
 887 042d BB020000 		.4byte	0x2bb
 888 0431 00       		.byte	0
 889 0432 0B       		.uleb128 0xb
 890 0433 21020000 		.4byte	.LASF72
 891 0437 08       		.byte	0x8
 892 0438 9801     		.2byte	0x198
 893 043a 9A030000 		.4byte	0x39a
 894 043e 1C       		.byte	0x1c
 895 043f 0A       		.uleb128 0xa
 896 0440 64626700 		.ascii	"dbg\000"
 897 0444 08       		.byte	0x8
 898 0445 9C01     		.2byte	0x19c
 899 0447 E7030000 		.4byte	0x3e7
 900 044b 2C       		.byte	0x2c
 901 044c 0B       		.uleb128 0xb
 902 044d BD000000 		.4byte	.LASF73
 903 0451 08       		.byte	0x8
 904 0452 A001     		.2byte	0x1a0
 905 0454 6D010000 		.4byte	0x16d
 906 0458 30       		.byte	0x30
 907 0459 0A       		.uleb128 0xa
 908 045a 746D00   		.ascii	"tm\000"
 909 045d 08       		.byte	0x8
 910 045e A501     		.2byte	0x1a5
 911 0460 E9060000 		.4byte	0x6e9
 912 0464 74       		.byte	0x74
ARM GAS  /var/folders/vd/czx34qs52cd_f3nb04sxmghc0000gn/T//ccbnwpIb.s 			page 17


 913 0465 00       		.byte	0
 914 0466 03       		.uleb128 0x3
 915 0467 34070000 		.4byte	.LASF74
 916 046b 09       		.byte	0x9
 917 046c 8C       		.byte	0x8c
 918 046d DF000000 		.4byte	0xdf
 919 0471 03       		.uleb128 0x3
 920 0472 10030000 		.4byte	.LASF75
 921 0476 09       		.byte	0x9
 922 0477 98       		.byte	0x98
 923 0478 DF000000 		.4byte	0xdf
 924 047c 11       		.uleb128 0x11
 925 047d DF000000 		.4byte	0xdf
 926 0481 8C040000 		.4byte	0x48c
 927 0485 12       		.uleb128 0x12
 928 0486 37000000 		.4byte	0x37
 929 048a 00       		.byte	0
 930 048b 00       		.byte	0
 931 048c 13       		.uleb128 0x13
 932 048d 5C       		.byte	0x5c
 933 048e 0A       		.byte	0xa
 934 048f 9203     		.2byte	0x392
 935 0491 C1050000 		.4byte	0x5c1
 936 0495 0B       		.uleb128 0xb
 937 0496 94070000 		.4byte	.LASF76
 938 049a 0A       		.byte	0xa
 939 049b 9403     		.2byte	0x394
 940 049d EA000000 		.4byte	0xea
 941 04a1 00       		.byte	0
 942 04a2 0B       		.uleb128 0xb
 943 04a3 99040000 		.4byte	.LASF77
 944 04a7 0A       		.byte	0xa
 945 04a8 9503     		.2byte	0x395
 946 04aa EA000000 		.4byte	0xea
 947 04ae 04       		.byte	0x4
 948 04af 0B       		.uleb128 0xb
 949 04b0 14020000 		.4byte	.LASF78
 950 04b4 0A       		.byte	0xa
 951 04b5 9603     		.2byte	0x396
 952 04b7 EA000000 		.4byte	0xea
 953 04bb 08       		.byte	0x8
 954 04bc 0B       		.uleb128 0xb
 955 04bd EE030000 		.4byte	.LASF79
 956 04c1 0A       		.byte	0xa
 957 04c2 9703     		.2byte	0x397
 958 04c4 EA000000 		.4byte	0xea
 959 04c8 0C       		.byte	0xc
 960 04c9 0B       		.uleb128 0xb
 961 04ca E5030000 		.4byte	.LASF80
 962 04ce 0A       		.byte	0xa
 963 04cf 9803     		.2byte	0x398
 964 04d1 EA000000 		.4byte	0xea
 965 04d5 10       		.byte	0x10
 966 04d6 0B       		.uleb128 0xb
 967 04d7 A1060000 		.4byte	.LASF81
 968 04db 0A       		.byte	0xa
 969 04dc 9903     		.2byte	0x399
ARM GAS  /var/folders/vd/czx34qs52cd_f3nb04sxmghc0000gn/T//ccbnwpIb.s 			page 18


 970 04de EA000000 		.4byte	0xea
 971 04e2 14       		.byte	0x14
 972 04e3 0B       		.uleb128 0xb
 973 04e4 FD070000 		.4byte	.LASF82
 974 04e8 0A       		.byte	0xa
 975 04e9 9A03     		.2byte	0x39a
 976 04eb EA000000 		.4byte	0xea
 977 04ef 18       		.byte	0x18
 978 04f0 0B       		.uleb128 0xb
 979 04f1 B0050000 		.4byte	.LASF83
 980 04f5 0A       		.byte	0xa
 981 04f6 9B03     		.2byte	0x39b
 982 04f8 EF000000 		.4byte	0xef
 983 04fc 1C       		.byte	0x1c
 984 04fd 0B       		.uleb128 0xb
 985 04fe 10050000 		.4byte	.LASF84
 986 0502 0A       		.byte	0xa
 987 0503 9C03     		.2byte	0x39c
 988 0505 EA000000 		.4byte	0xea
 989 0509 20       		.byte	0x20
 990 050a 0B       		.uleb128 0xb
 991 050b 2D030000 		.4byte	.LASF85
 992 050f 0A       		.byte	0xa
 993 0510 9D03     		.2byte	0x39d
 994 0512 EA000000 		.4byte	0xea
 995 0516 24       		.byte	0x24
 996 0517 0B       		.uleb128 0xb
 997 0518 FF050000 		.4byte	.LASF86
 998 051c 0A       		.byte	0xa
 999 051d 9E03     		.2byte	0x39e
 1000 051f EA000000 		.4byte	0xea
 1001 0523 28       		.byte	0x28
 1002 0524 0B       		.uleb128 0xb
 1003 0525 66050000 		.4byte	.LASF87
 1004 0529 0A       		.byte	0xa
 1005 052a 9F03     		.2byte	0x39f
 1006 052c 7C040000 		.4byte	0x47c
 1007 0530 2C       		.byte	0x2c
 1008 0531 0B       		.uleb128 0xb
 1009 0532 16050000 		.4byte	.LASF88
 1010 0536 0A       		.byte	0xa
 1011 0537 A003     		.2byte	0x3a0
 1012 0539 EA000000 		.4byte	0xea
 1013 053d 30       		.byte	0x30
 1014 053e 0B       		.uleb128 0xb
 1015 053f 40030000 		.4byte	.LASF89
 1016 0543 0A       		.byte	0xa
 1017 0544 A103     		.2byte	0x3a1
 1018 0546 EA000000 		.4byte	0xea
 1019 054a 34       		.byte	0x34
 1020 054b 0B       		.uleb128 0xb
 1021 054c 09060000 		.4byte	.LASF90
 1022 0550 0A       		.byte	0xa
 1023 0551 A203     		.2byte	0x3a2
 1024 0553 EA000000 		.4byte	0xea
 1025 0557 38       		.byte	0x38
 1026 0558 0B       		.uleb128 0xb
ARM GAS  /var/folders/vd/czx34qs52cd_f3nb04sxmghc0000gn/T//ccbnwpIb.s 			page 19


 1027 0559 70050000 		.4byte	.LASF91
 1028 055d 0A       		.byte	0xa
 1029 055e A303     		.2byte	0x3a3
 1030 0560 7C040000 		.4byte	0x47c
 1031 0564 3C       		.byte	0x3c
 1032 0565 0B       		.uleb128 0xb
 1033 0566 1C050000 		.4byte	.LASF92
 1034 056a 0A       		.byte	0xa
 1035 056b A403     		.2byte	0x3a4
 1036 056d EA000000 		.4byte	0xea
 1037 0571 40       		.byte	0x40
 1038 0572 0B       		.uleb128 0xb
 1039 0573 46030000 		.4byte	.LASF93
 1040 0577 0A       		.byte	0xa
 1041 0578 A503     		.2byte	0x3a5
 1042 057a EA000000 		.4byte	0xea
 1043 057e 44       		.byte	0x44
 1044 057f 0B       		.uleb128 0xb
 1045 0580 13060000 		.4byte	.LASF94
 1046 0584 0A       		.byte	0xa
 1047 0585 A603     		.2byte	0x3a6
 1048 0587 EA000000 		.4byte	0xea
 1049 058b 48       		.byte	0x48
 1050 058c 0B       		.uleb128 0xb
 1051 058d 7A050000 		.4byte	.LASF95
 1052 0591 0A       		.byte	0xa
 1053 0592 A703     		.2byte	0x3a7
 1054 0594 7C040000 		.4byte	0x47c
 1055 0598 4C       		.byte	0x4c
 1056 0599 0B       		.uleb128 0xb
 1057 059a 22050000 		.4byte	.LASF96
 1058 059e 0A       		.byte	0xa
 1059 059f A803     		.2byte	0x3a8
 1060 05a1 EA000000 		.4byte	0xea
 1061 05a5 50       		.byte	0x50
 1062 05a6 0B       		.uleb128 0xb
 1063 05a7 5C030000 		.4byte	.LASF97
 1064 05ab 0A       		.byte	0xa
 1065 05ac A903     		.2byte	0x3a9
 1066 05ae EA000000 		.4byte	0xea
 1067 05b2 54       		.byte	0x54
 1068 05b3 0B       		.uleb128 0xb
 1069 05b4 1D060000 		.4byte	.LASF98
 1070 05b8 0A       		.byte	0xa
 1071 05b9 AA03     		.2byte	0x3aa
 1072 05bb EA000000 		.4byte	0xea
 1073 05bf 58       		.byte	0x58
 1074 05c0 00       		.byte	0
 1075 05c1 14       		.uleb128 0x14
 1076 05c2 7E070000 		.4byte	.LASF99
 1077 05c6 0A       		.byte	0xa
 1078 05c7 AB03     		.2byte	0x3ab
 1079 05c9 8C040000 		.4byte	0x48c
 1080 05cd 15       		.uleb128 0x15
 1081 05ce F2050000 		.4byte	.LASF100
 1082 05d2 0A       		.byte	0xa
 1083 05d3 F407     		.2byte	0x7f4
ARM GAS  /var/folders/vd/czx34qs52cd_f3nb04sxmghc0000gn/T//ccbnwpIb.s 			page 20


 1084 05d5 DA000000 		.4byte	0xda
 1085 05d9 16       		.uleb128 0x16
 1086 05da 4C030000 		.4byte	.LASF101
 1087 05de 0B       		.byte	0xb
 1088 05df 4C       		.byte	0x4c
 1089 05e0 DF000000 		.4byte	0xdf
 1090 05e4 11       		.uleb128 0x11
 1091 05e5 BF000000 		.4byte	0xbf
 1092 05e9 F4050000 		.4byte	0x5f4
 1093 05ed 12       		.uleb128 0x12
 1094 05ee 37000000 		.4byte	0x37
 1095 05f2 0F       		.byte	0xf
 1096 05f3 00       		.byte	0
 1097 05f4 05       		.uleb128 0x5
 1098 05f5 E4050000 		.4byte	0x5e4
 1099 05f9 16       		.uleb128 0x16
 1100 05fa 51040000 		.4byte	.LASF102
 1101 05fe 0B       		.byte	0xb
 1102 05ff 4E       		.byte	0x4e
 1103 0600 F4050000 		.4byte	0x5f4
 1104 0604 11       		.uleb128 0x11
 1105 0605 BF000000 		.4byte	0xbf
 1106 0609 14060000 		.4byte	0x614
 1107 060d 12       		.uleb128 0x12
 1108 060e 37000000 		.4byte	0x37
 1109 0612 07       		.byte	0x7
 1110 0613 00       		.byte	0
 1111 0614 05       		.uleb128 0x5
 1112 0615 04060000 		.4byte	0x604
 1113 0619 16       		.uleb128 0x16
 1114 061a EF020000 		.4byte	.LASF103
 1115 061e 0B       		.byte	0xb
 1116 061f 4F       		.byte	0x4f
 1117 0620 14060000 		.4byte	0x614
 1118 0624 03       		.uleb128 0x3
 1119 0625 C5020000 		.4byte	.LASF104
 1120 0629 0C       		.byte	0xc
 1121 062a 65       		.byte	0x65
 1122 062b 3E030000 		.4byte	0x33e
 1123 062f 03       		.uleb128 0x3
 1124 0630 88040000 		.4byte	.LASF105
 1125 0634 0C       		.byte	0xc
 1126 0635 6D       		.byte	0x6d
 1127 0636 F4000000 		.4byte	0xf4
 1128 063a 07       		.uleb128 0x7
 1129 063b 77000000 		.4byte	.LASF106
 1130 063f 04       		.byte	0x4
 1131 0640 0C       		.byte	0xc
 1132 0641 89       		.byte	0x89
 1133 0642 52060000 		.4byte	0x652
 1134 0646 09       		.uleb128 0x9
 1135 0647 737000   		.ascii	"sp\000"
 1136 064a 0C       		.byte	0xc
 1137 064b 8A       		.byte	0x8a
 1138 064c CE060000 		.4byte	0x6ce
 1139 0650 00       		.byte	0
 1140 0651 00       		.byte	0
ARM GAS  /var/folders/vd/czx34qs52cd_f3nb04sxmghc0000gn/T//ccbnwpIb.s 			page 21


 1141 0652 0D       		.uleb128 0xd
 1142 0653 39000000 		.4byte	.LASF107
 1143 0657 24       		.byte	0x24
 1144 0658 02       		.byte	0x2
 1145 0659 5901     		.2byte	0x159
 1146 065b CE060000 		.4byte	0x6ce
 1147 065f 0A       		.uleb128 0xa
 1148 0660 723400   		.ascii	"r4\000"
 1149 0663 02       		.byte	0x2
 1150 0664 6C01     		.2byte	0x16c
 1151 0666 24060000 		.4byte	0x624
 1152 066a 00       		.byte	0
 1153 066b 0A       		.uleb128 0xa
 1154 066c 723500   		.ascii	"r5\000"
 1155 066f 02       		.byte	0x2
 1156 0670 6D01     		.2byte	0x16d
 1157 0672 24060000 		.4byte	0x624
 1158 0676 04       		.byte	0x4
 1159 0677 0A       		.uleb128 0xa
 1160 0678 723600   		.ascii	"r6\000"
 1161 067b 02       		.byte	0x2
 1162 067c 6E01     		.2byte	0x16e
 1163 067e 24060000 		.4byte	0x624
 1164 0682 08       		.byte	0x8
 1165 0683 0A       		.uleb128 0xa
 1166 0684 723700   		.ascii	"r7\000"
 1167 0687 02       		.byte	0x2
 1168 0688 6F01     		.2byte	0x16f
 1169 068a 24060000 		.4byte	0x624
 1170 068e 0C       		.byte	0xc
 1171 068f 0A       		.uleb128 0xa
 1172 0690 723800   		.ascii	"r8\000"
 1173 0693 02       		.byte	0x2
 1174 0694 7001     		.2byte	0x170
 1175 0696 24060000 		.4byte	0x624
 1176 069a 10       		.byte	0x10
 1177 069b 0A       		.uleb128 0xa
 1178 069c 723900   		.ascii	"r9\000"
 1179 069f 02       		.byte	0x2
 1180 06a0 7101     		.2byte	0x171
 1181 06a2 24060000 		.4byte	0x624
 1182 06a6 14       		.byte	0x14
 1183 06a7 0A       		.uleb128 0xa
 1184 06a8 72313000 		.ascii	"r10\000"
 1185 06ac 02       		.byte	0x2
 1186 06ad 7201     		.2byte	0x172
 1187 06af 24060000 		.4byte	0x624
 1188 06b3 18       		.byte	0x18
 1189 06b4 0A       		.uleb128 0xa
 1190 06b5 72313100 		.ascii	"r11\000"
 1191 06b9 02       		.byte	0x2
 1192 06ba 7301     		.2byte	0x173
 1193 06bc 24060000 		.4byte	0x624
 1194 06c0 1C       		.byte	0x1c
 1195 06c1 0A       		.uleb128 0xa
 1196 06c2 6C7200   		.ascii	"lr\000"
 1197 06c5 02       		.byte	0x2
ARM GAS  /var/folders/vd/czx34qs52cd_f3nb04sxmghc0000gn/T//ccbnwpIb.s 			page 22


 1198 06c6 7401     		.2byte	0x174
 1199 06c8 24060000 		.4byte	0x624
 1200 06cc 20       		.byte	0x20
 1201 06cd 00       		.byte	0
 1202 06ce 0C       		.uleb128 0xc
 1203 06cf 04       		.byte	0x4
 1204 06d0 52060000 		.4byte	0x652
 1205 06d4 17       		.uleb128 0x17
 1206 06d5 04       		.byte	0x4
 1207 06d6 0D       		.byte	0xd
 1208 06d7 38       		.byte	0x38
 1209 06d8 E9060000 		.4byte	0x6e9
 1210 06dc 08       		.uleb128 0x8
 1211 06dd 51070000 		.4byte	.LASF108
 1212 06e1 0D       		.byte	0xd
 1213 06e2 3C       		.byte	0x3c
 1214 06e3 FF000000 		.4byte	0xff
 1215 06e7 00       		.byte	0
 1216 06e8 00       		.byte	0
 1217 06e9 03       		.uleb128 0x3
 1218 06ea FF040000 		.4byte	.LASF109
 1219 06ee 0D       		.byte	0xd
 1220 06ef 3D       		.byte	0x3d
 1221 06f0 D4060000 		.4byte	0x6d4
 1222 06f4 17       		.uleb128 0x17
 1223 06f5 18       		.byte	0x18
 1224 06f6 0D       		.byte	0xd
 1225 06f7 48       		.byte	0x48
 1226 06f8 37070000 		.4byte	0x737
 1227 06fc 08       		.uleb128 0x8
 1228 06fd CE030000 		.4byte	.LASF110
 1229 0701 0D       		.byte	0xd
 1230 0702 49       		.byte	0x49
 1231 0703 FF000000 		.4byte	0xff
 1232 0707 00       		.byte	0
 1233 0708 08       		.uleb128 0x8
 1234 0709 84000000 		.4byte	.LASF111
 1235 070d 0D       		.byte	0xd
 1236 070e 4A       		.byte	0x4a
 1237 070f FF000000 		.4byte	0xff
 1238 0713 04       		.byte	0x4
 1239 0714 08       		.uleb128 0x8
 1240 0715 FB030000 		.4byte	.LASF112
 1241 0719 0D       		.byte	0xd
 1242 071a 4B       		.byte	0x4b
 1243 071b FF000000 		.4byte	0xff
 1244 071f 08       		.byte	0x8
 1245 0720 09       		.uleb128 0x9
 1246 0721 6E00     		.ascii	"n\000"
 1247 0723 0D       		.byte	0xd
 1248 0724 4C       		.byte	0x4c
 1249 0725 62010000 		.4byte	0x162
 1250 0729 0C       		.byte	0xc
 1251 072a 08       		.uleb128 0x8
 1252 072b 53050000 		.4byte	.LASF113
 1253 072f 0D       		.byte	0xd
 1254 0730 4D       		.byte	0x4d
ARM GAS  /var/folders/vd/czx34qs52cd_f3nb04sxmghc0000gn/T//ccbnwpIb.s 			page 23


 1255 0731 0A010000 		.4byte	0x10a
 1256 0735 10       		.byte	0x10
 1257 0736 00       		.byte	0
 1258 0737 03       		.uleb128 0x3
 1259 0738 8A000000 		.4byte	.LASF114
 1260 073c 0D       		.byte	0xd
 1261 073d 4E       		.byte	0x4e
 1262 073e F4060000 		.4byte	0x6f4
 1263 0742 18       		.uleb128 0x18
 1264 0743 04       		.byte	0x4
 1265 0744 08       		.byte	0x8
 1266 0745 C6       		.byte	0xc6
 1267 0746 A4070000 		.4byte	0x7a4
 1268 074a 19       		.uleb128 0x19
 1269 074b 1A000000 		.4byte	.LASF115
 1270 074f 08       		.byte	0x8
 1271 0750 CD       		.byte	0xcd
 1272 0751 41010000 		.4byte	0x141
 1273 0755 19       		.uleb128 0x19
 1274 0756 B4000000 		.4byte	.LASF116
 1275 075a 08       		.byte	0x8
 1276 075b D4       		.byte	0xd4
 1277 075c 41010000 		.4byte	0x141
 1278 0760 19       		.uleb128 0x19
 1279 0761 05080000 		.4byte	.LASF117
 1280 0765 08       		.byte	0x8
 1281 0766 DB       		.byte	0xdb
 1282 0767 3E030000 		.4byte	0x33e
 1283 076b 19       		.uleb128 0x19
 1284 076c E3040000 		.4byte	.LASF118
 1285 0770 08       		.byte	0x8
 1286 0771 E2       		.byte	0xe2
 1287 0772 A4070000 		.4byte	0x7a4
 1288 0776 19       		.uleb128 0x19
 1289 0777 49080000 		.4byte	.LASF119
 1290 077b 08       		.byte	0x8
 1291 077c E7       		.byte	0xe7
 1292 077d 41010000 		.4byte	0x141
 1293 0781 19       		.uleb128 0x19
 1294 0782 62030000 		.4byte	.LASF120
 1295 0786 08       		.byte	0x8
 1296 0787 F0       		.byte	0xf0
 1297 0788 CF070000 		.4byte	0x7cf
 1298 078c 19       		.uleb128 0x19
 1299 078d B1060000 		.4byte	.LASF121
 1300 0791 08       		.byte	0x8
 1301 0792 F9       		.byte	0xf9
 1302 0793 06080000 		.4byte	0x806
 1303 0797 1A       		.uleb128 0x1a
 1304 0798 3A060000 		.4byte	.LASF122
 1305 079c 08       		.byte	0x8
 1306 079d 0101     		.2byte	0x101
 1307 079f 4C010000 		.4byte	0x14c
 1308 07a3 00       		.byte	0
 1309 07a4 0C       		.uleb128 0xc
 1310 07a5 04       		.byte	0x4
 1311 07a6 56020000 		.4byte	0x256
ARM GAS  /var/folders/vd/czx34qs52cd_f3nb04sxmghc0000gn/T//ccbnwpIb.s 			page 24


 1312 07aa 07       		.uleb128 0x7
 1313 07ab 70060000 		.4byte	.LASF123
 1314 07af 0C       		.byte	0xc
 1315 07b0 0E       		.byte	0xe
 1316 07b1 34       		.byte	0x34
 1317 07b2 CF070000 		.4byte	0x7cf
 1318 07b6 08       		.uleb128 0x8
 1319 07b7 C2030000 		.4byte	.LASF32
 1320 07bb 0E       		.byte	0xe
 1321 07bc 35       		.byte	0x35
 1322 07bd 8B020000 		.4byte	0x28b
 1323 07c1 00       		.byte	0
 1324 07c2 09       		.uleb128 0x9
 1325 07c3 636E7400 		.ascii	"cnt\000"
 1326 07c7 0E       		.byte	0xe
 1327 07c8 37       		.byte	0x37
 1328 07c9 57010000 		.4byte	0x157
 1329 07cd 08       		.byte	0x8
 1330 07ce 00       		.byte	0
 1331 07cf 0C       		.uleb128 0xc
 1332 07d0 04       		.byte	0x4
 1333 07d1 AA070000 		.4byte	0x7aa
 1334 07d5 07       		.uleb128 0x7
 1335 07d6 58070000 		.4byte	.LASF124
 1336 07da 10       		.byte	0x10
 1337 07db 0F       		.byte	0xf
 1338 07dc 39       		.byte	0x39
 1339 07dd 06080000 		.4byte	0x806
 1340 07e1 08       		.uleb128 0x8
 1341 07e2 C2030000 		.4byte	.LASF32
 1342 07e6 0F       		.byte	0xf
 1343 07e7 3A       		.byte	0x3a
 1344 07e8 8B020000 		.4byte	0x28b
 1345 07ec 00       		.byte	0
 1346 07ed 08       		.uleb128 0x8
 1347 07ee C8060000 		.4byte	.LASF125
 1348 07f2 0F       		.byte	0xf
 1349 07f3 3C       		.byte	0x3c
 1350 07f4 61020000 		.4byte	0x261
 1351 07f8 08       		.byte	0x8
 1352 07f9 08       		.uleb128 0x8
 1353 07fa 03010000 		.4byte	.LASF51
 1354 07fe 0F       		.byte	0xf
 1355 07ff 3E       		.byte	0x3e
 1356 0800 68090000 		.4byte	0x968
 1357 0804 0C       		.byte	0xc
 1358 0805 00       		.byte	0
 1359 0806 0C       		.uleb128 0xc
 1360 0807 04       		.byte	0x4
 1361 0808 D5070000 		.4byte	0x7d5
 1362 080c 0C       		.uleb128 0xc
 1363 080d 04       		.byte	0x4
 1364 080e 1E080000 		.4byte	0x81e
 1365 0812 06       		.uleb128 0x6
 1366 0813 0C080000 		.4byte	0x80c
 1367 0817 04       		.uleb128 0x4
 1368 0818 01       		.byte	0x1
ARM GAS  /var/folders/vd/czx34qs52cd_f3nb04sxmghc0000gn/T//ccbnwpIb.s 			page 25


 1369 0819 08       		.byte	0x8
 1370 081a E7060000 		.4byte	.LASF126
 1371 081e 05       		.uleb128 0x5
 1372 081f 17080000 		.4byte	0x817
 1373 0823 0C       		.uleb128 0xc
 1374 0824 04       		.byte	0x4
 1375 0825 2F060000 		.4byte	0x62f
 1376 0829 0C       		.uleb128 0xc
 1377 082a 04       		.byte	0x4
 1378 082b 40030000 		.4byte	0x340
 1379 082f 1B       		.uleb128 0x1b
 1380 0830 636800   		.ascii	"ch\000"
 1381 0833 08       		.byte	0x8
 1382 0834 C701     		.2byte	0x1c7
 1383 0836 0D040000 		.4byte	0x40d
 1384 083a 11       		.uleb128 0x11
 1385 083b 2F060000 		.4byte	0x62f
 1386 083f 45080000 		.4byte	0x845
 1387 0843 1C       		.uleb128 0x1c
 1388 0844 00       		.byte	0
 1389 0845 15       		.uleb128 0x15
 1390 0846 86060000 		.4byte	.LASF127
 1391 084a 10       		.byte	0x10
 1392 084b 1701     		.2byte	0x117
 1393 084d 3A080000 		.4byte	0x83a
 1394 0851 17       		.uleb128 0x17
 1395 0852 16       		.byte	0x16
 1396 0853 11       		.byte	0x11
 1397 0854 34       		.byte	0x34
 1398 0855 32090000 		.4byte	0x932
 1399 0859 08       		.uleb128 0x8
 1400 085a 84020000 		.4byte	.LASF128
 1401 085e 11       		.byte	0x11
 1402 085f 35       		.byte	0x35
 1403 0860 32090000 		.4byte	0x932
 1404 0864 00       		.byte	0
 1405 0865 08       		.uleb128 0x8
 1406 0866 FD020000 		.4byte	.LASF129
 1407 086a 11       		.byte	0x11
 1408 086b 36       		.byte	0x36
 1409 086c B4000000 		.4byte	0xb4
 1410 0870 04       		.byte	0x4
 1411 0871 08       		.uleb128 0x8
 1412 0872 0F020000 		.4byte	.LASF130
 1413 0876 11       		.byte	0x11
 1414 0877 37       		.byte	0x37
 1415 0878 B4000000 		.4byte	0xb4
 1416 087c 05       		.byte	0x5
 1417 087d 08       		.uleb128 0x8
 1418 087e A9040000 		.4byte	.LASF131
 1419 0882 11       		.byte	0x11
 1420 0883 38       		.byte	0x38
 1421 0884 C4000000 		.4byte	0xc4
 1422 0888 06       		.byte	0x6
 1423 0889 08       		.uleb128 0x8
 1424 088a A5070000 		.4byte	.LASF132
 1425 088e 11       		.byte	0x11
ARM GAS  /var/folders/vd/czx34qs52cd_f3nb04sxmghc0000gn/T//ccbnwpIb.s 			page 26


 1426 088f 39       		.byte	0x39
 1427 0890 B4000000 		.4byte	0xb4
 1428 0894 08       		.byte	0x8
 1429 0895 08       		.uleb128 0x8
 1430 0896 98060000 		.4byte	.LASF133
 1431 089a 11       		.byte	0x11
 1432 089b 3A       		.byte	0x3a
 1433 089c B4000000 		.4byte	0xb4
 1434 08a0 09       		.byte	0x9
 1435 08a1 08       		.uleb128 0x8
 1436 08a2 B5050000 		.4byte	.LASF134
 1437 08a6 11       		.byte	0x11
 1438 08a7 3B       		.byte	0x3b
 1439 08a8 B4000000 		.4byte	0xb4
 1440 08ac 0A       		.byte	0xa
 1441 08ad 08       		.uleb128 0x8
 1442 08ae DC050000 		.4byte	.LASF135
 1443 08b2 11       		.byte	0x11
 1444 08b3 3C       		.byte	0x3c
 1445 08b4 B4000000 		.4byte	0xb4
 1446 08b8 0B       		.byte	0xb
 1447 08b9 08       		.uleb128 0x8
 1448 08ba 27040000 		.4byte	.LASF136
 1449 08be 11       		.byte	0x11
 1450 08bf 3D       		.byte	0x3d
 1451 08c0 B4000000 		.4byte	0xb4
 1452 08c4 0C       		.byte	0xc
 1453 08c5 08       		.uleb128 0x8
 1454 08c6 F5040000 		.4byte	.LASF137
 1455 08ca 11       		.byte	0x11
 1456 08cb 3E       		.byte	0x3e
 1457 08cc B4000000 		.4byte	0xb4
 1458 08d0 0D       		.byte	0xd
 1459 08d1 08       		.uleb128 0x8
 1460 08d2 61070000 		.4byte	.LASF138
 1461 08d6 11       		.byte	0x11
 1462 08d7 3F       		.byte	0x3f
 1463 08d8 B4000000 		.4byte	0xb4
 1464 08dc 0E       		.byte	0xe
 1465 08dd 08       		.uleb128 0x8
 1466 08de DC070000 		.4byte	.LASF139
 1467 08e2 11       		.byte	0x11
 1468 08e3 40       		.byte	0x40
 1469 08e4 B4000000 		.4byte	0xb4
 1470 08e8 0F       		.byte	0xf
 1471 08e9 08       		.uleb128 0x8
 1472 08ea E5050000 		.4byte	.LASF140
 1473 08ee 11       		.byte	0x11
 1474 08ef 41       		.byte	0x41
 1475 08f0 B4000000 		.4byte	0xb4
 1476 08f4 10       		.byte	0x10
 1477 08f5 08       		.uleb128 0x8
 1478 08f6 1B080000 		.4byte	.LASF141
 1479 08fa 11       		.byte	0x11
 1480 08fb 42       		.byte	0x42
 1481 08fc B4000000 		.4byte	0xb4
 1482 0900 11       		.byte	0x11
ARM GAS  /var/folders/vd/czx34qs52cd_f3nb04sxmghc0000gn/T//ccbnwpIb.s 			page 27


 1483 0901 08       		.uleb128 0x8
 1484 0902 37080000 		.4byte	.LASF142
 1485 0906 11       		.byte	0x11
 1486 0907 43       		.byte	0x43
 1487 0908 B4000000 		.4byte	0xb4
 1488 090c 12       		.byte	0x12
 1489 090d 08       		.uleb128 0x8
 1490 090e D3030000 		.4byte	.LASF143
 1491 0912 11       		.byte	0x11
 1492 0913 44       		.byte	0x44
 1493 0914 B4000000 		.4byte	0xb4
 1494 0918 13       		.byte	0x13
 1495 0919 08       		.uleb128 0x8
 1496 091a A2020000 		.4byte	.LASF144
 1497 091e 11       		.byte	0x11
 1498 091f 45       		.byte	0x45
 1499 0920 B4000000 		.4byte	0xb4
 1500 0924 14       		.byte	0x14
 1501 0925 08       		.uleb128 0x8
 1502 0926 7D060000 		.4byte	.LASF145
 1503 092a 11       		.byte	0x11
 1504 092b 46       		.byte	0x46
 1505 092c B4000000 		.4byte	0xb4
 1506 0930 15       		.byte	0x15
 1507 0931 00       		.byte	0
 1508 0932 11       		.uleb128 0x11
 1509 0933 17080000 		.4byte	0x817
 1510 0937 42090000 		.4byte	0x942
 1511 093b 12       		.uleb128 0x12
 1512 093c 37000000 		.4byte	0x37
 1513 0940 03       		.byte	0x3
 1514 0941 00       		.byte	0
 1515 0942 03       		.uleb128 0x3
 1516 0943 98020000 		.4byte	.LASF146
 1517 0947 11       		.byte	0x11
 1518 0948 47       		.byte	0x47
 1519 0949 51080000 		.4byte	0x851
 1520 094d 05       		.uleb128 0x5
 1521 094e 42090000 		.4byte	0x942
 1522 0952 16       		.uleb128 0x16
 1523 0953 9C030000 		.4byte	.LASF147
 1524 0957 11       		.byte	0x11
 1525 0958 6C       		.byte	0x6c
 1526 0959 4D090000 		.4byte	0x94d
 1527 095d 03       		.uleb128 0x3
 1528 095e 02030000 		.4byte	.LASF148
 1529 0962 0F       		.byte	0xf
 1530 0963 34       		.byte	0x34
 1531 0964 D5070000 		.4byte	0x7d5
 1532 0968 0C       		.uleb128 0xc
 1533 0969 04       		.byte	0x4
 1534 096a 5D090000 		.4byte	0x95d
 1535 096e 04       		.uleb128 0x4
 1536 096f 01       		.byte	0x1
 1537 0970 02       		.byte	0x2
 1538 0971 C0050000 		.4byte	.LASF149
 1539 0975 03       		.uleb128 0x3
ARM GAS  /var/folders/vd/czx34qs52cd_f3nb04sxmghc0000gn/T//ccbnwpIb.s 			page 28


 1540 0976 87070000 		.4byte	.LASF150
 1541 097a 12       		.byte	0x12
 1542 097b 4B       		.byte	0x4b
 1543 097c 80090000 		.4byte	0x980
 1544 0980 0C       		.uleb128 0xc
 1545 0981 04       		.byte	0x4
 1546 0982 86090000 		.4byte	0x986
 1547 0986 1D       		.uleb128 0x1d
 1548 0987 3E030000 		.4byte	0x33e
 1549 098b 9A090000 		.4byte	0x99a
 1550 098f 0F       		.uleb128 0xf
 1551 0990 2C000000 		.4byte	0x2c
 1552 0994 0F       		.uleb128 0xf
 1553 0995 37000000 		.4byte	0x37
 1554 0999 00       		.byte	0
 1555 099a 17       		.uleb128 0x17
 1556 099b 08       		.byte	0x8
 1557 099c 12       		.byte	0x12
 1558 099d 55       		.byte	0x55
 1559 099e BB090000 		.4byte	0x9bb
 1560 09a2 08       		.uleb128 0x8
 1561 09a3 51080000 		.4byte	.LASF151
 1562 09a7 12       		.byte	0x12
 1563 09a8 59       		.byte	0x59
 1564 09a9 BB090000 		.4byte	0x9bb
 1565 09ad 00       		.byte	0
 1566 09ae 08       		.uleb128 0x8
 1567 09af 5F040000 		.4byte	.LASF152
 1568 09b3 12       		.byte	0x12
 1569 09b4 5D       		.byte	0x5d
 1570 09b5 BB090000 		.4byte	0x9bb
 1571 09b9 04       		.byte	0x4
 1572 09ba 00       		.byte	0
 1573 09bb 0C       		.uleb128 0xc
 1574 09bc 04       		.byte	0x4
 1575 09bd B4000000 		.4byte	0xb4
 1576 09c1 03       		.uleb128 0x3
 1577 09c2 49050000 		.4byte	.LASF153
 1578 09c6 12       		.byte	0x12
 1579 09c7 5E       		.byte	0x5e
 1580 09c8 9A090000 		.4byte	0x99a
 1581 09cc 16       		.uleb128 0x16
 1582 09cd 29070000 		.4byte	.LASF154
 1583 09d1 12       		.byte	0x12
 1584 09d2 69       		.byte	0x69
 1585 09d3 C1090000 		.4byte	0x9c1
 1586 09d7 07       		.uleb128 0x7
 1587 09d8 D0070000 		.4byte	.LASF155
 1588 09dc 04       		.byte	0x4
 1589 09dd 13       		.byte	0x13
 1590 09de 3C       		.byte	0x3c
 1591 09df F0090000 		.4byte	0x9f0
 1592 09e3 08       		.uleb128 0x8
 1593 09e4 03010000 		.4byte	.LASF51
 1594 09e8 13       		.byte	0x13
 1595 09e9 3D       		.byte	0x3d
 1596 09ea F0090000 		.4byte	0x9f0
ARM GAS  /var/folders/vd/czx34qs52cd_f3nb04sxmghc0000gn/T//ccbnwpIb.s 			page 29


 1597 09ee 00       		.byte	0
 1598 09ef 00       		.byte	0
 1599 09f0 0C       		.uleb128 0xc
 1600 09f1 04       		.byte	0x4
 1601 09f2 D7090000 		.4byte	0x9d7
 1602 09f6 17       		.uleb128 0x17
 1603 09f7 10       		.byte	0x10
 1604 09f8 13       		.byte	0x13
 1605 09f9 44       		.byte	0x44
 1606 09fa 2F0A0000 		.4byte	0xa2f
 1607 09fe 08       		.uleb128 0x8
 1608 09ff 03010000 		.4byte	.LASF51
 1609 0a03 13       		.byte	0x13
 1610 0a04 45       		.byte	0x45
 1611 0a05 F0090000 		.4byte	0x9f0
 1612 0a09 00       		.byte	0
 1613 0a0a 08       		.uleb128 0x8
 1614 0a0b 99070000 		.4byte	.LASF156
 1615 0a0f 13       		.byte	0x13
 1616 0a10 46       		.byte	0x46
 1617 0a11 2C000000 		.4byte	0x2c
 1618 0a15 04       		.byte	0x4
 1619 0a16 08       		.uleb128 0x8
 1620 0a17 0A030000 		.4byte	.LASF157
 1621 0a1b 13       		.byte	0x13
 1622 0a1c 48       		.byte	0x48
 1623 0a1d 37000000 		.4byte	0x37
 1624 0a21 08       		.byte	0x8
 1625 0a22 08       		.uleb128 0x8
 1626 0a23 65000000 		.4byte	.LASF158
 1627 0a27 13       		.byte	0x13
 1628 0a28 49       		.byte	0x49
 1629 0a29 75090000 		.4byte	0x975
 1630 0a2d 0C       		.byte	0xc
 1631 0a2e 00       		.byte	0
 1632 0a2f 03       		.uleb128 0x3
 1633 0a30 AF030000 		.4byte	.LASF159
 1634 0a34 13       		.byte	0x13
 1635 0a35 4B       		.byte	0x4b
 1636 0a36 F6090000 		.4byte	0x9f6
 1637 0a3a 07       		.uleb128 0x7
 1638 0a3b 99050000 		.4byte	.LASF160
 1639 0a3f 10       		.byte	0x10
 1640 0a40 14       		.byte	0x14
 1641 0a41 97       		.byte	0x97
 1642 0a42 6B0A0000 		.4byte	0xa6b
 1643 0a46 08       		.uleb128 0x8
 1644 0a47 03010000 		.4byte	.LASF51
 1645 0a4b 14       		.byte	0x14
 1646 0a4c 9B       		.byte	0x9b
 1647 0a4d 6B0A0000 		.4byte	0xa6b
 1648 0a51 00       		.byte	0
 1649 0a52 08       		.uleb128 0x8
 1650 0a53 84050000 		.4byte	.LASF40
 1651 0a57 14       		.byte	0x14
 1652 0a58 9F       		.byte	0x9f
 1653 0a59 62010000 		.4byte	0x162
ARM GAS  /var/folders/vd/czx34qs52cd_f3nb04sxmghc0000gn/T//ccbnwpIb.s 			page 30


 1654 0a5d 04       		.byte	0x4
 1655 0a5e 08       		.uleb128 0x8
 1656 0a5f BD030000 		.4byte	.LASF36
 1657 0a63 14       		.byte	0x14
 1658 0a64 A1       		.byte	0xa1
 1659 0a65 710A0000 		.4byte	0xa71
 1660 0a69 08       		.byte	0x8
 1661 0a6a 00       		.byte	0
 1662 0a6b 0C       		.uleb128 0xc
 1663 0a6c 04       		.byte	0x4
 1664 0a6d 3A0A0000 		.4byte	0xa3a
 1665 0a71 11       		.uleb128 0x11
 1666 0a72 17080000 		.4byte	0x817
 1667 0a76 810A0000 		.4byte	0xa81
 1668 0a7a 12       		.uleb128 0x12
 1669 0a7b 37000000 		.4byte	0x37
 1670 0a7f 07       		.byte	0x7
 1671 0a80 00       		.byte	0
 1672 0a81 03       		.uleb128 0x3
 1673 0a82 F5000000 		.4byte	.LASF161
 1674 0a86 14       		.byte	0x14
 1675 0a87 A5       		.byte	0xa5
 1676 0a88 3A0A0000 		.4byte	0xa3a
 1677 0a8c 07       		.uleb128 0x7
 1678 0a8d E9040000 		.4byte	.LASF162
 1679 0a91 04       		.byte	0x4
 1680 0a92 14       		.byte	0x14
 1681 0a93 AA       		.byte	0xaa
 1682 0a94 A50A0000 		.4byte	0xaa5
 1683 0a98 08       		.uleb128 0x8
 1684 0a99 03010000 		.4byte	.LASF51
 1685 0a9d 14       		.byte	0x14
 1686 0a9e AB       		.byte	0xab
 1687 0a9f A50A0000 		.4byte	0xaa5
 1688 0aa3 00       		.byte	0
 1689 0aa4 00       		.byte	0
 1690 0aa5 0C       		.uleb128 0xc
 1691 0aa6 04       		.byte	0x4
 1692 0aa7 810A0000 		.4byte	0xa81
 1693 0aab 03       		.uleb128 0x3
 1694 0aac 10040000 		.4byte	.LASF163
 1695 0ab0 14       		.byte	0x14
 1696 0ab1 AC       		.byte	0xac
 1697 0ab2 8C0A0000 		.4byte	0xa8c
 1698 0ab6 0D       		.uleb128 0xd
 1699 0ab7 AD070000 		.4byte	.LASF164
 1700 0abb 44       		.byte	0x44
 1701 0abc 14       		.byte	0x14
 1702 0abd 1501     		.2byte	0x115
 1703 0abf 2C0B0000 		.4byte	0xb2c
 1704 0ac3 0A       		.uleb128 0xa
 1705 0ac4 6D747800 		.ascii	"mtx\000"
 1706 0ac8 14       		.byte	0x14
 1707 0ac9 1A01     		.2byte	0x11a
 1708 0acb 5D090000 		.4byte	0x95d
 1709 0acf 00       		.byte	0
 1710 0ad0 0B       		.uleb128 0xb
ARM GAS  /var/folders/vd/czx34qs52cd_f3nb04sxmghc0000gn/T//ccbnwpIb.s 			page 31


 1711 0ad1 F2060000 		.4byte	.LASF165
 1712 0ad5 14       		.byte	0x14
 1713 0ad6 2101     		.2byte	0x121
 1714 0ad8 AB0A0000 		.4byte	0xaab
 1715 0adc 10       		.byte	0x10
 1716 0add 0B       		.uleb128 0xb
 1717 0ade 56060000 		.4byte	.LASF166
 1718 0ae2 14       		.byte	0x14
 1719 0ae3 2501     		.2byte	0x125
 1720 0ae5 2F0A0000 		.4byte	0xa2f
 1721 0ae9 14       		.byte	0x14
 1722 0aea 0B       		.uleb128 0xb
 1723 0aeb DC030000 		.4byte	.LASF167
 1724 0aef 14       		.byte	0x14
 1725 0af0 2A01     		.2byte	0x12a
 1726 0af2 AB0A0000 		.4byte	0xaab
 1727 0af6 24       		.byte	0x24
 1728 0af7 0B       		.uleb128 0xb
 1729 0af8 6E000000 		.4byte	.LASF168
 1730 0afc 14       		.byte	0x14
 1731 0afd 3001     		.2byte	0x130
 1732 0aff AB0A0000 		.4byte	0xaab
 1733 0b03 28       		.byte	0x28
 1734 0b04 0B       		.uleb128 0xb
 1735 0b05 2D050000 		.4byte	.LASF169
 1736 0b09 14       		.byte	0x14
 1737 0b0a 3401     		.2byte	0x134
 1738 0b0c 2F0A0000 		.4byte	0xa2f
 1739 0b10 2C       		.byte	0x2c
 1740 0b11 0B       		.uleb128 0xb
 1741 0b12 CE020000 		.4byte	.LASF170
 1742 0b16 14       		.byte	0x14
 1743 0b17 3A01     		.2byte	0x13a
 1744 0b19 AB0A0000 		.4byte	0xaab
 1745 0b1d 3C       		.byte	0x3c
 1746 0b1e 0B       		.uleb128 0xb
 1747 0b1f F3070000 		.4byte	.LASF171
 1748 0b23 14       		.byte	0x14
 1749 0b24 4001     		.2byte	0x140
 1750 0b26 AB0A0000 		.4byte	0xaab
 1751 0b2a 40       		.byte	0x40
 1752 0b2b 00       		.byte	0
 1753 0b2c 14       		.uleb128 0x14
 1754 0b2d 25080000 		.4byte	.LASF172
 1755 0b31 14       		.byte	0x14
 1756 0b32 4201     		.2byte	0x142
 1757 0b34 B60A0000 		.4byte	0xab6
 1758 0b38 15       		.uleb128 0x15
 1759 0b39 4B060000 		.4byte	.LASF173
 1760 0b3d 14       		.byte	0x14
 1761 0b3e 4D01     		.2byte	0x14d
 1762 0b40 2C0B0000 		.4byte	0xb2c
 1763 0b44 1E       		.uleb128 0x1e
 1764 0b45 70040000 		.4byte	.LASF176
 1765 0b49 01       		.byte	0x1
 1766 0b4a 90       		.byte	0x90
 1767 0b4b 00000000 		.4byte	.LFB285
ARM GAS  /var/folders/vd/czx34qs52cd_f3nb04sxmghc0000gn/T//ccbnwpIb.s 			page 32


 1768 0b4f 3C000000 		.4byte	.LFE285-.LFB285
 1769 0b53 01       		.uleb128 0x1
 1770 0b54 9C       		.byte	0x9c
 1771 0b55 B00B0000 		.4byte	0xbb0
 1772 0b59 1F       		.uleb128 0x1f
 1773 0b5a EB010000 		.4byte	.LASF174
 1774 0b5e 01       		.byte	0x1
 1775 0b5f 90       		.byte	0x90
 1776 0b60 B00B0000 		.4byte	0xbb0
 1777 0b64 01       		.uleb128 0x1
 1778 0b65 50       		.byte	0x50
 1779 0b66 20       		.uleb128 0x20
 1780 0b67 F0010000 		.4byte	.LASF175
 1781 0b6b 01       		.byte	0x1
 1782 0b6c 91       		.byte	0x91
 1783 0b6d B00B0000 		.4byte	0xbb0
 1784 0b71 00000000 		.4byte	.LLST3
 1785 0b75 21       		.uleb128 0x21
 1786 0b76 EB0C0000 		.4byte	0xceb
 1787 0b7a 00000000 		.4byte	.LBB30
 1788 0b7e 50000000 		.4byte	.Ldebug_ranges0+0x50
 1789 0b82 01       		.byte	0x1
 1790 0b83 94       		.byte	0x94
 1791 0b84 22       		.uleb128 0x22
 1792 0b85 BD0C0000 		.4byte	0xcbd
 1793 0b89 02000000 		.4byte	.LBB33
 1794 0b8d 68000000 		.4byte	.Ldebug_ranges0+0x68
 1795 0b91 01       		.byte	0x1
 1796 0b92 97       		.byte	0x97
 1797 0b93 23       		.uleb128 0x23
 1798 0b94 DF0C0000 		.4byte	0xcdf
 1799 0b98 21000000 		.4byte	.LLST4
 1800 0b9c 23       		.uleb128 0x23
 1801 0b9d D40C0000 		.4byte	0xcd4
 1802 0ba1 35000000 		.4byte	.LLST5
 1803 0ba5 23       		.uleb128 0x23
 1804 0ba6 C90C0000 		.4byte	0xcc9
 1805 0baa 57000000 		.4byte	.LLST6
 1806 0bae 00       		.byte	0
 1807 0baf 00       		.byte	0
 1808 0bb0 0C       		.uleb128 0xc
 1809 0bb1 04       		.byte	0x4
 1810 0bb2 37070000 		.4byte	0x737
 1811 0bb6 1E       		.uleb128 0x1e
 1812 0bb7 58020000 		.4byte	.LASF177
 1813 0bbb 01       		.byte	0x1
 1814 0bbc 7F       		.byte	0x7f
 1815 0bbd 00000000 		.4byte	.LFB284
 1816 0bc1 44000000 		.4byte	.LFE284-.LFB284
 1817 0bc5 01       		.uleb128 0x1
 1818 0bc6 9C       		.byte	0x9c
 1819 0bc7 0F0C0000 		.4byte	0xc0f
 1820 0bcb 24       		.uleb128 0x24
 1821 0bcc 746D7000 		.ascii	"tmp\000"
 1822 0bd0 01       		.byte	0x1
 1823 0bd1 7F       		.byte	0x7f
 1824 0bd2 B00B0000 		.4byte	0xbb0
ARM GAS  /var/folders/vd/czx34qs52cd_f3nb04sxmghc0000gn/T//ccbnwpIb.s 			page 33


 1825 0bd6 01       		.uleb128 0x1
 1826 0bd7 50       		.byte	0x50
 1827 0bd8 21       		.uleb128 0x21
 1828 0bd9 EB0C0000 		.4byte	0xceb
 1829 0bdd 00000000 		.4byte	.LBB16
 1830 0be1 00000000 		.4byte	.Ldebug_ranges0+0
 1831 0be5 01       		.byte	0x1
 1832 0be6 81       		.byte	0x81
 1833 0be7 22       		.uleb128 0x22
 1834 0be8 BD0C0000 		.4byte	0xcbd
 1835 0bec 06000000 		.4byte	.LBB20
 1836 0bf0 18000000 		.4byte	.Ldebug_ranges0+0x18
 1837 0bf4 01       		.byte	0x1
 1838 0bf5 81       		.byte	0x81
 1839 0bf6 23       		.uleb128 0x23
 1840 0bf7 DF0C0000 		.4byte	0xcdf
 1841 0bfb 6A000000 		.4byte	.LLST0
 1842 0bff 25       		.uleb128 0x25
 1843 0c00 D40C0000 		.4byte	0xcd4
 1844 0c04 23       		.uleb128 0x23
 1845 0c05 C90C0000 		.4byte	0xcc9
 1846 0c09 7D000000 		.4byte	.LLST1
 1847 0c0d 00       		.byte	0
 1848 0c0e 00       		.byte	0
 1849 0c0f 1E       		.uleb128 0x1e
 1850 0c10 3C020000 		.4byte	.LASF178
 1851 0c14 01       		.byte	0x1
 1852 0c15 72       		.byte	0x72
 1853 0c16 00000000 		.4byte	.LFB283
 1854 0c1a 0C000000 		.4byte	.LFE283-.LFB283
 1855 0c1e 01       		.uleb128 0x1
 1856 0c1f 9C       		.byte	0x9c
 1857 0c20 410C0000 		.4byte	0xc41
 1858 0c24 24       		.uleb128 0x24
 1859 0c25 746D7000 		.ascii	"tmp\000"
 1860 0c29 01       		.byte	0x1
 1861 0c2a 72       		.byte	0x72
 1862 0c2b B00B0000 		.4byte	0xbb0
 1863 0c2f 01       		.uleb128 0x1
 1864 0c30 50       		.byte	0x50
 1865 0c31 26       		.uleb128 0x26
 1866 0c32 EB0C0000 		.4byte	0xceb
 1867 0c36 00000000 		.4byte	.LBB14
 1868 0c3a 04000000 		.4byte	.LBE14-.LBB14
 1869 0c3e 01       		.byte	0x1
 1870 0c3f 74       		.byte	0x74
 1871 0c40 00       		.byte	0
 1872 0c41 27       		.uleb128 0x27
 1873 0c42 E6000000 		.4byte	.LASF183
 1874 0c46 01       		.byte	0x1
 1875 0c47 61       		.byte	0x61
 1876 0c48 01       		.byte	0x1
 1877 0c49 590C0000 		.4byte	0xc59
 1878 0c4d 28       		.uleb128 0x28
 1879 0c4e 746D7000 		.ascii	"tmp\000"
 1880 0c52 01       		.byte	0x1
 1881 0c53 61       		.byte	0x61
ARM GAS  /var/folders/vd/czx34qs52cd_f3nb04sxmghc0000gn/T//ccbnwpIb.s 			page 34


 1882 0c54 B00B0000 		.4byte	0xbb0
 1883 0c58 00       		.byte	0
 1884 0c59 1E       		.uleb128 0x1e
 1885 0c5a 93030000 		.4byte	.LASF179
 1886 0c5e 01       		.byte	0x1
 1887 0c5f 4D       		.byte	0x4d
 1888 0c60 00000000 		.4byte	.LFB281
 1889 0c64 38000000 		.4byte	.LFE281-.LFB281
 1890 0c68 01       		.uleb128 0x1
 1891 0c69 9C       		.byte	0x9c
 1892 0c6a BD0C0000 		.4byte	0xcbd
 1893 0c6e 29       		.uleb128 0x29
 1894 0c6f 746D00   		.ascii	"tm\000"
 1895 0c72 01       		.byte	0x1
 1896 0c73 4E       		.byte	0x4e
 1897 0c74 37070000 		.4byte	0x737
 1898 0c78 02       		.uleb128 0x2
 1899 0c79 91       		.byte	0x91
 1900 0c7a 60       		.sleb128 -32
 1901 0c7b 2A       		.uleb128 0x2a
 1902 0c7c 410C0000 		.4byte	0xc41
 1903 0c80 08000000 		.4byte	.LBB26
 1904 0c84 38000000 		.4byte	.Ldebug_ranges0+0x38
 1905 0c88 01       		.byte	0x1
 1906 0c89 54       		.byte	0x54
 1907 0c8a 980C0000 		.4byte	0xc98
 1908 0c8e 23       		.uleb128 0x23
 1909 0c8f 4D0C0000 		.4byte	0xc4d
 1910 0c93 90000000 		.4byte	.LLST2
 1911 0c97 00       		.byte	0
 1912 0c98 2B       		.uleb128 0x2b
 1913 0c99 24000000 		.4byte	.LVL8
 1914 0c9d 0F0C0000 		.4byte	0xc0f
 1915 0ca1 AC0C0000 		.4byte	0xcac
 1916 0ca5 2C       		.uleb128 0x2c
 1917 0ca6 01       		.uleb128 0x1
 1918 0ca7 50       		.byte	0x50
 1919 0ca8 02       		.uleb128 0x2
 1920 0ca9 70       		.byte	0x70
 1921 0caa 00       		.sleb128 0
 1922 0cab 00       		.byte	0
 1923 0cac 2D       		.uleb128 0x2d
 1924 0cad 2A000000 		.4byte	.LVL9
 1925 0cb1 B60B0000 		.4byte	0xbb6
 1926 0cb5 2C       		.uleb128 0x2c
 1927 0cb6 01       		.uleb128 0x1
 1928 0cb7 50       		.byte	0x50
 1929 0cb8 02       		.uleb128 0x2
 1930 0cb9 70       		.byte	0x70
 1931 0cba 00       		.sleb128 0
 1932 0cbb 00       		.byte	0
 1933 0cbc 00       		.byte	0
 1934 0cbd 2E       		.uleb128 0x2e
 1935 0cbe C8000000 		.4byte	.LASF184
 1936 0cc2 01       		.byte	0x1
 1937 0cc3 35       		.byte	0x35
 1938 0cc4 03       		.byte	0x3
ARM GAS  /var/folders/vd/czx34qs52cd_f3nb04sxmghc0000gn/T//ccbnwpIb.s 			page 35


 1939 0cc5 EB0C0000 		.4byte	0xceb
 1940 0cc9 28       		.uleb128 0x28
 1941 0cca 746D7000 		.ascii	"tmp\000"
 1942 0cce 01       		.byte	0x1
 1943 0ccf 35       		.byte	0x35
 1944 0cd0 B00B0000 		.4byte	0xbb0
 1945 0cd4 28       		.uleb128 0x28
 1946 0cd5 6E6F7700 		.ascii	"now\000"
 1947 0cd9 01       		.byte	0x1
 1948 0cda 36       		.byte	0x36
 1949 0cdb FF000000 		.4byte	0xff
 1950 0cdf 2F       		.uleb128 0x2f
 1951 0ce0 51070000 		.4byte	.LASF108
 1952 0ce4 01       		.byte	0x1
 1953 0ce5 37       		.byte	0x37
 1954 0ce6 FF000000 		.4byte	0xff
 1955 0cea 00       		.byte	0
 1956 0ceb 30       		.uleb128 0x30
 1957 0cec 0F070000 		.4byte	.LASF185
 1958 0cf0 02       		.byte	0x2
 1959 0cf1 C202     		.2byte	0x2c2
 1960 0cf3 FF000000 		.4byte	0xff
 1961 0cf7 03       		.byte	0x3
 1962 0cf8 31       		.uleb128 0x31
 1963 0cf9 410C0000 		.4byte	0xc41
 1964 0cfd 00000000 		.4byte	.LFB282
 1965 0d01 18000000 		.4byte	.LFE282-.LFB282
 1966 0d05 01       		.uleb128 0x1
 1967 0d06 9C       		.byte	0x9c
 1968 0d07 32       		.uleb128 0x32
 1969 0d08 4D0C0000 		.4byte	0xc4d
 1970 0d0c 01       		.uleb128 0x1
 1971 0d0d 50       		.byte	0x50
 1972 0d0e 00       		.byte	0
 1973 0d0f 00       		.byte	0
 1974              		.section	.debug_abbrev,"",%progbits
 1975              	.Ldebug_abbrev0:
 1976 0000 01       		.uleb128 0x1
 1977 0001 11       		.uleb128 0x11
 1978 0002 01       		.byte	0x1
 1979 0003 25       		.uleb128 0x25
 1980 0004 0E       		.uleb128 0xe
 1981 0005 13       		.uleb128 0x13
 1982 0006 0B       		.uleb128 0xb
 1983 0007 03       		.uleb128 0x3
 1984 0008 0E       		.uleb128 0xe
 1985 0009 1B       		.uleb128 0x1b
 1986 000a 0E       		.uleb128 0xe
 1987 000b 55       		.uleb128 0x55
 1988 000c 17       		.uleb128 0x17
 1989 000d 11       		.uleb128 0x11
 1990 000e 01       		.uleb128 0x1
 1991 000f 10       		.uleb128 0x10
 1992 0010 17       		.uleb128 0x17
 1993 0011 00       		.byte	0
 1994 0012 00       		.byte	0
 1995 0013 02       		.uleb128 0x2
ARM GAS  /var/folders/vd/czx34qs52cd_f3nb04sxmghc0000gn/T//ccbnwpIb.s 			page 36


 1996 0014 24       		.uleb128 0x24
 1997 0015 00       		.byte	0
 1998 0016 0B       		.uleb128 0xb
 1999 0017 0B       		.uleb128 0xb
 2000 0018 3E       		.uleb128 0x3e
 2001 0019 0B       		.uleb128 0xb
 2002 001a 03       		.uleb128 0x3
 2003 001b 08       		.uleb128 0x8
 2004 001c 00       		.byte	0
 2005 001d 00       		.byte	0
 2006 001e 03       		.uleb128 0x3
 2007 001f 16       		.uleb128 0x16
 2008 0020 00       		.byte	0
 2009 0021 03       		.uleb128 0x3
 2010 0022 0E       		.uleb128 0xe
 2011 0023 3A       		.uleb128 0x3a
 2012 0024 0B       		.uleb128 0xb
 2013 0025 3B       		.uleb128 0x3b
 2014 0026 0B       		.uleb128 0xb
 2015 0027 49       		.uleb128 0x49
 2016 0028 13       		.uleb128 0x13
 2017 0029 00       		.byte	0
 2018 002a 00       		.byte	0
 2019 002b 04       		.uleb128 0x4
 2020 002c 24       		.uleb128 0x24
 2021 002d 00       		.byte	0
 2022 002e 0B       		.uleb128 0xb
 2023 002f 0B       		.uleb128 0xb
 2024 0030 3E       		.uleb128 0x3e
 2025 0031 0B       		.uleb128 0xb
 2026 0032 03       		.uleb128 0x3
 2027 0033 0E       		.uleb128 0xe
 2028 0034 00       		.byte	0
 2029 0035 00       		.byte	0
 2030 0036 05       		.uleb128 0x5
 2031 0037 26       		.uleb128 0x26
 2032 0038 00       		.byte	0
 2033 0039 49       		.uleb128 0x49
 2034 003a 13       		.uleb128 0x13
 2035 003b 00       		.byte	0
 2036 003c 00       		.byte	0
 2037 003d 06       		.uleb128 0x6
 2038 003e 35       		.uleb128 0x35
 2039 003f 00       		.byte	0
 2040 0040 49       		.uleb128 0x49
 2041 0041 13       		.uleb128 0x13
 2042 0042 00       		.byte	0
 2043 0043 00       		.byte	0
 2044 0044 07       		.uleb128 0x7
 2045 0045 13       		.uleb128 0x13
 2046 0046 01       		.byte	0x1
 2047 0047 03       		.uleb128 0x3
 2048 0048 0E       		.uleb128 0xe
 2049 0049 0B       		.uleb128 0xb
 2050 004a 0B       		.uleb128 0xb
 2051 004b 3A       		.uleb128 0x3a
 2052 004c 0B       		.uleb128 0xb
ARM GAS  /var/folders/vd/czx34qs52cd_f3nb04sxmghc0000gn/T//ccbnwpIb.s 			page 37


 2053 004d 3B       		.uleb128 0x3b
 2054 004e 0B       		.uleb128 0xb
 2055 004f 01       		.uleb128 0x1
 2056 0050 13       		.uleb128 0x13
 2057 0051 00       		.byte	0
 2058 0052 00       		.byte	0
 2059 0053 08       		.uleb128 0x8
 2060 0054 0D       		.uleb128 0xd
 2061 0055 00       		.byte	0
 2062 0056 03       		.uleb128 0x3
 2063 0057 0E       		.uleb128 0xe
 2064 0058 3A       		.uleb128 0x3a
 2065 0059 0B       		.uleb128 0xb
 2066 005a 3B       		.uleb128 0x3b
 2067 005b 0B       		.uleb128 0xb
 2068 005c 49       		.uleb128 0x49
 2069 005d 13       		.uleb128 0x13
 2070 005e 38       		.uleb128 0x38
 2071 005f 0B       		.uleb128 0xb
 2072 0060 00       		.byte	0
 2073 0061 00       		.byte	0
 2074 0062 09       		.uleb128 0x9
 2075 0063 0D       		.uleb128 0xd
 2076 0064 00       		.byte	0
 2077 0065 03       		.uleb128 0x3
 2078 0066 08       		.uleb128 0x8
 2079 0067 3A       		.uleb128 0x3a
 2080 0068 0B       		.uleb128 0xb
 2081 0069 3B       		.uleb128 0x3b
 2082 006a 0B       		.uleb128 0xb
 2083 006b 49       		.uleb128 0x49
 2084 006c 13       		.uleb128 0x13
 2085 006d 38       		.uleb128 0x38
 2086 006e 0B       		.uleb128 0xb
 2087 006f 00       		.byte	0
 2088 0070 00       		.byte	0
 2089 0071 0A       		.uleb128 0xa
 2090 0072 0D       		.uleb128 0xd
 2091 0073 00       		.byte	0
 2092 0074 03       		.uleb128 0x3
 2093 0075 08       		.uleb128 0x8
 2094 0076 3A       		.uleb128 0x3a
 2095 0077 0B       		.uleb128 0xb
 2096 0078 3B       		.uleb128 0x3b
 2097 0079 05       		.uleb128 0x5
 2098 007a 49       		.uleb128 0x49
 2099 007b 13       		.uleb128 0x13
 2100 007c 38       		.uleb128 0x38
 2101 007d 0B       		.uleb128 0xb
 2102 007e 00       		.byte	0
 2103 007f 00       		.byte	0
 2104 0080 0B       		.uleb128 0xb
 2105 0081 0D       		.uleb128 0xd
 2106 0082 00       		.byte	0
 2107 0083 03       		.uleb128 0x3
 2108 0084 0E       		.uleb128 0xe
 2109 0085 3A       		.uleb128 0x3a
ARM GAS  /var/folders/vd/czx34qs52cd_f3nb04sxmghc0000gn/T//ccbnwpIb.s 			page 38


 2110 0086 0B       		.uleb128 0xb
 2111 0087 3B       		.uleb128 0x3b
 2112 0088 05       		.uleb128 0x5
 2113 0089 49       		.uleb128 0x49
 2114 008a 13       		.uleb128 0x13
 2115 008b 38       		.uleb128 0x38
 2116 008c 0B       		.uleb128 0xb
 2117 008d 00       		.byte	0
 2118 008e 00       		.byte	0
 2119 008f 0C       		.uleb128 0xc
 2120 0090 0F       		.uleb128 0xf
 2121 0091 00       		.byte	0
 2122 0092 0B       		.uleb128 0xb
 2123 0093 0B       		.uleb128 0xb
 2124 0094 49       		.uleb128 0x49
 2125 0095 13       		.uleb128 0x13
 2126 0096 00       		.byte	0
 2127 0097 00       		.byte	0
 2128 0098 0D       		.uleb128 0xd
 2129 0099 13       		.uleb128 0x13
 2130 009a 01       		.byte	0x1
 2131 009b 03       		.uleb128 0x3
 2132 009c 0E       		.uleb128 0xe
 2133 009d 0B       		.uleb128 0xb
 2134 009e 0B       		.uleb128 0xb
 2135 009f 3A       		.uleb128 0x3a
 2136 00a0 0B       		.uleb128 0xb
 2137 00a1 3B       		.uleb128 0x3b
 2138 00a2 05       		.uleb128 0x5
 2139 00a3 01       		.uleb128 0x1
 2140 00a4 13       		.uleb128 0x13
 2141 00a5 00       		.byte	0
 2142 00a6 00       		.byte	0
 2143 00a7 0E       		.uleb128 0xe
 2144 00a8 15       		.uleb128 0x15
 2145 00a9 01       		.byte	0x1
 2146 00aa 27       		.uleb128 0x27
 2147 00ab 19       		.uleb128 0x19
 2148 00ac 01       		.uleb128 0x1
 2149 00ad 13       		.uleb128 0x13
 2150 00ae 00       		.byte	0
 2151 00af 00       		.byte	0
 2152 00b0 0F       		.uleb128 0xf
 2153 00b1 05       		.uleb128 0x5
 2154 00b2 00       		.byte	0
 2155 00b3 49       		.uleb128 0x49
 2156 00b4 13       		.uleb128 0x13
 2157 00b5 00       		.byte	0
 2158 00b6 00       		.byte	0
 2159 00b7 10       		.uleb128 0x10
 2160 00b8 0F       		.uleb128 0xf
 2161 00b9 00       		.byte	0
 2162 00ba 0B       		.uleb128 0xb
 2163 00bb 0B       		.uleb128 0xb
 2164 00bc 00       		.byte	0
 2165 00bd 00       		.byte	0
 2166 00be 11       		.uleb128 0x11
ARM GAS  /var/folders/vd/czx34qs52cd_f3nb04sxmghc0000gn/T//ccbnwpIb.s 			page 39


 2167 00bf 01       		.uleb128 0x1
 2168 00c0 01       		.byte	0x1
 2169 00c1 49       		.uleb128 0x49
 2170 00c2 13       		.uleb128 0x13
 2171 00c3 01       		.uleb128 0x1
 2172 00c4 13       		.uleb128 0x13
 2173 00c5 00       		.byte	0
 2174 00c6 00       		.byte	0
 2175 00c7 12       		.uleb128 0x12
 2176 00c8 21       		.uleb128 0x21
 2177 00c9 00       		.byte	0
 2178 00ca 49       		.uleb128 0x49
 2179 00cb 13       		.uleb128 0x13
 2180 00cc 2F       		.uleb128 0x2f
 2181 00cd 0B       		.uleb128 0xb
 2182 00ce 00       		.byte	0
 2183 00cf 00       		.byte	0
 2184 00d0 13       		.uleb128 0x13
 2185 00d1 13       		.uleb128 0x13
 2186 00d2 01       		.byte	0x1
 2187 00d3 0B       		.uleb128 0xb
 2188 00d4 0B       		.uleb128 0xb
 2189 00d5 3A       		.uleb128 0x3a
 2190 00d6 0B       		.uleb128 0xb
 2191 00d7 3B       		.uleb128 0x3b
 2192 00d8 05       		.uleb128 0x5
 2193 00d9 01       		.uleb128 0x1
 2194 00da 13       		.uleb128 0x13
 2195 00db 00       		.byte	0
 2196 00dc 00       		.byte	0
 2197 00dd 14       		.uleb128 0x14
 2198 00de 16       		.uleb128 0x16
 2199 00df 00       		.byte	0
 2200 00e0 03       		.uleb128 0x3
 2201 00e1 0E       		.uleb128 0xe
 2202 00e2 3A       		.uleb128 0x3a
 2203 00e3 0B       		.uleb128 0xb
 2204 00e4 3B       		.uleb128 0x3b
 2205 00e5 05       		.uleb128 0x5
 2206 00e6 49       		.uleb128 0x49
 2207 00e7 13       		.uleb128 0x13
 2208 00e8 00       		.byte	0
 2209 00e9 00       		.byte	0
 2210 00ea 15       		.uleb128 0x15
 2211 00eb 34       		.uleb128 0x34
 2212 00ec 00       		.byte	0
 2213 00ed 03       		.uleb128 0x3
 2214 00ee 0E       		.uleb128 0xe
 2215 00ef 3A       		.uleb128 0x3a
 2216 00f0 0B       		.uleb128 0xb
 2217 00f1 3B       		.uleb128 0x3b
 2218 00f2 05       		.uleb128 0x5
 2219 00f3 49       		.uleb128 0x49
 2220 00f4 13       		.uleb128 0x13
 2221 00f5 3F       		.uleb128 0x3f
 2222 00f6 19       		.uleb128 0x19
 2223 00f7 3C       		.uleb128 0x3c
ARM GAS  /var/folders/vd/czx34qs52cd_f3nb04sxmghc0000gn/T//ccbnwpIb.s 			page 40


 2224 00f8 19       		.uleb128 0x19
 2225 00f9 00       		.byte	0
 2226 00fa 00       		.byte	0
 2227 00fb 16       		.uleb128 0x16
 2228 00fc 34       		.uleb128 0x34
 2229 00fd 00       		.byte	0
 2230 00fe 03       		.uleb128 0x3
 2231 00ff 0E       		.uleb128 0xe
 2232 0100 3A       		.uleb128 0x3a
 2233 0101 0B       		.uleb128 0xb
 2234 0102 3B       		.uleb128 0x3b
 2235 0103 0B       		.uleb128 0xb
 2236 0104 49       		.uleb128 0x49
 2237 0105 13       		.uleb128 0x13
 2238 0106 3F       		.uleb128 0x3f
 2239 0107 19       		.uleb128 0x19
 2240 0108 3C       		.uleb128 0x3c
 2241 0109 19       		.uleb128 0x19
 2242 010a 00       		.byte	0
 2243 010b 00       		.byte	0
 2244 010c 17       		.uleb128 0x17
 2245 010d 13       		.uleb128 0x13
 2246 010e 01       		.byte	0x1
 2247 010f 0B       		.uleb128 0xb
 2248 0110 0B       		.uleb128 0xb
 2249 0111 3A       		.uleb128 0x3a
 2250 0112 0B       		.uleb128 0xb
 2251 0113 3B       		.uleb128 0x3b
 2252 0114 0B       		.uleb128 0xb
 2253 0115 01       		.uleb128 0x1
 2254 0116 13       		.uleb128 0x13
 2255 0117 00       		.byte	0
 2256 0118 00       		.byte	0
 2257 0119 18       		.uleb128 0x18
 2258 011a 17       		.uleb128 0x17
 2259 011b 01       		.byte	0x1
 2260 011c 0B       		.uleb128 0xb
 2261 011d 0B       		.uleb128 0xb
 2262 011e 3A       		.uleb128 0x3a
 2263 011f 0B       		.uleb128 0xb
 2264 0120 3B       		.uleb128 0x3b
 2265 0121 0B       		.uleb128 0xb
 2266 0122 01       		.uleb128 0x1
 2267 0123 13       		.uleb128 0x13
 2268 0124 00       		.byte	0
 2269 0125 00       		.byte	0
 2270 0126 19       		.uleb128 0x19
 2271 0127 0D       		.uleb128 0xd
 2272 0128 00       		.byte	0
 2273 0129 03       		.uleb128 0x3
 2274 012a 0E       		.uleb128 0xe
 2275 012b 3A       		.uleb128 0x3a
 2276 012c 0B       		.uleb128 0xb
 2277 012d 3B       		.uleb128 0x3b
 2278 012e 0B       		.uleb128 0xb
 2279 012f 49       		.uleb128 0x49
 2280 0130 13       		.uleb128 0x13
ARM GAS  /var/folders/vd/czx34qs52cd_f3nb04sxmghc0000gn/T//ccbnwpIb.s 			page 41


 2281 0131 00       		.byte	0
 2282 0132 00       		.byte	0
 2283 0133 1A       		.uleb128 0x1a
 2284 0134 0D       		.uleb128 0xd
 2285 0135 00       		.byte	0
 2286 0136 03       		.uleb128 0x3
 2287 0137 0E       		.uleb128 0xe
 2288 0138 3A       		.uleb128 0x3a
 2289 0139 0B       		.uleb128 0xb
 2290 013a 3B       		.uleb128 0x3b
 2291 013b 05       		.uleb128 0x5
 2292 013c 49       		.uleb128 0x49
 2293 013d 13       		.uleb128 0x13
 2294 013e 00       		.byte	0
 2295 013f 00       		.byte	0
 2296 0140 1B       		.uleb128 0x1b
 2297 0141 34       		.uleb128 0x34
 2298 0142 00       		.byte	0
 2299 0143 03       		.uleb128 0x3
 2300 0144 08       		.uleb128 0x8
 2301 0145 3A       		.uleb128 0x3a
 2302 0146 0B       		.uleb128 0xb
 2303 0147 3B       		.uleb128 0x3b
 2304 0148 05       		.uleb128 0x5
 2305 0149 49       		.uleb128 0x49
 2306 014a 13       		.uleb128 0x13
 2307 014b 3F       		.uleb128 0x3f
 2308 014c 19       		.uleb128 0x19
 2309 014d 3C       		.uleb128 0x3c
 2310 014e 19       		.uleb128 0x19
 2311 014f 00       		.byte	0
 2312 0150 00       		.byte	0
 2313 0151 1C       		.uleb128 0x1c
 2314 0152 21       		.uleb128 0x21
 2315 0153 00       		.byte	0
 2316 0154 00       		.byte	0
 2317 0155 00       		.byte	0
 2318 0156 1D       		.uleb128 0x1d
 2319 0157 15       		.uleb128 0x15
 2320 0158 01       		.byte	0x1
 2321 0159 27       		.uleb128 0x27
 2322 015a 19       		.uleb128 0x19
 2323 015b 49       		.uleb128 0x49
 2324 015c 13       		.uleb128 0x13
 2325 015d 01       		.uleb128 0x1
 2326 015e 13       		.uleb128 0x13
 2327 015f 00       		.byte	0
 2328 0160 00       		.byte	0
 2329 0161 1E       		.uleb128 0x1e
 2330 0162 2E       		.uleb128 0x2e
 2331 0163 01       		.byte	0x1
 2332 0164 3F       		.uleb128 0x3f
 2333 0165 19       		.uleb128 0x19
 2334 0166 03       		.uleb128 0x3
 2335 0167 0E       		.uleb128 0xe
 2336 0168 3A       		.uleb128 0x3a
 2337 0169 0B       		.uleb128 0xb
ARM GAS  /var/folders/vd/czx34qs52cd_f3nb04sxmghc0000gn/T//ccbnwpIb.s 			page 42


 2338 016a 3B       		.uleb128 0x3b
 2339 016b 0B       		.uleb128 0xb
 2340 016c 27       		.uleb128 0x27
 2341 016d 19       		.uleb128 0x19
 2342 016e 11       		.uleb128 0x11
 2343 016f 01       		.uleb128 0x1
 2344 0170 12       		.uleb128 0x12
 2345 0171 06       		.uleb128 0x6
 2346 0172 40       		.uleb128 0x40
 2347 0173 18       		.uleb128 0x18
 2348 0174 9742     		.uleb128 0x2117
 2349 0176 19       		.uleb128 0x19
 2350 0177 01       		.uleb128 0x1
 2351 0178 13       		.uleb128 0x13
 2352 0179 00       		.byte	0
 2353 017a 00       		.byte	0
 2354 017b 1F       		.uleb128 0x1f
 2355 017c 05       		.uleb128 0x5
 2356 017d 00       		.byte	0
 2357 017e 03       		.uleb128 0x3
 2358 017f 0E       		.uleb128 0xe
 2359 0180 3A       		.uleb128 0x3a
 2360 0181 0B       		.uleb128 0xb
 2361 0182 3B       		.uleb128 0x3b
 2362 0183 0B       		.uleb128 0xb
 2363 0184 49       		.uleb128 0x49
 2364 0185 13       		.uleb128 0x13
 2365 0186 02       		.uleb128 0x2
 2366 0187 18       		.uleb128 0x18
 2367 0188 00       		.byte	0
 2368 0189 00       		.byte	0
 2369 018a 20       		.uleb128 0x20
 2370 018b 05       		.uleb128 0x5
 2371 018c 00       		.byte	0
 2372 018d 03       		.uleb128 0x3
 2373 018e 0E       		.uleb128 0xe
 2374 018f 3A       		.uleb128 0x3a
 2375 0190 0B       		.uleb128 0xb
 2376 0191 3B       		.uleb128 0x3b
 2377 0192 0B       		.uleb128 0xb
 2378 0193 49       		.uleb128 0x49
 2379 0194 13       		.uleb128 0x13
 2380 0195 02       		.uleb128 0x2
 2381 0196 17       		.uleb128 0x17
 2382 0197 00       		.byte	0
 2383 0198 00       		.byte	0
 2384 0199 21       		.uleb128 0x21
 2385 019a 1D       		.uleb128 0x1d
 2386 019b 00       		.byte	0
 2387 019c 31       		.uleb128 0x31
 2388 019d 13       		.uleb128 0x13
 2389 019e 52       		.uleb128 0x52
 2390 019f 01       		.uleb128 0x1
 2391 01a0 55       		.uleb128 0x55
 2392 01a1 17       		.uleb128 0x17
 2393 01a2 58       		.uleb128 0x58
 2394 01a3 0B       		.uleb128 0xb
ARM GAS  /var/folders/vd/czx34qs52cd_f3nb04sxmghc0000gn/T//ccbnwpIb.s 			page 43


 2395 01a4 59       		.uleb128 0x59
 2396 01a5 0B       		.uleb128 0xb
 2397 01a6 00       		.byte	0
 2398 01a7 00       		.byte	0
 2399 01a8 22       		.uleb128 0x22
 2400 01a9 1D       		.uleb128 0x1d
 2401 01aa 01       		.byte	0x1
 2402 01ab 31       		.uleb128 0x31
 2403 01ac 13       		.uleb128 0x13
 2404 01ad 52       		.uleb128 0x52
 2405 01ae 01       		.uleb128 0x1
 2406 01af 55       		.uleb128 0x55
 2407 01b0 17       		.uleb128 0x17
 2408 01b1 58       		.uleb128 0x58
 2409 01b2 0B       		.uleb128 0xb
 2410 01b3 59       		.uleb128 0x59
 2411 01b4 0B       		.uleb128 0xb
 2412 01b5 00       		.byte	0
 2413 01b6 00       		.byte	0
 2414 01b7 23       		.uleb128 0x23
 2415 01b8 05       		.uleb128 0x5
 2416 01b9 00       		.byte	0
 2417 01ba 31       		.uleb128 0x31
 2418 01bb 13       		.uleb128 0x13
 2419 01bc 02       		.uleb128 0x2
 2420 01bd 17       		.uleb128 0x17
 2421 01be 00       		.byte	0
 2422 01bf 00       		.byte	0
 2423 01c0 24       		.uleb128 0x24
 2424 01c1 05       		.uleb128 0x5
 2425 01c2 00       		.byte	0
 2426 01c3 03       		.uleb128 0x3
 2427 01c4 08       		.uleb128 0x8
 2428 01c5 3A       		.uleb128 0x3a
 2429 01c6 0B       		.uleb128 0xb
 2430 01c7 3B       		.uleb128 0x3b
 2431 01c8 0B       		.uleb128 0xb
 2432 01c9 49       		.uleb128 0x49
 2433 01ca 13       		.uleb128 0x13
 2434 01cb 02       		.uleb128 0x2
 2435 01cc 18       		.uleb128 0x18
 2436 01cd 00       		.byte	0
 2437 01ce 00       		.byte	0
 2438 01cf 25       		.uleb128 0x25
 2439 01d0 05       		.uleb128 0x5
 2440 01d1 00       		.byte	0
 2441 01d2 31       		.uleb128 0x31
 2442 01d3 13       		.uleb128 0x13
 2443 01d4 00       		.byte	0
 2444 01d5 00       		.byte	0
 2445 01d6 26       		.uleb128 0x26
 2446 01d7 1D       		.uleb128 0x1d
 2447 01d8 00       		.byte	0
 2448 01d9 31       		.uleb128 0x31
 2449 01da 13       		.uleb128 0x13
 2450 01db 11       		.uleb128 0x11
 2451 01dc 01       		.uleb128 0x1
ARM GAS  /var/folders/vd/czx34qs52cd_f3nb04sxmghc0000gn/T//ccbnwpIb.s 			page 44


 2452 01dd 12       		.uleb128 0x12
 2453 01de 06       		.uleb128 0x6
 2454 01df 58       		.uleb128 0x58
 2455 01e0 0B       		.uleb128 0xb
 2456 01e1 59       		.uleb128 0x59
 2457 01e2 0B       		.uleb128 0xb
 2458 01e3 00       		.byte	0
 2459 01e4 00       		.byte	0
 2460 01e5 27       		.uleb128 0x27
 2461 01e6 2E       		.uleb128 0x2e
 2462 01e7 01       		.byte	0x1
 2463 01e8 3F       		.uleb128 0x3f
 2464 01e9 19       		.uleb128 0x19
 2465 01ea 03       		.uleb128 0x3
 2466 01eb 0E       		.uleb128 0xe
 2467 01ec 3A       		.uleb128 0x3a
 2468 01ed 0B       		.uleb128 0xb
 2469 01ee 3B       		.uleb128 0x3b
 2470 01ef 0B       		.uleb128 0xb
 2471 01f0 27       		.uleb128 0x27
 2472 01f1 19       		.uleb128 0x19
 2473 01f2 20       		.uleb128 0x20
 2474 01f3 0B       		.uleb128 0xb
 2475 01f4 01       		.uleb128 0x1
 2476 01f5 13       		.uleb128 0x13
 2477 01f6 00       		.byte	0
 2478 01f7 00       		.byte	0
 2479 01f8 28       		.uleb128 0x28
 2480 01f9 05       		.uleb128 0x5
 2481 01fa 00       		.byte	0
 2482 01fb 03       		.uleb128 0x3
 2483 01fc 08       		.uleb128 0x8
 2484 01fd 3A       		.uleb128 0x3a
 2485 01fe 0B       		.uleb128 0xb
 2486 01ff 3B       		.uleb128 0x3b
 2487 0200 0B       		.uleb128 0xb
 2488 0201 49       		.uleb128 0x49
 2489 0202 13       		.uleb128 0x13
 2490 0203 00       		.byte	0
 2491 0204 00       		.byte	0
 2492 0205 29       		.uleb128 0x29
 2493 0206 34       		.uleb128 0x34
 2494 0207 00       		.byte	0
 2495 0208 03       		.uleb128 0x3
 2496 0209 08       		.uleb128 0x8
 2497 020a 3A       		.uleb128 0x3a
 2498 020b 0B       		.uleb128 0xb
 2499 020c 3B       		.uleb128 0x3b
 2500 020d 0B       		.uleb128 0xb
 2501 020e 49       		.uleb128 0x49
 2502 020f 13       		.uleb128 0x13
 2503 0210 02       		.uleb128 0x2
 2504 0211 18       		.uleb128 0x18
 2505 0212 00       		.byte	0
 2506 0213 00       		.byte	0
 2507 0214 2A       		.uleb128 0x2a
 2508 0215 1D       		.uleb128 0x1d
ARM GAS  /var/folders/vd/czx34qs52cd_f3nb04sxmghc0000gn/T//ccbnwpIb.s 			page 45


 2509 0216 01       		.byte	0x1
 2510 0217 31       		.uleb128 0x31
 2511 0218 13       		.uleb128 0x13
 2512 0219 52       		.uleb128 0x52
 2513 021a 01       		.uleb128 0x1
 2514 021b 55       		.uleb128 0x55
 2515 021c 17       		.uleb128 0x17
 2516 021d 58       		.uleb128 0x58
 2517 021e 0B       		.uleb128 0xb
 2518 021f 59       		.uleb128 0x59
 2519 0220 0B       		.uleb128 0xb
 2520 0221 01       		.uleb128 0x1
 2521 0222 13       		.uleb128 0x13
 2522 0223 00       		.byte	0
 2523 0224 00       		.byte	0
 2524 0225 2B       		.uleb128 0x2b
 2525 0226 898201   		.uleb128 0x4109
 2526 0229 01       		.byte	0x1
 2527 022a 11       		.uleb128 0x11
 2528 022b 01       		.uleb128 0x1
 2529 022c 31       		.uleb128 0x31
 2530 022d 13       		.uleb128 0x13
 2531 022e 01       		.uleb128 0x1
 2532 022f 13       		.uleb128 0x13
 2533 0230 00       		.byte	0
 2534 0231 00       		.byte	0
 2535 0232 2C       		.uleb128 0x2c
 2536 0233 8A8201   		.uleb128 0x410a
 2537 0236 00       		.byte	0
 2538 0237 02       		.uleb128 0x2
 2539 0238 18       		.uleb128 0x18
 2540 0239 9142     		.uleb128 0x2111
 2541 023b 18       		.uleb128 0x18
 2542 023c 00       		.byte	0
 2543 023d 00       		.byte	0
 2544 023e 2D       		.uleb128 0x2d
 2545 023f 898201   		.uleb128 0x4109
 2546 0242 01       		.byte	0x1
 2547 0243 11       		.uleb128 0x11
 2548 0244 01       		.uleb128 0x1
 2549 0245 31       		.uleb128 0x31
 2550 0246 13       		.uleb128 0x13
 2551 0247 00       		.byte	0
 2552 0248 00       		.byte	0
 2553 0249 2E       		.uleb128 0x2e
 2554 024a 2E       		.uleb128 0x2e
 2555 024b 01       		.byte	0x1
 2556 024c 03       		.uleb128 0x3
 2557 024d 0E       		.uleb128 0xe
 2558 024e 3A       		.uleb128 0x3a
 2559 024f 0B       		.uleb128 0xb
 2560 0250 3B       		.uleb128 0x3b
 2561 0251 0B       		.uleb128 0xb
 2562 0252 27       		.uleb128 0x27
 2563 0253 19       		.uleb128 0x19
 2564 0254 20       		.uleb128 0x20
 2565 0255 0B       		.uleb128 0xb
ARM GAS  /var/folders/vd/czx34qs52cd_f3nb04sxmghc0000gn/T//ccbnwpIb.s 			page 46


 2566 0256 01       		.uleb128 0x1
 2567 0257 13       		.uleb128 0x13
 2568 0258 00       		.byte	0
 2569 0259 00       		.byte	0
 2570 025a 2F       		.uleb128 0x2f
 2571 025b 05       		.uleb128 0x5
 2572 025c 00       		.byte	0
 2573 025d 03       		.uleb128 0x3
 2574 025e 0E       		.uleb128 0xe
 2575 025f 3A       		.uleb128 0x3a
 2576 0260 0B       		.uleb128 0xb
 2577 0261 3B       		.uleb128 0x3b
 2578 0262 0B       		.uleb128 0xb
 2579 0263 49       		.uleb128 0x49
 2580 0264 13       		.uleb128 0x13
 2581 0265 00       		.byte	0
 2582 0266 00       		.byte	0
 2583 0267 30       		.uleb128 0x30
 2584 0268 2E       		.uleb128 0x2e
 2585 0269 00       		.byte	0
 2586 026a 03       		.uleb128 0x3
 2587 026b 0E       		.uleb128 0xe
 2588 026c 3A       		.uleb128 0x3a
 2589 026d 0B       		.uleb128 0xb
 2590 026e 3B       		.uleb128 0x3b
 2591 026f 05       		.uleb128 0x5
 2592 0270 27       		.uleb128 0x27
 2593 0271 19       		.uleb128 0x19
 2594 0272 49       		.uleb128 0x49
 2595 0273 13       		.uleb128 0x13
 2596 0274 20       		.uleb128 0x20
 2597 0275 0B       		.uleb128 0xb
 2598 0276 00       		.byte	0
 2599 0277 00       		.byte	0
 2600 0278 31       		.uleb128 0x31
 2601 0279 2E       		.uleb128 0x2e
 2602 027a 01       		.byte	0x1
 2603 027b 31       		.uleb128 0x31
 2604 027c 13       		.uleb128 0x13
 2605 027d 11       		.uleb128 0x11
 2606 027e 01       		.uleb128 0x1
 2607 027f 12       		.uleb128 0x12
 2608 0280 06       		.uleb128 0x6
 2609 0281 40       		.uleb128 0x40
 2610 0282 18       		.uleb128 0x18
 2611 0283 9742     		.uleb128 0x2117
 2612 0285 19       		.uleb128 0x19
 2613 0286 00       		.byte	0
 2614 0287 00       		.byte	0
 2615 0288 32       		.uleb128 0x32
 2616 0289 05       		.uleb128 0x5
 2617 028a 00       		.byte	0
 2618 028b 31       		.uleb128 0x31
 2619 028c 13       		.uleb128 0x13
 2620 028d 02       		.uleb128 0x2
 2621 028e 18       		.uleb128 0x18
 2622 028f 00       		.byte	0
ARM GAS  /var/folders/vd/czx34qs52cd_f3nb04sxmghc0000gn/T//ccbnwpIb.s 			page 47


 2623 0290 00       		.byte	0
 2624 0291 00       		.byte	0
 2625              		.section	.debug_loc,"",%progbits
 2626              	.Ldebug_loc0:
 2627              	.LLST3:
 2628 0000 00000000 		.4byte	.LVL10
 2629 0004 0E000000 		.4byte	.LVL12
 2630 0008 0100     		.2byte	0x1
 2631 000a 51       		.byte	0x51
 2632 000b 0E000000 		.4byte	.LVL12
 2633 000f 3C000000 		.4byte	.LFE285
 2634 0013 0400     		.2byte	0x4
 2635 0015 F3       		.byte	0xf3
 2636 0016 01       		.uleb128 0x1
 2637 0017 51       		.byte	0x51
 2638 0018 9F       		.byte	0x9f
 2639 0019 00000000 		.4byte	0
 2640 001d 00000000 		.4byte	0
 2641              	.LLST4:
 2642 0021 0A000000 		.4byte	.LVL11
 2643 0025 32000000 		.4byte	.LVL15
 2644 0029 0200     		.2byte	0x2
 2645 002b 30       		.byte	0x30
 2646 002c 9F       		.byte	0x9f
 2647 002d 00000000 		.4byte	0
 2648 0031 00000000 		.4byte	0
 2649              	.LLST5:
 2650 0035 0A000000 		.4byte	.LVL11
 2651 0039 14000000 		.4byte	.LVL13
 2652 003d 0100     		.2byte	0x1
 2653 003f 53       		.byte	0x53
 2654 0040 14000000 		.4byte	.LVL13
 2655 0044 2E000000 		.4byte	.LVL14
 2656 0048 0500     		.2byte	0x5
 2657 004a F3       		.byte	0xf3
 2658 004b 01       		.uleb128 0x1
 2659 004c 51       		.byte	0x51
 2660 004d 23       		.byte	0x23
 2661 004e 08       		.uleb128 0x8
 2662 004f 00000000 		.4byte	0
 2663 0053 00000000 		.4byte	0
 2664              	.LLST6:
 2665 0057 0A000000 		.4byte	.LVL11
 2666 005b 32000000 		.4byte	.LVL15
 2667 005f 0100     		.2byte	0x1
 2668 0061 50       		.byte	0x50
 2669 0062 00000000 		.4byte	0
 2670 0066 00000000 		.4byte	0
 2671              	.LLST0:
 2672 006a 0E000000 		.4byte	.LVL3
 2673 006e 1A000000 		.4byte	.LVL4
 2674 0072 0100     		.2byte	0x1
 2675 0074 56       		.byte	0x56
 2676 0075 00000000 		.4byte	0
 2677 0079 00000000 		.4byte	0
 2678              	.LLST1:
 2679 007d 0E000000 		.4byte	.LVL3
ARM GAS  /var/folders/vd/czx34qs52cd_f3nb04sxmghc0000gn/T//ccbnwpIb.s 			page 48


 2680 0081 36000000 		.4byte	.LVL5
 2681 0085 0100     		.2byte	0x1
 2682 0087 50       		.byte	0x50
 2683 0088 00000000 		.4byte	0
 2684 008c 00000000 		.4byte	0
 2685              	.LLST2:
 2686 0090 12000000 		.4byte	.LVL6
 2687 0094 1E000000 		.4byte	.LVL7
 2688 0098 0100     		.2byte	0x1
 2689 009a 50       		.byte	0x50
 2690 009b 00000000 		.4byte	0
 2691 009f 00000000 		.4byte	0
 2692              		.section	.debug_aranges,"",%progbits
 2693 0000 3C000000 		.4byte	0x3c
 2694 0004 0200     		.2byte	0x2
 2695 0006 00000000 		.4byte	.Ldebug_info0
 2696 000a 04       		.byte	0x4
 2697 000b 00       		.byte	0
 2698 000c 0000     		.2byte	0
 2699 000e 0000     		.2byte	0
 2700 0010 00000000 		.4byte	.LFB282
 2701 0014 18000000 		.4byte	.LFE282-.LFB282
 2702 0018 00000000 		.4byte	.LFB283
 2703 001c 0C000000 		.4byte	.LFE283-.LFB283
 2704 0020 00000000 		.4byte	.LFB284
 2705 0024 44000000 		.4byte	.LFE284-.LFB284
 2706 0028 00000000 		.4byte	.LFB281
 2707 002c 38000000 		.4byte	.LFE281-.LFB281
 2708 0030 00000000 		.4byte	.LFB285
 2709 0034 3C000000 		.4byte	.LFE285-.LFB285
 2710 0038 00000000 		.4byte	0
 2711 003c 00000000 		.4byte	0
 2712              		.section	.debug_ranges,"",%progbits
 2713              	.Ldebug_ranges0:
 2714 0000 00000000 		.4byte	.LBB16
 2715 0004 02000000 		.4byte	.LBE16
 2716 0008 04000000 		.4byte	.LBB19
 2717 000c 06000000 		.4byte	.LBE19
 2718 0010 00000000 		.4byte	0
 2719 0014 00000000 		.4byte	0
 2720 0018 06000000 		.4byte	.LBB20
 2721 001c 08000000 		.4byte	.LBE20
 2722 0020 0A000000 		.4byte	.LBB24
 2723 0024 0C000000 		.4byte	.LBE24
 2724 0028 0E000000 		.4byte	.LBB25
 2725 002c 36000000 		.4byte	.LBE25
 2726 0030 00000000 		.4byte	0
 2727 0034 00000000 		.4byte	0
 2728 0038 08000000 		.4byte	.LBB26
 2729 003c 0E000000 		.4byte	.LBE26
 2730 0040 12000000 		.4byte	.LBB29
 2731 0044 20000000 		.4byte	.LBE29
 2732 0048 00000000 		.4byte	0
 2733 004c 00000000 		.4byte	0
 2734 0050 00000000 		.4byte	.LBB30
 2735 0054 02000000 		.4byte	.LBE30
 2736 0058 04000000 		.4byte	.LBB36
ARM GAS  /var/folders/vd/czx34qs52cd_f3nb04sxmghc0000gn/T//ccbnwpIb.s 			page 49


 2737 005c 06000000 		.4byte	.LBE36
 2738 0060 00000000 		.4byte	0
 2739 0064 00000000 		.4byte	0
 2740 0068 02000000 		.4byte	.LBB33
 2741 006c 04000000 		.4byte	.LBE33
 2742 0070 0A000000 		.4byte	.LBB37
 2743 0074 32000000 		.4byte	.LBE37
 2744 0078 00000000 		.4byte	0
 2745 007c 00000000 		.4byte	0
 2746 0080 00000000 		.4byte	.LFB282
 2747 0084 18000000 		.4byte	.LFE282
 2748 0088 00000000 		.4byte	.LFB283
 2749 008c 0C000000 		.4byte	.LFE283
 2750 0090 00000000 		.4byte	.LFB284
 2751 0094 44000000 		.4byte	.LFE284
 2752 0098 00000000 		.4byte	.LFB281
 2753 009c 38000000 		.4byte	.LFE281
 2754 00a0 00000000 		.4byte	.LFB285
 2755 00a4 3C000000 		.4byte	.LFE285
 2756 00a8 00000000 		.4byte	0
 2757 00ac 00000000 		.4byte	0
 2758              		.section	.debug_line,"",%progbits
 2759              	.Ldebug_line0:
 2760 0000 B0030000 		.section	.debug_str,"MS",%progbits,1
 2760      0200CC02 
 2760      00000201 
 2760      FB0E0D00 
 2760      01010101 
 2761              	.LASF55:
 2762 0000 72656164 		.ascii	"ready_list_t\000"
 2762      795F6C69 
 2762      73745F74 
 2762      00
 2763              	.LASF4:
 2764 000d 73697A65 		.ascii	"size_t\000"
 2764      5F7400
 2765              	.LASF61:
 2766 0014 64656C74 		.ascii	"delta\000"
 2766      6100
 2767              	.LASF115:
 2768 001a 7264796D 		.ascii	"rdymsg\000"
 2768      736700
 2769              	.LASF20:
 2770 0021 75696E74 		.ascii	"uint64_t\000"
 2770      36345F74 
 2770      00
 2771              	.LASF5:
 2772 002a 5F5F7569 		.ascii	"__uint8_t\000"
 2772      6E74385F 
 2772      7400
 2773              	.LASF54:
 2774 0034 70726576 		.ascii	"prev\000"
 2774      00
 2775              	.LASF107:
 2776 0039 706F7274 		.ascii	"port_intctx\000"
 2776      5F696E74 
 2776      63747800 
ARM GAS  /var/folders/vd/czx34qs52cd_f3nb04sxmghc0000gn/T//ccbnwpIb.s 			page 50


 2777              	.LASF53:
 2778 0045 63685F74 		.ascii	"ch_threads_queue\000"
 2778      68726561 
 2778      64735F71 
 2778      75657565 
 2778      00
 2779              	.LASF66:
 2780 0056 73797374 		.ascii	"system_debug_t\000"
 2780      656D5F64 
 2780      65627567 
 2780      5F7400
 2781              	.LASF158:
 2782 0065 70726F76 		.ascii	"provider\000"
 2782      69646572 
 2782      00
 2783              	.LASF168:
 2784 006e 73656D5F 		.ascii	"sem_list\000"
 2784      6C697374 
 2784      00
 2785              	.LASF106:
 2786 0077 706F7274 		.ascii	"port_context\000"
 2786      5F636F6E 
 2786      74657874 
 2786      00
 2787              	.LASF111:
 2788 0084 776F7273 		.ascii	"worst\000"
 2788      7400
 2789              	.LASF114:
 2790 008a 74696D65 		.ascii	"time_measurement_t\000"
 2790      5F6D6561 
 2790      73757265 
 2790      6D656E74 
 2790      5F7400
 2791              	.LASF15:
 2792 009d 6C6F6E67 		.ascii	"long long unsigned int\000"
 2792      206C6F6E 
 2792      6720756E 
 2792      7369676E 
 2792      65642069 
 2793              	.LASF116:
 2794 00b4 65786974 		.ascii	"exitcode\000"
 2794      636F6465 
 2794      00
 2795              	.LASF73:
 2796 00bd 6D61696E 		.ascii	"mainthread\000"
 2796      74687265 
 2796      616400
 2797              	.LASF184:
 2798 00c8 746D5F73 		.ascii	"tm_stop\000"
 2798      746F7000 
 2799              	.LASF63:
 2800 00d0 76697274 		.ascii	"virtual_timers_list_t\000"
 2800      75616C5F 
 2800      74696D65 
 2800      72735F6C 
 2800      6973745F 
 2801              	.LASF183:
ARM GAS  /var/folders/vd/czx34qs52cd_f3nb04sxmghc0000gn/T//ccbnwpIb.s 			page 51


 2802 00e6 6368544D 		.ascii	"chTMObjectInit\000"
 2802      4F626A65 
 2802      6374496E 
 2802      697400
 2803              	.LASF161:
 2804 00f5 64796E5F 		.ascii	"dyn_element_t\000"
 2804      656C656D 
 2804      656E745F 
 2804      7400
 2805              	.LASF51:
 2806 0103 6E657874 		.ascii	"next\000"
 2806      00
 2807              	.LASF22:
 2808 0108 72747469 		.ascii	"rttime_t\000"
 2808      6D655F74 
 2808      00
 2809              	.LASF180:
 2810 0111 474E5520 		.ascii	"GNU C11 7.2.1 20170904 (release) [ARM/embedded-7-br"
 2810      43313120 
 2810      372E322E 
 2810      31203230 
 2810      31373039 
 2811 0144 616E6368 		.ascii	"anch revision 255204] -mcpu=cortex-m4 -mno-thumb-in"
 2811      20726576 
 2811      6973696F 
 2811      6E203235 
 2811      35323034 
 2812 0177 74657277 		.ascii	"terwork -mthumb -ggdb -O2 -fomit-frame-pointer -fal"
 2812      6F726B20 
 2812      2D6D7468 
 2812      756D6220 
 2812      2D676764 
 2813 01aa 69676E2D 		.ascii	"ign-functions=16 -ffunction-sections -fdata-section"
 2813      66756E63 
 2813      74696F6E 
 2813      733D3136 
 2813      202D6666 
 2814 01dd 73202D66 		.ascii	"s -fno-common\000"
 2814      6E6F2D63 
 2814      6F6D6D6F 
 2814      6E00
 2815              	.LASF174:
 2816 01eb 746D7031 		.ascii	"tmp1\000"
 2816      00
 2817              	.LASF175:
 2818 01f0 746D7032 		.ascii	"tmp2\000"
 2818      00
 2819              	.LASF1:
 2820 01f5 6C6F6E67 		.ascii	"long long int\000"
 2820      206C6F6E 
 2820      6720696E 
 2820      7400
 2821              	.LASF3:
 2822 0203 7369676E 		.ascii	"signed char\000"
 2822      65642063 
 2822      68617200 
 2823              	.LASF130:
ARM GAS  /var/folders/vd/czx34qs52cd_f3nb04sxmghc0000gn/T//ccbnwpIb.s 			page 52


 2824 020f 73697A65 		.ascii	"size\000"
 2824      00
 2825              	.LASF78:
 2826 0214 43504943 		.ascii	"CPICNT\000"
 2826      4E5400
 2827              	.LASF71:
 2828 021b 726C6973 		.ascii	"rlist\000"
 2828      7400
 2829              	.LASF72:
 2830 0221 76746C69 		.ascii	"vtlist\000"
 2830      737400
 2831              	.LASF181:
 2832 0228 2E2E2F6F 		.ascii	"../os/rt/src/chtm.c\000"
 2832      732F7274 
 2832      2F737263 
 2832      2F636874 
 2832      6D2E6300 
 2833              	.LASF178:
 2834 023c 6368544D 		.ascii	"chTMStartMeasurementX\000"
 2834      53746172 
 2834      744D6561 
 2834      73757265 
 2834      6D656E74 
 2835              	.LASF38:
 2836 0252 73746174 		.ascii	"state\000"
 2836      6500
 2837              	.LASF177:
 2838 0258 6368544D 		.ascii	"chTMStopMeasurementX\000"
 2838      53746F70 
 2838      4D656173 
 2838      7572656D 
 2838      656E7458 
 2839              	.LASF11:
 2840 026d 6C6F6E67 		.ascii	"long int\000"
 2840      20696E74 
 2840      00
 2841              	.LASF24:
 2842 0276 74737461 		.ascii	"tstate_t\000"
 2842      74655F74 
 2842      00
 2843              	.LASF62:
 2844 027f 66756E63 		.ascii	"func\000"
 2844      00
 2845              	.LASF128:
 2846 0284 6964656E 		.ascii	"identifier\000"
 2846      74696669 
 2846      657200
 2847              	.LASF17:
 2848 028f 75696E74 		.ascii	"uint16_t\000"
 2848      31365F74 
 2848      00
 2849              	.LASF146:
 2850 0298 63686465 		.ascii	"chdebug_t\000"
 2850      6275675F 
 2850      7400
 2851              	.LASF144:
 2852 02a2 6F66665F 		.ascii	"off_preempt\000"
ARM GAS  /var/folders/vd/czx34qs52cd_f3nb04sxmghc0000gn/T//ccbnwpIb.s 			page 53


 2852      70726565 
 2852      6D707400 
 2853              	.LASF2:
 2854 02ae 6C6F6E67 		.ascii	"long double\000"
 2854      20646F75 
 2854      626C6500 
 2855              	.LASF12:
 2856 02ba 5F5F7569 		.ascii	"__uint32_t\000"
 2856      6E743332 
 2856      5F7400
 2857              	.LASF104:
 2858 02c5 72656761 		.ascii	"regarm_t\000"
 2858      726D5F74 
 2858      00
 2859              	.LASF170:
 2860 02ce 6D62785F 		.ascii	"mbx_list\000"
 2860      6C697374 
 2860      00
 2861              	.LASF67:
 2862 02d7 63685F73 		.ascii	"ch_system_debug\000"
 2862      79737465 
 2862      6D5F6465 
 2862      62756700 
 2863              	.LASF41:
 2864 02e7 77616974 		.ascii	"waiting\000"
 2864      696E6700 
 2865              	.LASF103:
 2866 02ef 41504250 		.ascii	"APBPrescTable\000"
 2866      72657363 
 2866      5461626C 
 2866      6500
 2867              	.LASF129:
 2868 02fd 7A65726F 		.ascii	"zero\000"
 2868      00
 2869              	.LASF148:
 2870 0302 6D757465 		.ascii	"mutex_t\000"
 2870      785F7400 
 2871              	.LASF157:
 2872 030a 616C6967 		.ascii	"align\000"
 2872      6E00
 2873              	.LASF75:
 2874 0310 73797369 		.ascii	"sysinterval_t\000"
 2874      6E746572 
 2874      76616C5F 
 2874      7400
 2875              	.LASF29:
 2876 031e 636E745F 		.ascii	"cnt_t\000"
 2876      7400
 2877              	.LASF42:
 2878 0324 6D736771 		.ascii	"msgqueue\000"
 2878      75657565 
 2878      00
 2879              	.LASF85:
 2880 032d 4D41534B 		.ascii	"MASK0\000"
 2880      3000
 2881              	.LASF0:
 2882 0333 756E7369 		.ascii	"unsigned int\000"
ARM GAS  /var/folders/vd/czx34qs52cd_f3nb04sxmghc0000gn/T//ccbnwpIb.s 			page 54


 2882      676E6564 
 2882      20696E74 
 2882      00
 2883              	.LASF89:
 2884 0340 4D41534B 		.ascii	"MASK1\000"
 2884      3100
 2885              	.LASF93:
 2886 0346 4D41534B 		.ascii	"MASK2\000"
 2886      3200
 2887              	.LASF101:
 2888 034c 53797374 		.ascii	"SystemCoreClock\000"
 2888      656D436F 
 2888      7265436C 
 2888      6F636B00 
 2889              	.LASF97:
 2890 035c 4D41534B 		.ascii	"MASK3\000"
 2890      3300
 2891              	.LASF120:
 2892 0362 77747365 		.ascii	"wtsemp\000"
 2892      6D7000
 2893              	.LASF182:
 2894 0369 2F557365 		.ascii	"/Users/lantian/Projects/stm32f407vet6/dev\000"
 2894      72732F6C 
 2894      616E7469 
 2894      616E2F50 
 2894      726F6A65 
 2895              	.LASF179:
 2896 0393 5F746D5F 		.ascii	"_tm_init\000"
 2896      696E6974 
 2896      00
 2897              	.LASF147:
 2898 039c 63685F64 		.ascii	"ch_debug\000"
 2898      65627567 
 2898      00
 2899              	.LASF49:
 2900 03a5 63685F74 		.ascii	"ch_thread\000"
 2900      68726561 
 2900      6400
 2901              	.LASF159:
 2902 03af 6D656D6F 		.ascii	"memory_pool_t\000"
 2902      72795F70 
 2902      6F6F6C5F 
 2902      7400
 2903              	.LASF36:
 2904 03bd 6E616D65 		.ascii	"name\000"
 2904      00
 2905              	.LASF32:
 2906 03c2 71756575 		.ascii	"queue\000"
 2906      6500
 2907              	.LASF46:
 2908 03c8 6D706F6F 		.ascii	"mpool\000"
 2908      6C00
 2909              	.LASF110:
 2910 03ce 62657374 		.ascii	"best\000"
 2910      00
 2911              	.LASF143:
 2912 03d3 6F66665F 		.ascii	"off_refs\000"
ARM GAS  /var/folders/vd/czx34qs52cd_f3nb04sxmghc0000gn/T//ccbnwpIb.s 			page 55


 2912      72656673 
 2912      00
 2913              	.LASF167:
 2914 03dc 6275665F 		.ascii	"buf_list\000"
 2914      6C697374 
 2914      00
 2915              	.LASF80:
 2916 03e5 534C4545 		.ascii	"SLEEPCNT\000"
 2916      50434E54 
 2916      00
 2917              	.LASF79:
 2918 03ee 45584343 		.ascii	"EXCCNT\000"
 2918      4E5400
 2919              	.LASF27:
 2920 03f5 6D73675F 		.ascii	"msg_t\000"
 2920      7400
 2921              	.LASF112:
 2922 03fb 6C617374 		.ascii	"last\000"
 2922      00
 2923              	.LASF30:
 2924 0400 75636E74 		.ascii	"ucnt_t\000"
 2924      5F7400
 2925              	.LASF43:
 2926 0407 6570656E 		.ascii	"epending\000"
 2926      64696E67 
 2926      00
 2927              	.LASF163:
 2928 0410 64796E5F 		.ascii	"dyn_list_t\000"
 2928      6C697374 
 2928      5F7400
 2929              	.LASF69:
 2930 041b 63685F73 		.ascii	"ch_system_t\000"
 2930      79737465 
 2930      6D5F7400 
 2931              	.LASF136:
 2932 0427 6F66665F 		.ascii	"off_ctx\000"
 2932      63747800 
 2933              	.LASF23:
 2934 042f 746D6F64 		.ascii	"tmode_t\000"
 2934      655F7400 
 2935              	.LASF56:
 2936 0437 63685F72 		.ascii	"ch_ready_list\000"
 2936      65616479 
 2936      5F6C6973 
 2936      7400
 2937              	.LASF28:
 2938 0445 6576656E 		.ascii	"eventmask_t\000"
 2938      746D6173 
 2938      6B5F7400 
 2939              	.LASF102:
 2940 0451 41484250 		.ascii	"AHBPrescTable\000"
 2940      72657363 
 2940      5461626C 
 2940      6500
 2941              	.LASF152:
 2942 045f 656E646D 		.ascii	"endmem\000"
 2942      656D00
ARM GAS  /var/folders/vd/czx34qs52cd_f3nb04sxmghc0000gn/T//ccbnwpIb.s 			page 56


 2943              	.LASF10:
 2944 0466 5F5F696E 		.ascii	"__int32_t\000"
 2944      7433325F 
 2944      7400
 2945              	.LASF176:
 2946 0470 6368544D 		.ascii	"chTMChainMeasurementToX\000"
 2946      43686169 
 2946      6E4D6561 
 2946      73757265 
 2946      6D656E74 
 2947              	.LASF105:
 2948 0488 73746B61 		.ascii	"stkalign_t\000"
 2948      6C69676E 
 2948      5F7400
 2949              	.LASF34:
 2950 0493 6E657765 		.ascii	"newer\000"
 2950      7200
 2951              	.LASF77:
 2952 0499 43594343 		.ascii	"CYCCNT\000"
 2952      4E5400
 2953              	.LASF45:
 2954 04a0 7265616C 		.ascii	"realprio\000"
 2954      7072696F 
 2954      00
 2955              	.LASF131:
 2956 04a9 76657273 		.ascii	"version\000"
 2956      696F6E00 
 2957              	.LASF21:
 2958 04b1 7274636E 		.ascii	"rtcnt_t\000"
 2958      745F7400 
 2959              	.LASF47:
 2960 04b9 74687265 		.ascii	"thread_reference_t\000"
 2960      61645F72 
 2960      65666572 
 2960      656E6365 
 2960      5F7400
 2961              	.LASF64:
 2962 04cc 63685F76 		.ascii	"ch_virtual_timers_list\000"
 2962      69727475 
 2962      616C5F74 
 2962      696D6572 
 2962      735F6C69 
 2963              	.LASF118:
 2964 04e3 77747472 		.ascii	"wttrp\000"
 2964      7000
 2965              	.LASF162:
 2966 04e9 63685F64 		.ascii	"ch_dyn_list\000"
 2966      796E5F6C 
 2966      69737400 
 2967              	.LASF137:
 2968 04f5 6F66665F 		.ascii	"off_newer\000"
 2968      6E657765 
 2968      7200
 2969              	.LASF109:
 2970 04ff 746D5F63 		.ascii	"tm_calibration_t\000"
 2970      616C6962 
 2970      72617469 
ARM GAS  /var/folders/vd/czx34qs52cd_f3nb04sxmghc0000gn/T//ccbnwpIb.s 			page 57


 2970      6F6E5F74 
 2970      00
 2971              	.LASF84:
 2972 0510 434F4D50 		.ascii	"COMP0\000"
 2972      3000
 2973              	.LASF88:
 2974 0516 434F4D50 		.ascii	"COMP1\000"
 2974      3100
 2975              	.LASF92:
 2976 051c 434F4D50 		.ascii	"COMP2\000"
 2976      3200
 2977              	.LASF96:
 2978 0522 434F4D50 		.ascii	"COMP3\000"
 2978      3300
 2979              	.LASF33:
 2980 0528 7072696F 		.ascii	"prio\000"
 2980      00
 2981              	.LASF169:
 2982 052d 73656D5F 		.ascii	"sem_pool\000"
 2982      706F6F6C 
 2982      00
 2983              	.LASF57:
 2984 0536 63757272 		.ascii	"current\000"
 2984      656E7400 
 2985              	.LASF14:
 2986 053e 5F5F7569 		.ascii	"__uint64_t\000"
 2986      6E743634 
 2986      5F7400
 2987              	.LASF153:
 2988 0549 6D656D63 		.ascii	"memcore_t\000"
 2988      6F72655F 
 2988      7400
 2989              	.LASF113:
 2990 0553 63756D75 		.ascii	"cumulative\000"
 2990      6C617469 
 2990      766500
 2991              	.LASF25:
 2992 055e 74726566 		.ascii	"trefs_t\000"
 2992      735F7400 
 2993              	.LASF87:
 2994 0566 52455345 		.ascii	"RESERVED0\000"
 2994      52564544 
 2994      3000
 2995              	.LASF91:
 2996 0570 52455345 		.ascii	"RESERVED1\000"
 2996      52564544 
 2996      3100
 2997              	.LASF95:
 2998 057a 52455345 		.ascii	"RESERVED2\000"
 2998      52564544 
 2998      3200
 2999              	.LASF40:
 3000 0584 72656673 		.ascii	"refs\000"
 3000      00
 3001              	.LASF59:
 3002 0589 76697274 		.ascii	"virtual_timer_t\000"
 3002      75616C5F 
ARM GAS  /var/folders/vd/czx34qs52cd_f3nb04sxmghc0000gn/T//ccbnwpIb.s 			page 58


 3002      74696D65 
 3002      725F7400 
 3003              	.LASF160:
 3004 0599 63685F64 		.ascii	"ch_dyn_element\000"
 3004      796E5F65 
 3004      6C656D65 
 3004      6E7400
 3005              	.LASF26:
 3006 05a8 74707269 		.ascii	"tprio_t\000"
 3006      6F5F7400 
 3007              	.LASF83:
 3008 05b0 50435352 		.ascii	"PCSR\000"
 3008      00
 3009              	.LASF134:
 3010 05b5 74687265 		.ascii	"threadsize\000"
 3010      61647369 
 3010      7A6500
 3011              	.LASF149:
 3012 05c0 5F426F6F 		.ascii	"_Bool\000"
 3012      6C00
 3013              	.LASF18:
 3014 05c6 696E7433 		.ascii	"int32_t\000"
 3014      325F7400 
 3015              	.LASF6:
 3016 05ce 756E7369 		.ascii	"unsigned char\000"
 3016      676E6564 
 3016      20636861 
 3016      7200
 3017              	.LASF135:
 3018 05dc 6F66665F 		.ascii	"off_prio\000"
 3018      7072696F 
 3018      00
 3019              	.LASF140:
 3020 05e5 6F66665F 		.ascii	"off_stklimit\000"
 3020      73746B6C 
 3020      696D6974 
 3020      00
 3021              	.LASF100:
 3022 05f2 49544D5F 		.ascii	"ITM_RxBuffer\000"
 3022      52784275 
 3022      66666572 
 3022      00
 3023              	.LASF86:
 3024 05ff 46554E43 		.ascii	"FUNCTION0\000"
 3024      54494F4E 
 3024      3000
 3025              	.LASF90:
 3026 0609 46554E43 		.ascii	"FUNCTION1\000"
 3026      54494F4E 
 3026      3100
 3027              	.LASF94:
 3028 0613 46554E43 		.ascii	"FUNCTION2\000"
 3028      54494F4E 
 3028      3200
 3029              	.LASF98:
 3030 061d 46554E43 		.ascii	"FUNCTION3\000"
 3030      54494F4E 
ARM GAS  /var/folders/vd/czx34qs52cd_f3nb04sxmghc0000gn/T//ccbnwpIb.s 			page 59


 3030      3300
 3031              	.LASF7:
 3032 0627 73686F72 		.ascii	"short int\000"
 3032      7420696E 
 3032      7400
 3033              	.LASF65:
 3034 0631 6C617374 		.ascii	"lasttime\000"
 3034      74696D65 
 3034      00
 3035              	.LASF122:
 3036 063a 65776D61 		.ascii	"ewmask\000"
 3036      736B00
 3037              	.LASF70:
 3038 0641 63685F73 		.ascii	"ch_system\000"
 3038      79737465 
 3038      6D00
 3039              	.LASF173:
 3040 064b 63685F66 		.ascii	"ch_factory\000"
 3040      6163746F 
 3040      727900
 3041              	.LASF166:
 3042 0656 6F626A5F 		.ascii	"obj_pool\000"
 3042      706F6F6C 
 3042      00
 3043              	.LASF60:
 3044 065f 63685F76 		.ascii	"ch_virtual_timer\000"
 3044      69727475 
 3044      616C5F74 
 3044      696D6572 
 3044      00
 3045              	.LASF123:
 3046 0670 63685F73 		.ascii	"ch_semaphore\000"
 3046      656D6170 
 3046      686F7265 
 3046      00
 3047              	.LASF145:
 3048 067d 6F66665F 		.ascii	"off_time\000"
 3048      74696D65 
 3048      00
 3049              	.LASF127:
 3050 0686 63685F69 		.ascii	"ch_idle_thread_wa\000"
 3050      646C655F 
 3050      74687265 
 3050      61645F77 
 3050      6100
 3051              	.LASF133:
 3052 0698 74696D65 		.ascii	"timesize\000"
 3052      73697A65 
 3052      00
 3053              	.LASF81:
 3054 06a1 4C535543 		.ascii	"LSUCNT\000"
 3054      4E5400
 3055              	.LASF19:
 3056 06a8 75696E74 		.ascii	"uint32_t\000"
 3056      33325F74 
 3056      00
 3057              	.LASF121:
ARM GAS  /var/folders/vd/czx34qs52cd_f3nb04sxmghc0000gn/T//ccbnwpIb.s 			page 60


 3058 06b1 77746D74 		.ascii	"wtmtxp\000"
 3058      787000
 3059              	.LASF50:
 3060 06b8 63685F74 		.ascii	"ch_threads_list\000"
 3060      68726561 
 3060      64735F6C 
 3060      69737400 
 3061              	.LASF125:
 3062 06c8 6F776E65 		.ascii	"owner\000"
 3062      7200
 3063              	.LASF13:
 3064 06ce 6C6F6E67 		.ascii	"long unsigned int\000"
 3064      20756E73 
 3064      69676E65 
 3064      6420696E 
 3064      7400
 3065              	.LASF37:
 3066 06e0 77616261 		.ascii	"wabase\000"
 3066      736500
 3067              	.LASF126:
 3068 06e7 63686172 		.ascii	"char\000"
 3068      00
 3069              	.LASF35:
 3070 06ec 6F6C6465 		.ascii	"older\000"
 3070      7200
 3071              	.LASF165:
 3072 06f2 6F626A5F 		.ascii	"obj_list\000"
 3072      6C697374 
 3072      00
 3073              	.LASF8:
 3074 06fb 5F5F7569 		.ascii	"__uint16_t\000"
 3074      6E743136 
 3074      5F7400
 3075              	.LASF31:
 3076 0706 74687265 		.ascii	"thread_t\000"
 3076      61645F74 
 3076      00
 3077              	.LASF185:
 3078 070f 706F7274 		.ascii	"port_rt_get_counter_value\000"
 3078      5F72745F 
 3078      6765745F 
 3078      636F756E 
 3078      7465725F 
 3079              	.LASF154:
 3080 0729 63685F6D 		.ascii	"ch_memcore\000"
 3080      656D636F 
 3080      726500
 3081              	.LASF74:
 3082 0734 73797374 		.ascii	"systime_t\000"
 3082      696D655F 
 3082      7400
 3083              	.LASF58:
 3084 073e 76746675 		.ascii	"vtfunc_t\000"
 3084      6E635F74 
 3084      00
 3085              	.LASF68:
 3086 0747 70616E69 		.ascii	"panic_msg\000"
ARM GAS  /var/folders/vd/czx34qs52cd_f3nb04sxmghc0000gn/T//ccbnwpIb.s 			page 61


 3086      635F6D73 
 3086      6700
 3087              	.LASF108:
 3088 0751 6F666673 		.ascii	"offset\000"
 3088      657400
 3089              	.LASF124:
 3090 0758 63685F6D 		.ascii	"ch_mutex\000"
 3090      75746578 
 3090      00
 3091              	.LASF138:
 3092 0761 6F66665F 		.ascii	"off_older\000"
 3092      6F6C6465 
 3092      7200
 3093              	.LASF9:
 3094 076b 73686F72 		.ascii	"short unsigned int\000"
 3094      7420756E 
 3094      7369676E 
 3094      65642069 
 3094      6E7400
 3095              	.LASF99:
 3096 077e 4457545F 		.ascii	"DWT_Type\000"
 3096      54797065 
 3096      00
 3097              	.LASF150:
 3098 0787 6D656D67 		.ascii	"memgetfunc_t\000"
 3098      65746675 
 3098      6E635F74 
 3098      00
 3099              	.LASF76:
 3100 0794 4354524C 		.ascii	"CTRL\000"
 3100      00
 3101              	.LASF156:
 3102 0799 6F626A65 		.ascii	"object_size\000"
 3102      63745F73 
 3102      697A6500 
 3103              	.LASF132:
 3104 07a5 70747273 		.ascii	"ptrsize\000"
 3104      697A6500 
 3105              	.LASF164:
 3106 07ad 63685F6F 		.ascii	"ch_objects_factory\000"
 3106      626A6563 
 3106      74735F66 
 3106      6163746F 
 3106      727900
 3107              	.LASF52:
 3108 07c0 74687265 		.ascii	"threads_queue_t\000"
 3108      6164735F 
 3108      71756575 
 3108      655F7400 
 3109              	.LASF155:
 3110 07d0 706F6F6C 		.ascii	"pool_header\000"
 3110      5F686561 
 3110      64657200 
 3111              	.LASF139:
 3112 07dc 6F66665F 		.ascii	"off_name\000"
 3112      6E616D65 
 3112      00
ARM GAS  /var/folders/vd/czx34qs52cd_f3nb04sxmghc0000gn/T//ccbnwpIb.s 			page 62


 3113              	.LASF16:
 3114 07e5 75696E74 		.ascii	"uint8_t\000"
 3114      385F7400 
 3115              	.LASF39:
 3116 07ed 666C6167 		.ascii	"flags\000"
 3116      7300
 3117              	.LASF171:
 3118 07f3 6669666F 		.ascii	"fifo_list\000"
 3118      5F6C6973 
 3118      7400
 3119              	.LASF82:
 3120 07fd 464F4C44 		.ascii	"FOLDCNT\000"
 3120      434E5400 
 3121              	.LASF117:
 3122 0805 77746F62 		.ascii	"wtobjp\000"
 3122      6A7000
 3123              	.LASF48:
 3124 080c 74687265 		.ascii	"threads_list_t\000"
 3124      6164735F 
 3124      6C697374 
 3124      5F7400
 3125              	.LASF141:
 3126 081b 6F66665F 		.ascii	"off_state\000"
 3126      73746174 
 3126      6500
 3127              	.LASF172:
 3128 0825 6F626A65 		.ascii	"objects_factory_t\000"
 3128      6374735F 
 3128      66616374 
 3128      6F72795F 
 3128      7400
 3129              	.LASF142:
 3130 0837 6F66665F 		.ascii	"off_flags\000"
 3130      666C6167 
 3130      7300
 3131              	.LASF44:
 3132 0841 6D74786C 		.ascii	"mtxlist\000"
 3132      69737400 
 3133              	.LASF119:
 3134 0849 73656E74 		.ascii	"sentmsg\000"
 3134      6D736700 
 3135              	.LASF151:
 3136 0851 6E657874 		.ascii	"nextmem\000"
 3136      6D656D00 
 3137              		.ident	"GCC: (GNU Tools for Arm Embedded Processors 7-2017-q4-major) 7.2.1 20170904 (release) [ARM
ARM GAS  /var/folders/vd/czx34qs52cd_f3nb04sxmghc0000gn/T//ccbnwpIb.s 			page 63


DEFINED SYMBOLS
                            *ABS*:0000000000000000 chtm.c
/var/folders/vd/czx34qs52cd_f3nb04sxmghc0000gn/T//ccbnwpIb.s:16     .text.chTMObjectInit:0000000000000000 $t
/var/folders/vd/czx34qs52cd_f3nb04sxmghc0000gn/T//ccbnwpIb.s:24     .text.chTMObjectInit:0000000000000000 chTMObjectInit
/var/folders/vd/czx34qs52cd_f3nb04sxmghc0000gn/T//ccbnwpIb.s:49     .text.chTMStartMeasurementX:0000000000000000 $t
/var/folders/vd/czx34qs52cd_f3nb04sxmghc0000gn/T//ccbnwpIb.s:57     .text.chTMStartMeasurementX:0000000000000000 chTMStartMeasurementX
/var/folders/vd/czx34qs52cd_f3nb04sxmghc0000gn/T//ccbnwpIb.s:80     .text.chTMStartMeasurementX:0000000000000008 $d
/var/folders/vd/czx34qs52cd_f3nb04sxmghc0000gn/T//ccbnwpIb.s:85     .text.chTMStopMeasurementX:0000000000000000 $t
/var/folders/vd/czx34qs52cd_f3nb04sxmghc0000gn/T//ccbnwpIb.s:93     .text.chTMStopMeasurementX:0000000000000000 chTMStopMeasurementX
/var/folders/vd/czx34qs52cd_f3nb04sxmghc0000gn/T//ccbnwpIb.s:183    .text.chTMStopMeasurementX:000000000000003c $d
/var/folders/vd/czx34qs52cd_f3nb04sxmghc0000gn/T//ccbnwpIb.s:189    .text._tm_init:0000000000000000 $t
/var/folders/vd/czx34qs52cd_f3nb04sxmghc0000gn/T//ccbnwpIb.s:197    .text._tm_init:0000000000000000 _tm_init
/var/folders/vd/czx34qs52cd_f3nb04sxmghc0000gn/T//ccbnwpIb.s:259    .text._tm_init:0000000000000034 $d
/var/folders/vd/czx34qs52cd_f3nb04sxmghc0000gn/T//ccbnwpIb.s:264    .text.chTMChainMeasurementToX:0000000000000000 $t
/var/folders/vd/czx34qs52cd_f3nb04sxmghc0000gn/T//ccbnwpIb.s:272    .text.chTMChainMeasurementToX:0000000000000000 chTMChainMeasurementToX
/var/folders/vd/czx34qs52cd_f3nb04sxmghc0000gn/T//ccbnwpIb.s:354    .text.chTMChainMeasurementToX:0000000000000038 $d

UNDEFINED SYMBOLS
ch
