ARM GAS  /var/folders/vd/czx34qs52cd_f3nb04sxmghc0000gn/T//ccbnwpIb.s 			page 1


   1              		.cpu cortex-m4
   2              		.eabi_attribute 20, 1
   3              		.eabi_attribute 21, 1
   4              		.eabi_attribute 23, 3
   5              		.eabi_attribute 24, 1
   6              		.eabi_attribute 25, 1
   7              		.eabi_attribute 26, 1
   8              		.eabi_attribute 30, 2
   9              		.eabi_attribute 34, 1
  10              		.eabi_attribute 18, 4
  11              		.file	"chtm.c"
  12              		.text
  13              	.Ltext0:
  14              		.cfi_sections	.debug_frame
  15              		.section	.text.chTMObjectInit,"ax",%progbits
  16              		.align	1
  17              		.p2align 4,,15
  18              		.global	chTMObjectInit
  19              		.syntax unified
  20              		.thumb
  21              		.thumb_func
  22              		.fpu softvfp
  23              		.type	chTMObjectInit, %function
  24              	chTMObjectInit:
  25              	.LFB282:
  26              		.file 1 "../os/rt/src/chtm.c"
  27              		.loc 1 97 0
  28              		.cfi_startproc
  29              		@ args = 0, pretend = 0, frame = 0
  30              		@ frame_needed = 0, uses_anonymous_args = 0
  31              		@ link register save eliminated.
  32              	.LVL0:
  33              		.loc 1 103 0
  34 0000 0022     		movs	r2, #0
  35 0002 0023     		movs	r3, #0
  36 0004 C0E90423 		strd	r2, [r0, #16]
  37              		.loc 1 100 0
  38 0008 0023     		movs	r3, #0
  39 000a 4FF0FF32 		mov	r2, #-1
  40 000e C0E90023 		strd	r2, r3, [r0]
  41              		.loc 1 102 0
  42 0012 C0E90233 		strd	r3, r3, [r0, #8]
  43              		.loc 1 104 0
  44 0016 7047     		bx	lr
  45              		.cfi_endproc
  46              	.LFE282:
  47              		.size	chTMObjectInit, .-chTMObjectInit
  48              		.section	.text.chTMStartMeasurementX,"ax",%progbits
  49              		.align	1
  50              		.p2align 4,,15
  51              		.global	chTMStartMeasurementX
  52              		.syntax unified
  53              		.thumb
  54              		.thumb_func
  55              		.fpu softvfp
  56              		.type	chTMStartMeasurementX, %function
  57              	chTMStartMeasurementX:
ARM GAS  /var/folders/vd/czx34qs52cd_f3nb04sxmghc0000gn/T//ccbnwpIb.s 			page 2


  58              	.LFB283:
  59              		.loc 1 114 0
  60              		.cfi_startproc
  61              		@ args = 0, pretend = 0, frame = 0
  62              		@ frame_needed = 0, uses_anonymous_args = 0
  63              		@ link register save eliminated.
  64              	.LVL1:
  65              	.LBB14:
  66              	.LBB15:
  67              		.file 2 "../os/common/ports/ARMCMx/chcore_v7m.h"
  68              		.loc 2 708 0
  69 0000 014B     		ldr	r3, .L4
  70 0002 5B68     		ldr	r3, [r3, #4]
  71              	.LBE15:
  72              	.LBE14:
  73              		.loc 1 116 0
  74 0004 8360     		str	r3, [r0, #8]
  75              		.loc 1 117 0
  76 0006 7047     		bx	lr
  77              	.L5:
  78              		.align	2
  79              	.L4:
  80 0008 001000E0 		.word	-536866816
  81              		.cfi_endproc
  82              	.LFE283:
  83              		.size	chTMStartMeasurementX, .-chTMStartMeasurementX
  84              		.section	.text.chTMStopMeasurementX,"ax",%progbits
  85              		.align	1
  86              		.p2align 4,,15
  87              		.global	chTMStopMeasurementX
  88              		.syntax unified
  89              		.thumb
  90              		.thumb_func
  91              		.fpu softvfp
  92              		.type	chTMStopMeasurementX, %function
  93              	chTMStopMeasurementX:
  94              	.LFB284:
  95              		.loc 1 127 0
  96              		.cfi_startproc
  97              		@ args = 0, pretend = 0, frame = 0
  98              		@ frame_needed = 0, uses_anonymous_args = 0
  99              		@ link register save eliminated.
 100              	.LVL2:
 101              	.LBB16:
 102              	.LBB17:
 103              		.loc 2 708 0
 104 0000 0E4B     		ldr	r3, .L10
 105              	.LBE17:
 106              	.LBE16:
 107              		.loc 1 129 0
 108 0002 0F4A     		ldr	r2, .L10+4
 109              	.LBB19:
 110              	.LBB18:
 111              		.loc 2 708 0
 112 0004 5B68     		ldr	r3, [r3, #4]
 113              	.LBE18:
 114              	.LBE19:
ARM GAS  /var/folders/vd/czx34qs52cd_f3nb04sxmghc0000gn/T//ccbnwpIb.s 			page 3


 115              	.LBB20:
 116              	.LBB21:
 117              		.loc 1 57 0
 118 0006 C168     		ldr	r1, [r0, #12]
 119              	.LBE21:
 120              	.LBE20:
 121              		.loc 1 127 0
 122 0008 F0B4     		push	{r4, r5, r6, r7}
 123              		.cfi_def_cfa_offset 16
 124              		.cfi_offset 4, -16
 125              		.cfi_offset 5, -12
 126              		.cfi_offset 6, -8
 127              		.cfi_offset 7, -4
 128              	.LBB24:
 129              	.LBB22:
 130              		.loc 1 58 0
 131 000a 8468     		ldr	r4, [r0, #8]
 132              	.LBE22:
 133              	.LBE24:
 134              		.loc 1 129 0
 135 000c 566F     		ldr	r6, [r2, #116]
 136              	.LVL3:
 137              	.LBB25:
 138              	.LBB23:
 139              		.loc 1 60 0
 140 000e 4268     		ldr	r2, [r0, #4]
 141              		.loc 1 58 0
 142 0010 1B1B     		subs	r3, r3, r4
 143              		.loc 1 59 0
 144 0012 D0E90445 		ldrd	r4, [r0, #16]
 145              		.loc 1 58 0
 146 0016 9B1B     		subs	r3, r3, r6
 147              		.loc 1 59 0
 148 0018 E618     		adds	r6, r4, r3
 149              	.LVL4:
 150 001a 45F10007 		adc	r7, r5, #0
 151              		.loc 1 60 0
 152 001e 9342     		cmp	r3, r2
 153              		.loc 1 63 0
 154 0020 0268     		ldr	r2, [r0]
 155              		.loc 1 61 0
 156 0022 88BF     		it	hi
 157 0024 4360     		strhi	r3, [r0, #4]
 158              		.loc 1 57 0
 159 0026 0131     		adds	r1, r1, #1
 160              		.loc 1 63 0
 161 0028 9342     		cmp	r3, r2
 162              		.loc 1 59 0
 163 002a C0E90467 		strd	r6, [r0, #16]
 164              		.loc 1 58 0
 165 002e C0E90231 		strd	r3, r1, [r0, #8]
 166              		.loc 1 64 0
 167 0032 38BF     		it	cc
 168 0034 0360     		strcc	r3, [r0]
 169              	.LVL5:
 170              	.LBE23:
 171              	.LBE25:
ARM GAS  /var/folders/vd/czx34qs52cd_f3nb04sxmghc0000gn/T//ccbnwpIb.s 			page 4


 172              		.loc 1 130 0
 173 0036 F0BC     		pop	{r4, r5, r6, r7}
 174              		.cfi_restore 7
 175              		.cfi_restore 6
 176              		.cfi_restore 5
 177              		.cfi_restore 4
 178              		.cfi_def_cfa_offset 0
 179 0038 7047     		bx	lr
 180              	.L11:
 181 003a 00BF     		.align	2
 182              	.L10:
 183 003c 001000E0 		.word	-536866816
 184 0040 00000000 		.word	ch
 185              		.cfi_endproc
 186              	.LFE284:
 187              		.size	chTMStopMeasurementX, .-chTMStopMeasurementX
 188              		.section	.text._tm_init,"ax",%progbits
 189              		.align	1
 190              		.p2align 4,,15
 191              		.global	_tm_init
 192              		.syntax unified
 193              		.thumb
 194              		.thumb_func
 195              		.fpu softvfp
 196              		.type	_tm_init, %function
 197              	_tm_init:
 198              	.LFB281:
 199              		.loc 1 77 0
 200              		.cfi_startproc
 201              		@ args = 0, pretend = 0, frame = 24
 202              		@ frame_needed = 0, uses_anonymous_args = 0
 203 0000 10B5     		push	{r4, lr}
 204              		.cfi_def_cfa_offset 8
 205              		.cfi_offset 4, -8
 206              		.cfi_offset 14, -4
 207              		.loc 1 83 0
 208 0002 0C4C     		ldr	r4, .L14
 209              		.loc 1 77 0
 210 0004 86B0     		sub	sp, sp, #24
 211              		.cfi_def_cfa_offset 32
 212              		.loc 1 83 0
 213 0006 0023     		movs	r3, #0
 214              	.LBB26:
 215              	.LBB27:
 216              		.loc 1 99 0
 217 0008 4FF0FF31 		mov	r1, #-1
 218              		.loc 1 103 0
 219 000c 0022     		movs	r2, #0
 220              	.LBE27:
 221              	.LBE26:
 222              		.loc 1 85 0
 223 000e 6846     		mov	r0, sp
 224              		.loc 1 83 0
 225 0010 6367     		str	r3, [r4, #116]
 226              	.LVL6:
 227              	.LBB29:
 228              	.LBB28:
ARM GAS  /var/folders/vd/czx34qs52cd_f3nb04sxmghc0000gn/T//ccbnwpIb.s 			page 5


 229              		.loc 1 101 0
 230 0012 CDE90133 		strd	r3, r3, [sp, #4]
 231              		.loc 1 102 0
 232 0016 0393     		str	r3, [sp, #12]
 233              		.loc 1 103 0
 234 0018 0023     		movs	r3, #0
 235 001a CDE90423 		strd	r2, [sp, #16]
 236              	.LVL7:
 237              		.loc 1 99 0
 238 001e 0091     		str	r1, [sp]
 239              	.LBE28:
 240              	.LBE29:
 241              		.loc 1 85 0
 242 0020 FFF7FEFF 		bl	chTMStartMeasurementX
 243              	.LVL8:
 244              		.loc 1 86 0
 245 0024 6846     		mov	r0, sp
 246 0026 FFF7FEFF 		bl	chTMStopMeasurementX
 247              	.LVL9:
 248              		.loc 1 87 0
 249 002a 029B     		ldr	r3, [sp, #8]
 250 002c 6367     		str	r3, [r4, #116]
 251              		.loc 1 88 0
 252 002e 06B0     		add	sp, sp, #24
 253              		.cfi_def_cfa_offset 8
 254              		@ sp needed
 255 0030 10BD     		pop	{r4, pc}
 256              	.L15:
 257 0032 00BF     		.align	2
 258              	.L14:
 259 0034 00000000 		.word	ch
 260              		.cfi_endproc
 261              	.LFE281:
 262              		.size	_tm_init, .-_tm_init
 263              		.section	.text.chTMChainMeasurementToX,"ax",%progbits
 264              		.align	1
 265              		.p2align 4,,15
 266              		.global	chTMChainMeasurementToX
 267              		.syntax unified
 268              		.thumb
 269              		.thumb_func
 270              		.fpu softvfp
 271              		.type	chTMChainMeasurementToX, %function
 272              	chTMChainMeasurementToX:
 273              	.LFB285:
 274              		.loc 1 145 0
 275              		.cfi_startproc
 276              		@ args = 0, pretend = 0, frame = 0
 277              		@ frame_needed = 0, uses_anonymous_args = 0
 278              		@ link register save eliminated.
 279              	.LVL10:
 280              	.LBB30:
 281              	.LBB31:
 282              		.loc 2 708 0
 283 0000 0D4B     		ldr	r3, .L20
 284              	.LBE31:
 285              	.LBE30:
ARM GAS  /var/folders/vd/czx34qs52cd_f3nb04sxmghc0000gn/T//ccbnwpIb.s 			page 6


 286              	.LBB33:
 287              	.LBB34:
 288              		.loc 1 60 0
 289 0002 4268     		ldr	r2, [r0, #4]
 290              	.LBE34:
 291              	.LBE33:
 292              	.LBB36:
 293              	.LBB32:
 294              		.loc 2 708 0
 295 0004 5B68     		ldr	r3, [r3, #4]
 296              	.LBE32:
 297              	.LBE36:
 298              		.loc 1 145 0
 299 0006 F0B4     		push	{r4, r5, r6, r7}
 300              		.cfi_def_cfa_offset 16
 301              		.cfi_offset 4, -16
 302              		.cfi_offset 5, -12
 303              		.cfi_offset 6, -8
 304              		.cfi_offset 7, -4
 305              		.loc 1 148 0
 306 0008 8B60     		str	r3, [r1, #8]
 307              	.LVL11:
 308              	.LBB37:
 309              	.LBB35:
 310              		.loc 1 57 0
 311 000a D0E90261 		ldrd	r6, r1, [r0, #8]
 312              	.LVL12:
 313              		.loc 1 59 0
 314 000e D0E90445 		ldrd	r4, [r0, #16]
 315              		.loc 1 58 0
 316 0012 9B1B     		subs	r3, r3, r6
 317              	.LVL13:
 318              		.loc 1 59 0
 319 0014 E618     		adds	r6, r4, r3
 320 0016 45F10007 		adc	r7, r5, #0
 321              		.loc 1 60 0
 322 001a 9342     		cmp	r3, r2
 323              		.loc 1 63 0
 324 001c 0268     		ldr	r2, [r0]
 325              		.loc 1 61 0
 326 001e 88BF     		it	hi
 327 0020 4360     		strhi	r3, [r0, #4]
 328              		.loc 1 57 0
 329 0022 0131     		adds	r1, r1, #1
 330              		.loc 1 63 0
 331 0024 9342     		cmp	r3, r2
 332              		.loc 1 59 0
 333 0026 C0E90467 		strd	r6, [r0, #16]
 334              		.loc 1 58 0
 335 002a C0E90231 		strd	r3, r1, [r0, #8]
 336              	.LVL14:
 337              		.loc 1 64 0
 338 002e 38BF     		it	cc
 339 0030 0360     		strcc	r3, [r0]
 340              	.LVL15:
 341              	.LBE35:
 342              	.LBE37:
ARM GAS  /var/folders/vd/czx34qs52cd_f3nb04sxmghc0000gn/T//ccbnwpIb.s 			page 7


 343              		.loc 1 152 0
 344 0032 F0BC     		pop	{r4, r5, r6, r7}
 345              		.cfi_restore 7
 346              		.cfi_restore 6
 347              		.cfi_restore 5
 348              		.cfi_restore 4
 349              		.cfi_def_cfa_offset 0
 350 0034 7047     		bx	lr
 351              	.L21:
 352 0036 00BF     		.align	2
 353              	.L20:
 354 0038 001000E0 		.word	-536866816
 355              		.cfi_endproc
 356              	.LFE285:
 357              		.size	chTMChainMeasurementToX, .-chTMChainMeasurementToX
 358              		.text
 359              	.Letext0:
 360              		.file 3 "/usr/local/Cellar/gcc-arm-none-eabi/20171218/lib/gcc/arm-none-eabi/7.2.1/include/stddef.h
 361              		.file 4 "/usr/local/Cellar/gcc-arm-none-eabi/20171218/arm-none-eabi/include/machine/_default_types
 362              		.file 5 "/usr/local/Cellar/gcc-arm-none-eabi/20171218/arm-none-eabi/include/sys/_stdint.h"
 363              		.file 6 "../os/common/ports/ARMCMx/compilers/GCC/chtypes.h"
 364              		.file 7 "../os/rt/include/chsystypes.h"
 365              		.file 8 "../os/rt/include/chschd.h"
 366              		.file 9 "../os/rt/include/chtime.h"
 367              		.file 10 "../os/common/ext/ARM/CMSIS/Core/Include/core_cm4.h"
 368              		.file 11 "../os/common/ext/ST/STM32F4xx/system_stm32f4xx.h"
 369              		.file 12 "../os/common/ports/ARMCMx/chcore.h"
 370              		.file 13 "../os/rt/include/chtm.h"
 371              		.file 14 "../os/rt/include/chsem.h"
 372              		.file 15 "../os/rt/include/chmtx.h"
 373              		.file 16 "../os/rt/include/chsys.h"
 374              		.file 17 "../os/rt/include/chregistry.h"
 375              		.file 18 "../os/common/oslib/include/chmemcore.h"
 376              		.file 19 "../os/common/oslib/include/chmempools.h"
 377              		.file 20 "../os/common/oslib/include/chfactory.h"