ARM GAS  /var/folders/vd/czx34qs52cd_f3nb04sxmghc0000gn/T//cclNMn7k.s 			page 1


   1              		.cpu cortex-m4
   2              		.eabi_attribute 20, 1
   3              		.eabi_attribute 21, 1
   4              		.eabi_attribute 23, 3
   5              		.eabi_attribute 24, 1
   6              		.eabi_attribute 25, 1
   7              		.eabi_attribute 26, 1
   8              		.eabi_attribute 30, 2
   9              		.eabi_attribute 34, 1
  10              		.eabi_attribute 18, 4
  11              		.file	"chvt.c"
  12              		.text
  13              	.Ltext0:
  14              		.cfi_sections	.debug_frame
  15              		.section	.text._vt_init,"ax",%progbits
  16              		.align	1
  17              		.p2align 4,,15
  18              		.global	_vt_init
  19              		.syntax unified
  20              		.thumb
  21              		.thumb_func
  22              		.fpu softvfp
  23              		.type	_vt_init, %function
  24              	_vt_init:
  25              	.LFB280:
  26              		.file 1 "../os/rt/src/chvt.c"
  27              		.loc 1 61 0
  28              		.cfi_startproc
  29              		@ args = 0, pretend = 0, frame = 0
  30              		@ frame_needed = 0, uses_anonymous_args = 0
  31              		@ link register save eliminated.
  32              		.loc 1 63 0
  33 0000 054B     		ldr	r3, .L3
  34              		.loc 1 65 0
  35 0002 4FF0FF30 		mov	r0, #-1
  36              		.loc 1 69 0
  37 0006 0021     		movs	r1, #0
  38              		.loc 1 63 0
  39 0008 03F11C02 		add	r2, r3, #28
  40              		.loc 1 69 0
  41 000c C3E90901 		strd	r0, r1, [r3, #36]
  42              		.loc 1 64 0
  43 0010 C3E90722 		strd	r2, r2, [r3, #28]
  44              		.loc 1 71 0
  45 0014 7047     		bx	lr
  46              	.L4:
  47 0016 00BF     		.align	2
  48              	.L3:
  49 0018 00000000 		.word	ch
  50              		.cfi_endproc
  51              	.LFE280:
  52              		.size	_vt_init, .-_vt_init
  53              		.section	.text.chVTDoSetI,"ax",%progbits
  54              		.align	1
  55              		.p2align 4,,15
  56              		.global	chVTDoSetI
  57              		.syntax unified
ARM GAS  /var/folders/vd/czx34qs52cd_f3nb04sxmghc0000gn/T//cclNMn7k.s 			page 2


  58              		.thumb
  59              		.thumb_func
  60              		.fpu softvfp
  61              		.type	chVTDoSetI, %function
  62              	chVTDoSetI:
  63              	.LFB281:
  64              		.loc 1 96 0
  65              		.cfi_startproc
  66              		@ args = 0, pretend = 0, frame = 0
  67              		@ frame_needed = 0, uses_anonymous_args = 0
  68              	.LVL0:
  69 0000 F8B5     		push	{r3, r4, r5, r6, r7, lr}
  70              		.cfi_def_cfa_offset 24
  71              		.cfi_offset 3, -24
  72              		.cfi_offset 4, -20
  73              		.cfi_offset 5, -16
  74              		.cfi_offset 6, -12
  75              		.cfi_offset 7, -8
  76              		.cfi_offset 14, -4
  77              	.LBB40:
  78              		.loc 1 117 0
  79 0002 1F4F     		ldr	r7, .L19
  80 0004 BC46     		mov	ip, r7
  81 0006 0229     		cmp	r1, #2
  82 0008 5CF81C5F 		ldr	r5, [ip, #28]!
  83              	.LBE40:
  84              		.loc 1 103 0
  85 000c 0361     		str	r3, [r0, #16]
  86              	.LBB58:
  87              	.LBB41:
  88              	.LBB42:
  89              	.LBB43:
  90              	.LBB44:
  91              		.file 2 "../os/hal/ports/STM32/LLD/TIMv1/hal_st_lld.h"
  92              		.loc 2 141 0
  93 000e 4FF08043 		mov	r3, #1073741824
  94              	.LVL1:
  95 0012 38BF     		it	cc
  96 0014 0221     		movcc	r1, #2
  97              	.LVL2:
  98              	.LBE44:
  99              	.LBE43:
 100              	.LBE42:
 101              	.LBE41:
 102              		.loc 1 117 0
 103 0016 6545     		cmp	r5, ip
 104              	.LBE58:
 105              		.loc 1 96 0
 106 0018 0646     		mov	r6, r0
 107              		.loc 1 104 0
 108 001a C260     		str	r2, [r0, #12]
 109              	.LBB59:
 110              	.LBB48:
 111              	.LBB47:
 112              	.LBB46:
 113              	.LBB45:
 114              		.loc 2 141 0
ARM GAS  /var/folders/vd/czx34qs52cd_f3nb04sxmghc0000gn/T//cclNMn7k.s 			page 3


 115 001c 5C6A     		ldr	r4, [r3, #36]
 116              	.LVL3:
 117              	.LBE45:
 118              	.LBE46:
 119              	.LBE47:
 120              	.LBE48:
 121              		.loc 1 117 0
 122 001e 1ED0     		beq	.L16
 123              	.LVL4:
 124              		.loc 1 146 0
 125 0020 B86A     		ldr	r0, [r7, #40]
 126              	.LVL5:
 127 0022 AB68     		ldr	r3, [r5, #8]
 128              	.LBB49:
 129              	.LBB50:
 130              		.file 3 "../os/rt/include/chtime.h"
 131              		.loc 3 495 0
 132 0024 241A     		subs	r4, r4, r0
 133 0026 6418     		adds	r4, r4, r1
 134              	.LVL6:
 135              	.LBE50:
 136              	.LBE49:
 137              		.loc 1 148 0
 138 0028 15D2     		bcs	.L17
 139              		.loc 1 155 0
 140 002a 9C42     		cmp	r4, r3
 141 002c 22D3     		bcc	.L18
 142              	.LVL7:
 143              	.L10:
 144              	.LBE59:
 145              		.loc 1 180 0
 146 002e A342     		cmp	r3, r4
 147 0030 04D2     		bcs	.L12
 148              	.L11:
 149              		.loc 1 185 0
 150 0032 2D68     		ldr	r5, [r5]
 151              	.LVL8:
 152              		.loc 1 184 0
 153 0034 E41A     		subs	r4, r4, r3
 154              	.LVL9:
 155              		.loc 1 180 0
 156 0036 AB68     		ldr	r3, [r5, #8]
 157 0038 A342     		cmp	r3, r4
 158 003a FAD3     		bcc	.L11
 159              	.L12:
 160              		.loc 1 190 0
 161 003c 6B68     		ldr	r3, [r5, #4]
 162 003e C6E90053 		strd	r5, r3, [r6]
 163              		.loc 1 191 0
 164 0042 1E60     		str	r6, [r3]
 165              		.loc 1 192 0
 166 0044 6E60     		str	r6, [r5, #4]
 167              		.loc 1 193 0
 168 0046 B460     		str	r4, [r6, #8]
 169              		.loc 1 196 0
 170 0048 AB68     		ldr	r3, [r5, #8]
 171              		.loc 1 200 0
ARM GAS  /var/folders/vd/czx34qs52cd_f3nb04sxmghc0000gn/T//cclNMn7k.s 			page 4


 172 004a 4FF0FF32 		mov	r2, #-1
 173              		.loc 1 196 0
 174 004e 1C1B     		subs	r4, r3, r4
 175              	.LVL10:
 176 0050 AC60     		str	r4, [r5, #8]
 177              	.LVL11:
 178              		.loc 1 200 0
 179 0052 7A62     		str	r2, [r7, #36]
 180              		.loc 1 201 0
 181 0054 F8BD     		pop	{r3, r4, r5, r6, r7, pc}
 182              	.LVL12:
 183              	.L17:
 184              	.LBB60:
 185              		.loc 1 153 0
 186 0056 2D68     		ldr	r5, [r5]
 187              	.LVL13:
 188              		.loc 1 152 0
 189 0058 E41A     		subs	r4, r4, r3
 190              	.LVL14:
 191 005a AB68     		ldr	r3, [r5, #8]
 192 005c E7E7     		b	.L10
 193              	.LVL15:
 194              	.L16:
 195              		.loc 1 123 0
 196 005e C7E90700 		strd	r0, r0, [r7, #28]
 197              		.loc 1 121 0
 198 0062 BC62     		str	r4, [r7, #40]
 199              	.LBB51:
 200              	.LBB52:
 201              		.file 4 "../os/common/ports/ARMCMx/chcore_timer.h"
 202              		.loc 4 73 0
 203 0064 6018     		adds	r0, r4, r1
 204              	.LVL16:
 205              	.LBE52:
 206              	.LBE51:
 207              		.loc 1 125 0
 208 0066 C6E90055 		strd	r5, r5, [r6]
 209              		.loc 1 126 0
 210 006a B160     		str	r1, [r6, #8]
 211              	.LBE60:
 212              		.loc 1 201 0
 213 006c BDE8F840 		pop	{r3, r4, r5, r6, r7, lr}
 214              		.cfi_remember_state
 215              		.cfi_restore 14
 216              		.cfi_restore 7
 217              		.cfi_restore 6
 218              		.cfi_restore 5
 219              		.cfi_restore 4
 220              		.cfi_restore 3
 221              		.cfi_def_cfa_offset 0
 222              	.LVL17:
 223              	.LBB61:
 224              	.LBB54:
 225              	.LBB53:
 226              		.loc 4 73 0
 227 0070 FFF7FEBF 		b	stStartAlarm
 228              	.LVL18:
ARM GAS  /var/folders/vd/czx34qs52cd_f3nb04sxmghc0000gn/T//cclNMn7k.s 			page 5


 229              	.L18:
 230              		.cfi_restore_state
 231              	.LBE53:
 232              	.LBE54:
 233              	.LBB55:
 234              	.LBB56:
 235              	.LBB57:
 236              		.loc 4 95 0
 237 0074 2044     		add	r0, r0, r4
 238 0076 FFF7FEFF 		bl	stSetAlarm
 239              	.LVL19:
 240 007a AB68     		ldr	r3, [r5, #8]
 241 007c D7E7     		b	.L10
 242              	.L20:
 243 007e 00BF     		.align	2
 244              	.L19:
 245 0080 00000000 		.word	ch
 246              	.LBE57:
 247              	.LBE56:
 248              	.LBE55:
 249              	.LBE61:
 250              		.cfi_endproc
 251              	.LFE281:
 252              		.size	chVTDoSetI, .-chVTDoSetI
 253              		.section	.text.chVTDoResetI,"ax",%progbits
 254              		.align	1
 255              		.p2align 4,,15
 256              		.global	chVTDoResetI
 257              		.syntax unified
 258              		.thumb
 259              		.thumb_func
 260              		.fpu softvfp
 261              		.type	chVTDoResetI, %function
 262              	chVTDoResetI:
 263              	.LFB282:
 264              		.loc 1 211 0
 265              		.cfi_startproc
 266              		@ args = 0, pretend = 0, frame = 0
 267              		@ frame_needed = 0, uses_anonymous_args = 0
 268              		@ link register save eliminated.
 269              	.LVL20:
 270              		.loc 1 235 0
 271 0000 194B     		ldr	r3, .L30
 272 0002 DA69     		ldr	r2, [r3, #28]
 273 0004 8242     		cmp	r2, r0
 274              		.loc 1 211 0
 275 0006 10B4     		push	{r4}
 276              		.cfi_def_cfa_offset 4
 277              		.cfi_offset 4, -4
 278              		.loc 1 235 0
 279 0008 0FD0     		beq	.L22
 280              		.loc 1 237 0
 281 000a D0E90021 		ldrd	r2, r1, [r0]
 282 000e 0A60     		str	r2, [r1]
 283              		.loc 1 238 0
 284 0010 0268     		ldr	r2, [r0]
 285              		.loc 1 242 0
ARM GAS  /var/folders/vd/czx34qs52cd_f3nb04sxmghc0000gn/T//cclNMn7k.s 			page 6


 286 0012 1C33     		adds	r3, r3, #28
 287              		.loc 1 239 0
 288 0014 0024     		movs	r4, #0
 289              		.loc 1 242 0
 290 0016 9A42     		cmp	r2, r3
 291              		.loc 1 238 0
 292 0018 5160     		str	r1, [r2, #4]
 293              		.loc 1 239 0
 294 001a C460     		str	r4, [r0, #12]
 295              		.loc 1 242 0
 296 001c 03D0     		beq	.L21
 297              		.loc 1 243 0
 298 001e 8168     		ldr	r1, [r0, #8]
 299 0020 9368     		ldr	r3, [r2, #8]
 300 0022 0B44     		add	r3, r3, r1
 301 0024 9360     		str	r3, [r2, #8]
 302              	.LVL21:
 303              	.L21:
 304              		.loc 1 297 0
 305 0026 10BC     		pop	{r4}
 306              		.cfi_remember_state
 307              		.cfi_restore 4
 308              		.cfi_def_cfa_offset 0
 309 0028 7047     		bx	lr
 310              	.LVL22:
 311              	.L22:
 312              		.cfi_restore_state
 313              		.loc 1 249 0
 314 002a 1846     		mov	r0, r3
 315              	.LVL23:
 316 002c 1168     		ldr	r1, [r2]
 317 002e 40F81C1F 		str	r1, [r0, #28]!
 318              		.loc 1 251 0
 319 0032 0024     		movs	r4, #0
 320              		.loc 1 254 0
 321 0034 8142     		cmp	r1, r0
 322              		.loc 1 250 0
 323 0036 4860     		str	r0, [r1, #4]
 324              		.loc 1 251 0
 325 0038 D460     		str	r4, [r2, #12]
 326              		.loc 1 254 0
 327 003a 12D0     		beq	.L29
 328              		.loc 1 261 0
 329 003c 9468     		ldr	r4, [r2, #8]
 330 003e 8A68     		ldr	r2, [r1, #8]
 331              		.loc 1 270 0
 332 0040 986A     		ldr	r0, [r3, #40]
 333              		.loc 1 261 0
 334 0042 1444     		add	r4, r4, r2
 335              	.LBB62:
 336              	.LBB63:
 337              	.LBB64:
 338              	.LBB65:
 339              		.loc 2 141 0
 340 0044 4FF08042 		mov	r2, #1073741824
 341              	.LBE65:
 342              	.LBE64:
ARM GAS  /var/folders/vd/czx34qs52cd_f3nb04sxmghc0000gn/T//cclNMn7k.s 			page 7


 343              	.LBE63:
 344              	.LBE62:
 345              		.loc 1 261 0
 346 0048 8C60     		str	r4, [r1, #8]
 347              	.LBB69:
 348              	.LBB68:
 349              	.LBB67:
 350              	.LBB66:
 351              		.loc 2 141 0
 352 004a 526A     		ldr	r2, [r2, #36]
 353              	.LVL24:
 354              	.LBE66:
 355              	.LBE67:
 356              	.LBE68:
 357              	.LBE69:
 358              	.LBB70:
 359              	.LBB71:
 360              		.loc 3 495 0
 361 004c 121A     		subs	r2, r2, r0
 362              	.LVL25:
 363              	.LBE71:
 364              	.LBE70:
 365              		.loc 1 274 0
 366 004e 9442     		cmp	r4, r2
 367 0050 E9D9     		bls	.L21
 368              	.LVL26:
 369              		.loc 1 279 0
 370 0052 A11A     		subs	r1, r4, r2
 371              	.LVL27:
 372              		.loc 1 283 0
 373 0054 0129     		cmp	r1, #1
 374              		.loc 1 284 0
 375 0056 98BF     		it	ls
 376 0058 941C     		addls	r4, r2, #2
 377              	.LVL28:
 378              	.LBB72:
 379              	.LBB73:
 380              		.loc 4 95 0
 381 005a 2044     		add	r0, r0, r4
 382              	.LBE73:
 383              	.LBE72:
 384              		.loc 1 297 0
 385 005c 10BC     		pop	{r4}
 386              		.cfi_remember_state
 387              		.cfi_restore 4
 388              		.cfi_def_cfa_offset 0
 389              	.LVL29:
 390              	.LBB75:
 391              	.LBB74:
 392              		.loc 4 95 0
 393 005e FFF7FEBF 		b	stSetAlarm
 394              	.LVL30:
 395              	.L29:
 396              		.cfi_restore_state
 397              	.LBE74:
 398              	.LBE75:
 399              		.loc 1 297 0
ARM GAS  /var/folders/vd/czx34qs52cd_f3nb04sxmghc0000gn/T//cclNMn7k.s 			page 8


 400 0062 10BC     		pop	{r4}
 401              		.cfi_restore 4
 402              		.cfi_def_cfa_offset 0
 403              	.LBB76:
 404              	.LBB77:
 405              		.loc 4 83 0
 406 0064 FFF7FEBF 		b	stStopAlarm
 407              	.LVL31:
 408              	.L31:
 409              		.align	2
 410              	.L30:
 411 0068 00000000 		.word	ch
 412              	.LBE77:
 413              	.LBE76:
 414              		.cfi_endproc
 415              	.LFE282:
 416              		.size	chVTDoResetI, .-chVTDoResetI
 417              		.text
 418              	.Letext0:
 419              		.file 5 "/usr/local/Cellar/gcc-arm-none-eabi/20171218/lib/gcc/arm-none-eabi/7.2.1/include/stddef.h
 420              		.file 6 "/usr/local/Cellar/gcc-arm-none-eabi/20171218/arm-none-eabi/include/machine/_default_types
 421              		.file 7 "/usr/local/Cellar/gcc-arm-none-eabi/20171218/arm-none-eabi/include/sys/_stdint.h"
 422              		.file 8 "../os/common/ports/ARMCMx/compilers/GCC/chtypes.h"
 423              		.file 9 "../os/rt/include/chsystypes.h"
 424              		.file 10 "../os/rt/include/chschd.h"
 425              		.file 11 "../os/common/ext/ARM/CMSIS/Core/Include/core_cm4.h"
 426              		.file 12 "../os/common/ext/ST/STM32F4xx/system_stm32f4xx.h"
 427              		.file 13 "../os/common/ports/ARMCMx/chcore.h"
 428              		.file 14 "../os/common/ports/ARMCMx/chcore_v7m.h"
 429              		.file 15 "../os/hal/ports/STM32/LLD/TIMv1/stm32_tim.h"
 430              		.file 16 "../os/rt/include/chtm.h"
 431              		.file 17 "../os/rt/include/chsem.h"
 432              		.file 18 "../os/rt/include/chmtx.h"
 433              		.file 19 "../os/rt/include/chsys.h"
 434              		.file 20 "../os/rt/include/chregistry.h"
 435              		.file 21 "../os/common/oslib/include/chmemcore.h"
 436              		.file 22 "../os/common/oslib/include/chmempools.h"
 437              		.file 23 "../os/common/oslib/include/chfactory.h"
 438              		.file 24 "../os/rt/include/chvt.h"
 439              		.file 25 "../os/hal/include/hal_st.h"