ARM GAS  /var/folders/vd/czx34qs52cd_f3nb04sxmghc0000gn/T//ccovGYRe.s 			page 1


   1              		.cpu cortex-m4
   2              		.eabi_attribute 20, 1
   3              		.eabi_attribute 21, 1
   4              		.eabi_attribute 23, 3
   5              		.eabi_attribute 24, 1
   6              		.eabi_attribute 25, 1
   7              		.eabi_attribute 26, 1
   8              		.eabi_attribute 30, 2
   9              		.eabi_attribute 34, 1
  10              		.eabi_attribute 18, 4
  11              		.file	"crt1.c"
  12              		.text
  13              	.Ltext0:
  14              		.cfi_sections	.debug_frame
  15              		.section	.text.__core_init,"ax",%progbits
  16              		.align	1
  17              		.p2align 4,,15
  18              		.weak	__core_init
  19              		.syntax unified
  20              		.thumb
  21              		.thumb_func
  22              		.fpu softvfp
  23              		.type	__core_init, %function
  24              	__core_init:
  25              	.LFB130:
  26              		.file 1 "../os/common/startup/ARMCMx/compilers/GCC/crt1.c"
  27              		.loc 1 137 0
  28              		.cfi_startproc
  29              		@ args = 0, pretend = 0, frame = 0
  30              		@ frame_needed = 0, uses_anonymous_args = 0
  31              		@ link register save eliminated.
  32              		.loc 1 143 0
  33 0000 7047     		bx	lr
  34              		.cfi_endproc
  35              	.LFE130:
  36              		.size	__core_init, .-__core_init
  37 0002 00BF     		.section	.text.__early_init,"ax",%progbits
  38              		.align	1
  39              		.p2align 4,,15
  40              		.weak	__early_init
  41              		.syntax unified
  42              		.thumb
  43              		.thumb_func
  44              		.fpu softvfp
  45              		.type	__early_init, %function
  46              	__early_init:
  47              	.LFB136:
  48              		.cfi_startproc
  49              		@ args = 0, pretend = 0, frame = 0
  50              		@ frame_needed = 0, uses_anonymous_args = 0
  51              		@ link register save eliminated.
  52 0000 7047     		bx	lr
  53              		.cfi_endproc
  54              	.LFE136:
  55              		.size	__early_init, .-__early_init
  56 0002 00BF     		.section	.text.__late_init,"ax",%progbits
  57              		.align	1
ARM GAS  /var/folders/vd/czx34qs52cd_f3nb04sxmghc0000gn/T//ccovGYRe.s 			page 2


  58              		.p2align 4,,15
  59              		.weak	__late_init
  60              		.syntax unified
  61              		.thumb
  62              		.thumb_func
  63              		.fpu softvfp
  64              		.type	__late_init, %function
  65              	__late_init:
  66              	.LFB138:
  67              		.cfi_startproc
  68              		@ args = 0, pretend = 0, frame = 0
  69              		@ frame_needed = 0, uses_anonymous_args = 0
  70              		@ link register save eliminated.
  71 0000 7047     		bx	lr
  72              		.cfi_endproc
  73              	.LFE138:
  74              		.size	__late_init, .-__late_init
  75 0002 00BF     		.section	.text.__default_exit,"ax",%progbits
  76              		.align	1
  77              		.p2align 4,,15
  78              		.weak	__default_exit
  79              		.syntax unified
  80              		.thumb
  81              		.thumb_func
  82              		.fpu softvfp
  83              		.type	__default_exit, %function
  84              	__default_exit:
  85              	.LFB133:
  86              		.loc 1 183 0
  87              		.cfi_startproc
  88              		@ Volatile: function does not return.
  89              		@ args = 0, pretend = 0, frame = 0
  90              		@ frame_needed = 0, uses_anonymous_args = 0
  91              		@ link register save eliminated.
  92              	.L6:
  93 0000 FEE7     		b	.L6
  94              		.cfi_endproc
  95              	.LFE133:
  96              		.size	__default_exit, .-__default_exit
  97 0002 00BF     		.section	.text.__init_ram_areas,"ax",%progbits
  98              		.align	1
  99              		.p2align 4,,15
 100              		.global	__init_ram_areas
 101              		.syntax unified
 102              		.thumb
 103              		.thumb_func
 104              		.fpu softvfp
 105              		.type	__init_ram_areas, %function
 106              	__init_ram_areas:
 107              	.LFB134:
 108              		.loc 1 193 0
 109              		.cfi_startproc
 110              		@ args = 0, pretend = 0, frame = 0
 111              		@ frame_needed = 0, uses_anonymous_args = 0
 112              		@ link register save eliminated.
 113              	.LVL0:
 114              		.loc 1 193 0
ARM GAS  /var/folders/vd/czx34qs52cd_f3nb04sxmghc0000gn/T//ccovGYRe.s 			page 3


 115 0000 F0B4     		push	{r4, r5, r6, r7}
 116              		.cfi_def_cfa_offset 16
 117              		.cfi_offset 4, -16
 118              		.cfi_offset 5, -12
 119              		.cfi_offset 6, -8
 120              		.cfi_offset 7, -4
 121 0002 144E     		ldr	r6, .L19
 122              		.loc 1 193 0
 123 0004 144D     		ldr	r5, .L19+4
 124 0006 154C     		ldr	r4, .L19+8
 125 0008 154B     		ldr	r3, .L19+12
 126 000a 1649     		ldr	r1, .L19+16
 127 000c 06F1700C 		add	ip, r6, #112
 128              	.LBB2:
 129              		.loc 1 210 0
 130 0010 0027     		movs	r7, #0
 131              	.LVL1:
 132              	.L13:
 133              		.loc 1 202 0
 134 0012 9C42     		cmp	r4, r3
 135 0014 11D9     		bls	.L17
 136 0016 0439     		subs	r1, r1, #4
 137 0018 1A46     		mov	r2, r3
 138              	.LVL2:
 139              	.L9:
 140              		.loc 1 203 0
 141 001a 51F8040F 		ldr	r0, [r1, #4]!
 142              	.LVL3:
 143 001e 42F8040B 		str	r0, [r2], #4
 144              	.LVL4:
 145              		.loc 1 202 0
 146 0022 9442     		cmp	r4, r2
 147 0024 F9D8     		bhi	.L9
 148 0026 DA43     		mvns	r2, r3
 149              	.LVL5:
 150 0028 1444     		add	r4, r4, r2
 151 002a 24F00304 		bic	r4, r4, #3
 152 002e 0434     		adds	r4, r4, #4
 153 0030 2344     		add	r3, r3, r4
 154              	.LVL6:
 155              		.loc 1 209 0
 156 0032 9D42     		cmp	r5, r3
 157 0034 03D9     		bls	.L18
 158              	.LVL7:
 159              	.L11:
 160              		.loc 1 210 0
 161 0036 43F8047B 		str	r7, [r3], #4
 162              	.LVL8:
 163              	.L17:
 164              		.loc 1 209 0
 165 003a 9D42     		cmp	r5, r3
 166 003c FBD8     		bhi	.L11
 167              	.L18:
 168              	.LVL9:
 169              	.LBE2:
 170              		.loc 1 215 0
 171 003e 6645     		cmp	r6, ip
ARM GAS  /var/folders/vd/czx34qs52cd_f3nb04sxmghc0000gn/T//ccovGYRe.s 			page 4


 172 0040 05D0     		beq	.L7
 173 0042 D6E90413 		ldrd	r1, r3, [r6, #16]
 174              	.LVL10:
 175 0046 D6E90645 		ldrd	r4, r5, [r6, #24]
 176 004a 1036     		adds	r6, r6, #16
 177              	.LVL11:
 178 004c E1E7     		b	.L13
 179              	.LVL12:
 180              	.L7:
 181              		.loc 1 217 0
 182 004e F0BC     		pop	{r4, r5, r6, r7}
 183              		.cfi_restore 7
 184              		.cfi_restore 6
 185              		.cfi_restore 5
 186              		.cfi_restore 4
 187              		.cfi_def_cfa_offset 0
 188              	.LVL13:
 189 0050 7047     		bx	lr
 190              	.L20:
 191 0052 00BF     		.align	2
 192              	.L19:
 193 0054 00000000 		.word	.LANCHOR0
 194 0058 00000000 		.word	__ram0_noinit__
 195 005c 00000000 		.word	__ram0_clear__
 196 0060 00000000 		.word	__ram0_init__
 197 0064 00000000 		.word	__ram0_init_text__
 198              		.cfi_endproc
 199              	.LFE134:
 200              		.size	__init_ram_areas, .-__init_ram_areas
 201              		.section	.rodata.ram_areas,"a",%progbits
 202              		.align	2
 203              		.set	.LANCHOR0,. + 0
 204              		.type	ram_areas, %object
 205              		.size	ram_areas, 128
 206              	ram_areas:
 207 0000 00000000 		.word	__ram0_init_text__
 208 0004 00000000 		.word	__ram0_init__
 209 0008 00000000 		.word	__ram0_clear__
 210 000c 00000000 		.word	__ram0_noinit__
 211 0010 00000000 		.word	__ram1_init_text__
 212 0014 00000000 		.word	__ram1_init__
 213 0018 00000000 		.word	__ram1_clear__
 214 001c 00000000 		.word	__ram1_noinit__
 215 0020 00000000 		.word	__ram2_init_text__
 216 0024 00000000 		.word	__ram2_init__
 217 0028 00000000 		.word	__ram2_clear__
 218 002c 00000000 		.word	__ram2_noinit__
 219 0030 00000000 		.word	__ram3_init_text__
 220 0034 00000000 		.word	__ram3_init__
 221 0038 00000000 		.word	__ram3_clear__
 222 003c 00000000 		.word	__ram3_noinit__
 223 0040 00000000 		.word	__ram4_init_text__
 224 0044 00000000 		.word	__ram4_init__
 225 0048 00000000 		.word	__ram4_clear__
 226 004c 00000000 		.word	__ram4_noinit__
 227 0050 00000000 		.word	__ram5_init_text__
 228 0054 00000000 		.word	__ram5_init__
ARM GAS  /var/folders/vd/czx34qs52cd_f3nb04sxmghc0000gn/T//ccovGYRe.s 			page 5


 229 0058 00000000 		.word	__ram5_clear__
 230 005c 00000000 		.word	__ram5_noinit__
 231 0060 00000000 		.word	__ram6_init_text__
 232 0064 00000000 		.word	__ram6_init__
 233 0068 00000000 		.word	__ram6_clear__
 234 006c 00000000 		.word	__ram6_noinit__
 235 0070 00000000 		.word	__ram7_init_text__
 236 0074 00000000 		.word	__ram7_init__
 237 0078 00000000 		.word	__ram7_clear__
 238 007c 00000000 		.word	__ram7_noinit__
 239              		.text
 240              	.Letext0:
 241              		.file 2 "/usr/local/Cellar/gcc-arm-none-eabi/20171218/arm-none-eabi/include/machine/_default_types
 242              		.file 3 "/usr/local/Cellar/gcc-arm-none-eabi/20171218/arm-none-eabi/include/sys/_stdint.h"
 243              		.file 4 "../os/common/ext/ARM/CMSIS/Core/Include/core_cm4.h"
 244              		.file 5 "../os/common/ext/ST/STM32F4xx/system_stm32f4xx.h"