ARM GAS  /var/folders/vd/czx34qs52cd_f3nb04sxmghc0000gn/T//cciWLOa8.s 			page 1


   1              		.cpu cortex-m4
   2              		.eabi_attribute 20, 1
   3              		.eabi_attribute 21, 1
   4              		.eabi_attribute 23, 3
   5              		.eabi_attribute 24, 1
   6              		.eabi_attribute 25, 1
   7              		.eabi_attribute 26, 1
   8              		.eabi_attribute 30, 2
   9              		.eabi_attribute 34, 1
  10              		.eabi_attribute 18, 4
  11              		.file	"hal_pal_lld.c"
  12              		.text
  13              	.Ltext0:
  14              		.cfi_sections	.debug_frame
  15              		.section	.text._pal_lld_init,"ax",%progbits
  16              		.align	1
  17              		.p2align 4,,15
  18              		.global	_pal_lld_init
  19              		.syntax unified
  20              		.thumb
  21              		.thumb_func
  22              		.fpu softvfp
  23              		.type	_pal_lld_init, %function
  24              	_pal_lld_init:
  25              	.LFB313:
  26              		.file 1 "../os/hal/ports/STM32/LLD/GPIOv2/hal_pal_lld.c"
  27              		.loc 1 63 0
  28              		.cfi_startproc
  29              		@ args = 0, pretend = 0, frame = 0
  30              		@ frame_needed = 0, uses_anonymous_args = 0
  31              		@ link register save eliminated.
  32              		.loc 1 72 0
  33 0000 7047     		bx	lr
  34              		.cfi_endproc
  35              	.LFE313:
  36              		.size	_pal_lld_init, .-_pal_lld_init
  37 0002 00BF     		.section	.text._pal_lld_setgroupmode,"ax",%progbits
  38              		.align	1
  39              		.p2align 4,,15
  40              		.global	_pal_lld_setgroupmode
  41              		.syntax unified
  42              		.thumb
  43              		.thumb_func
  44              		.fpu softvfp
  45              		.type	_pal_lld_setgroupmode, %function
  46              	_pal_lld_setgroupmode:
  47              	.LFB314:
  48              		.loc 1 89 0
  49              		.cfi_startproc
  50              		@ args = 0, pretend = 0, frame = 0
  51              		@ frame_needed = 0, uses_anonymous_args = 0
  52              	.LVL0:
  53 0000 2DE9F04F 		push	{r4, r5, r6, r7, r8, r9, r10, fp, lr}
  54              		.cfi_def_cfa_offset 36
  55              		.cfi_offset 4, -36
  56              		.cfi_offset 5, -32
  57              		.cfi_offset 6, -28
ARM GAS  /var/folders/vd/czx34qs52cd_f3nb04sxmghc0000gn/T//cciWLOa8.s 			page 2


  58              		.cfi_offset 7, -24
  59              		.cfi_offset 8, -20
  60              		.cfi_offset 9, -16
  61              		.cfi_offset 10, -12
  62              		.cfi_offset 11, -8
  63              		.cfi_offset 14, -4
  64              		.loc 1 91 0
  65 0004 02F00309 		and	r9, r2, #3
  66              	.LVL1:
  67              		.loc 1 92 0
  68 0008 C2F3800E 		ubfx	lr, r2, #2, #1
  69              	.LVL2:
  70              		.loc 1 93 0
  71 000c C2F3C10C 		ubfx	ip, r2, #3, #2
  72              	.LVL3:
  73              		.loc 1 94 0
  74 0010 C2F34117 		ubfx	r7, r2, #5, #2
  75              	.LVL4:
  76              		.loc 1 91 0
  77 0014 C846     		mov	r8, r9
  78              		.loc 1 95 0
  79 0016 C2F3C312 		ubfx	r2, r2, #7, #4
  80              	.LVL5:
  81              		.loc 1 96 0
  82 001a 0026     		movs	r6, #0
  83              	.LBB2:
  84              		.loc 1 102 0
  85 001c 4FF0010A 		mov	r10, #1
  86 0020 16E0     		b	.L10
  87              	.LVL6:
  88              	.L5:
  89              		.loc 1 120 0
  90 0022 D0F800B0 		ldr	fp, [r0]
  91 0026 03EA0B03 		and	r3, r3, fp
  92              	.LVL7:
  93 002a 43EA0803 		orr	r3, r3, r8
  94              		.loc 1 121 0
  95 002e 072E     		cmp	r6, #7
  96              		.loc 1 120 0
  97 0030 0360     		str	r3, [r0]
  98              		.loc 1 121 0
  99 0032 44D8     		bhi	.L8
 100              		.loc 1 122 0
 101 0034 036A     		ldr	r3, [r0, #32]
 102 0036 1D40     		ands	r5, r5, r3
 103 0038 2C43     		orrs	r4, r4, r5
 104              	.LVL8:
 105 003a 0462     		str	r4, [r0, #32]
 106              	.LVL9:
 107              	.L4:
 108              	.LBE2:
 109              		.loc 1 128 0
 110 003c 4908     		lsrs	r1, r1, #1
 111              	.LVL10:
 112 003e 3CD0     		beq	.L3
 113              	.LVL11:
 114              	.L15:
ARM GAS  /var/folders/vd/czx34qs52cd_f3nb04sxmghc0000gn/T//cciWLOa8.s 			page 3


 115              		.loc 1 130 0
 116 0040 4FEA4E0E 		lsl	lr, lr, #1
 117              	.LVL12:
 118              		.loc 1 131 0
 119 0044 4FEA8C0C 		lsl	ip, ip, #2
 120              	.LVL13:
 121              		.loc 1 132 0
 122 0048 BF00     		lsls	r7, r7, #2
 123              	.LVL14:
 124              		.loc 1 133 0
 125 004a 4FEA8808 		lsl	r8, r8, #2
 126              	.LVL15:
 127              		.loc 1 134 0
 128 004e 0136     		adds	r6, r6, #1
 129              	.LVL16:
 130              	.L10:
 131              		.loc 1 98 0
 132 0050 CB07     		lsls	r3, r1, #31
 133 0052 F3D5     		bpl	.L4
 134              	.LBB3:
 135              		.loc 1 105 0
 136 0054 4368     		ldr	r3, [r0, #4]
 137              		.loc 1 102 0
 138 0056 0AFA06F4 		lsl	r4, r10, r6
 139              		.loc 1 105 0
 140 005a 23EA0403 		bic	r3, r3, r4
 141 005e 43EA0E03 		orr	r3, r3, lr
 142 0062 4360     		str	r3, [r0, #4]
 143              		.loc 1 103 0
 144 0064 0325     		movs	r5, #3
 145 0066 7300     		lsls	r3, r6, #1
 146              		.loc 1 106 0
 147 0068 8468     		ldr	r4, [r0, #8]
 148              		.loc 1 103 0
 149 006a 05FA03F3 		lsl	r3, r5, r3
 150              		.loc 1 106 0
 151 006e DB43     		mvns	r3, r3
 152 0070 1C40     		ands	r4, r4, r3
 153 0072 44EA0C04 		orr	r4, r4, ip
 154 0076 8460     		str	r4, [r0, #8]
 155              		.loc 1 107 0
 156 0078 C568     		ldr	r5, [r0, #12]
 157              		.loc 1 101 0
 158 007a 06F00704 		and	r4, r6, #7
 159 007e A400     		lsls	r4, r4, #2
 160              		.loc 1 107 0
 161 0080 1D40     		ands	r5, r5, r3
 162              		.loc 1 104 0
 163 0082 4FF00F0B 		mov	fp, #15
 164              		.loc 1 107 0
 165 0086 3D43     		orrs	r5, r5, r7
 166              		.loc 1 104 0
 167 0088 0BFA04FB 		lsl	fp, fp, r4
 168              		.loc 1 108 0
 169 008c B9F1020F 		cmp	r9, #2
 170              		.loc 1 107 0
 171 0090 C560     		str	r5, [r0, #12]
ARM GAS  /var/folders/vd/czx34qs52cd_f3nb04sxmghc0000gn/T//cciWLOa8.s 			page 4


 172              		.loc 1 101 0
 173 0092 02FA04F4 		lsl	r4, r2, r4
 174 0096 6FEA0B05 		mvn	r5, fp
 175              	.LVL17:
 176              		.loc 1 108 0
 177 009a C2D1     		bne	.L5
 178              		.loc 1 111 0
 179 009c 072E     		cmp	r6, #7
 180 009e 13D8     		bhi	.L6
 181              		.loc 1 112 0
 182 00a0 D0F820B0 		ldr	fp, [r0, #32]
 183 00a4 0BEA0505 		and	r5, fp, r5
 184 00a8 2C43     		orrs	r4, r4, r5
 185              	.LVL18:
 186 00aa 0462     		str	r4, [r0, #32]
 187              	.L7:
 188              		.loc 1 115 0
 189 00ac 0468     		ldr	r4, [r0]
 190 00ae 2340     		ands	r3, r3, r4
 191              	.LVL19:
 192 00b0 43EA0803 		orr	r3, r3, r8
 193              	.LBE3:
 194              		.loc 1 128 0
 195 00b4 4908     		lsrs	r1, r1, #1
 196              	.LVL20:
 197              	.LBB4:
 198              		.loc 1 115 0
 199 00b6 0360     		str	r3, [r0]
 200              	.LBE4:
 201              		.loc 1 128 0
 202 00b8 C2D1     		bne	.L15
 203              	.LVL21:
 204              	.L3:
 205              		.loc 1 136 0
 206 00ba BDE8F08F 		pop	{r4, r5, r6, r7, r8, r9, r10, fp, pc}
 207              	.LVL22:
 208              	.L8:
 209              	.LBB5:
 210              		.loc 1 124 0
 211 00be 436A     		ldr	r3, [r0, #36]
 212 00c0 1D40     		ands	r5, r5, r3
 213 00c2 2C43     		orrs	r4, r4, r5
 214              	.LVL23:
 215 00c4 4462     		str	r4, [r0, #36]
 216 00c6 B9E7     		b	.L4
 217              	.LVL24:
 218              	.L6:
 219              		.loc 1 114 0
 220 00c8 D0F824B0 		ldr	fp, [r0, #36]
 221 00cc 0BEA0505 		and	r5, fp, r5
 222 00d0 2C43     		orrs	r4, r4, r5
 223              	.LVL25:
 224 00d2 4462     		str	r4, [r0, #36]
 225 00d4 EAE7     		b	.L7
 226              	.LBE5:
 227              		.cfi_endproc
 228              	.LFE314:
ARM GAS  /var/folders/vd/czx34qs52cd_f3nb04sxmghc0000gn/T//cciWLOa8.s 			page 5


 229              		.size	_pal_lld_setgroupmode, .-_pal_lld_setgroupmode
 230              		.global	_pal_events
 231 00d6 00BF     		.section	.bss._pal_events,"aw",%nobits
 232              		.align	2
 233              		.type	_pal_events, %object
 234              		.size	_pal_events, 0
 235              	_pal_events:
 236              		.text
 237              	.Letext0:
 238              		.file 2 "/usr/local/Cellar/gcc-arm-none-eabi/20171218/lib/gcc/arm-none-eabi/7.2.1/include/stddef.h
 239              		.file 3 "/usr/local/Cellar/gcc-arm-none-eabi/20171218/arm-none-eabi/include/machine/_default_types
 240              		.file 4 "/usr/local/Cellar/gcc-arm-none-eabi/20171218/arm-none-eabi/include/sys/_stdint.h"
 241              		.file 5 "../os/common/ports/ARMCMx/compilers/GCC/chtypes.h"
 242              		.file 6 "../os/rt/include/chsystypes.h"
 243              		.file 7 "../os/rt/include/chschd.h"
 244              		.file 8 "../os/rt/include/chtime.h"
 245              		.file 9 "../os/common/ext/ARM/CMSIS/Core/Include/core_cm4.h"
 246              		.file 10 "../os/common/ext/ST/STM32F4xx/system_stm32f4xx.h"
 247              		.file 11 "../os/common/ext/ST/STM32F4xx/stm32f407xx.h"
 248              		.file 12 "../os/common/ports/ARMCMx/chcore.h"
 249              		.file 13 "../os/common/ports/ARMCMx/chcore_v7m.h"
 250              		.file 14 "../os/hal/ports/STM32/LLD/TIMv1/stm32_tim.h"
 251              		.file 15 "../os/rt/include/chtm.h"
 252              		.file 16 "../os/rt/include/chsem.h"
 253              		.file 17 "../os/rt/include/chmtx.h"
 254              		.file 18 "../os/rt/include/chsys.h"
 255              		.file 19 "../os/rt/include/chregistry.h"
 256              		.file 20 "../os/rt/include/chevents.h"
 257              		.file 21 "../os/common/oslib/include/chmemcore.h"
 258              		.file 22 "../os/common/oslib/include/chmempools.h"
 259              		.file 23 "../os/common/oslib/include/chfactory.h"
 260              		.file 24 "../os/hal/ports/STM32/LLD/DMAv2/stm32_dma.h"
 261              		.file 25 "../os/hal/include/hal_queues.h"
 262              		.file 26 "../os/hal/include/hal_pal.h"
 263              		.file 27 "../os/hal/ports/STM32/LLD/GPIOv2/stm32_gpio.h"
 264              		.file 28 "../os/hal/ports/STM32/LLD/GPIOv2/hal_pal_lld.h"
 265              		.file 29 "../os/hal/include/hal_pwm.h"
 266              		.file 30 "../os/hal/ports/STM32/LLD/TIMv1/hal_pwm_lld.h"
 267              		.file 31 "../os/hal/include/hal_serial.h"
 268              		.file 32 "../os/hal/ports/STM32/LLD/USARTv1/hal_serial_lld.h"