ARM GAS  /var/folders/vd/czx34qs52cd_f3nb04sxmghc0000gn/T//cc0YHMts.s 			page 1


   1              		.cpu cortex-m4
   2              		.eabi_attribute 20, 1
   3              		.eabi_attribute 21, 1
   4              		.eabi_attribute 23, 3
   5              		.eabi_attribute 24, 1
   6              		.eabi_attribute 25, 1
   7              		.eabi_attribute 26, 1
   8              		.eabi_attribute 30, 2
   9              		.eabi_attribute 34, 1
  10              		.eabi_attribute 18, 4
  11              		.file	"hal_st_lld.c"
  12              		.text
  13              	.Ltext0:
  14              		.cfi_sections	.debug_frame
  15              		.section	.text.VectorB0,"ax",%progbits
  16              		.align	1
  17              		.p2align 4,,15
  18              		.global	VectorB0
  19              		.syntax unified
  20              		.thumb
  21              		.thumb_func
  22              		.fpu softvfp
  23              		.type	VectorB0, %function
  24              	VectorB0:
  25              	.LFB313:
  26              		.file 1 "../os/hal/ports/STM32/LLD/TIMv1/hal_st_lld.c"
  27              		.loc 1 253 0
  28              		.cfi_startproc
  29              		@ args = 0, pretend = 0, frame = 0
  30              		@ frame_needed = 0, uses_anonymous_args = 0
  31              		.loc 1 260 0
  32 0000 4FF08043 		mov	r3, #1073741824
  33 0004 1A69     		ldr	r2, [r3, #16]
  34 0006 9207     		lsls	r2, r2, #30
  35 0008 01D4     		bmi	.L11
  36              		.loc 1 268 0
  37 000a FFF7FEBF 		b	_port_irq_epilogue
  38              	.LVL0:
  39              	.L11:
  40              		.loc 1 253 0
  41 000e 10B5     		push	{r4, lr}
  42              		.cfi_def_cfa_offset 8
  43              		.cfi_offset 4, -8
  44              		.cfi_offset 14, -4
  45              		.loc 1 261 0
  46 0010 0024     		movs	r4, #0
  47 0012 1C61     		str	r4, [r3, #16]
  48              	.LVL1:
  49              	.LBB52:
  50              	.LBB53:
  51              	.LBB54:
  52              	.LBB55:
  53              	.LBB56:
  54              	.LBB57:
  55              		.file 2 "../os/common/ext/ARM/CMSIS/Core/Include/cmsis_gcc.h"
  56              		.loc 2 490 0
  57 0014 2023     		movs	r3, #32
ARM GAS  /var/folders/vd/czx34qs52cd_f3nb04sxmghc0000gn/T//cc0YHMts.s 			page 2


  58              		.syntax unified
  59              	@ 490 "../os/common/ext/ARM/CMSIS/Core/Include/cmsis_gcc.h" 1
  60 0016 83F31188 		MSR basepri, r3
  61              	@ 0 "" 2
  62              	.LVL2:
  63              		.thumb
  64              		.syntax unified
  65              	.LBE57:
  66              	.LBE56:
  67              	.LBE55:
  68              	.LBE54:
  69              	.LBE53:
  70              	.LBE52:
  71              	.LBB58:
  72              	.LBB59:
  73              		.file 3 "../os/hal/osal/rt/osal.h"
  74              		.loc 3 603 0
  75 001a FFF7FEFF 		bl	chSysTimerHandlerI
  76              	.LVL3:
  77              	.LBE59:
  78              	.LBE58:
  79              	.LBB60:
  80              	.LBB61:
  81              	.LBB62:
  82              	.LBB63:
  83              	.LBB64:
  84              	.LBB65:
  85              		.loc 2 490 0
  86              		.syntax unified
  87              	@ 490 "../os/common/ext/ARM/CMSIS/Core/Include/cmsis_gcc.h" 1
  88 001e 84F31188 		MSR basepri, r4
  89              	@ 0 "" 2
  90              	.LVL4:
  91              		.thumb
  92              		.syntax unified
  93              	.LBE65:
  94              	.LBE64:
  95              	.LBE63:
  96              	.LBE62:
  97              	.LBE61:
  98              	.LBE60:
  99              		.loc 1 269 0
 100 0022 BDE81040 		pop	{r4, lr}
 101              		.cfi_restore 14
 102              		.cfi_restore 4
 103              		.cfi_def_cfa_offset 0
 104              		.loc 1 268 0
 105 0026 FFF7FEBF 		b	_port_irq_epilogue
 106              	.LVL5:
 107              		.cfi_endproc
 108              	.LFE313:
 109              		.size	VectorB0, .-VectorB0
 110 002a 00BF     		.section	.text.st_lld_init,"ax",%progbits
 111              		.align	1
 112              		.p2align 4,,15
 113              		.global	st_lld_init
 114              		.syntax unified
ARM GAS  /var/folders/vd/czx34qs52cd_f3nb04sxmghc0000gn/T//cc0YHMts.s 			page 3


 115              		.thumb
 116              		.thumb_func
 117              		.fpu softvfp
 118              		.type	st_lld_init, %function
 119              	st_lld_init:
 120              	.LFB314:
 121              		.loc 1 281 0
 122              		.cfi_startproc
 123              		@ args = 0, pretend = 0, frame = 0
 124              		@ frame_needed = 0, uses_anonymous_args = 0
 125              		@ link register save eliminated.
 126              		.loc 1 287 0
 127 0000 114B     		ldr	r3, .L14
 128              		.loc 1 290 0
 129 0002 1248     		ldr	r0, .L14+4
 130              		.loc 1 287 0
 131 0004 1A6C     		ldr	r2, [r3, #64]
 132 0006 42F00102 		orr	r2, r2, #1
 133              		.loc 1 281 0
 134 000a 70B4     		push	{r4, r5, r6}
 135              		.cfi_def_cfa_offset 12
 136              		.cfi_offset 4, -12
 137              		.cfi_offset 5, -8
 138              		.cfi_offset 6, -4
 139              		.loc 1 287 0
 140 000c 1A64     		str	r2, [r3, #64]
 141 000e 1A6E     		ldr	r2, [r3, #96]
 142 0010 42F00102 		orr	r2, r2, #1
 143 0014 1A66     		str	r2, [r3, #96]
 144              		.loc 1 290 0
 145 0016 8168     		ldr	r1, [r0, #8]
 146              		.loc 1 293 0
 147 0018 4FF08043 		mov	r3, #1073741824
 148              		.loc 1 295 0
 149 001c 0022     		movs	r2, #0
 150              		.loc 1 299 0
 151 001e 0124     		movs	r4, #1
 152              		.loc 1 290 0
 153 0020 41F00101 		orr	r1, r1, #1
 154              		.loc 1 293 0
 155 0024 42F2CF06 		movw	r6, #8399
 156              		.loc 1 294 0
 157 0028 4FF0FF35 		mov	r5, #-1
 158              		.loc 1 290 0
 159 002c 8160     		str	r1, [r0, #8]
 160              		.loc 1 293 0
 161 002e 9E62     		str	r6, [r3, #40]
 162              		.loc 1 303 0
 163 0030 0821     		movs	r1, #8
 164              		.loc 1 294 0
 165 0032 DD62     		str	r5, [r3, #44]
 166              		.loc 1 303 0
 167 0034 1C20     		movs	r0, #28
 168              		.loc 1 295 0
 169 0036 9A61     		str	r2, [r3, #24]
 170              		.loc 1 296 0
 171 0038 5A63     		str	r2, [r3, #52]
ARM GAS  /var/folders/vd/czx34qs52cd_f3nb04sxmghc0000gn/T//cc0YHMts.s 			page 4


 172              		.loc 1 297 0
 173 003a DA60     		str	r2, [r3, #12]
 174              		.loc 1 298 0
 175 003c 5A60     		str	r2, [r3, #4]
 176              		.loc 1 299 0
 177 003e 5C61     		str	r4, [r3, #20]
 178              		.loc 1 300 0
 179 0040 1C60     		str	r4, [r3]
 180              		.loc 1 318 0
 181 0042 70BC     		pop	{r4, r5, r6}
 182              		.cfi_restore 6
 183              		.cfi_restore 5
 184              		.cfi_restore 4
 185              		.cfi_def_cfa_offset 0
 186              		.loc 1 303 0
 187 0044 FFF7FEBF 		b	nvicEnableVector
 188              	.LVL6:
 189              	.L15:
 190              		.align	2
 191              	.L14:
 192 0048 00380240 		.word	1073887232
 193 004c 002004E0 		.word	-536600576
 194              		.cfi_endproc
 195              	.LFE314:
 196              		.size	st_lld_init, .-st_lld_init
 197              		.text
 198              	.Letext0:
 199              		.file 4 "/usr/local/Cellar/gcc-arm-none-eabi/20171218/lib/gcc/arm-none-eabi/7.2.1/include/stddef.h
 200              		.file 5 "/usr/local/Cellar/gcc-arm-none-eabi/20171218/arm-none-eabi/include/machine/_default_types
 201              		.file 6 "/usr/local/Cellar/gcc-arm-none-eabi/20171218/arm-none-eabi/include/sys/_stdint.h"
 202              		.file 7 "../os/common/ports/ARMCMx/compilers/GCC/chtypes.h"
 203              		.file 8 "../os/rt/include/chsystypes.h"
 204              		.file 9 "../os/rt/include/chschd.h"
 205              		.file 10 "../os/rt/include/chtime.h"
 206              		.file 11 "../os/common/ext/ARM/CMSIS/Core/Include/core_cm4.h"
 207              		.file 12 "../os/common/ext/ST/STM32F4xx/system_stm32f4xx.h"
 208              		.file 13 "../os/common/ext/ST/STM32F4xx/stm32f407xx.h"
 209              		.file 14 "../os/common/ports/ARMCMx/chcore.h"
 210              		.file 15 "../os/common/ports/ARMCMx/chcore_v7m.h"
 211              		.file 16 "../os/hal/ports/STM32/LLD/TIMv1/stm32_tim.h"
 212              		.file 17 "../os/rt/include/chtm.h"
 213              		.file 18 "../os/rt/include/chsem.h"
 214              		.file 19 "../os/rt/include/chmtx.h"
 215              		.file 20 "../os/rt/include/chsys.h"
 216              		.file 21 "../os/rt/include/chregistry.h"
 217              		.file 22 "../os/rt/include/chevents.h"
 218              		.file 23 "../os/common/oslib/include/chmemcore.h"
 219              		.file 24 "../os/common/oslib/include/chmempools.h"
 220              		.file 25 "../os/common/oslib/include/chfactory.h"
 221              		.file 26 "../os/hal/ports/STM32/LLD/DMAv2/stm32_dma.h"
 222              		.file 27 "../os/hal/include/hal_queues.h"
 223              		.file 28 "../os/hal/include/hal_pal.h"
 224              		.file 29 "../os/hal/ports/STM32/LLD/GPIOv2/hal_pal_lld.h"
 225              		.file 30 "../os/hal/include/hal_pwm.h"
 226              		.file 31 "../os/hal/ports/STM32/LLD/TIMv1/hal_pwm_lld.h"
 227              		.file 32 "../os/hal/include/hal_serial.h"
 228              		.file 33 "../os/hal/ports/STM32/LLD/USARTv1/hal_serial_lld.h"
ARM GAS  /var/folders/vd/czx34qs52cd_f3nb04sxmghc0000gn/T//cc0YHMts.s 			page 5


 229              		.file 34 "../os/hal/ports/common/ARMCMx/nvic.h"
 230              		.section	.debug_info,"",%progbits
 231              	.Ldebug_info0:
 232 0000 73150000 		.4byte	0x1573
 233 0004 0400     		.2byte	0x4
 234 0006 00000000 		.4byte	.Ldebug_abbrev0
 235 000a 04       		.byte	0x4
 236 000b 01       		.uleb128 0x1
 237 000c 89050000 		.4byte	.LASF276
 238 0010 0C       		.byte	0xc
 239 0011 2D040000 		.4byte	.LASF277
 240 0015 330B0000 		.4byte	.LASF278
 241 0019 00000000 		.4byte	.Ldebug_ranges0+0
 242 001d 00000000 		.4byte	0
 243 0021 00000000 		.4byte	.Ldebug_line0
 244 0025 02       		.uleb128 0x2
 245 0026 04       		.byte	0x4
 246 0027 05       		.byte	0x5
 247 0028 696E7400 		.ascii	"int\000"
 248 002c 03       		.uleb128 0x3
 249 002d 20000000 		.4byte	.LASF4
 250 0031 04       		.byte	0x4
 251 0032 D8       		.byte	0xd8
 252 0033 3C000000 		.4byte	0x3c
 253 0037 04       		.uleb128 0x4
 254 0038 2C000000 		.4byte	0x2c
 255 003c 05       		.uleb128 0x5
 256 003d 04       		.byte	0x4
 257 003e 07       		.byte	0x7
 258 003f 4E070000 		.4byte	.LASF0
 259 0043 05       		.uleb128 0x5
 260 0044 08       		.byte	0x8
 261 0045 05       		.byte	0x5
 262 0046 7E060000 		.4byte	.LASF1
 263 004a 05       		.uleb128 0x5
 264 004b 08       		.byte	0x8
 265 004c 04       		.byte	0x4
 266 004d 1B080000 		.4byte	.LASF2
 267 0051 05       		.uleb128 0x5
 268 0052 01       		.byte	0x1
 269 0053 06       		.byte	0x6
 270 0054 17020000 		.4byte	.LASF3
 271 0058 03       		.uleb128 0x3
 272 0059 28010000 		.4byte	.LASF5
 273 005d 05       		.byte	0x5
 274 005e 2B       		.byte	0x2b
 275 005f 63000000 		.4byte	0x63
 276 0063 05       		.uleb128 0x5
 277 0064 01       		.byte	0x1
 278 0065 08       		.byte	0x8
 279 0066 74020000 		.4byte	.LASF6
 280 006a 05       		.uleb128 0x5
 281 006b 02       		.byte	0x2
 282 006c 05       		.byte	0x5
 283 006d 300A0000 		.4byte	.LASF7
 284 0071 03       		.uleb128 0x3
 285 0072 1C030000 		.4byte	.LASF8
ARM GAS  /var/folders/vd/czx34qs52cd_f3nb04sxmghc0000gn/T//cc0YHMts.s 			page 6


 286 0076 05       		.byte	0x5
 287 0077 39       		.byte	0x39
 288 0078 7C000000 		.4byte	0x7c
 289 007c 05       		.uleb128 0x5
 290 007d 02       		.byte	0x2
 291 007e 07       		.byte	0x7
 292 007f 990B0000 		.4byte	.LASF9
 293 0083 03       		.uleb128 0x3
 294 0084 DA0B0000 		.4byte	.LASF10
 295 0088 05       		.byte	0x5
 296 0089 4D       		.byte	0x4d
 297 008a 8E000000 		.4byte	0x8e
 298 008e 05       		.uleb128 0x5
 299 008f 04       		.byte	0x4
 300 0090 05       		.byte	0x5
 301 0091 6A010000 		.4byte	.LASF11
 302 0095 03       		.uleb128 0x3
 303 0096 6B060000 		.4byte	.LASF12
 304 009a 05       		.byte	0x5
 305 009b 4F       		.byte	0x4f
 306 009c A0000000 		.4byte	0xa0
 307 00a0 05       		.uleb128 0x5
 308 00a1 04       		.byte	0x4
 309 00a2 07       		.byte	0x7
 310 00a3 75040000 		.4byte	.LASF13
 311 00a7 03       		.uleb128 0x3
 312 00a8 5A040000 		.4byte	.LASF14
 313 00ac 05       		.byte	0x5
 314 00ad 69       		.byte	0x69
 315 00ae B2000000 		.4byte	0xb2
 316 00b2 05       		.uleb128 0x5
 317 00b3 08       		.byte	0x8
 318 00b4 07       		.byte	0x7
 319 00b5 BA080000 		.4byte	.LASF15
 320 00b9 03       		.uleb128 0x3
 321 00ba 2A020000 		.4byte	.LASF16
 322 00be 06       		.byte	0x6
 323 00bf 18       		.byte	0x18
 324 00c0 58000000 		.4byte	0x58
 325 00c4 06       		.uleb128 0x6
 326 00c5 B9000000 		.4byte	0xb9
 327 00c9 03       		.uleb128 0x3
 328 00ca DA080000 		.4byte	.LASF17
 329 00ce 06       		.byte	0x6
 330 00cf 24       		.byte	0x24
 331 00d0 71000000 		.4byte	0x71
 332 00d4 03       		.uleb128 0x3
 333 00d5 7F000000 		.4byte	.LASF18
 334 00d9 06       		.byte	0x6
 335 00da 2C       		.byte	0x2c
 336 00db 83000000 		.4byte	0x83
 337 00df 04       		.uleb128 0x4
 338 00e0 D4000000 		.4byte	0xd4
 339 00e4 03       		.uleb128 0x3
 340 00e5 2A0B0000 		.4byte	.LASF19
 341 00e9 06       		.byte	0x6
 342 00ea 30       		.byte	0x30
ARM GAS  /var/folders/vd/czx34qs52cd_f3nb04sxmghc0000gn/T//cc0YHMts.s 			page 7


 343 00eb 95000000 		.4byte	0x95
 344 00ef 04       		.uleb128 0x4
 345 00f0 E4000000 		.4byte	0xe4
 346 00f4 03       		.uleb128 0x3
 347 00f5 470A0000 		.4byte	.LASF20
 348 00f9 06       		.byte	0x6
 349 00fa 3C       		.byte	0x3c
 350 00fb A7000000 		.4byte	0xa7
 351 00ff 03       		.uleb128 0x3
 352 0100 5B070000 		.4byte	.LASF21
 353 0104 07       		.byte	0x7
 354 0105 39       		.byte	0x39
 355 0106 E4000000 		.4byte	0xe4
 356 010a 03       		.uleb128 0x3
 357 010b AA090000 		.4byte	.LASF22
 358 010f 07       		.byte	0x7
 359 0110 3C       		.byte	0x3c
 360 0111 B9000000 		.4byte	0xb9
 361 0115 03       		.uleb128 0x3
 362 0116 9D010000 		.4byte	.LASF23
 363 011a 07       		.byte	0x7
 364 011b 3D       		.byte	0x3d
 365 011c B9000000 		.4byte	0xb9
 366 0120 03       		.uleb128 0x3
 367 0121 CF0A0000 		.4byte	.LASF24
 368 0125 07       		.byte	0x7
 369 0126 3E       		.byte	0x3e
 370 0127 B9000000 		.4byte	0xb9
 371 012b 03       		.uleb128 0x3
 372 012c 65000000 		.4byte	.LASF25
 373 0130 07       		.byte	0x7
 374 0131 40       		.byte	0x40
 375 0132 E4000000 		.4byte	0xe4
 376 0136 03       		.uleb128 0x3
 377 0137 EC080000 		.4byte	.LASF26
 378 013b 07       		.byte	0x7
 379 013c 41       		.byte	0x41
 380 013d D4000000 		.4byte	0xd4
 381 0141 03       		.uleb128 0x3
 382 0142 32020000 		.4byte	.LASF27
 383 0146 07       		.byte	0x7
 384 0147 43       		.byte	0x43
 385 0148 E4000000 		.4byte	0xe4
 386 014c 03       		.uleb128 0x3
 387 014d 03090000 		.4byte	.LASF28
 388 0151 07       		.byte	0x7
 389 0152 44       		.byte	0x44
 390 0153 E4000000 		.4byte	0xe4
 391 0157 03       		.uleb128 0x3
 392 0158 B1030000 		.4byte	.LASF29
 393 015c 07       		.byte	0x7
 394 015d 45       		.byte	0x45
 395 015e D4000000 		.4byte	0xd4
 396 0162 03       		.uleb128 0x3
 397 0163 4B050000 		.4byte	.LASF30
 398 0167 07       		.byte	0x7
 399 0168 46       		.byte	0x46
ARM GAS  /var/folders/vd/czx34qs52cd_f3nb04sxmghc0000gn/T//cc0YHMts.s 			page 8


 400 0169 E4000000 		.4byte	0xe4
 401 016d 03       		.uleb128 0x3
 402 016e 12080000 		.4byte	.LASF31
 403 0172 08       		.byte	0x8
 404 0173 34       		.byte	0x34
 405 0174 78010000 		.4byte	0x178
 406 0178 07       		.uleb128 0x7
 407 0179 B4040000 		.4byte	.LASF49
 408 017d 44       		.byte	0x44
 409 017e 09       		.byte	0x9
 410 017f 8E       		.byte	0x8e
 411 0180 56020000 		.4byte	0x256
 412 0184 08       		.uleb128 0x8
 413 0185 20090000 		.4byte	.LASF32
 414 0189 09       		.byte	0x9
 415 018a 8F       		.byte	0x8f
 416 018b 8B020000 		.4byte	0x28b
 417 018f 00       		.byte	0
 418 0190 08       		.uleb128 0x8
 419 0191 1A010000 		.4byte	.LASF33
 420 0195 09       		.byte	0x9
 421 0196 90       		.byte	0x90
 422 0197 2B010000 		.4byte	0x12b
 423 019b 08       		.byte	0x8
 424 019c 09       		.uleb128 0x9
 425 019d 63747800 		.ascii	"ctx\000"
 426 01a1 09       		.byte	0x9
 427 01a2 91       		.byte	0x91
 428 01a3 D9070000 		.4byte	0x7d9
 429 01a7 0C       		.byte	0xc
 430 01a8 08       		.uleb128 0x8
 431 01a9 0E0B0000 		.4byte	.LASF34
 432 01ad 09       		.byte	0x9
 433 01ae 93       		.byte	0x93
 434 01af 61020000 		.4byte	0x261
 435 01b3 10       		.byte	0x10
 436 01b4 08       		.uleb128 0x8
 437 01b5 20050000 		.4byte	.LASF35
 438 01b9 09       		.byte	0x9
 439 01ba 94       		.byte	0x94
 440 01bb 61020000 		.4byte	0x261
 441 01bf 14       		.byte	0x14
 442 01c0 08       		.uleb128 0x8
 443 01c1 F4090000 		.4byte	.LASF36
 444 01c5 09       		.byte	0x9
 445 01c6 9B       		.byte	0x9b
 446 01c7 750A0000 		.4byte	0xa75
 447 01cb 18       		.byte	0x18
 448 01cc 08       		.uleb128 0x8
 449 01cd 78090000 		.4byte	.LASF37
 450 01d1 09       		.byte	0x9
 451 01d2 A4       		.byte	0xa4
 452 01d3 8C0A0000 		.4byte	0xa8c
 453 01d7 1C       		.byte	0x1c
 454 01d8 08       		.uleb128 0x8
 455 01d9 D6000000 		.4byte	.LASF38
 456 01dd 09       		.byte	0x9
ARM GAS  /var/folders/vd/czx34qs52cd_f3nb04sxmghc0000gn/T//cc0YHMts.s 			page 9


 457 01de A9       		.byte	0xa9
 458 01df 15010000 		.4byte	0x115
 459 01e3 20       		.byte	0x20
 460 01e4 08       		.uleb128 0x8
 461 01e5 4A030000 		.4byte	.LASF39
 462 01e9 09       		.byte	0x9
 463 01ea AD       		.byte	0xad
 464 01eb 0A010000 		.4byte	0x10a
 465 01ef 21       		.byte	0x21
 466 01f0 08       		.uleb128 0x8
 467 01f1 1B090000 		.4byte	.LASF40
 468 01f5 09       		.byte	0x9
 469 01f6 B2       		.byte	0xb2
 470 01f7 20010000 		.4byte	0x120
 471 01fb 22       		.byte	0x22
 472 01fc 0A       		.uleb128 0xa
 473 01fd 7500     		.ascii	"u\000"
 474 01ff 09       		.byte	0x9
 475 0200 0301     		.2byte	0x103
 476 0202 AB090000 		.4byte	0x9ab
 477 0206 24       		.byte	0x24
 478 0207 0B       		.uleb128 0xb
 479 0208 B50A0000 		.4byte	.LASF41
 480 020c 09       		.byte	0x9
 481 020d 0801     		.2byte	0x108
 482 020f 67020000 		.4byte	0x267
 483 0213 28       		.byte	0x28
 484 0214 0B       		.uleb128 0xb
 485 0215 630A0000 		.4byte	.LASF42
 486 0219 09       		.byte	0x9
 487 021a 0E01     		.2byte	0x10e
 488 021c 8B020000 		.4byte	0x28b
 489 0220 2C       		.byte	0x2c
 490 0221 0B       		.uleb128 0xb
 491 0222 A6010000 		.4byte	.LASF43
 492 0226 09       		.byte	0x9
 493 0227 1401     		.2byte	0x114
 494 0229 41010000 		.4byte	0x141
 495 022d 34       		.byte	0x34
 496 022e 0B       		.uleb128 0xb
 497 022f 76060000 		.4byte	.LASF44
 498 0233 09       		.byte	0x9
 499 0234 1B01     		.2byte	0x11b
 500 0236 6F0A0000 		.4byte	0xa6f
 501 023a 38       		.byte	0x38
 502 023b 0B       		.uleb128 0xb
 503 023c 36050000 		.4byte	.LASF45
 504 0240 09       		.byte	0x9
 505 0241 1F01     		.2byte	0x11f
 506 0243 2B010000 		.4byte	0x12b
 507 0247 3C       		.byte	0x3c
 508 0248 0B       		.uleb128 0xb
 509 0249 75030000 		.4byte	.LASF46
 510 024d 09       		.byte	0x9
 511 024e 2601     		.2byte	0x126
 512 0250 3E030000 		.4byte	0x33e
 513 0254 40       		.byte	0x40
ARM GAS  /var/folders/vd/czx34qs52cd_f3nb04sxmghc0000gn/T//cc0YHMts.s 			page 10


 514 0255 00       		.byte	0
 515 0256 03       		.uleb128 0x3
 516 0257 2E080000 		.4byte	.LASF47
 517 025b 08       		.byte	0x8
 518 025c 39       		.byte	0x39
 519 025d 61020000 		.4byte	0x261
 520 0261 0C       		.uleb128 0xc
 521 0262 04       		.byte	0x4
 522 0263 6D010000 		.4byte	0x16d
 523 0267 03       		.uleb128 0x3
 524 0268 E40A0000 		.4byte	.LASF48
 525 026c 08       		.byte	0x8
 526 026d 3E       		.byte	0x3e
 527 026e 72020000 		.4byte	0x272
 528 0272 07       		.uleb128 0x7
 529 0273 79050000 		.4byte	.LASF50
 530 0277 04       		.byte	0x4
 531 0278 09       		.byte	0x9
 532 0279 7C       		.byte	0x7c
 533 027a 8B020000 		.4byte	0x28b
 534 027e 08       		.uleb128 0x8
 535 027f 120C0000 		.4byte	.LASF51
 536 0283 09       		.byte	0x9
 537 0284 7D       		.byte	0x7d
 538 0285 61020000 		.4byte	0x261
 539 0289 00       		.byte	0
 540 028a 00       		.byte	0
 541 028b 03       		.uleb128 0x3
 542 028c AF010000 		.4byte	.LASF52
 543 0290 08       		.byte	0x8
 544 0291 45       		.byte	0x45
 545 0292 96020000 		.4byte	0x296
 546 0296 07       		.uleb128 0x7
 547 0297 F2080000 		.4byte	.LASF53
 548 029b 08       		.byte	0x8
 549 029c 09       		.byte	0x9
 550 029d 83       		.byte	0x83
 551 029e BB020000 		.4byte	0x2bb
 552 02a2 08       		.uleb128 0x8
 553 02a3 120C0000 		.4byte	.LASF51
 554 02a7 09       		.byte	0x9
 555 02a8 84       		.byte	0x84
 556 02a9 61020000 		.4byte	0x261
 557 02ad 00       		.byte	0
 558 02ae 08       		.uleb128 0x8
 559 02af 170C0000 		.4byte	.LASF54
 560 02b3 09       		.byte	0x9
 561 02b4 85       		.byte	0x85
 562 02b5 61020000 		.4byte	0x261
 563 02b9 04       		.byte	0x4
 564 02ba 00       		.byte	0
 565 02bb 03       		.uleb128 0x3
 566 02bc 13050000 		.4byte	.LASF55
 567 02c0 08       		.byte	0x8
 568 02c1 4C       		.byte	0x4c
 569 02c2 C6020000 		.4byte	0x2c6
 570 02c6 0D       		.uleb128 0xd
ARM GAS  /var/folders/vd/czx34qs52cd_f3nb04sxmghc0000gn/T//cc0YHMts.s 			page 11


 571 02c7 E2030000 		.4byte	.LASF56
 572 02cb 1C       		.byte	0x1c
 573 02cc 09       		.byte	0x9
 574 02cd 5E01     		.2byte	0x15e
 575 02cf 22030000 		.4byte	0x322
 576 02d3 0B       		.uleb128 0xb
 577 02d4 20090000 		.4byte	.LASF32
 578 02d8 09       		.byte	0x9
 579 02d9 5F01     		.2byte	0x15f
 580 02db 8B020000 		.4byte	0x28b
 581 02df 00       		.byte	0
 582 02e0 0B       		.uleb128 0xb
 583 02e1 1A010000 		.4byte	.LASF33
 584 02e5 09       		.byte	0x9
 585 02e6 6001     		.2byte	0x160
 586 02e8 2B010000 		.4byte	0x12b
 587 02ec 08       		.byte	0x8
 588 02ed 0A       		.uleb128 0xa
 589 02ee 63747800 		.ascii	"ctx\000"
 590 02f2 09       		.byte	0x9
 591 02f3 6201     		.2byte	0x162
 592 02f5 D9070000 		.4byte	0x7d9
 593 02f9 0C       		.byte	0xc
 594 02fa 0B       		.uleb128 0xb
 595 02fb 0E0B0000 		.4byte	.LASF34
 596 02ff 09       		.byte	0x9
 597 0300 6501     		.2byte	0x165
 598 0302 61020000 		.4byte	0x261
 599 0306 10       		.byte	0x10
 600 0307 0B       		.uleb128 0xb
 601 0308 20050000 		.4byte	.LASF35
 602 030c 09       		.byte	0x9
 603 030d 6601     		.2byte	0x166
 604 030f 61020000 		.4byte	0x261
 605 0313 14       		.byte	0x14
 606 0314 0B       		.uleb128 0xb
 607 0315 BA070000 		.4byte	.LASF57
 608 0319 09       		.byte	0x9
 609 031a 6901     		.2byte	0x169
 610 031c 61020000 		.4byte	0x261
 611 0320 18       		.byte	0x18
 612 0321 00       		.byte	0
 613 0322 03       		.uleb128 0x3
 614 0323 8E000000 		.4byte	.LASF58
 615 0327 08       		.byte	0x8
 616 0328 51       		.byte	0x51
 617 0329 2D030000 		.4byte	0x32d
 618 032d 0C       		.uleb128 0xc
 619 032e 04       		.byte	0x4
 620 032f 33030000 		.4byte	0x333
 621 0333 0E       		.uleb128 0xe
 622 0334 3E030000 		.4byte	0x33e
 623 0338 0F       		.uleb128 0xf
 624 0339 3E030000 		.4byte	0x33e
 625 033d 00       		.byte	0
 626 033e 10       		.uleb128 0x10
 627 033f 04       		.byte	0x4
ARM GAS  /var/folders/vd/czx34qs52cd_f3nb04sxmghc0000gn/T//cc0YHMts.s 			page 12


 628 0340 03       		.uleb128 0x3
 629 0341 03050000 		.4byte	.LASF59
 630 0345 08       		.byte	0x8
 631 0346 56       		.byte	0x56
 632 0347 4B030000 		.4byte	0x34b
 633 034b 0D       		.uleb128 0xd
 634 034c 9C080000 		.4byte	.LASF60
 635 0350 14       		.byte	0x14
 636 0351 09       		.byte	0x9
 637 0352 3901     		.2byte	0x139
 638 0354 9A030000 		.4byte	0x39a
 639 0358 0B       		.uleb128 0xb
 640 0359 120C0000 		.4byte	.LASF51
 641 035d 09       		.byte	0x9
 642 035e 3A01     		.2byte	0x13a
 643 0360 920A0000 		.4byte	0xa92
 644 0364 00       		.byte	0
 645 0365 0B       		.uleb128 0xb
 646 0366 170C0000 		.4byte	.LASF54
 647 036a 09       		.byte	0x9
 648 036b 3B01     		.2byte	0x13b
 649 036d 920A0000 		.4byte	0xa92
 650 0371 04       		.byte	0x4
 651 0372 0B       		.uleb128 0xb
 652 0373 15090000 		.4byte	.LASF61
 653 0377 09       		.byte	0x9
 654 0378 3C01     		.2byte	0x13c
 655 037a 71040000 		.4byte	0x471
 656 037e 08       		.byte	0x8
 657 037f 0B       		.uleb128 0xb
 658 0380 550A0000 		.4byte	.LASF62
 659 0384 09       		.byte	0x9
 660 0385 3D01     		.2byte	0x13d
 661 0387 22030000 		.4byte	0x322
 662 038b 0C       		.byte	0xc
 663 038c 0A       		.uleb128 0xa
 664 038d 70617200 		.ascii	"par\000"
 665 0391 09       		.byte	0x9
 666 0392 3F01     		.2byte	0x13f
 667 0394 3E030000 		.4byte	0x33e
 668 0398 10       		.byte	0x10
 669 0399 00       		.byte	0
 670 039a 03       		.uleb128 0x3
 671 039b BE040000 		.4byte	.LASF63
 672 039f 08       		.byte	0x8
 673 03a0 5B       		.byte	0x5b
 674 03a1 A5030000 		.4byte	0x3a5
 675 03a5 0D       		.uleb128 0xd
 676 03a6 97000000 		.4byte	.LASF64
 677 03aa 10       		.byte	0x10
 678 03ab 09       		.byte	0x9
 679 03ac 4901     		.2byte	0x149
 680 03ae E7030000 		.4byte	0x3e7
 681 03b2 0B       		.uleb128 0xb
 682 03b3 120C0000 		.4byte	.LASF51
 683 03b7 09       		.byte	0x9
 684 03b8 4A01     		.2byte	0x14a
ARM GAS  /var/folders/vd/czx34qs52cd_f3nb04sxmghc0000gn/T//cc0YHMts.s 			page 13


 685 03ba 920A0000 		.4byte	0xa92
 686 03be 00       		.byte	0
 687 03bf 0B       		.uleb128 0xb
 688 03c0 170C0000 		.4byte	.LASF54
 689 03c4 09       		.byte	0x9
 690 03c5 4C01     		.2byte	0x14c
 691 03c7 920A0000 		.4byte	0xa92
 692 03cb 04       		.byte	0x4
 693 03cc 0B       		.uleb128 0xb
 694 03cd 15090000 		.4byte	.LASF61
 695 03d1 09       		.byte	0x9
 696 03d2 4E01     		.2byte	0x14e
 697 03d4 71040000 		.4byte	0x471
 698 03d8 08       		.byte	0x8
 699 03d9 0B       		.uleb128 0xb
 700 03da A0020000 		.4byte	.LASF65
 701 03de 09       		.byte	0x9
 702 03df 5601     		.2byte	0x156
 703 03e1 66040000 		.4byte	0x466
 704 03e5 0C       		.byte	0xc
 705 03e6 00       		.byte	0
 706 03e7 03       		.uleb128 0x3
 707 03e8 B3020000 		.4byte	.LASF66
 708 03ec 08       		.byte	0x8
 709 03ed 60       		.byte	0x60
 710 03ee F2030000 		.4byte	0x3f2
 711 03f2 0D       		.uleb128 0xd
 712 03f3 7C0A0000 		.4byte	.LASF67
 713 03f7 04       		.byte	0x4
 714 03f8 09       		.byte	0x9
 715 03f9 7001     		.2byte	0x170
 716 03fb 0D040000 		.4byte	0x40d
 717 03ff 0B       		.uleb128 0xb
 718 0400 A9020000 		.4byte	.LASF68
 719 0404 09       		.byte	0x9
 720 0405 7801     		.2byte	0x178
 721 0407 7B0A0000 		.4byte	0xa7b
 722 040b 00       		.byte	0
 723 040c 00       		.byte	0
 724 040d 03       		.uleb128 0x3
 725 040e AC0B0000 		.4byte	.LASF69
 726 0412 08       		.byte	0x8
 727 0413 65       		.byte	0x65
 728 0414 18040000 		.4byte	0x418
 729 0418 0D       		.uleb128 0xd
 730 0419 F90A0000 		.4byte	.LASF70
 731 041d 78       		.byte	0x78
 732 041e 09       		.byte	0x9
 733 041f 9001     		.2byte	0x190
 734 0421 66040000 		.4byte	0x466
 735 0425 0B       		.uleb128 0xb
 736 0426 A4090000 		.4byte	.LASF71
 737 042a 09       		.byte	0x9
 738 042b 9401     		.2byte	0x194
 739 042d BB020000 		.4byte	0x2bb
 740 0431 00       		.byte	0
 741 0432 0B       		.uleb128 0xb
ARM GAS  /var/folders/vd/czx34qs52cd_f3nb04sxmghc0000gn/T//cc0YHMts.s 			page 14


 742 0433 AE0A0000 		.4byte	.LASF72
 743 0437 09       		.byte	0x9
 744 0438 9801     		.2byte	0x198
 745 043a 9A030000 		.4byte	0x39a
 746 043e 1C       		.byte	0x1c
 747 043f 0A       		.uleb128 0xa
 748 0440 64626700 		.ascii	"dbg\000"
 749 0444 09       		.byte	0x9
 750 0445 9C01     		.2byte	0x19c
 751 0447 E7030000 		.4byte	0x3e7
 752 044b 2C       		.byte	0x2c
 753 044c 0B       		.uleb128 0xb
 754 044d 41090000 		.4byte	.LASF73
 755 0451 09       		.byte	0x9
 756 0452 A001     		.2byte	0x1a0
 757 0454 6D010000 		.4byte	0x16d
 758 0458 30       		.byte	0x30
 759 0459 0A       		.uleb128 0xa
 760 045a 746D00   		.ascii	"tm\000"
 761 045d 09       		.byte	0x9
 762 045e A501     		.2byte	0x1a5
 763 0460 A0090000 		.4byte	0x9a0
 764 0464 74       		.byte	0x74
 765 0465 00       		.byte	0
 766 0466 03       		.uleb128 0x3
 767 0467 3E000000 		.4byte	.LASF74
 768 046b 0A       		.byte	0xa
 769 046c 8C       		.byte	0x8c
 770 046d E4000000 		.4byte	0xe4
 771 0471 03       		.uleb128 0x3
 772 0472 8C060000 		.4byte	.LASF75
 773 0476 0A       		.byte	0xa
 774 0477 98       		.byte	0x98
 775 0478 E4000000 		.4byte	0xe4
 776 047c 11       		.uleb128 0x11
 777 047d E4000000 		.4byte	0xe4
 778 0481 8C040000 		.4byte	0x48c
 779 0485 12       		.uleb128 0x12
 780 0486 3C000000 		.4byte	0x3c
 781 048a 01       		.byte	0x1
 782 048b 00       		.byte	0
 783 048c 13       		.uleb128 0x13
 784 048d 03070000 		.4byte	.LASF76
 785 0491 0B       		.byte	0xb
 786 0492 F407     		.2byte	0x7f4
 787 0494 DF000000 		.4byte	0xdf
 788 0498 14       		.uleb128 0x14
 789 0499 97040000 		.4byte	.LASF77
 790 049d 0C       		.byte	0xc
 791 049e 4C       		.byte	0x4c
 792 049f E4000000 		.4byte	0xe4
 793 04a3 11       		.uleb128 0x11
 794 04a4 C4000000 		.4byte	0xc4
 795 04a8 B3040000 		.4byte	0x4b3
 796 04ac 12       		.uleb128 0x12
 797 04ad 3C000000 		.4byte	0x3c
 798 04b1 0F       		.byte	0xf
ARM GAS  /var/folders/vd/czx34qs52cd_f3nb04sxmghc0000gn/T//cc0YHMts.s 			page 15


 799 04b2 00       		.byte	0
 800 04b3 06       		.uleb128 0x6
 801 04b4 A3040000 		.4byte	0x4a3
 802 04b8 14       		.uleb128 0x14
 803 04b9 8E080000 		.4byte	.LASF78
 804 04bd 0C       		.byte	0xc
 805 04be 4E       		.byte	0x4e
 806 04bf B3040000 		.4byte	0x4b3
 807 04c3 11       		.uleb128 0x11
 808 04c4 C4000000 		.4byte	0xc4
 809 04c8 D3040000 		.4byte	0x4d3
 810 04cc 12       		.uleb128 0x12
 811 04cd 3C000000 		.4byte	0x3c
 812 04d1 07       		.byte	0x7
 813 04d2 00       		.byte	0
 814 04d3 06       		.uleb128 0x6
 815 04d4 C3040000 		.4byte	0x4c3
 816 04d8 14       		.uleb128 0x14
 817 04d9 0C0A0000 		.4byte	.LASF79
 818 04dd 0C       		.byte	0xc
 819 04de 4F       		.byte	0x4f
 820 04df D3040000 		.4byte	0x4d3
 821 04e3 15       		.uleb128 0x15
 822 04e4 10       		.byte	0x10
 823 04e5 0D       		.byte	0xd
 824 04e6 4B01     		.2byte	0x14b
 825 04e8 20050000 		.4byte	0x520
 826 04ec 0B       		.uleb128 0xb
 827 04ed 2E070000 		.4byte	.LASF80
 828 04f1 0D       		.byte	0xd
 829 04f2 4D01     		.2byte	0x14d
 830 04f4 EF000000 		.4byte	0xef
 831 04f8 00       		.byte	0
 832 04f9 0A       		.uleb128 0xa
 833 04fa 435200   		.ascii	"CR\000"
 834 04fd 0D       		.byte	0xd
 835 04fe 4E01     		.2byte	0x14e
 836 0500 EF000000 		.4byte	0xef
 837 0504 04       		.byte	0x4
 838 0505 0B       		.uleb128 0xb
 839 0506 6E030000 		.4byte	.LASF81
 840 050a 0D       		.byte	0xd
 841 050b 4F01     		.2byte	0x14f
 842 050d EF000000 		.4byte	0xef
 843 0511 08       		.byte	0x8
 844 0512 0B       		.uleb128 0xb
 845 0513 CB060000 		.4byte	.LASF82
 846 0517 0D       		.byte	0xd
 847 0518 5001     		.2byte	0x150
 848 051a EF000000 		.4byte	0xef
 849 051e 0C       		.byte	0xc
 850 051f 00       		.byte	0
 851 0520 16       		.uleb128 0x16
 852 0521 CC030000 		.4byte	.LASF83
 853 0525 0D       		.byte	0xd
 854 0526 5101     		.2byte	0x151
 855 0528 E3040000 		.4byte	0x4e3
ARM GAS  /var/folders/vd/czx34qs52cd_f3nb04sxmghc0000gn/T//cc0YHMts.s 			page 16


 856 052c 15       		.uleb128 0x15
 857 052d 18       		.byte	0x18
 858 052e 0D       		.byte	0xd
 859 052f 6A01     		.2byte	0x16a
 860 0531 83050000 		.4byte	0x583
 861 0535 0A       		.uleb128 0xa
 862 0536 435200   		.ascii	"CR\000"
 863 0539 0D       		.byte	0xd
 864 053a 6C01     		.2byte	0x16c
 865 053c EF000000 		.4byte	0xef
 866 0540 00       		.byte	0
 867 0541 0B       		.uleb128 0xb
 868 0542 EC0B0000 		.4byte	.LASF84
 869 0546 0D       		.byte	0xd
 870 0547 6D01     		.2byte	0x16d
 871 0549 EF000000 		.4byte	0xef
 872 054d 04       		.byte	0x4
 873 054e 0A       		.uleb128 0xa
 874 054f 50415200 		.ascii	"PAR\000"
 875 0553 0D       		.byte	0xd
 876 0554 6E01     		.2byte	0x16e
 877 0556 EF000000 		.4byte	0xef
 878 055a 08       		.byte	0x8
 879 055b 0B       		.uleb128 0xb
 880 055c EF090000 		.4byte	.LASF85
 881 0560 0D       		.byte	0xd
 882 0561 6F01     		.2byte	0x16f
 883 0563 EF000000 		.4byte	0xef
 884 0567 0C       		.byte	0xc
 885 0568 0B       		.uleb128 0xb
 886 0569 08000000 		.4byte	.LASF86
 887 056d 0D       		.byte	0xd
 888 056e 7001     		.2byte	0x170
 889 0570 EF000000 		.4byte	0xef
 890 0574 10       		.byte	0x10
 891 0575 0A       		.uleb128 0xa
 892 0576 46435200 		.ascii	"FCR\000"
 893 057a 0D       		.byte	0xd
 894 057b 7101     		.2byte	0x171
 895 057d EF000000 		.4byte	0xef
 896 0581 14       		.byte	0x14
 897 0582 00       		.byte	0
 898 0583 16       		.uleb128 0x16
 899 0584 DD070000 		.4byte	.LASF87
 900 0588 0D       		.byte	0xd
 901 0589 7201     		.2byte	0x172
 902 058b 2C050000 		.4byte	0x52c
 903 058f 11       		.uleb128 0x11
 904 0590 EF000000 		.4byte	0xef
 905 0594 9F050000 		.4byte	0x59f
 906 0598 12       		.uleb128 0x12
 907 0599 3C000000 		.4byte	0x3c
 908 059d 01       		.byte	0x1
 909 059e 00       		.byte	0
 910 059f 04       		.uleb128 0x4
 911 05a0 8F050000 		.4byte	0x58f
 912 05a4 11       		.uleb128 0x11
ARM GAS  /var/folders/vd/czx34qs52cd_f3nb04sxmghc0000gn/T//cc0YHMts.s 			page 17


 913 05a5 EF000000 		.4byte	0xef
 914 05a9 B4050000 		.4byte	0x5b4
 915 05ad 12       		.uleb128 0x12
 916 05ae 3C000000 		.4byte	0x3c
 917 05b2 03       		.byte	0x3
 918 05b3 00       		.byte	0
 919 05b4 04       		.uleb128 0x4
 920 05b5 A4050000 		.4byte	0x5a4
 921 05b9 15       		.uleb128 0x15
 922 05ba 88       		.byte	0x88
 923 05bb 0D       		.byte	0xd
 924 05bc 6502     		.2byte	0x265
 925 05be 48070000 		.4byte	0x748
 926 05c2 0A       		.uleb128 0xa
 927 05c3 435200   		.ascii	"CR\000"
 928 05c6 0D       		.byte	0xd
 929 05c7 6702     		.2byte	0x267
 930 05c9 EF000000 		.4byte	0xef
 931 05cd 00       		.byte	0
 932 05ce 0B       		.uleb128 0xb
 933 05cf 63060000 		.4byte	.LASF88
 934 05d3 0D       		.byte	0xd
 935 05d4 6802     		.2byte	0x268
 936 05d6 EF000000 		.4byte	0xef
 937 05da 04       		.byte	0x4
 938 05db 0B       		.uleb128 0xb
 939 05dc F9030000 		.4byte	.LASF89
 940 05e0 0D       		.byte	0xd
 941 05e1 6902     		.2byte	0x269
 942 05e3 EF000000 		.4byte	0xef
 943 05e7 08       		.byte	0x8
 944 05e8 0A       		.uleb128 0xa
 945 05e9 43495200 		.ascii	"CIR\000"
 946 05ed 0D       		.byte	0xd
 947 05ee 6A02     		.2byte	0x26a
 948 05f0 EF000000 		.4byte	0xef
 949 05f4 0C       		.byte	0xc
 950 05f5 0B       		.uleb128 0xb
 951 05f6 0A030000 		.4byte	.LASF90
 952 05fa 0D       		.byte	0xd
 953 05fb 6B02     		.2byte	0x26b
 954 05fd EF000000 		.4byte	0xef
 955 0601 10       		.byte	0x10
 956 0602 0B       		.uleb128 0xb
 957 0603 E6090000 		.4byte	.LASF91
 958 0607 0D       		.byte	0xd
 959 0608 6C02     		.2byte	0x26c
 960 060a EF000000 		.4byte	0xef
 961 060e 14       		.byte	0x14
 962 060f 0B       		.uleb128 0xb
 963 0610 09080000 		.4byte	.LASF92
 964 0614 0D       		.byte	0xd
 965 0615 6D02     		.2byte	0x26d
 966 0617 EF000000 		.4byte	0xef
 967 061b 18       		.byte	0x18
 968 061c 0B       		.uleb128 0xb
 969 061d 60020000 		.4byte	.LASF93
ARM GAS  /var/folders/vd/czx34qs52cd_f3nb04sxmghc0000gn/T//cc0YHMts.s 			page 18


 970 0621 0D       		.byte	0xd
 971 0622 6E02     		.2byte	0x26e
 972 0624 E4000000 		.4byte	0xe4
 973 0628 1C       		.byte	0x1c
 974 0629 0B       		.uleb128 0xb
 975 062a 85080000 		.4byte	.LASF94
 976 062e 0D       		.byte	0xd
 977 062f 6F02     		.2byte	0x26f
 978 0631 EF000000 		.4byte	0xef
 979 0635 20       		.byte	0x20
 980 0636 0B       		.uleb128 0xb
 981 0637 D2060000 		.4byte	.LASF95
 982 063b 0D       		.byte	0xd
 983 063c 7002     		.2byte	0x270
 984 063e EF000000 		.4byte	0xef
 985 0642 24       		.byte	0x24
 986 0643 0B       		.uleb128 0xb
 987 0644 6A020000 		.4byte	.LASF96
 988 0648 0D       		.byte	0xd
 989 0649 7102     		.2byte	0x271
 990 064b 7C040000 		.4byte	0x47c
 991 064f 28       		.byte	0x28
 992 0650 0B       		.uleb128 0xb
 993 0651 BC090000 		.4byte	.LASF97
 994 0655 0D       		.byte	0xd
 995 0656 7202     		.2byte	0x272
 996 0658 EF000000 		.4byte	0xef
 997 065c 30       		.byte	0x30
 998 065d 0B       		.uleb128 0xb
 999 065e 27030000 		.4byte	.LASF98
 1000 0662 0D       		.byte	0xd
 1001 0663 7302     		.2byte	0x273
 1002 0665 EF000000 		.4byte	0xef
 1003 0669 34       		.byte	0x34
 1004 066a 0B       		.uleb128 0xb
 1005 066b CD090000 		.4byte	.LASF99
 1006 066f 0D       		.byte	0xd
 1007 0670 7402     		.2byte	0x274
 1008 0672 EF000000 		.4byte	0xef
 1009 0676 38       		.byte	0x38
 1010 0677 0B       		.uleb128 0xb
 1011 0678 D2020000 		.4byte	.LASF100
 1012 067c 0D       		.byte	0xd
 1013 067d 7502     		.2byte	0x275
 1014 067f E4000000 		.4byte	0xe4
 1015 0683 3C       		.byte	0x3c
 1016 0684 0B       		.uleb128 0xb
 1017 0685 AD080000 		.4byte	.LASF101
 1018 0689 0D       		.byte	0xd
 1019 068a 7602     		.2byte	0x276
 1020 068c EF000000 		.4byte	0xef
 1021 0690 40       		.byte	0x40
 1022 0691 0B       		.uleb128 0xb
 1023 0692 E3010000 		.4byte	.LASF102
 1024 0696 0D       		.byte	0xd
 1025 0697 7702     		.2byte	0x277
 1026 0699 EF000000 		.4byte	0xef
ARM GAS  /var/folders/vd/czx34qs52cd_f3nb04sxmghc0000gn/T//cc0YHMts.s 			page 19


 1027 069d 44       		.byte	0x44
 1028 069e 0B       		.uleb128 0xb
 1029 069f 82020000 		.4byte	.LASF103
 1030 06a3 0D       		.byte	0xd
 1031 06a4 7802     		.2byte	0x278
 1032 06a6 7C040000 		.4byte	0x47c
 1033 06aa 48       		.byte	0x48
 1034 06ab 0B       		.uleb128 0xb
 1035 06ac F4010000 		.4byte	.LASF104
 1036 06b0 0D       		.byte	0xd
 1037 06b1 7902     		.2byte	0x279
 1038 06b3 EF000000 		.4byte	0xef
 1039 06b7 50       		.byte	0x50
 1040 06b8 0B       		.uleb128 0xb
 1041 06b9 3F010000 		.4byte	.LASF105
 1042 06bd 0D       		.byte	0xd
 1043 06be 7A02     		.2byte	0x27a
 1044 06c0 EF000000 		.4byte	0xef
 1045 06c4 54       		.byte	0x54
 1046 06c5 0B       		.uleb128 0xb
 1047 06c6 60090000 		.4byte	.LASF106
 1048 06ca 0D       		.byte	0xd
 1049 06cb 7B02     		.2byte	0x27b
 1050 06cd EF000000 		.4byte	0xef
 1051 06d1 58       		.byte	0x58
 1052 06d2 0B       		.uleb128 0xb
 1053 06d3 8C020000 		.4byte	.LASF107
 1054 06d7 0D       		.byte	0xd
 1055 06d8 7C02     		.2byte	0x27c
 1056 06da E4000000 		.4byte	0xe4
 1057 06de 5C       		.byte	0x5c
 1058 06df 0B       		.uleb128 0xb
 1059 06e0 D3070000 		.4byte	.LASF108
 1060 06e4 0D       		.byte	0xd
 1061 06e5 7D02     		.2byte	0x27d
 1062 06e7 EF000000 		.4byte	0xef
 1063 06eb 60       		.byte	0x60
 1064 06ec 0B       		.uleb128 0xb
 1065 06ed 1A070000 		.4byte	.LASF109
 1066 06f1 0D       		.byte	0xd
 1067 06f2 7E02     		.2byte	0x27e
 1068 06f4 EF000000 		.4byte	0xef
 1069 06f8 64       		.byte	0x64
 1070 06f9 0B       		.uleb128 0xb
 1071 06fa 96020000 		.4byte	.LASF110
 1072 06fe 0D       		.byte	0xd
 1073 06ff 7F02     		.2byte	0x27f
 1074 0701 7C040000 		.4byte	0x47c
 1075 0705 68       		.byte	0x68
 1076 0706 0B       		.uleb128 0xb
 1077 0707 99030000 		.4byte	.LASF111
 1078 070b 0D       		.byte	0xd
 1079 070c 8002     		.2byte	0x280
 1080 070e EF000000 		.4byte	0xef
 1081 0712 70       		.byte	0x70
 1082 0713 0A       		.uleb128 0xa
 1083 0714 43535200 		.ascii	"CSR\000"
ARM GAS  /var/folders/vd/czx34qs52cd_f3nb04sxmghc0000gn/T//cc0YHMts.s 			page 20


 1084 0718 0D       		.byte	0xd
 1085 0719 8102     		.2byte	0x281
 1086 071b EF000000 		.4byte	0xef
 1087 071f 74       		.byte	0x74
 1088 0720 0B       		.uleb128 0xb
 1089 0721 DC020000 		.4byte	.LASF112
 1090 0725 0D       		.byte	0xd
 1091 0726 8202     		.2byte	0x282
 1092 0728 7C040000 		.4byte	0x47c
 1093 072c 78       		.byte	0x78
 1094 072d 0B       		.uleb128 0xb
 1095 072e AD060000 		.4byte	.LASF113
 1096 0732 0D       		.byte	0xd
 1097 0733 8302     		.2byte	0x283
 1098 0735 EF000000 		.4byte	0xef
 1099 0739 80       		.byte	0x80
 1100 073a 0B       		.uleb128 0xb
 1101 073b 54000000 		.4byte	.LASF114
 1102 073f 0D       		.byte	0xd
 1103 0740 8402     		.2byte	0x284
 1104 0742 EF000000 		.4byte	0xef
 1105 0746 84       		.byte	0x84
 1106 0747 00       		.byte	0
 1107 0748 16       		.uleb128 0x16
 1108 0749 240A0000 		.4byte	.LASF115
 1109 074d 0D       		.byte	0xd
 1110 074e 8502     		.2byte	0x285
 1111 0750 B9050000 		.4byte	0x5b9
 1112 0754 15       		.uleb128 0x15
 1113 0755 1C       		.byte	0x1c
 1114 0756 0D       		.byte	0xd
 1115 0757 0603     		.2byte	0x306
 1116 0759 B7070000 		.4byte	0x7b7
 1117 075d 0A       		.uleb128 0xa
 1118 075e 535200   		.ascii	"SR\000"
 1119 0761 0D       		.byte	0xd
 1120 0762 0803     		.2byte	0x308
 1121 0764 EF000000 		.4byte	0xef
 1122 0768 00       		.byte	0
 1123 0769 0A       		.uleb128 0xa
 1124 076a 445200   		.ascii	"DR\000"
 1125 076d 0D       		.byte	0xd
 1126 076e 0903     		.2byte	0x309
 1127 0770 EF000000 		.4byte	0xef
 1128 0774 04       		.byte	0x4
 1129 0775 0A       		.uleb128 0xa
 1130 0776 42525200 		.ascii	"BRR\000"
 1131 077a 0D       		.byte	0xd
 1132 077b 0A03     		.2byte	0x30a
 1133 077d EF000000 		.4byte	0xef
 1134 0781 08       		.byte	0x8
 1135 0782 0A       		.uleb128 0xa
 1136 0783 43523100 		.ascii	"CR1\000"
 1137 0787 0D       		.byte	0xd
 1138 0788 0B03     		.2byte	0x30b
 1139 078a EF000000 		.4byte	0xef
 1140 078e 0C       		.byte	0xc
ARM GAS  /var/folders/vd/czx34qs52cd_f3nb04sxmghc0000gn/T//cc0YHMts.s 			page 21


 1141 078f 0A       		.uleb128 0xa
 1142 0790 43523200 		.ascii	"CR2\000"
 1143 0794 0D       		.byte	0xd
 1144 0795 0C03     		.2byte	0x30c
 1145 0797 EF000000 		.4byte	0xef
 1146 079b 10       		.byte	0x10
 1147 079c 0A       		.uleb128 0xa
 1148 079d 43523300 		.ascii	"CR3\000"
 1149 07a1 0D       		.byte	0xd
 1150 07a2 0D03     		.2byte	0x30d
 1151 07a4 EF000000 		.4byte	0xef
 1152 07a8 14       		.byte	0x14
 1153 07a9 0B       		.uleb128 0xb
 1154 07aa C6060000 		.4byte	.LASF116
 1155 07ae 0D       		.byte	0xd
 1156 07af 0E03     		.2byte	0x30e
 1157 07b1 EF000000 		.4byte	0xef
 1158 07b5 18       		.byte	0x18
 1159 07b6 00       		.byte	0
 1160 07b7 16       		.uleb128 0x16
 1161 07b8 60030000 		.4byte	.LASF117
 1162 07bc 0D       		.byte	0xd
 1163 07bd 0F03     		.2byte	0x30f
 1164 07bf 54070000 		.4byte	0x754
 1165 07c3 03       		.uleb128 0x3
 1166 07c4 C6010000 		.4byte	.LASF118
 1167 07c8 0E       		.byte	0xe
 1168 07c9 65       		.byte	0x65
 1169 07ca 3E030000 		.4byte	0x33e
 1170 07ce 03       		.uleb128 0x3
 1171 07cf 55030000 		.4byte	.LASF119
 1172 07d3 0E       		.byte	0xe
 1173 07d4 6D       		.byte	0x6d
 1174 07d5 F4000000 		.4byte	0xf4
 1175 07d9 07       		.uleb128 0x7
 1176 07da D70A0000 		.4byte	.LASF120
 1177 07de 04       		.byte	0x4
 1178 07df 0E       		.byte	0xe
 1179 07e0 89       		.byte	0x89
 1180 07e1 F1070000 		.4byte	0x7f1
 1181 07e5 09       		.uleb128 0x9
 1182 07e6 737000   		.ascii	"sp\000"
 1183 07e9 0E       		.byte	0xe
 1184 07ea 8A       		.byte	0x8a
 1185 07eb 6D080000 		.4byte	0x86d
 1186 07ef 00       		.byte	0
 1187 07f0 00       		.byte	0
 1188 07f1 0D       		.uleb128 0xd
 1189 07f2 49080000 		.4byte	.LASF121
 1190 07f6 24       		.byte	0x24
 1191 07f7 0F       		.byte	0xf
 1192 07f8 5901     		.2byte	0x159
 1193 07fa 6D080000 		.4byte	0x86d
 1194 07fe 0A       		.uleb128 0xa
 1195 07ff 723400   		.ascii	"r4\000"
 1196 0802 0F       		.byte	0xf
 1197 0803 6C01     		.2byte	0x16c
ARM GAS  /var/folders/vd/czx34qs52cd_f3nb04sxmghc0000gn/T//cc0YHMts.s 			page 22


 1198 0805 C3070000 		.4byte	0x7c3
 1199 0809 00       		.byte	0
 1200 080a 0A       		.uleb128 0xa
 1201 080b 723500   		.ascii	"r5\000"
 1202 080e 0F       		.byte	0xf
 1203 080f 6D01     		.2byte	0x16d
 1204 0811 C3070000 		.4byte	0x7c3
 1205 0815 04       		.byte	0x4
 1206 0816 0A       		.uleb128 0xa
 1207 0817 723600   		.ascii	"r6\000"
 1208 081a 0F       		.byte	0xf
 1209 081b 6E01     		.2byte	0x16e
 1210 081d C3070000 		.4byte	0x7c3
 1211 0821 08       		.byte	0x8
 1212 0822 0A       		.uleb128 0xa
 1213 0823 723700   		.ascii	"r7\000"
 1214 0826 0F       		.byte	0xf
 1215 0827 6F01     		.2byte	0x16f
 1216 0829 C3070000 		.4byte	0x7c3
 1217 082d 0C       		.byte	0xc
 1218 082e 0A       		.uleb128 0xa
 1219 082f 723800   		.ascii	"r8\000"
 1220 0832 0F       		.byte	0xf
 1221 0833 7001     		.2byte	0x170
 1222 0835 C3070000 		.4byte	0x7c3
 1223 0839 10       		.byte	0x10
 1224 083a 0A       		.uleb128 0xa
 1225 083b 723900   		.ascii	"r9\000"
 1226 083e 0F       		.byte	0xf
 1227 083f 7101     		.2byte	0x171
 1228 0841 C3070000 		.4byte	0x7c3
 1229 0845 14       		.byte	0x14
 1230 0846 0A       		.uleb128 0xa
 1231 0847 72313000 		.ascii	"r10\000"
 1232 084b 0F       		.byte	0xf
 1233 084c 7201     		.2byte	0x172
 1234 084e C3070000 		.4byte	0x7c3
 1235 0852 18       		.byte	0x18
 1236 0853 0A       		.uleb128 0xa
 1237 0854 72313100 		.ascii	"r11\000"
 1238 0858 0F       		.byte	0xf
 1239 0859 7301     		.2byte	0x173
 1240 085b C3070000 		.4byte	0x7c3
 1241 085f 1C       		.byte	0x1c
 1242 0860 0A       		.uleb128 0xa
 1243 0861 6C7200   		.ascii	"lr\000"
 1244 0864 0F       		.byte	0xf
 1245 0865 7401     		.2byte	0x174
 1246 0867 C3070000 		.4byte	0x7c3
 1247 086b 20       		.byte	0x20
 1248 086c 00       		.byte	0
 1249 086d 0C       		.uleb128 0xc
 1250 086e 04       		.byte	0x4
 1251 086f F1070000 		.4byte	0x7f1
 1252 0873 15       		.uleb128 0x15
 1253 0874 60       		.byte	0x60
 1254 0875 10       		.byte	0x10
ARM GAS  /var/folders/vd/czx34qs52cd_f3nb04sxmghc0000gn/T//cc0YHMts.s 			page 23


 1255 0876 F501     		.2byte	0x1f5
 1256 0878 7F090000 		.4byte	0x97f
 1257 087c 0A       		.uleb128 0xa
 1258 087d 43523100 		.ascii	"CR1\000"
 1259 0881 10       		.byte	0x10
 1260 0882 F601     		.2byte	0x1f6
 1261 0884 EF000000 		.4byte	0xef
 1262 0888 00       		.byte	0
 1263 0889 0A       		.uleb128 0xa
 1264 088a 43523200 		.ascii	"CR2\000"
 1265 088e 10       		.byte	0x10
 1266 088f F701     		.2byte	0x1f7
 1267 0891 EF000000 		.4byte	0xef
 1268 0895 04       		.byte	0x4
 1269 0896 0B       		.uleb128 0xb
 1270 0897 4C090000 		.4byte	.LASF122
 1271 089b 10       		.byte	0x10
 1272 089c F801     		.2byte	0x1f8
 1273 089e EF000000 		.4byte	0xef
 1274 08a2 08       		.byte	0x8
 1275 08a3 0B       		.uleb128 0xb
 1276 08a4 92040000 		.4byte	.LASF123
 1277 08a8 10       		.byte	0x10
 1278 08a9 F901     		.2byte	0x1f9
 1279 08ab EF000000 		.4byte	0xef
 1280 08af 0C       		.byte	0xc
 1281 08b0 0A       		.uleb128 0xa
 1282 08b1 535200   		.ascii	"SR\000"
 1283 08b4 10       		.byte	0x10
 1284 08b5 FA01     		.2byte	0x1fa
 1285 08b7 EF000000 		.4byte	0xef
 1286 08bb 10       		.byte	0x10
 1287 08bc 0A       		.uleb128 0xa
 1288 08bd 45475200 		.ascii	"EGR\000"
 1289 08c1 10       		.byte	0x10
 1290 08c2 FB01     		.2byte	0x1fb
 1291 08c4 EF000000 		.4byte	0xef
 1292 08c8 14       		.byte	0x14
 1293 08c9 0B       		.uleb128 0xb
 1294 08ca 7F070000 		.4byte	.LASF124
 1295 08ce 10       		.byte	0x10
 1296 08cf FC01     		.2byte	0x1fc
 1297 08d1 EF000000 		.4byte	0xef
 1298 08d5 18       		.byte	0x18
 1299 08d6 0B       		.uleb128 0xb
 1300 08d7 E6020000 		.4byte	.LASF125
 1301 08db 10       		.byte	0x10
 1302 08dc FD01     		.2byte	0x1fd
 1303 08de EF000000 		.4byte	0xef
 1304 08e2 1C       		.byte	0x1c
 1305 08e3 0B       		.uleb128 0xb
 1306 08e4 10090000 		.4byte	.LASF126
 1307 08e8 10       		.byte	0x10
 1308 08e9 FE01     		.2byte	0x1fe
 1309 08eb EF000000 		.4byte	0xef
 1310 08ef 20       		.byte	0x20
 1311 08f0 0A       		.uleb128 0xa
ARM GAS  /var/folders/vd/czx34qs52cd_f3nb04sxmghc0000gn/T//cc0YHMts.s 			page 24


 1312 08f1 434E5400 		.ascii	"CNT\000"
 1313 08f5 10       		.byte	0x10
 1314 08f6 FF01     		.2byte	0x1ff
 1315 08f8 EF000000 		.4byte	0xef
 1316 08fc 24       		.byte	0x24
 1317 08fd 0A       		.uleb128 0xa
 1318 08fe 50534300 		.ascii	"PSC\000"
 1319 0902 10       		.byte	0x10
 1320 0903 0002     		.2byte	0x200
 1321 0905 EF000000 		.4byte	0xef
 1322 0909 28       		.byte	0x28
 1323 090a 0A       		.uleb128 0xa
 1324 090b 41525200 		.ascii	"ARR\000"
 1325 090f 10       		.byte	0x10
 1326 0910 0102     		.2byte	0x201
 1327 0912 EF000000 		.4byte	0xef
 1328 0916 2C       		.byte	0x2c
 1329 0917 0A       		.uleb128 0xa
 1330 0918 52435200 		.ascii	"RCR\000"
 1331 091c 10       		.byte	0x10
 1332 091d 0202     		.2byte	0x202
 1333 091f EF000000 		.4byte	0xef
 1334 0923 30       		.byte	0x30
 1335 0924 0A       		.uleb128 0xa
 1336 0925 43435200 		.ascii	"CCR\000"
 1337 0929 10       		.byte	0x10
 1338 092a 0302     		.2byte	0x203
 1339 092c B4050000 		.4byte	0x5b4
 1340 0930 34       		.byte	0x34
 1341 0931 0B       		.uleb128 0xb
 1342 0932 140B0000 		.4byte	.LASF127
 1343 0936 10       		.byte	0x10
 1344 0937 0402     		.2byte	0x204
 1345 0939 EF000000 		.4byte	0xef
 1346 093d 44       		.byte	0x44
 1347 093e 0A       		.uleb128 0xa
 1348 093f 44435200 		.ascii	"DCR\000"
 1349 0943 10       		.byte	0x10
 1350 0944 0502     		.2byte	0x205
 1351 0946 EF000000 		.4byte	0xef
 1352 094a 48       		.byte	0x48
 1353 094b 0B       		.uleb128 0xb
 1354 094c FB000000 		.4byte	.LASF128
 1355 0950 10       		.byte	0x10
 1356 0951 0602     		.2byte	0x206
 1357 0953 EF000000 		.4byte	0xef
 1358 0957 4C       		.byte	0x4c
 1359 0958 0A       		.uleb128 0xa
 1360 0959 4F5200   		.ascii	"OR\000"
 1361 095c 10       		.byte	0x10
 1362 095d 0702     		.2byte	0x207
 1363 095f EF000000 		.4byte	0xef
 1364 0963 50       		.byte	0x50
 1365 0964 0B       		.uleb128 0xb
 1366 0965 EC020000 		.4byte	.LASF129
 1367 0969 10       		.byte	0x10
 1368 096a 0802     		.2byte	0x208
ARM GAS  /var/folders/vd/czx34qs52cd_f3nb04sxmghc0000gn/T//cc0YHMts.s 			page 25


 1369 096c EF000000 		.4byte	0xef
 1370 0970 54       		.byte	0x54
 1371 0971 0B       		.uleb128 0xb
 1372 0972 94030000 		.4byte	.LASF130
 1373 0976 10       		.byte	0x10
 1374 0977 0902     		.2byte	0x209
 1375 0979 9F050000 		.4byte	0x59f
 1376 097d 58       		.byte	0x58
 1377 097e 00       		.byte	0
 1378 097f 16       		.uleb128 0x16
 1379 0980 3F050000 		.4byte	.LASF131
 1380 0984 10       		.byte	0x10
 1381 0985 0A02     		.2byte	0x20a
 1382 0987 73080000 		.4byte	0x873
 1383 098b 17       		.uleb128 0x17
 1384 098c 04       		.byte	0x4
 1385 098d 11       		.byte	0x11
 1386 098e 38       		.byte	0x38
 1387 098f A0090000 		.4byte	0x9a0
 1388 0993 08       		.uleb128 0x8
 1389 0994 CC070000 		.4byte	.LASF132
 1390 0998 11       		.byte	0x11
 1391 0999 3C       		.byte	0x3c
 1392 099a FF000000 		.4byte	0xff
 1393 099e 00       		.byte	0
 1394 099f 00       		.byte	0
 1395 09a0 03       		.uleb128 0x3
 1396 09a1 D5090000 		.4byte	.LASF133
 1397 09a5 11       		.byte	0x11
 1398 09a6 3D       		.byte	0x3d
 1399 09a7 8B090000 		.4byte	0x98b
 1400 09ab 18       		.uleb128 0x18
 1401 09ac 04       		.byte	0x4
 1402 09ad 09       		.byte	0x9
 1403 09ae C6       		.byte	0xc6
 1404 09af 0D0A0000 		.4byte	0xa0d
 1405 09b3 19       		.uleb128 0x19
 1406 09b4 8A0B0000 		.4byte	.LASF134
 1407 09b8 09       		.byte	0x9
 1408 09b9 CD       		.byte	0xcd
 1409 09ba 36010000 		.4byte	0x136
 1410 09be 19       		.uleb128 0x19
 1411 09bf 1F010000 		.4byte	.LASF135
 1412 09c3 09       		.byte	0x9
 1413 09c4 D4       		.byte	0xd4
 1414 09c5 36010000 		.4byte	0x136
 1415 09c9 19       		.uleb128 0x19
 1416 09ca 2F030000 		.4byte	.LASF136
 1417 09ce 09       		.byte	0x9
 1418 09cf DB       		.byte	0xdb
 1419 09d0 3E030000 		.4byte	0x33e
 1420 09d4 19       		.uleb128 0x19
 1421 09d5 3E020000 		.4byte	.LASF137
 1422 09d9 09       		.byte	0x9
 1423 09da E2       		.byte	0xe2
 1424 09db 0D0A0000 		.4byte	0xa0d
 1425 09df 19       		.uleb128 0x19
ARM GAS  /var/folders/vd/czx34qs52cd_f3nb04sxmghc0000gn/T//cc0YHMts.s 			page 26


 1426 09e0 41080000 		.4byte	.LASF138
 1427 09e4 09       		.byte	0x9
 1428 09e5 E7       		.byte	0xe7
 1429 09e6 36010000 		.4byte	0x136
 1430 09ea 19       		.uleb128 0x19
 1431 09eb 37000000 		.4byte	.LASF139
 1432 09ef 09       		.byte	0x9
 1433 09f0 F0       		.byte	0xf0
 1434 09f1 380A0000 		.4byte	0xa38
 1435 09f5 19       		.uleb128 0x19
 1436 09f6 DB030000 		.4byte	.LASF140
 1437 09fa 09       		.byte	0x9
 1438 09fb F9       		.byte	0xf9
 1439 09fc 6F0A0000 		.4byte	0xa6f
 1440 0a00 1A       		.uleb128 0x1a
 1441 0a01 23020000 		.4byte	.LASF141
 1442 0a05 09       		.byte	0x9
 1443 0a06 0101     		.2byte	0x101
 1444 0a08 41010000 		.4byte	0x141
 1445 0a0c 00       		.byte	0
 1446 0a0d 0C       		.uleb128 0xc
 1447 0a0e 04       		.byte	0x4
 1448 0a0f 56020000 		.4byte	0x256
 1449 0a13 07       		.uleb128 0x7
 1450 0a14 A7040000 		.4byte	.LASF142
 1451 0a18 0C       		.byte	0xc
 1452 0a19 12       		.byte	0x12
 1453 0a1a 34       		.byte	0x34
 1454 0a1b 380A0000 		.4byte	0xa38
 1455 0a1f 08       		.uleb128 0x8
 1456 0a20 20090000 		.4byte	.LASF32
 1457 0a24 12       		.byte	0x12
 1458 0a25 35       		.byte	0x35
 1459 0a26 8B020000 		.4byte	0x28b
 1460 0a2a 00       		.byte	0
 1461 0a2b 09       		.uleb128 0x9
 1462 0a2c 636E7400 		.ascii	"cnt\000"
 1463 0a30 12       		.byte	0x12
 1464 0a31 37       		.byte	0x37
 1465 0a32 57010000 		.4byte	0x157
 1466 0a36 08       		.byte	0x8
 1467 0a37 00       		.byte	0
 1468 0a38 0C       		.uleb128 0xc
 1469 0a39 04       		.byte	0x4
 1470 0a3a 130A0000 		.4byte	0xa13
 1471 0a3e 07       		.uleb128 0x7
 1472 0a3f 5A0A0000 		.4byte	.LASF143
 1473 0a43 10       		.byte	0x10
 1474 0a44 13       		.byte	0x13
 1475 0a45 39       		.byte	0x39
 1476 0a46 6F0A0000 		.4byte	0xa6f
 1477 0a4a 08       		.uleb128 0x8
 1478 0a4b 20090000 		.4byte	.LASF32
 1479 0a4f 13       		.byte	0x13
 1480 0a50 3A       		.byte	0x3a
 1481 0a51 8B020000 		.4byte	0x28b
 1482 0a55 00       		.byte	0
ARM GAS  /var/folders/vd/czx34qs52cd_f3nb04sxmghc0000gn/T//cc0YHMts.s 			page 27


 1483 0a56 08       		.uleb128 0x8
 1484 0a57 5F000000 		.4byte	.LASF144
 1485 0a5b 13       		.byte	0x13
 1486 0a5c 3C       		.byte	0x3c
 1487 0a5d 61020000 		.4byte	0x261
 1488 0a61 08       		.byte	0x8
 1489 0a62 08       		.uleb128 0x8
 1490 0a63 120C0000 		.4byte	.LASF51
 1491 0a67 13       		.byte	0x13
 1492 0a68 3E       		.byte	0x3e
 1493 0a69 D10B0000 		.4byte	0xbd1
 1494 0a6d 0C       		.byte	0xc
 1495 0a6e 00       		.byte	0
 1496 0a6f 0C       		.uleb128 0xc
 1497 0a70 04       		.byte	0x4
 1498 0a71 3E0A0000 		.4byte	0xa3e
 1499 0a75 0C       		.uleb128 0xc
 1500 0a76 04       		.byte	0x4
 1501 0a77 870A0000 		.4byte	0xa87
 1502 0a7b 04       		.uleb128 0x4
 1503 0a7c 750A0000 		.4byte	0xa75
 1504 0a80 05       		.uleb128 0x5
 1505 0a81 01       		.byte	0x1
 1506 0a82 08       		.byte	0x8
 1507 0a83 FE020000 		.4byte	.LASF145
 1508 0a87 06       		.uleb128 0x6
 1509 0a88 800A0000 		.4byte	0xa80
 1510 0a8c 0C       		.uleb128 0xc
 1511 0a8d 04       		.byte	0x4
 1512 0a8e CE070000 		.4byte	0x7ce
 1513 0a92 0C       		.uleb128 0xc
 1514 0a93 04       		.byte	0x4
 1515 0a94 40030000 		.4byte	0x340
 1516 0a98 1B       		.uleb128 0x1b
 1517 0a99 636800   		.ascii	"ch\000"
 1518 0a9c 09       		.byte	0x9
 1519 0a9d C701     		.2byte	0x1c7
 1520 0a9f 0D040000 		.4byte	0x40d
 1521 0aa3 11       		.uleb128 0x11
 1522 0aa4 CE070000 		.4byte	0x7ce
 1523 0aa8 AE0A0000 		.4byte	0xaae
 1524 0aac 1C       		.uleb128 0x1c
 1525 0aad 00       		.byte	0
 1526 0aae 13       		.uleb128 0x13
 1527 0aaf D4040000 		.4byte	.LASF146
 1528 0ab3 14       		.byte	0x14
 1529 0ab4 1701     		.2byte	0x117
 1530 0ab6 A30A0000 		.4byte	0xaa3
 1531 0aba 17       		.uleb128 0x17
 1532 0abb 16       		.byte	0x16
 1533 0abc 15       		.byte	0x15
 1534 0abd 34       		.byte	0x34
 1535 0abe 9B0B0000 		.4byte	0xb9b
 1536 0ac2 08       		.uleb128 0x8
 1537 0ac3 280C0000 		.4byte	.LASF147
 1538 0ac7 15       		.byte	0x15
 1539 0ac8 35       		.byte	0x35
ARM GAS  /var/folders/vd/czx34qs52cd_f3nb04sxmghc0000gn/T//cc0YHMts.s 			page 28


 1540 0ac9 9B0B0000 		.4byte	0xb9b
 1541 0acd 00       		.byte	0
 1542 0ace 08       		.uleb128 0x8
 1543 0acf 87010000 		.4byte	.LASF148
 1544 0ad3 15       		.byte	0x15
 1545 0ad4 36       		.byte	0x36
 1546 0ad5 B9000000 		.4byte	0xb9
 1547 0ad9 04       		.byte	0x4
 1548 0ada 08       		.uleb128 0x8
 1549 0adb B5080000 		.4byte	.LASF149
 1550 0adf 15       		.byte	0x15
 1551 0ae0 37       		.byte	0x37
 1552 0ae1 B9000000 		.4byte	0xb9
 1553 0ae5 05       		.byte	0x5
 1554 0ae6 08       		.uleb128 0x8
 1555 0ae7 58090000 		.4byte	.LASF150
 1556 0aeb 15       		.byte	0x15
 1557 0aec 38       		.byte	0x38
 1558 0aed C9000000 		.4byte	0xc9
 1559 0af1 06       		.byte	0x6
 1560 0af2 08       		.uleb128 0x8
 1561 0af3 8C030000 		.4byte	.LASF151
 1562 0af7 15       		.byte	0x15
 1563 0af8 39       		.byte	0x39
 1564 0af9 B9000000 		.4byte	0xb9
 1565 0afd 08       		.byte	0x8
 1566 0afe 08       		.uleb128 0x8
 1567 0aff D10B0000 		.4byte	.LASF152
 1568 0b03 15       		.byte	0x15
 1569 0b04 3A       		.byte	0x3a
 1570 0b05 B9000000 		.4byte	0xb9
 1571 0b09 09       		.byte	0x9
 1572 0b0a 08       		.uleb128 0x8
 1573 0b0b 87040000 		.4byte	.LASF153
 1574 0b0f 15       		.byte	0x15
 1575 0b10 3B       		.byte	0x3b
 1576 0b11 B9000000 		.4byte	0xb9
 1577 0b15 0A       		.byte	0xa
 1578 0b16 08       		.uleb128 0x8
 1579 0b17 27000000 		.4byte	.LASF154
 1580 0b1b 15       		.byte	0x15
 1581 0b1c 3C       		.byte	0x3c
 1582 0b1d B9000000 		.4byte	0xb9
 1583 0b21 0B       		.byte	0xb
 1584 0b22 08       		.uleb128 0x8
 1585 0b23 00000000 		.4byte	.LASF155
 1586 0b27 15       		.byte	0x15
 1587 0b28 3D       		.byte	0x3d
 1588 0b29 B9000000 		.4byte	0xb9
 1589 0b2d 0C       		.byte	0xc
 1590 0b2e 08       		.uleb128 0x8
 1591 0b2f 3A070000 		.4byte	.LASF156
 1592 0b33 15       		.byte	0x15
 1593 0b34 3E       		.byte	0x3e
 1594 0b35 B9000000 		.4byte	0xb9
 1595 0b39 0D       		.byte	0xd
 1596 0b3a 08       		.uleb128 0x8
ARM GAS  /var/folders/vd/czx34qs52cd_f3nb04sxmghc0000gn/T//cc0YHMts.s 			page 29


 1597 0b3b 10010000 		.4byte	.LASF157
 1598 0b3f 15       		.byte	0x15
 1599 0b40 3F       		.byte	0x3f
 1600 0b41 B9000000 		.4byte	0xb9
 1601 0b45 0E       		.byte	0xe
 1602 0b46 08       		.uleb128 0x8
 1603 0b47 E3080000 		.4byte	.LASF158
 1604 0b4b 15       		.byte	0x15
 1605 0b4c 40       		.byte	0x40
 1606 0b4d B9000000 		.4byte	0xb9
 1607 0b51 0F       		.byte	0xf
 1608 0b52 08       		.uleb128 0x8
 1609 0b53 58050000 		.4byte	.LASF159
 1610 0b57 15       		.byte	0x15
 1611 0b58 41       		.byte	0x41
 1612 0b59 B9000000 		.4byte	0xb9
 1613 0b5d 10       		.byte	0x10
 1614 0b5e 08       		.uleb128 0x8
 1615 0b5f 6B040000 		.4byte	.LASF160
 1616 0b63 15       		.byte	0x15
 1617 0b64 42       		.byte	0x42
 1618 0b65 B9000000 		.4byte	0xb9
 1619 0b69 11       		.byte	0x11
 1620 0b6a 08       		.uleb128 0x8
 1621 0b6b 010C0000 		.4byte	.LASF161
 1622 0b6f 15       		.byte	0x15
 1623 0b70 43       		.byte	0x43
 1624 0b71 B9000000 		.4byte	0xb9
 1625 0b75 12       		.byte	0x12
 1626 0b76 08       		.uleb128 0x8
 1627 0b77 41030000 		.4byte	.LASF162
 1628 0b7b 15       		.byte	0x15
 1629 0b7c 44       		.byte	0x44
 1630 0b7d B9000000 		.4byte	0xb9
 1631 0b81 13       		.byte	0x13
 1632 0b82 08       		.uleb128 0x8
 1633 0b83 48000000 		.4byte	.LASF163
 1634 0b87 15       		.byte	0x15
 1635 0b88 45       		.byte	0x45
 1636 0b89 B9000000 		.4byte	0xb9
 1637 0b8d 14       		.byte	0x14
 1638 0b8e 08       		.uleb128 0x8
 1639 0b8f 9E030000 		.4byte	.LASF164
 1640 0b93 15       		.byte	0x15
 1641 0b94 46       		.byte	0x46
 1642 0b95 B9000000 		.4byte	0xb9
 1643 0b99 15       		.byte	0x15
 1644 0b9a 00       		.byte	0
 1645 0b9b 11       		.uleb128 0x11
 1646 0b9c 800A0000 		.4byte	0xa80
 1647 0ba0 AB0B0000 		.4byte	0xbab
 1648 0ba4 12       		.uleb128 0x12
 1649 0ba5 3C000000 		.4byte	0x3c
 1650 0ba9 03       		.byte	0x3
 1651 0baa 00       		.byte	0
 1652 0bab 03       		.uleb128 0x3
 1653 0bac B80B0000 		.4byte	.LASF165
ARM GAS  /var/folders/vd/czx34qs52cd_f3nb04sxmghc0000gn/T//cc0YHMts.s 			page 30


 1654 0bb0 15       		.byte	0x15
 1655 0bb1 47       		.byte	0x47
 1656 0bb2 BA0A0000 		.4byte	0xaba
 1657 0bb6 06       		.uleb128 0x6
 1658 0bb7 AB0B0000 		.4byte	0xbab
 1659 0bbb 14       		.uleb128 0x14
 1660 0bbc 6D000000 		.4byte	.LASF166
 1661 0bc0 15       		.byte	0x15
 1662 0bc1 6C       		.byte	0x6c
 1663 0bc2 B60B0000 		.4byte	0xbb6
 1664 0bc6 03       		.uleb128 0x3
 1665 0bc7 C70A0000 		.4byte	.LASF167
 1666 0bcb 13       		.byte	0x13
 1667 0bcc 34       		.byte	0x34
 1668 0bcd 3E0A0000 		.4byte	0xa3e
 1669 0bd1 0C       		.uleb128 0xc
 1670 0bd2 04       		.byte	0x4
 1671 0bd3 C60B0000 		.4byte	0xbc6
 1672 0bd7 03       		.uleb128 0x3
 1673 0bd8 7B030000 		.4byte	.LASF168
 1674 0bdc 16       		.byte	0x16
 1675 0bdd 34       		.byte	0x34
 1676 0bde E20B0000 		.4byte	0xbe2
 1677 0be2 07       		.uleb128 0x7
 1678 0be3 7B0B0000 		.4byte	.LASF169
 1679 0be7 14       		.byte	0x14
 1680 0be8 16       		.byte	0x16
 1681 0be9 39       		.byte	0x39
 1682 0bea 2B0C0000 		.4byte	0xc2b
 1683 0bee 08       		.uleb128 0x8
 1684 0bef 120C0000 		.4byte	.LASF51
 1685 0bf3 16       		.byte	0x16
 1686 0bf4 3A       		.byte	0x3a
 1687 0bf5 2B0C0000 		.4byte	0xc2b
 1688 0bf9 00       		.byte	0
 1689 0bfa 08       		.uleb128 0x8
 1690 0bfb 030A0000 		.4byte	.LASF170
 1691 0bff 16       		.byte	0x16
 1692 0c00 3D       		.byte	0x3d
 1693 0c01 61020000 		.4byte	0x261
 1694 0c05 04       		.byte	0x4
 1695 0c06 08       		.uleb128 0x8
 1696 0c07 0B0C0000 		.4byte	.LASF171
 1697 0c0b 16       		.byte	0x16
 1698 0c0c 3F       		.byte	0x3f
 1699 0c0d 41010000 		.4byte	0x141
 1700 0c11 08       		.byte	0x8
 1701 0c12 08       		.uleb128 0x8
 1702 0c13 4A030000 		.4byte	.LASF39
 1703 0c17 16       		.byte	0x16
 1704 0c18 41       		.byte	0x41
 1705 0c19 4C010000 		.4byte	0x14c
 1706 0c1d 0C       		.byte	0xc
 1707 0c1e 08       		.uleb128 0x8
 1708 0c1f 27080000 		.4byte	.LASF172
 1709 0c23 16       		.byte	0x16
 1710 0c24 43       		.byte	0x43
ARM GAS  /var/folders/vd/czx34qs52cd_f3nb04sxmghc0000gn/T//cc0YHMts.s 			page 31


 1711 0c25 4C010000 		.4byte	0x14c
 1712 0c29 10       		.byte	0x10
 1713 0c2a 00       		.byte	0
 1714 0c2b 0C       		.uleb128 0xc
 1715 0c2c 04       		.byte	0x4
 1716 0c2d D70B0000 		.4byte	0xbd7
 1717 0c31 07       		.uleb128 0x7
 1718 0c32 3A0A0000 		.4byte	.LASF173
 1719 0c36 04       		.byte	0x4
 1720 0c37 16       		.byte	0x16
 1721 0c38 4A       		.byte	0x4a
 1722 0c39 4A0C0000 		.4byte	0xc4a
 1723 0c3d 08       		.uleb128 0x8
 1724 0c3e 120C0000 		.4byte	.LASF51
 1725 0c42 16       		.byte	0x16
 1726 0c43 4B       		.byte	0x4b
 1727 0c44 2B0C0000 		.4byte	0xc2b
 1728 0c48 00       		.byte	0
 1729 0c49 00       		.byte	0
 1730 0c4a 03       		.uleb128 0x3
 1731 0c4b EE060000 		.4byte	.LASF174
 1732 0c4f 16       		.byte	0x16
 1733 0c50 4E       		.byte	0x4e
 1734 0c51 310C0000 		.4byte	0xc31
 1735 0c55 05       		.uleb128 0x5
 1736 0c56 01       		.byte	0x1
 1737 0c57 02       		.byte	0x2
 1738 0c58 CC020000 		.4byte	.LASF175
 1739 0c5c 03       		.uleb128 0x3
 1740 0c5d F0070000 		.4byte	.LASF176
 1741 0c61 17       		.byte	0x17
 1742 0c62 4B       		.byte	0x4b
 1743 0c63 670C0000 		.4byte	0xc67
 1744 0c67 0C       		.uleb128 0xc
 1745 0c68 04       		.byte	0x4
 1746 0c69 6D0C0000 		.4byte	0xc6d
 1747 0c6d 1D       		.uleb128 0x1d
 1748 0c6e 3E030000 		.4byte	0x33e
 1749 0c72 810C0000 		.4byte	0xc81
 1750 0c76 0F       		.uleb128 0xf
 1751 0c77 2C000000 		.4byte	0x2c
 1752 0c7b 0F       		.uleb128 0xf
 1753 0c7c 3C000000 		.4byte	0x3c
 1754 0c80 00       		.byte	0
 1755 0c81 17       		.uleb128 0x17
 1756 0c82 08       		.byte	0x8
 1757 0c83 17       		.byte	0x17
 1758 0c84 55       		.byte	0x55
 1759 0c85 A20C0000 		.4byte	0xca2
 1760 0c89 08       		.uleb128 0x8
 1761 0c8a 13040000 		.4byte	.LASF177
 1762 0c8e 17       		.byte	0x17
 1763 0c8f 59       		.byte	0x59
 1764 0c90 A20C0000 		.4byte	0xca2
 1765 0c94 00       		.byte	0
 1766 0c95 08       		.uleb128 0x8
 1767 0c96 30000000 		.4byte	.LASF178
ARM GAS  /var/folders/vd/czx34qs52cd_f3nb04sxmghc0000gn/T//cc0YHMts.s 			page 32


 1768 0c9a 17       		.byte	0x17
 1769 0c9b 5D       		.byte	0x5d
 1770 0c9c A20C0000 		.4byte	0xca2
 1771 0ca0 04       		.byte	0x4
 1772 0ca1 00       		.byte	0
 1773 0ca2 0C       		.uleb128 0xc
 1774 0ca3 04       		.byte	0x4
 1775 0ca4 B9000000 		.4byte	0xb9
 1776 0ca8 03       		.uleb128 0x3
 1777 0ca9 04020000 		.4byte	.LASF179
 1778 0cad 17       		.byte	0x17
 1779 0cae 5E       		.byte	0x5e
 1780 0caf 810C0000 		.4byte	0xc81
 1781 0cb3 14       		.uleb128 0x14
 1782 0cb4 F60B0000 		.4byte	.LASF180
 1783 0cb8 17       		.byte	0x17
 1784 0cb9 69       		.byte	0x69
 1785 0cba A80C0000 		.4byte	0xca8
 1786 0cbe 07       		.uleb128 0x7
 1787 0cbf 65050000 		.4byte	.LASF181
 1788 0cc3 04       		.byte	0x4
 1789 0cc4 18       		.byte	0x18
 1790 0cc5 3C       		.byte	0x3c
 1791 0cc6 D70C0000 		.4byte	0xcd7
 1792 0cca 08       		.uleb128 0x8
 1793 0ccb 120C0000 		.4byte	.LASF51
 1794 0ccf 18       		.byte	0x18
 1795 0cd0 3D       		.byte	0x3d
 1796 0cd1 D70C0000 		.4byte	0xcd7
 1797 0cd5 00       		.byte	0
 1798 0cd6 00       		.byte	0
 1799 0cd7 0C       		.uleb128 0xc
 1800 0cd8 04       		.byte	0x4
 1801 0cd9 BE0C0000 		.4byte	0xcbe
 1802 0cdd 17       		.uleb128 0x17
 1803 0cde 10       		.byte	0x10
 1804 0cdf 18       		.byte	0x18
 1805 0ce0 44       		.byte	0x44
 1806 0ce1 160D0000 		.4byte	0xd16
 1807 0ce5 08       		.uleb128 0x8
 1808 0ce6 120C0000 		.4byte	.LASF51
 1809 0cea 18       		.byte	0x18
 1810 0ceb 45       		.byte	0x45
 1811 0cec D70C0000 		.4byte	0xcd7
 1812 0cf0 00       		.byte	0
 1813 0cf1 08       		.uleb128 0x8
 1814 0cf2 A20A0000 		.4byte	.LASF182
 1815 0cf6 18       		.byte	0x18
 1816 0cf7 46       		.byte	0x46
 1817 0cf8 2C000000 		.4byte	0x2c
 1818 0cfc 04       		.byte	0x4
 1819 0cfd 08       		.uleb128 0x8
 1820 0cfe FD060000 		.4byte	.LASF183
 1821 0d02 18       		.byte	0x18
 1822 0d03 48       		.byte	0x48
 1823 0d04 3C000000 		.4byte	0x3c
 1824 0d08 08       		.byte	0x8
ARM GAS  /var/folders/vd/czx34qs52cd_f3nb04sxmghc0000gn/T//cc0YHMts.s 			page 33


 1825 0d09 08       		.uleb128 0x8
 1826 0d0a 76000000 		.4byte	.LASF184
 1827 0d0e 18       		.byte	0x18
 1828 0d0f 49       		.byte	0x49
 1829 0d10 5C0C0000 		.4byte	0xc5c
 1830 0d14 0C       		.byte	0xc
 1831 0d15 00       		.byte	0
 1832 0d16 03       		.uleb128 0x3
 1833 0d17 8C090000 		.4byte	.LASF185
 1834 0d1b 18       		.byte	0x18
 1835 0d1c 4B       		.byte	0x4b
 1836 0d1d DD0C0000 		.4byte	0xcdd
 1837 0d21 07       		.uleb128 0x7
 1838 0d22 B4000000 		.4byte	.LASF186
 1839 0d26 10       		.byte	0x10
 1840 0d27 19       		.byte	0x19
 1841 0d28 97       		.byte	0x97
 1842 0d29 520D0000 		.4byte	0xd52
 1843 0d2d 08       		.uleb128 0x8
 1844 0d2e 120C0000 		.4byte	.LASF51
 1845 0d32 19       		.byte	0x19
 1846 0d33 9B       		.byte	0x9b
 1847 0d34 520D0000 		.4byte	0xd52
 1848 0d38 00       		.byte	0
 1849 0d39 08       		.uleb128 0x8
 1850 0d3a 1B090000 		.4byte	.LASF40
 1851 0d3e 19       		.byte	0x19
 1852 0d3f 9F       		.byte	0x9f
 1853 0d40 62010000 		.4byte	0x162
 1854 0d44 04       		.byte	0x4
 1855 0d45 08       		.uleb128 0x8
 1856 0d46 F4090000 		.4byte	.LASF36
 1857 0d4a 19       		.byte	0x19
 1858 0d4b A1       		.byte	0xa1
 1859 0d4c 580D0000 		.4byte	0xd58
 1860 0d50 08       		.byte	0x8
 1861 0d51 00       		.byte	0
 1862 0d52 0C       		.uleb128 0xc
 1863 0d53 04       		.byte	0x4
 1864 0d54 210D0000 		.4byte	0xd21
 1865 0d58 11       		.uleb128 0x11
 1866 0d59 800A0000 		.4byte	0xa80
 1867 0d5d 680D0000 		.4byte	0xd68
 1868 0d61 12       		.uleb128 0x12
 1869 0d62 3C000000 		.4byte	0x3c
 1870 0d66 07       		.byte	0x7
 1871 0d67 00       		.byte	0
 1872 0d68 03       		.uleb128 0x3
 1873 0d69 BE030000 		.4byte	.LASF187
 1874 0d6d 19       		.byte	0x19
 1875 0d6e A5       		.byte	0xa5
 1876 0d6f 210D0000 		.4byte	0xd21
 1877 0d73 07       		.uleb128 0x7
 1878 0d74 1C0C0000 		.4byte	.LASF188
 1879 0d78 04       		.byte	0x4
 1880 0d79 19       		.byte	0x19
 1881 0d7a AA       		.byte	0xaa
ARM GAS  /var/folders/vd/czx34qs52cd_f3nb04sxmghc0000gn/T//cc0YHMts.s 			page 34


 1882 0d7b 8C0D0000 		.4byte	0xd8c
 1883 0d7f 08       		.uleb128 0x8
 1884 0d80 120C0000 		.4byte	.LASF51
 1885 0d84 19       		.byte	0x19
 1886 0d85 AB       		.byte	0xab
 1887 0d86 8C0D0000 		.4byte	0xd8c
 1888 0d8a 00       		.byte	0
 1889 0d8b 00       		.byte	0
 1890 0d8c 0C       		.uleb128 0xc
 1891 0d8d 04       		.byte	0x4
 1892 0d8e 680D0000 		.4byte	0xd68
 1893 0d92 03       		.uleb128 0x3
 1894 0d93 8C0A0000 		.4byte	.LASF189
 1895 0d97 19       		.byte	0x19
 1896 0d98 AC       		.byte	0xac
 1897 0d99 730D0000 		.4byte	0xd73
 1898 0d9d 0D       		.uleb128 0xd
 1899 0d9e B3060000 		.4byte	.LASF190
 1900 0da2 44       		.byte	0x44
 1901 0da3 19       		.byte	0x19
 1902 0da4 1501     		.2byte	0x115
 1903 0da6 130E0000 		.4byte	0xe13
 1904 0daa 0A       		.uleb128 0xa
 1905 0dab 6D747800 		.ascii	"mtx\000"
 1906 0daf 19       		.byte	0x19
 1907 0db0 1A01     		.2byte	0x11a
 1908 0db2 C60B0000 		.4byte	0xbc6
 1909 0db6 00       		.byte	0
 1910 0db7 0B       		.uleb128 0xb
 1911 0db8 F2000000 		.4byte	.LASF191
 1912 0dbc 19       		.byte	0x19
 1913 0dbd 2101     		.2byte	0x121
 1914 0dbf 920D0000 		.4byte	0xd92
 1915 0dc3 10       		.byte	0x10
 1916 0dc4 0B       		.uleb128 0xb
 1917 0dc5 EB010000 		.4byte	.LASF192
 1918 0dc9 19       		.byte	0x19
 1919 0dca 2501     		.2byte	0x125
 1920 0dcc 160D0000 		.4byte	0xd16
 1921 0dd0 14       		.byte	0x14
 1922 0dd1 0B       		.uleb128 0xb
 1923 0dd2 67080000 		.4byte	.LASF193
 1924 0dd6 19       		.byte	0x19
 1925 0dd7 2A01     		.2byte	0x12a
 1926 0dd9 920D0000 		.4byte	0xd92
 1927 0ddd 24       		.byte	0x24
 1928 0dde 0B       		.uleb128 0xb
 1929 0ddf 13030000 		.4byte	.LASF194
 1930 0de3 19       		.byte	0x19
 1931 0de4 3001     		.2byte	0x130
 1932 0de6 920D0000 		.4byte	0xd92
 1933 0dea 28       		.byte	0x28
 1934 0deb 0B       		.uleb128 0xb
 1935 0dec F0030000 		.4byte	.LASF195
 1936 0df0 19       		.byte	0x19
 1937 0df1 3401     		.2byte	0x134
 1938 0df3 160D0000 		.4byte	0xd16
ARM GAS  /var/folders/vd/czx34qs52cd_f3nb04sxmghc0000gn/T//cc0YHMts.s 			page 35


 1939 0df7 2C       		.byte	0x2c
 1940 0df8 0B       		.uleb128 0xb
 1941 0df9 38090000 		.4byte	.LASF196
 1942 0dfd 19       		.byte	0x19
 1943 0dfe 3A01     		.2byte	0x13a
 1944 0e00 920D0000 		.4byte	0xd92
 1945 0e04 3C       		.byte	0x3c
 1946 0e05 0B       		.uleb128 0xb
 1947 0e06 F9040000 		.4byte	.LASF197
 1948 0e0a 19       		.byte	0x19
 1949 0e0b 4001     		.2byte	0x140
 1950 0e0d 920D0000 		.4byte	0xd92
 1951 0e11 40       		.byte	0x40
 1952 0e12 00       		.byte	0
 1953 0e13 16       		.uleb128 0x16
 1954 0e14 55080000 		.4byte	.LASF198
 1955 0e18 19       		.byte	0x19
 1956 0e19 4201     		.2byte	0x142
 1957 0e1b 9D0D0000 		.4byte	0xd9d
 1958 0e1f 13       		.uleb128 0x13
 1959 0e20 2D090000 		.4byte	.LASF199
 1960 0e24 19       		.byte	0x19
 1961 0e25 4D01     		.2byte	0x14d
 1962 0e27 130E0000 		.4byte	0xe13
 1963 0e2b 15       		.uleb128 0x15
 1964 0e2c 0C       		.byte	0xc
 1965 0e2d 1A       		.byte	0x1a
 1966 0e2e 6A01     		.2byte	0x16a
 1967 0e30 760E0000 		.4byte	0xe76
 1968 0e34 0B       		.uleb128 0xb
 1969 0e35 38010000 		.4byte	.LASF200
 1970 0e39 1A       		.byte	0x1a
 1971 0e3a 6B01     		.2byte	0x16b
 1972 0e3c 760E0000 		.4byte	0xe76
 1973 0e40 00       		.byte	0
 1974 0e41 0B       		.uleb128 0xb
 1975 0e42 F10B0000 		.4byte	.LASF201
 1976 0e46 1A       		.byte	0x1a
 1977 0e47 6C01     		.2byte	0x16c
 1978 0e49 7C0E0000 		.4byte	0xe7c
 1979 0e4d 04       		.byte	0x4
 1980 0e4e 0B       		.uleb128 0xb
 1981 0e4f 03030000 		.4byte	.LASF202
 1982 0e53 1A       		.byte	0x1a
 1983 0e54 6D01     		.2byte	0x16d
 1984 0e56 B9000000 		.4byte	0xb9
 1985 0e5a 08       		.byte	0x8
 1986 0e5b 0B       		.uleb128 0xb
 1987 0e5c 44070000 		.4byte	.LASF203
 1988 0e60 1A       		.byte	0x1a
 1989 0e61 6F01     		.2byte	0x16f
 1990 0e63 B9000000 		.4byte	0xb9
 1991 0e67 09       		.byte	0x9
 1992 0e68 0B       		.uleb128 0xb
 1993 0e69 26090000 		.4byte	.LASF204
 1994 0e6d 1A       		.byte	0x1a
 1995 0e6e 7001     		.2byte	0x170
ARM GAS  /var/folders/vd/czx34qs52cd_f3nb04sxmghc0000gn/T//cc0YHMts.s 			page 36


 1996 0e70 B9000000 		.4byte	0xb9
 1997 0e74 0A       		.byte	0xa
 1998 0e75 00       		.byte	0
 1999 0e76 0C       		.uleb128 0xc
 2000 0e77 04       		.byte	0x4
 2001 0e78 83050000 		.4byte	0x583
 2002 0e7c 0C       		.uleb128 0xc
 2003 0e7d 04       		.byte	0x4
 2004 0e7e EF000000 		.4byte	0xef
 2005 0e82 16       		.uleb128 0x16
 2006 0e83 0D000000 		.4byte	.LASF205
 2007 0e87 1A       		.byte	0x1a
 2008 0e88 7101     		.2byte	0x171
 2009 0e8a 2B0E0000 		.4byte	0xe2b
 2010 0e8e 06       		.uleb128 0x6
 2011 0e8f 820E0000 		.4byte	0xe82
 2012 0e93 11       		.uleb128 0x11
 2013 0e94 8E0E0000 		.4byte	0xe8e
 2014 0e98 A30E0000 		.4byte	0xea3
 2015 0e9c 12       		.uleb128 0x12
 2016 0e9d 3C000000 		.4byte	0x3c
 2017 0ea1 0F       		.byte	0xf
 2018 0ea2 00       		.byte	0
 2019 0ea3 06       		.uleb128 0x6
 2020 0ea4 930E0000 		.4byte	0xe93
 2021 0ea8 13       		.uleb128 0x13
 2022 0ea9 E6040000 		.4byte	.LASF206
 2023 0ead 1A       		.byte	0x1a
 2024 0eae 5C02     		.2byte	0x25c
 2025 0eb0 A30E0000 		.4byte	0xea3
 2026 0eb4 1D       		.uleb128 0x1d
 2027 0eb5 2C000000 		.4byte	0x2c
 2028 0eb9 CD0E0000 		.4byte	0xecd
 2029 0ebd 0F       		.uleb128 0xf
 2030 0ebe 3E030000 		.4byte	0x33e
 2031 0ec2 0F       		.uleb128 0xf
 2032 0ec3 CD0E0000 		.4byte	0xecd
 2033 0ec7 0F       		.uleb128 0xf
 2034 0ec8 2C000000 		.4byte	0x2c
 2035 0ecc 00       		.byte	0
 2036 0ecd 0C       		.uleb128 0xc
 2037 0ece 04       		.byte	0x4
 2038 0ecf C4000000 		.4byte	0xc4
 2039 0ed3 0C       		.uleb128 0xc
 2040 0ed4 04       		.byte	0x4
 2041 0ed5 B40E0000 		.4byte	0xeb4
 2042 0ed9 1D       		.uleb128 0x1d
 2043 0eda 2C000000 		.4byte	0x2c
 2044 0ede F20E0000 		.4byte	0xef2
 2045 0ee2 0F       		.uleb128 0xf
 2046 0ee3 3E030000 		.4byte	0x33e
 2047 0ee7 0F       		.uleb128 0xf
 2048 0ee8 A20C0000 		.4byte	0xca2
 2049 0eec 0F       		.uleb128 0xf
 2050 0eed 2C000000 		.4byte	0x2c
 2051 0ef1 00       		.byte	0
 2052 0ef2 0C       		.uleb128 0xc
ARM GAS  /var/folders/vd/czx34qs52cd_f3nb04sxmghc0000gn/T//cc0YHMts.s 			page 37


 2053 0ef3 04       		.byte	0x4
 2054 0ef4 D90E0000 		.4byte	0xed9
 2055 0ef8 1D       		.uleb128 0x1d
 2056 0ef9 36010000 		.4byte	0x136
 2057 0efd 0C0F0000 		.4byte	0xf0c
 2058 0f01 0F       		.uleb128 0xf
 2059 0f02 3E030000 		.4byte	0x33e
 2060 0f06 0F       		.uleb128 0xf
 2061 0f07 B9000000 		.4byte	0xb9
 2062 0f0b 00       		.byte	0
 2063 0f0c 0C       		.uleb128 0xc
 2064 0f0d 04       		.byte	0x4
 2065 0f0e F80E0000 		.4byte	0xef8
 2066 0f12 1D       		.uleb128 0x1d
 2067 0f13 36010000 		.4byte	0x136
 2068 0f17 210F0000 		.4byte	0xf21
 2069 0f1b 0F       		.uleb128 0xf
 2070 0f1c 3E030000 		.4byte	0x33e
 2071 0f20 00       		.byte	0
 2072 0f21 0C       		.uleb128 0xc
 2073 0f22 04       		.byte	0x4
 2074 0f23 120F0000 		.4byte	0xf12
 2075 0f27 1D       		.uleb128 0x1d
 2076 0f28 36010000 		.4byte	0x136
 2077 0f2c 400F0000 		.4byte	0xf40
 2078 0f30 0F       		.uleb128 0xf
 2079 0f31 3E030000 		.4byte	0x33e
 2080 0f35 0F       		.uleb128 0xf
 2081 0f36 B9000000 		.4byte	0xb9
 2082 0f3a 0F       		.uleb128 0xf
 2083 0f3b 71040000 		.4byte	0x471
 2084 0f3f 00       		.byte	0
 2085 0f40 0C       		.uleb128 0xc
 2086 0f41 04       		.byte	0x4
 2087 0f42 270F0000 		.4byte	0xf27
 2088 0f46 1D       		.uleb128 0x1d
 2089 0f47 36010000 		.4byte	0x136
 2090 0f4b 5A0F0000 		.4byte	0xf5a
 2091 0f4f 0F       		.uleb128 0xf
 2092 0f50 3E030000 		.4byte	0x33e
 2093 0f54 0F       		.uleb128 0xf
 2094 0f55 71040000 		.4byte	0x471
 2095 0f59 00       		.byte	0
 2096 0f5a 0C       		.uleb128 0xc
 2097 0f5b 04       		.byte	0x4
 2098 0f5c 460F0000 		.4byte	0xf46
 2099 0f60 1D       		.uleb128 0x1d
 2100 0f61 2C000000 		.4byte	0x2c
 2101 0f65 7E0F0000 		.4byte	0xf7e
 2102 0f69 0F       		.uleb128 0xf
 2103 0f6a 3E030000 		.4byte	0x33e
 2104 0f6e 0F       		.uleb128 0xf
 2105 0f6f CD0E0000 		.4byte	0xecd
 2106 0f73 0F       		.uleb128 0xf
 2107 0f74 2C000000 		.4byte	0x2c
 2108 0f78 0F       		.uleb128 0xf
 2109 0f79 71040000 		.4byte	0x471
ARM GAS  /var/folders/vd/czx34qs52cd_f3nb04sxmghc0000gn/T//cc0YHMts.s 			page 38


 2110 0f7d 00       		.byte	0
 2111 0f7e 0C       		.uleb128 0xc
 2112 0f7f 04       		.byte	0x4
 2113 0f80 600F0000 		.4byte	0xf60
 2114 0f84 1D       		.uleb128 0x1d
 2115 0f85 2C000000 		.4byte	0x2c
 2116 0f89 A20F0000 		.4byte	0xfa2
 2117 0f8d 0F       		.uleb128 0xf
 2118 0f8e 3E030000 		.4byte	0x33e
 2119 0f92 0F       		.uleb128 0xf
 2120 0f93 A20C0000 		.4byte	0xca2
 2121 0f97 0F       		.uleb128 0xf
 2122 0f98 2C000000 		.4byte	0x2c
 2123 0f9c 0F       		.uleb128 0xf
 2124 0f9d 71040000 		.4byte	0x471
 2125 0fa1 00       		.byte	0
 2126 0fa2 0C       		.uleb128 0xc
 2127 0fa3 04       		.byte	0x4
 2128 0fa4 840F0000 		.4byte	0xf84
 2129 0fa8 1D       		.uleb128 0x1d
 2130 0fa9 36010000 		.4byte	0x136
 2131 0fad C10F0000 		.4byte	0xfc1
 2132 0fb1 0F       		.uleb128 0xf
 2133 0fb2 3E030000 		.4byte	0x33e
 2134 0fb6 0F       		.uleb128 0xf
 2135 0fb7 3C000000 		.4byte	0x3c
 2136 0fbb 0F       		.uleb128 0xf
 2137 0fbc 3E030000 		.4byte	0x33e
 2138 0fc0 00       		.byte	0
 2139 0fc1 0C       		.uleb128 0xc
 2140 0fc2 04       		.byte	0x4
 2141 0fc3 A80F0000 		.4byte	0xfa8
 2142 0fc7 03       		.uleb128 0x3
 2143 0fc8 970A0000 		.4byte	.LASF207
 2144 0fcc 1B       		.byte	0x1b
 2145 0fcd 3A       		.byte	0x3a
 2146 0fce D20F0000 		.4byte	0xfd2
 2147 0fd2 07       		.uleb128 0x7
 2148 0fd3 0E020000 		.4byte	.LASF208
 2149 0fd7 24       		.byte	0x24
 2150 0fd8 1B       		.byte	0x1b
 2151 0fd9 4B       		.byte	0x4b
 2152 0fda 3F100000 		.4byte	0x103f
 2153 0fde 08       		.uleb128 0x8
 2154 0fdf 9A090000 		.4byte	.LASF209
 2155 0fe3 1B       		.byte	0x1b
 2156 0fe4 4C       		.byte	0x4c
 2157 0fe5 8B020000 		.4byte	0x28b
 2158 0fe9 00       		.byte	0
 2159 0fea 08       		.uleb128 0x8
 2160 0feb 1B040000 		.4byte	.LASF210
 2161 0fef 1B       		.byte	0x1b
 2162 0ff0 4D       		.byte	0x4d
 2163 0ff1 37000000 		.4byte	0x37
 2164 0ff5 08       		.byte	0x8
 2165 0ff6 08       		.uleb128 0x8
 2166 0ff7 4F010000 		.4byte	.LASF211
ARM GAS  /var/folders/vd/czx34qs52cd_f3nb04sxmghc0000gn/T//cc0YHMts.s 			page 39


 2167 0ffb 1B       		.byte	0x1b
 2168 0ffc 4E       		.byte	0x4e
 2169 0ffd A20C0000 		.4byte	0xca2
 2170 1001 0C       		.byte	0xc
 2171 1002 08       		.uleb128 0x8
 2172 1003 32010000 		.4byte	.LASF212
 2173 1007 1B       		.byte	0x1b
 2174 1008 4F       		.byte	0x4f
 2175 1009 A20C0000 		.4byte	0xca2
 2176 100d 10       		.byte	0x10
 2177 100e 08       		.uleb128 0x8
 2178 100f 910B0000 		.4byte	.LASF213
 2179 1013 1B       		.byte	0x1b
 2180 1014 51       		.byte	0x51
 2181 1015 A20C0000 		.4byte	0xca2
 2182 1019 14       		.byte	0x14
 2183 101a 08       		.uleb128 0x8
 2184 101b 7F010000 		.4byte	.LASF214
 2185 101f 1B       		.byte	0x1b
 2186 1020 52       		.byte	0x52
 2187 1021 A20C0000 		.4byte	0xca2
 2188 1025 18       		.byte	0x18
 2189 1026 08       		.uleb128 0x8
 2190 1027 58010000 		.4byte	.LASF215
 2191 102b 1B       		.byte	0x1b
 2192 102c 53       		.byte	0x53
 2193 102d 3F100000 		.4byte	0x103f
 2194 1031 1C       		.byte	0x1c
 2195 1032 08       		.uleb128 0x8
 2196 1033 CF010000 		.4byte	.LASF216
 2197 1037 1B       		.byte	0x1b
 2198 1038 54       		.byte	0x54
 2199 1039 3E030000 		.4byte	0x33e
 2200 103d 20       		.byte	0x20
 2201 103e 00       		.byte	0
 2202 103f 03       		.uleb128 0x3
 2203 1040 24070000 		.4byte	.LASF217
 2204 1044 1B       		.byte	0x1b
 2205 1045 41       		.byte	0x41
 2206 1046 4A100000 		.4byte	0x104a
 2207 104a 0C       		.uleb128 0xc
 2208 104b 04       		.byte	0x4
 2209 104c 50100000 		.4byte	0x1050
 2210 1050 0E       		.uleb128 0xe
 2211 1051 5B100000 		.4byte	0x105b
 2212 1055 0F       		.uleb128 0xf
 2213 1056 5B100000 		.4byte	0x105b
 2214 105a 00       		.byte	0
 2215 105b 0C       		.uleb128 0xc
 2216 105c 04       		.byte	0x4
 2217 105d C70F0000 		.4byte	0xfc7
 2218 1061 03       		.uleb128 0x3
 2219 1062 6D0B0000 		.4byte	.LASF218
 2220 1066 1B       		.byte	0x1b
 2221 1067 61       		.byte	0x61
 2222 1068 C70F0000 		.4byte	0xfc7
 2223 106c 03       		.uleb128 0x3
ARM GAS  /var/folders/vd/czx34qs52cd_f3nb04sxmghc0000gn/T//cc0YHMts.s 			page 40


 2224 106d C20B0000 		.4byte	.LASF219
 2225 1071 1B       		.byte	0x1b
 2226 1072 6D       		.byte	0x6d
 2227 1073 C70F0000 		.4byte	0xfc7
 2228 1077 1E       		.uleb128 0x1e
 2229 1078 00       		.byte	0
 2230 1079 1C       		.byte	0x1c
 2231 107a 99       		.byte	0x99
 2232 107b 03       		.uleb128 0x3
 2233 107c 36030000 		.4byte	.LASF220
 2234 1080 1C       		.byte	0x1c
 2235 1081 AA       		.byte	0xaa
 2236 1082 77100000 		.4byte	0x1077
 2237 1086 11       		.uleb128 0x11
 2238 1087 7B100000 		.4byte	0x107b
 2239 108b 96100000 		.4byte	0x1096
 2240 108f 12       		.uleb128 0x12
 2241 1090 3C000000 		.4byte	0x3c
 2242 1094 0F       		.byte	0xf
 2243 1095 00       		.byte	0
 2244 1096 13       		.uleb128 0x13
 2245 1097 FD070000 		.4byte	.LASF221
 2246 109b 1D       		.byte	0x1d
 2247 109c DA01     		.2byte	0x1da
 2248 109e 86100000 		.4byte	0x1086
 2249 10a2 1F       		.uleb128 0x1f
 2250 10a3 07       		.byte	0x7
 2251 10a4 01       		.byte	0x1
 2252 10a5 63000000 		.4byte	0x63
 2253 10a9 1E       		.byte	0x1e
 2254 10aa 4A       		.byte	0x4a
 2255 10ab C2100000 		.4byte	0x10c2
 2256 10af 20       		.uleb128 0x20
 2257 10b0 05010000 		.4byte	.LASF222
 2258 10b4 00       		.byte	0
 2259 10b5 20       		.uleb128 0x20
 2260 10b6 D1080000 		.4byte	.LASF223
 2261 10ba 01       		.byte	0x1
 2262 10bb 20       		.uleb128 0x20
 2263 10bc 1A0A0000 		.4byte	.LASF224
 2264 10c0 02       		.byte	0x2
 2265 10c1 00       		.byte	0
 2266 10c2 03       		.uleb128 0x3
 2267 10c3 030B0000 		.4byte	.LASF225
 2268 10c7 1E       		.byte	0x1e
 2269 10c8 4E       		.byte	0x4e
 2270 10c9 A2100000 		.4byte	0x10a2
 2271 10cd 03       		.uleb128 0x3
 2272 10ce C2070000 		.4byte	.LASF226
 2273 10d2 1E       		.byte	0x1e
 2274 10d3 53       		.byte	0x53
 2275 10d4 D8100000 		.4byte	0x10d8
 2276 10d8 0D       		.uleb128 0xd
 2277 10d9 C2070000 		.4byte	.LASF226
 2278 10dd 1C       		.byte	0x1c
 2279 10de 1F       		.byte	0x1f
 2280 10df B201     		.2byte	0x1b2
ARM GAS  /var/folders/vd/czx34qs52cd_f3nb04sxmghc0000gn/T//cc0YHMts.s 			page 41


 2281 10e1 41110000 		.4byte	0x1141
 2282 10e5 0B       		.uleb128 0xb
 2283 10e6 D6000000 		.4byte	.LASF38
 2284 10ea 1F       		.byte	0x1f
 2285 10eb B601     		.2byte	0x1b6
 2286 10ed C2100000 		.4byte	0x10c2
 2287 10f1 00       		.byte	0
 2288 10f2 0B       		.uleb128 0xb
 2289 10f3 CF000000 		.4byte	.LASF227
 2290 10f7 1F       		.byte	0x1f
 2291 10f8 BA01     		.2byte	0x1ba
 2292 10fa 3C120000 		.4byte	0x123c
 2293 10fe 04       		.byte	0x4
 2294 10ff 0B       		.uleb128 0xb
 2295 1100 51090000 		.4byte	.LASF228
 2296 1104 1F       		.byte	0x1f
 2297 1105 BE01     		.2byte	0x1be
 2298 1107 87110000 		.4byte	0x1187
 2299 110b 08       		.byte	0x8
 2300 110c 0B       		.uleb128 0xb
 2301 110d 25040000 		.4byte	.LASF229
 2302 1111 1F       		.byte	0x1f
 2303 1112 C201     		.2byte	0x1c2
 2304 1114 7B110000 		.4byte	0x117b
 2305 1118 0C       		.byte	0xc
 2306 1119 0B       		.uleb128 0xb
 2307 111a 76070000 		.4byte	.LASF230
 2308 111e 1F       		.byte	0x1f
 2309 111f C601     		.2byte	0x1c6
 2310 1121 6F110000 		.4byte	0x116f
 2311 1125 10       		.byte	0x10
 2312 1126 0B       		.uleb128 0xb
 2313 1127 52050000 		.4byte	.LASF231
 2314 112b 1F       		.byte	0x1f
 2315 112c CE01     		.2byte	0x1ce
 2316 112e E4000000 		.4byte	0xe4
 2317 1132 14       		.byte	0x14
 2318 1133 0A       		.uleb128 0xa
 2319 1134 74696D00 		.ascii	"tim\000"
 2320 1138 1F       		.byte	0x1f
 2321 1139 D201     		.2byte	0x1d2
 2322 113b 42120000 		.4byte	0x1242
 2323 113f 18       		.byte	0x18
 2324 1140 00       		.byte	0
 2325 1141 03       		.uleb128 0x3
 2326 1142 99070000 		.4byte	.LASF232
 2327 1146 1E       		.byte	0x1e
 2328 1147 5A       		.byte	0x5a
 2329 1148 4C110000 		.4byte	0x114c
 2330 114c 0C       		.uleb128 0xc
 2331 114d 04       		.byte	0x4
 2332 114e 52110000 		.4byte	0x1152
 2333 1152 0E       		.uleb128 0xe
 2334 1153 5D110000 		.4byte	0x115d
 2335 1157 0F       		.uleb128 0xf
 2336 1158 5D110000 		.4byte	0x115d
 2337 115c 00       		.byte	0
ARM GAS  /var/folders/vd/czx34qs52cd_f3nb04sxmghc0000gn/T//cc0YHMts.s 			page 42


 2338 115d 0C       		.uleb128 0xc
 2339 115e 04       		.byte	0x4
 2340 115f CD100000 		.4byte	0x10cd
 2341 1163 16       		.uleb128 0x16
 2342 1164 A7030000 		.4byte	.LASF233
 2343 1168 1F       		.byte	0x1f
 2344 1169 5E01     		.2byte	0x15e
 2345 116b E4000000 		.4byte	0xe4
 2346 116f 16       		.uleb128 0x16
 2347 1170 D6010000 		.4byte	.LASF234
 2348 1174 1F       		.byte	0x1f
 2349 1175 6301     		.2byte	0x163
 2350 1177 B9000000 		.4byte	0xb9
 2351 117b 16       		.uleb128 0x16
 2352 117c C3000000 		.4byte	.LASF235
 2353 1180 1F       		.byte	0x1f
 2354 1181 6801     		.2byte	0x168
 2355 1183 E4000000 		.4byte	0xe4
 2356 1187 16       		.uleb128 0x16
 2357 1188 44020000 		.4byte	.LASF236
 2358 118c 1F       		.byte	0x1f
 2359 118d 6D01     		.2byte	0x16d
 2360 118f E4000000 		.4byte	0xe4
 2361 1193 15       		.uleb128 0x15
 2362 1194 08       		.byte	0x8
 2363 1195 1F       		.byte	0x1f
 2364 1196 7201     		.2byte	0x172
 2365 1198 B7110000 		.4byte	0x11b7
 2366 119c 0B       		.uleb128 0xb
 2367 119d 500A0000 		.4byte	.LASF237
 2368 11a1 1F       		.byte	0x1f
 2369 11a2 7601     		.2byte	0x176
 2370 11a4 63110000 		.4byte	0x1163
 2371 11a8 00       		.byte	0
 2372 11a9 0B       		.uleb128 0xb
 2373 11aa 61010000 		.4byte	.LASF238
 2374 11ae 1F       		.byte	0x1f
 2375 11af 7C01     		.2byte	0x17c
 2376 11b1 41110000 		.4byte	0x1141
 2377 11b5 04       		.byte	0x4
 2378 11b6 00       		.byte	0
 2379 11b7 16       		.uleb128 0x16
 2380 11b8 E1000000 		.4byte	.LASF239
 2381 11bc 1F       		.byte	0x1f
 2382 11bd 7E01     		.2byte	0x17e
 2383 11bf 93110000 		.4byte	0x1193
 2384 11c3 15       		.uleb128 0x15
 2385 11c4 34       		.byte	0x34
 2386 11c5 1F       		.byte	0x1f
 2387 11c6 8301     		.2byte	0x183
 2388 11c8 1B120000 		.4byte	0x121b
 2389 11cc 0B       		.uleb128 0xb
 2390 11cd 10070000 		.4byte	.LASF240
 2391 11d1 1F       		.byte	0x1f
 2392 11d2 8901     		.2byte	0x189
 2393 11d4 E4000000 		.4byte	0xe4
 2394 11d8 00       		.byte	0
ARM GAS  /var/folders/vd/czx34qs52cd_f3nb04sxmghc0000gn/T//cc0YHMts.s 			page 43


 2395 11d9 0B       		.uleb128 0xb
 2396 11da 51090000 		.4byte	.LASF228
 2397 11de 1F       		.byte	0x1f
 2398 11df 8F01     		.2byte	0x18f
 2399 11e1 87110000 		.4byte	0x1187
 2400 11e5 04       		.byte	0x4
 2401 11e6 0B       		.uleb128 0xb
 2402 11e7 61010000 		.4byte	.LASF238
 2403 11eb 1F       		.byte	0x1f
 2404 11ec 9501     		.2byte	0x195
 2405 11ee 41110000 		.4byte	0x1141
 2406 11f2 08       		.byte	0x8
 2407 11f3 0B       		.uleb128 0xb
 2408 11f4 76070000 		.4byte	.LASF230
 2409 11f8 1F       		.byte	0x1f
 2410 11f9 9901     		.2byte	0x199
 2411 11fb 1B120000 		.4byte	0x121b
 2412 11ff 0C       		.byte	0xc
 2413 1200 0A       		.uleb128 0xa
 2414 1201 63723200 		.ascii	"cr2\000"
 2415 1205 1F       		.byte	0x1f
 2416 1206 9F01     		.2byte	0x19f
 2417 1208 E4000000 		.4byte	0xe4
 2418 120c 2C       		.byte	0x2c
 2419 120d 0B       		.uleb128 0xb
 2420 120e 00010000 		.4byte	.LASF241
 2421 1212 1F       		.byte	0x1f
 2422 1213 AC01     		.2byte	0x1ac
 2423 1215 E4000000 		.4byte	0xe4
 2424 1219 30       		.byte	0x30
 2425 121a 00       		.byte	0
 2426 121b 11       		.uleb128 0x11
 2427 121c B7110000 		.4byte	0x11b7
 2428 1220 2B120000 		.4byte	0x122b
 2429 1224 12       		.uleb128 0x12
 2430 1225 3C000000 		.4byte	0x3c
 2431 1229 03       		.byte	0x3
 2432 122a 00       		.byte	0
 2433 122b 16       		.uleb128 0x16
 2434 122c BD0A0000 		.4byte	.LASF242
 2435 1230 1F       		.byte	0x1f
 2436 1231 AD01     		.2byte	0x1ad
 2437 1233 C3110000 		.4byte	0x11c3
 2438 1237 06       		.uleb128 0x6
 2439 1238 2B120000 		.4byte	0x122b
 2440 123c 0C       		.uleb128 0xc
 2441 123d 04       		.byte	0x4
 2442 123e 37120000 		.4byte	0x1237
 2443 1242 0C       		.uleb128 0xc
 2444 1243 04       		.byte	0x4
 2445 1244 7F090000 		.4byte	0x97f
 2446 1248 13       		.uleb128 0x13
 2447 1249 F30A0000 		.4byte	.LASF243
 2448 124d 1F       		.byte	0x1f
 2449 124e FD01     		.2byte	0x1fd
 2450 1250 CD100000 		.4byte	0x10cd
 2451 1254 1F       		.uleb128 0x1f
ARM GAS  /var/folders/vd/czx34qs52cd_f3nb04sxmghc0000gn/T//cc0YHMts.s 			page 44


 2452 1255 07       		.byte	0x7
 2453 1256 01       		.byte	0x1
 2454 1257 63000000 		.4byte	0x63
 2455 125b 20       		.byte	0x20
 2456 125c 58       		.byte	0x58
 2457 125d 74120000 		.4byte	0x1274
 2458 1261 20       		.uleb128 0x20
 2459 1262 C2020000 		.4byte	.LASF244
 2460 1266 00       		.byte	0
 2461 1267 20       		.uleb128 0x20
 2462 1268 E40B0000 		.4byte	.LASF245
 2463 126c 01       		.byte	0x1
 2464 126d 20       		.uleb128 0x20
 2465 126e C4090000 		.4byte	.LASF246
 2466 1272 02       		.byte	0x2
 2467 1273 00       		.byte	0
 2468 1274 03       		.uleb128 0x3
 2469 1275 B2090000 		.4byte	.LASF247
 2470 1279 20       		.byte	0x20
 2471 127a 5C       		.byte	0x5c
 2472 127b 54120000 		.4byte	0x1254
 2473 127f 03       		.uleb128 0x3
 2474 1280 7F090000 		.4byte	.LASF248
 2475 1284 20       		.byte	0x20
 2476 1285 61       		.byte	0x61
 2477 1286 8A120000 		.4byte	0x128a
 2478 128a 07       		.uleb128 0x7
 2479 128b 7F090000 		.4byte	.LASF248
 2480 128f 7C       		.byte	0x7c
 2481 1290 20       		.byte	0x20
 2482 1291 7B       		.byte	0x7b
 2483 1292 01130000 		.4byte	0x1301
 2484 1296 09       		.uleb128 0x9
 2485 1297 766D7400 		.ascii	"vmt\000"
 2486 129b 20       		.byte	0x20
 2487 129c 7D       		.byte	0x7d
 2488 129d 97130000 		.4byte	0x1397
 2489 12a1 00       		.byte	0
 2490 12a2 08       		.uleb128 0x8
 2491 12a3 65040000 		.4byte	.LASF249
 2492 12a7 20       		.byte	0x20
 2493 12a8 7E       		.byte	0x7e
 2494 12a9 4A0C0000 		.4byte	0xc4a
 2495 12ad 04       		.byte	0x4
 2496 12ae 08       		.uleb128 0x8
 2497 12af D6000000 		.4byte	.LASF38
 2498 12b3 20       		.byte	0x20
 2499 12b4 7E       		.byte	0x7e
 2500 12b5 74120000 		.4byte	0x1274
 2501 12b9 08       		.byte	0x8
 2502 12ba 08       		.uleb128 0x8
 2503 12bb 6C0A0000 		.4byte	.LASF250
 2504 12bf 20       		.byte	0x20
 2505 12c0 7E       		.byte	0x7e
 2506 12c1 61100000 		.4byte	0x1061
 2507 12c5 0C       		.byte	0xc
 2508 12c6 08       		.uleb128 0x8
ARM GAS  /var/folders/vd/czx34qs52cd_f3nb04sxmghc0000gn/T//cc0YHMts.s 			page 45


 2509 12c7 BF010000 		.4byte	.LASF251
 2510 12cb 20       		.byte	0x20
 2511 12cc 7E       		.byte	0x7e
 2512 12cd 6C100000 		.4byte	0x106c
 2513 12d1 30       		.byte	0x30
 2514 12d2 09       		.uleb128 0x9
 2515 12d3 696200   		.ascii	"ib\000"
 2516 12d6 20       		.byte	0x20
 2517 12d7 7E       		.byte	0x7e
 2518 12d8 9D130000 		.4byte	0x139d
 2519 12dc 54       		.byte	0x54
 2520 12dd 09       		.uleb128 0x9
 2521 12de 6F6200   		.ascii	"ob\000"
 2522 12e1 20       		.byte	0x20
 2523 12e2 7E       		.byte	0x7e
 2524 12e3 9D130000 		.4byte	0x139d
 2525 12e7 64       		.byte	0x64
 2526 12e8 08       		.uleb128 0x8
 2527 12e9 FE010000 		.4byte	.LASF252
 2528 12ed 20       		.byte	0x20
 2529 12ee 7E       		.byte	0x7e
 2530 12ef AD130000 		.4byte	0x13ad
 2531 12f3 74       		.byte	0x74
 2532 12f4 08       		.uleb128 0x8
 2533 12f5 B7030000 		.4byte	.LASF253
 2534 12f9 20       		.byte	0x20
 2535 12fa 7E       		.byte	0x7e
 2536 12fb B9000000 		.4byte	0xb9
 2537 12ff 78       		.byte	0x78
 2538 1300 00       		.byte	0
 2539 1301 1B       		.uleb128 0x1b
 2540 1302 53443100 		.ascii	"SD1\000"
 2541 1306 21       		.byte	0x21
 2542 1307 4401     		.2byte	0x144
 2543 1309 7F120000 		.4byte	0x127f
 2544 130d 07       		.uleb128 0x7
 2545 130e 26050000 		.4byte	.LASF254
 2546 1312 28       		.byte	0x28
 2547 1313 20       		.byte	0x20
 2548 1314 70       		.byte	0x70
 2549 1315 92130000 		.4byte	0x1392
 2550 1319 08       		.uleb128 0x8
 2551 131a 5D0B0000 		.4byte	.LASF255
 2552 131e 20       		.byte	0x20
 2553 131f 71       		.byte	0x71
 2554 1320 2C000000 		.4byte	0x2c
 2555 1324 00       		.byte	0
 2556 1325 08       		.uleb128 0x8
 2557 1326 AE000000 		.4byte	.LASF256
 2558 132a 20       		.byte	0x20
 2559 132b 71       		.byte	0x71
 2560 132c D30E0000 		.4byte	0xed3
 2561 1330 04       		.byte	0x4
 2562 1331 08       		.uleb128 0x8
 2563 1332 35070000 		.4byte	.LASF257
 2564 1336 20       		.byte	0x20
 2565 1337 71       		.byte	0x71
ARM GAS  /var/folders/vd/czx34qs52cd_f3nb04sxmghc0000gn/T//cc0YHMts.s 			page 46


 2566 1338 F20E0000 		.4byte	0xef2
 2567 133c 08       		.byte	0x8
 2568 133d 09       		.uleb128 0x9
 2569 133e 70757400 		.ascii	"put\000"
 2570 1342 20       		.byte	0x20
 2571 1343 71       		.byte	0x71
 2572 1344 0C0F0000 		.4byte	0xf0c
 2573 1348 0C       		.byte	0xc
 2574 1349 09       		.uleb128 0x9
 2575 134a 67657400 		.ascii	"get\000"
 2576 134e 20       		.byte	0x20
 2577 134f 71       		.byte	0x71
 2578 1350 210F0000 		.4byte	0xf21
 2579 1354 10       		.byte	0x10
 2580 1355 08       		.uleb128 0x8
 2581 1356 DC000000 		.4byte	.LASF258
 2582 135a 20       		.byte	0x20
 2583 135b 71       		.byte	0x71
 2584 135c 400F0000 		.4byte	0xf40
 2585 1360 14       		.byte	0x14
 2586 1361 08       		.uleb128 0x8
 2587 1362 50030000 		.4byte	.LASF259
 2588 1366 20       		.byte	0x20
 2589 1367 71       		.byte	0x71
 2590 1368 5A0F0000 		.4byte	0xf5a
 2591 136c 18       		.byte	0x18
 2592 136d 08       		.uleb128 0x8
 2593 136e 87000000 		.4byte	.LASF260
 2594 1372 20       		.byte	0x20
 2595 1373 71       		.byte	0x71
 2596 1374 7E0F0000 		.4byte	0xf7e
 2597 1378 1C       		.byte	0x1c
 2598 1379 08       		.uleb128 0x8
 2599 137a 49010000 		.4byte	.LASF261
 2600 137e 20       		.byte	0x20
 2601 137f 71       		.byte	0x71
 2602 1380 A20F0000 		.4byte	0xfa2
 2603 1384 20       		.byte	0x20
 2604 1385 09       		.uleb128 0x9
 2605 1386 63746C00 		.ascii	"ctl\000"
 2606 138a 20       		.byte	0x20
 2607 138b 71       		.byte	0x71
 2608 138c C10F0000 		.4byte	0xfc1
 2609 1390 24       		.byte	0x24
 2610 1391 00       		.byte	0
 2611 1392 06       		.uleb128 0x6
 2612 1393 0D130000 		.4byte	0x130d
 2613 1397 0C       		.uleb128 0xc
 2614 1398 04       		.byte	0x4
 2615 1399 92130000 		.4byte	0x1392
 2616 139d 11       		.uleb128 0x11
 2617 139e B9000000 		.4byte	0xb9
 2618 13a2 AD130000 		.4byte	0x13ad
 2619 13a6 12       		.uleb128 0x12
 2620 13a7 3C000000 		.4byte	0x3c
 2621 13ab 0F       		.byte	0xf
 2622 13ac 00       		.byte	0
ARM GAS  /var/folders/vd/czx34qs52cd_f3nb04sxmghc0000gn/T//cc0YHMts.s 			page 47


 2623 13ad 0C       		.uleb128 0xc
 2624 13ae 04       		.byte	0x4
 2625 13af B7070000 		.4byte	0x7b7
 2626 13b3 21       		.uleb128 0x21
 2627 13b4 F2020000 		.4byte	.LASF262
 2628 13b8 01       		.byte	0x1
 2629 13b9 1901     		.2byte	0x119
 2630 13bb 00000000 		.4byte	.LFB314
 2631 13bf 50000000 		.4byte	.LFE314-.LFB314
 2632 13c3 01       		.uleb128 0x1
 2633 13c4 9C       		.byte	0x9c
 2634 13c5 DE130000 		.4byte	0x13de
 2635 13c9 22       		.uleb128 0x22
 2636 13ca 48000000 		.4byte	.LVL6
 2637 13ce 53150000 		.4byte	0x1553
 2638 13d2 23       		.uleb128 0x23
 2639 13d3 01       		.uleb128 0x1
 2640 13d4 50       		.byte	0x50
 2641 13d5 01       		.uleb128 0x1
 2642 13d6 4C       		.byte	0x4c
 2643 13d7 23       		.uleb128 0x23
 2644 13d8 01       		.uleb128 0x1
 2645 13d9 51       		.byte	0x51
 2646 13da 01       		.uleb128 0x1
 2647 13db 38       		.byte	0x38
 2648 13dc 00       		.byte	0
 2649 13dd 00       		.byte	0
 2650 13de 24       		.uleb128 0x24
 2651 13df 730A0000 		.4byte	.LASF263
 2652 13e3 01       		.byte	0x1
 2653 13e4 FD       		.byte	0xfd
 2654 13e5 00000000 		.4byte	.LFB313
 2655 13e9 2A000000 		.4byte	.LFE313-.LFB313
 2656 13ed 01       		.uleb128 0x1
 2657 13ee 9C       		.byte	0x9c
 2658 13ef E8140000 		.4byte	0x14e8
 2659 13f3 25       		.uleb128 0x25
 2660 13f4 FA140000 		.4byte	0x14fa
 2661 13f8 14000000 		.4byte	.LBB52
 2662 13fc 06000000 		.4byte	.LBE52-.LBB52
 2663 1400 01       		.byte	0x1
 2664 1401 0701     		.2byte	0x107
 2665 1403 55140000 		.4byte	0x1455
 2666 1407 26       		.uleb128 0x26
 2667 1408 0C150000 		.4byte	0x150c
 2668 140c 14000000 		.4byte	.LBB53
 2669 1410 06000000 		.4byte	.LBE53-.LBB53
 2670 1414 03       		.byte	0x3
 2671 1415 1502     		.2byte	0x215
 2672 1417 26       		.uleb128 0x26
 2673 1418 1E150000 		.4byte	0x151e
 2674 141c 14000000 		.4byte	.LBB54
 2675 1420 06000000 		.4byte	.LBE54-.LBB54
 2676 1424 14       		.byte	0x14
 2677 1425 8B01     		.2byte	0x18b
 2678 1427 26       		.uleb128 0x26
 2679 1428 30150000 		.4byte	0x1530
ARM GAS  /var/folders/vd/czx34qs52cd_f3nb04sxmghc0000gn/T//cc0YHMts.s 			page 48


 2680 142c 14000000 		.4byte	.LBB55
 2681 1430 06000000 		.4byte	.LBE55-.LBB55
 2682 1434 0F       		.byte	0xf
 2683 1435 7B02     		.2byte	0x27b
 2684 1437 26       		.uleb128 0x26
 2685 1438 39150000 		.4byte	0x1539
 2686 143c 14000000 		.4byte	.LBB56
 2687 1440 06000000 		.4byte	.LBE56-.LBB56
 2688 1444 0F       		.byte	0xf
 2689 1445 5A02     		.2byte	0x25a
 2690 1447 27       		.uleb128 0x27
 2691 1448 46150000 		.4byte	0x1546
 2692 144c 00000000 		.4byte	.LLST0
 2693 1450 00       		.byte	0
 2694 1451 00       		.byte	0
 2695 1452 00       		.byte	0
 2696 1453 00       		.byte	0
 2697 1454 00       		.byte	0
 2698 1455 25       		.uleb128 0x25
 2699 1456 E8140000 		.4byte	0x14e8
 2700 145a 1A000000 		.4byte	.LBB58
 2701 145e 04000000 		.4byte	.LBE58-.LBB58
 2702 1462 01       		.byte	0x1
 2703 1463 0801     		.2byte	0x108
 2704 1465 73140000 		.4byte	0x1473
 2705 1469 28       		.uleb128 0x28
 2706 146a 1E000000 		.4byte	.LVL3
 2707 146e 5E150000 		.4byte	0x155e
 2708 1472 00       		.byte	0
 2709 1473 25       		.uleb128 0x25
 2710 1474 F1140000 		.4byte	0x14f1
 2711 1478 1E000000 		.4byte	.LBB60
 2712 147c 04000000 		.4byte	.LBE60-.LBB60
 2713 1480 01       		.byte	0x1
 2714 1481 0901     		.2byte	0x109
 2715 1483 D5140000 		.4byte	0x14d5
 2716 1487 26       		.uleb128 0x26
 2717 1488 03150000 		.4byte	0x1503
 2718 148c 1E000000 		.4byte	.LBB61
 2719 1490 04000000 		.4byte	.LBE61-.LBB61
 2720 1494 03       		.byte	0x3
 2721 1495 2002     		.2byte	0x220
 2722 1497 26       		.uleb128 0x26
 2723 1498 15150000 		.4byte	0x1515
 2724 149c 1E000000 		.4byte	.LBB62
 2725 14a0 04000000 		.4byte	.LBE62-.LBB62
 2726 14a4 14       		.byte	0x14
 2727 14a5 A101     		.2byte	0x1a1
 2728 14a7 26       		.uleb128 0x26
 2729 14a8 27150000 		.4byte	0x1527
 2730 14ac 1E000000 		.4byte	.LBB63
 2731 14b0 04000000 		.4byte	.LBE63-.LBB63
 2732 14b4 0F       		.byte	0xf
 2733 14b5 8602     		.2byte	0x286
 2734 14b7 26       		.uleb128 0x26
 2735 14b8 39150000 		.4byte	0x1539
 2736 14bc 1E000000 		.4byte	.LBB64
ARM GAS  /var/folders/vd/czx34qs52cd_f3nb04sxmghc0000gn/T//cc0YHMts.s 			page 49


 2737 14c0 04000000 		.4byte	.LBE64-.LBB64
 2738 14c4 0F       		.byte	0xf
 2739 14c5 6D02     		.2byte	0x26d
 2740 14c7 27       		.uleb128 0x27
 2741 14c8 46150000 		.4byte	0x1546
 2742 14cc 15000000 		.4byte	.LLST1
 2743 14d0 00       		.byte	0
 2744 14d1 00       		.byte	0
 2745 14d2 00       		.byte	0
 2746 14d3 00       		.byte	0
 2747 14d4 00       		.byte	0
 2748 14d5 29       		.uleb128 0x29
 2749 14d6 0E000000 		.4byte	.LVL0
 2750 14da 6A150000 		.4byte	0x156a
 2751 14de 29       		.uleb128 0x29
 2752 14df 2A000000 		.4byte	.LVL5
 2753 14e3 6A150000 		.4byte	0x156a
 2754 14e7 00       		.byte	0
 2755 14e8 2A       		.uleb128 0x2a
 2756 14e9 85070000 		.4byte	.LASF264
 2757 14ed 03       		.byte	0x3
 2758 14ee 5902     		.2byte	0x259
 2759 14f0 03       		.byte	0x3
 2760 14f1 2A       		.uleb128 0x2a
 2761 14f2 FE030000 		.4byte	.LASF265
 2762 14f6 03       		.byte	0x3
 2763 14f7 1E02     		.2byte	0x21e
 2764 14f9 03       		.byte	0x3
 2765 14fa 2A       		.uleb128 0x2a
 2766 14fb DB060000 		.4byte	.LASF266
 2767 14ff 03       		.byte	0x3
 2768 1500 1302     		.2byte	0x213
 2769 1502 03       		.byte	0x3
 2770 1503 2A       		.uleb128 0x2a
 2771 1504 4D020000 		.4byte	.LASF267
 2772 1508 14       		.byte	0x14
 2773 1509 9D01     		.2byte	0x19d
 2774 150b 03       		.byte	0x3
 2775 150c 2A       		.uleb128 0x2a
 2776 150d 8C010000 		.4byte	.LASF268
 2777 1511 14       		.byte	0x14
 2778 1512 8901     		.2byte	0x189
 2779 1514 03       		.byte	0x3
 2780 1515 2A       		.uleb128 0x2a
 2781 1516 70080000 		.4byte	.LASF269
 2782 151a 0F       		.byte	0xf
 2783 151b 8402     		.2byte	0x284
 2784 151d 03       		.byte	0x3
 2785 151e 2A       		.uleb128 0x2a
 2786 151f 9A060000 		.4byte	.LASF270
 2787 1523 0F       		.byte	0xf
 2788 1524 7902     		.2byte	0x279
 2789 1526 03       		.byte	0x3
 2790 1527 2A       		.uleb128 0x2a
 2791 1528 73010000 		.4byte	.LASF271
 2792 152c 0F       		.byte	0xf
 2793 152d 6A02     		.2byte	0x26a
ARM GAS  /var/folders/vd/czx34qs52cd_f3nb04sxmghc0000gn/T//cc0YHMts.s 			page 50


 2794 152f 03       		.byte	0x3
 2795 1530 2A       		.uleb128 0x2a
 2796 1531 F9090000 		.4byte	.LASF272
 2797 1535 0F       		.byte	0xf
 2798 1536 5202     		.2byte	0x252
 2799 1538 03       		.byte	0x3
 2800 1539 2B       		.uleb128 0x2b
 2801 153a 6A090000 		.4byte	.LASF279
 2802 153e 02       		.byte	0x2
 2803 153f E801     		.2byte	0x1e8
 2804 1541 03       		.byte	0x3
 2805 1542 53150000 		.4byte	0x1553
 2806 1546 2C       		.uleb128 0x2c
 2807 1547 71050000 		.4byte	.LASF280
 2808 154b 02       		.byte	0x2
 2809 154c E801     		.2byte	0x1e8
 2810 154e E4000000 		.4byte	0xe4
 2811 1552 00       		.byte	0
 2812 1553 2D       		.uleb128 0x2d
 2813 1554 190B0000 		.4byte	.LASF273
 2814 1558 190B0000 		.4byte	.LASF273
 2815 155c 22       		.byte	0x22
 2816 155d 4E       		.byte	0x4e
 2817 155e 2E       		.uleb128 0x2e
 2818 155f 63070000 		.4byte	.LASF274
 2819 1563 63070000 		.4byte	.LASF274
 2820 1567 14       		.byte	0x14
 2821 1568 1F01     		.2byte	0x11f
 2822 156a 2E       		.uleb128 0x2e
 2823 156b A7070000 		.4byte	.LASF275
 2824 156f A7070000 		.4byte	.LASF275
 2825 1573 0F       		.byte	0xf
 2826 1574 EA01     		.2byte	0x1ea
 2827 1576 00       		.byte	0
 2828              		.section	.debug_abbrev,"",%progbits
 2829              	.Ldebug_abbrev0:
 2830 0000 01       		.uleb128 0x1
 2831 0001 11       		.uleb128 0x11
 2832 0002 01       		.byte	0x1
 2833 0003 25       		.uleb128 0x25
 2834 0004 0E       		.uleb128 0xe
 2835 0005 13       		.uleb128 0x13
 2836 0006 0B       		.uleb128 0xb
 2837 0007 03       		.uleb128 0x3
 2838 0008 0E       		.uleb128 0xe
 2839 0009 1B       		.uleb128 0x1b
 2840 000a 0E       		.uleb128 0xe
 2841 000b 55       		.uleb128 0x55
 2842 000c 17       		.uleb128 0x17
 2843 000d 11       		.uleb128 0x11
 2844 000e 01       		.uleb128 0x1
 2845 000f 10       		.uleb128 0x10
 2846 0010 17       		.uleb128 0x17
 2847 0011 00       		.byte	0
 2848 0012 00       		.byte	0
 2849 0013 02       		.uleb128 0x2
 2850 0014 24       		.uleb128 0x24
ARM GAS  /var/folders/vd/czx34qs52cd_f3nb04sxmghc0000gn/T//cc0YHMts.s 			page 51


 2851 0015 00       		.byte	0
 2852 0016 0B       		.uleb128 0xb
 2853 0017 0B       		.uleb128 0xb
 2854 0018 3E       		.uleb128 0x3e
 2855 0019 0B       		.uleb128 0xb
 2856 001a 03       		.uleb128 0x3
 2857 001b 08       		.uleb128 0x8
 2858 001c 00       		.byte	0
 2859 001d 00       		.byte	0
 2860 001e 03       		.uleb128 0x3
 2861 001f 16       		.uleb128 0x16
 2862 0020 00       		.byte	0
 2863 0021 03       		.uleb128 0x3
 2864 0022 0E       		.uleb128 0xe
 2865 0023 3A       		.uleb128 0x3a
 2866 0024 0B       		.uleb128 0xb
 2867 0025 3B       		.uleb128 0x3b
 2868 0026 0B       		.uleb128 0xb
 2869 0027 49       		.uleb128 0x49
 2870 0028 13       		.uleb128 0x13
 2871 0029 00       		.byte	0
 2872 002a 00       		.byte	0
 2873 002b 04       		.uleb128 0x4
 2874 002c 35       		.uleb128 0x35
 2875 002d 00       		.byte	0
 2876 002e 49       		.uleb128 0x49
 2877 002f 13       		.uleb128 0x13
 2878 0030 00       		.byte	0
 2879 0031 00       		.byte	0
 2880 0032 05       		.uleb128 0x5
 2881 0033 24       		.uleb128 0x24
 2882 0034 00       		.byte	0
 2883 0035 0B       		.uleb128 0xb
 2884 0036 0B       		.uleb128 0xb
 2885 0037 3E       		.uleb128 0x3e
 2886 0038 0B       		.uleb128 0xb
 2887 0039 03       		.uleb128 0x3
 2888 003a 0E       		.uleb128 0xe
 2889 003b 00       		.byte	0
 2890 003c 00       		.byte	0
 2891 003d 06       		.uleb128 0x6
 2892 003e 26       		.uleb128 0x26
 2893 003f 00       		.byte	0
 2894 0040 49       		.uleb128 0x49
 2895 0041 13       		.uleb128 0x13
 2896 0042 00       		.byte	0
 2897 0043 00       		.byte	0
 2898 0044 07       		.uleb128 0x7
 2899 0045 13       		.uleb128 0x13
 2900 0046 01       		.byte	0x1
 2901 0047 03       		.uleb128 0x3
 2902 0048 0E       		.uleb128 0xe
 2903 0049 0B       		.uleb128 0xb
 2904 004a 0B       		.uleb128 0xb
 2905 004b 3A       		.uleb128 0x3a
 2906 004c 0B       		.uleb128 0xb
 2907 004d 3B       		.uleb128 0x3b
ARM GAS  /var/folders/vd/czx34qs52cd_f3nb04sxmghc0000gn/T//cc0YHMts.s 			page 52


 2908 004e 0B       		.uleb128 0xb
 2909 004f 01       		.uleb128 0x1
 2910 0050 13       		.uleb128 0x13
 2911 0051 00       		.byte	0
 2912 0052 00       		.byte	0
 2913 0053 08       		.uleb128 0x8
 2914 0054 0D       		.uleb128 0xd
 2915 0055 00       		.byte	0
 2916 0056 03       		.uleb128 0x3
 2917 0057 0E       		.uleb128 0xe
 2918 0058 3A       		.uleb128 0x3a
 2919 0059 0B       		.uleb128 0xb
 2920 005a 3B       		.uleb128 0x3b
 2921 005b 0B       		.uleb128 0xb
 2922 005c 49       		.uleb128 0x49
 2923 005d 13       		.uleb128 0x13
 2924 005e 38       		.uleb128 0x38
 2925 005f 0B       		.uleb128 0xb
 2926 0060 00       		.byte	0
 2927 0061 00       		.byte	0
 2928 0062 09       		.uleb128 0x9
 2929 0063 0D       		.uleb128 0xd
 2930 0064 00       		.byte	0
 2931 0065 03       		.uleb128 0x3
 2932 0066 08       		.uleb128 0x8
 2933 0067 3A       		.uleb128 0x3a
 2934 0068 0B       		.uleb128 0xb
 2935 0069 3B       		.uleb128 0x3b
 2936 006a 0B       		.uleb128 0xb
 2937 006b 49       		.uleb128 0x49
 2938 006c 13       		.uleb128 0x13
 2939 006d 38       		.uleb128 0x38
 2940 006e 0B       		.uleb128 0xb
 2941 006f 00       		.byte	0
 2942 0070 00       		.byte	0
 2943 0071 0A       		.uleb128 0xa
 2944 0072 0D       		.uleb128 0xd
 2945 0073 00       		.byte	0
 2946 0074 03       		.uleb128 0x3
 2947 0075 08       		.uleb128 0x8
 2948 0076 3A       		.uleb128 0x3a
 2949 0077 0B       		.uleb128 0xb
 2950 0078 3B       		.uleb128 0x3b
 2951 0079 05       		.uleb128 0x5
 2952 007a 49       		.uleb128 0x49
 2953 007b 13       		.uleb128 0x13
 2954 007c 38       		.uleb128 0x38
 2955 007d 0B       		.uleb128 0xb
 2956 007e 00       		.byte	0
 2957 007f 00       		.byte	0
 2958 0080 0B       		.uleb128 0xb
 2959 0081 0D       		.uleb128 0xd
 2960 0082 00       		.byte	0
 2961 0083 03       		.uleb128 0x3
 2962 0084 0E       		.uleb128 0xe
 2963 0085 3A       		.uleb128 0x3a
 2964 0086 0B       		.uleb128 0xb
ARM GAS  /var/folders/vd/czx34qs52cd_f3nb04sxmghc0000gn/T//cc0YHMts.s 			page 53


 2965 0087 3B       		.uleb128 0x3b
 2966 0088 05       		.uleb128 0x5
 2967 0089 49       		.uleb128 0x49
 2968 008a 13       		.uleb128 0x13
 2969 008b 38       		.uleb128 0x38
 2970 008c 0B       		.uleb128 0xb
 2971 008d 00       		.byte	0
 2972 008e 00       		.byte	0
 2973 008f 0C       		.uleb128 0xc
 2974 0090 0F       		.uleb128 0xf
 2975 0091 00       		.byte	0
 2976 0092 0B       		.uleb128 0xb
 2977 0093 0B       		.uleb128 0xb
 2978 0094 49       		.uleb128 0x49
 2979 0095 13       		.uleb128 0x13
 2980 0096 00       		.byte	0
 2981 0097 00       		.byte	0
 2982 0098 0D       		.uleb128 0xd
 2983 0099 13       		.uleb128 0x13
 2984 009a 01       		.byte	0x1
 2985 009b 03       		.uleb128 0x3
 2986 009c 0E       		.uleb128 0xe
 2987 009d 0B       		.uleb128 0xb
 2988 009e 0B       		.uleb128 0xb
 2989 009f 3A       		.uleb128 0x3a
 2990 00a0 0B       		.uleb128 0xb
 2991 00a1 3B       		.uleb128 0x3b
 2992 00a2 05       		.uleb128 0x5
 2993 00a3 01       		.uleb128 0x1
 2994 00a4 13       		.uleb128 0x13
 2995 00a5 00       		.byte	0
 2996 00a6 00       		.byte	0
 2997 00a7 0E       		.uleb128 0xe
 2998 00a8 15       		.uleb128 0x15
 2999 00a9 01       		.byte	0x1
 3000 00aa 27       		.uleb128 0x27
 3001 00ab 19       		.uleb128 0x19
 3002 00ac 01       		.uleb128 0x1
 3003 00ad 13       		.uleb128 0x13
 3004 00ae 00       		.byte	0
 3005 00af 00       		.byte	0
 3006 00b0 0F       		.uleb128 0xf
 3007 00b1 05       		.uleb128 0x5
 3008 00b2 00       		.byte	0
 3009 00b3 49       		.uleb128 0x49
 3010 00b4 13       		.uleb128 0x13
 3011 00b5 00       		.byte	0
 3012 00b6 00       		.byte	0
 3013 00b7 10       		.uleb128 0x10
 3014 00b8 0F       		.uleb128 0xf
 3015 00b9 00       		.byte	0
 3016 00ba 0B       		.uleb128 0xb
 3017 00bb 0B       		.uleb128 0xb
 3018 00bc 00       		.byte	0
 3019 00bd 00       		.byte	0
 3020 00be 11       		.uleb128 0x11
 3021 00bf 01       		.uleb128 0x1
ARM GAS  /var/folders/vd/czx34qs52cd_f3nb04sxmghc0000gn/T//cc0YHMts.s 			page 54


 3022 00c0 01       		.byte	0x1
 3023 00c1 49       		.uleb128 0x49
 3024 00c2 13       		.uleb128 0x13
 3025 00c3 01       		.uleb128 0x1
 3026 00c4 13       		.uleb128 0x13
 3027 00c5 00       		.byte	0
 3028 00c6 00       		.byte	0
 3029 00c7 12       		.uleb128 0x12
 3030 00c8 21       		.uleb128 0x21
 3031 00c9 00       		.byte	0
 3032 00ca 49       		.uleb128 0x49
 3033 00cb 13       		.uleb128 0x13
 3034 00cc 2F       		.uleb128 0x2f
 3035 00cd 0B       		.uleb128 0xb
 3036 00ce 00       		.byte	0
 3037 00cf 00       		.byte	0
 3038 00d0 13       		.uleb128 0x13
 3039 00d1 34       		.uleb128 0x34
 3040 00d2 00       		.byte	0
 3041 00d3 03       		.uleb128 0x3
 3042 00d4 0E       		.uleb128 0xe
 3043 00d5 3A       		.uleb128 0x3a
 3044 00d6 0B       		.uleb128 0xb
 3045 00d7 3B       		.uleb128 0x3b
 3046 00d8 05       		.uleb128 0x5
 3047 00d9 49       		.uleb128 0x49
 3048 00da 13       		.uleb128 0x13
 3049 00db 3F       		.uleb128 0x3f
 3050 00dc 19       		.uleb128 0x19
 3051 00dd 3C       		.uleb128 0x3c
 3052 00de 19       		.uleb128 0x19
 3053 00df 00       		.byte	0
 3054 00e0 00       		.byte	0
 3055 00e1 14       		.uleb128 0x14
 3056 00e2 34       		.uleb128 0x34
 3057 00e3 00       		.byte	0
 3058 00e4 03       		.uleb128 0x3
 3059 00e5 0E       		.uleb128 0xe
 3060 00e6 3A       		.uleb128 0x3a
 3061 00e7 0B       		.uleb128 0xb
 3062 00e8 3B       		.uleb128 0x3b
 3063 00e9 0B       		.uleb128 0xb
 3064 00ea 49       		.uleb128 0x49
 3065 00eb 13       		.uleb128 0x13
 3066 00ec 3F       		.uleb128 0x3f
 3067 00ed 19       		.uleb128 0x19
 3068 00ee 3C       		.uleb128 0x3c
 3069 00ef 19       		.uleb128 0x19
 3070 00f0 00       		.byte	0
 3071 00f1 00       		.byte	0
 3072 00f2 15       		.uleb128 0x15
 3073 00f3 13       		.uleb128 0x13
 3074 00f4 01       		.byte	0x1
 3075 00f5 0B       		.uleb128 0xb
 3076 00f6 0B       		.uleb128 0xb
 3077 00f7 3A       		.uleb128 0x3a
 3078 00f8 0B       		.uleb128 0xb
ARM GAS  /var/folders/vd/czx34qs52cd_f3nb04sxmghc0000gn/T//cc0YHMts.s 			page 55


 3079 00f9 3B       		.uleb128 0x3b
 3080 00fa 05       		.uleb128 0x5
 3081 00fb 01       		.uleb128 0x1
 3082 00fc 13       		.uleb128 0x13
 3083 00fd 00       		.byte	0
 3084 00fe 00       		.byte	0
 3085 00ff 16       		.uleb128 0x16
 3086 0100 16       		.uleb128 0x16
 3087 0101 00       		.byte	0
 3088 0102 03       		.uleb128 0x3
 3089 0103 0E       		.uleb128 0xe
 3090 0104 3A       		.uleb128 0x3a
 3091 0105 0B       		.uleb128 0xb
 3092 0106 3B       		.uleb128 0x3b
 3093 0107 05       		.uleb128 0x5
 3094 0108 49       		.uleb128 0x49
 3095 0109 13       		.uleb128 0x13
 3096 010a 00       		.byte	0
 3097 010b 00       		.byte	0
 3098 010c 17       		.uleb128 0x17
 3099 010d 13       		.uleb128 0x13
 3100 010e 01       		.byte	0x1
 3101 010f 0B       		.uleb128 0xb
 3102 0110 0B       		.uleb128 0xb
 3103 0111 3A       		.uleb128 0x3a
 3104 0112 0B       		.uleb128 0xb
 3105 0113 3B       		.uleb128 0x3b
 3106 0114 0B       		.uleb128 0xb
 3107 0115 01       		.uleb128 0x1
 3108 0116 13       		.uleb128 0x13
 3109 0117 00       		.byte	0
 3110 0118 00       		.byte	0
 3111 0119 18       		.uleb128 0x18
 3112 011a 17       		.uleb128 0x17
 3113 011b 01       		.byte	0x1
 3114 011c 0B       		.uleb128 0xb
 3115 011d 0B       		.uleb128 0xb
 3116 011e 3A       		.uleb128 0x3a
 3117 011f 0B       		.uleb128 0xb
 3118 0120 3B       		.uleb128 0x3b
 3119 0121 0B       		.uleb128 0xb
 3120 0122 01       		.uleb128 0x1
 3121 0123 13       		.uleb128 0x13
 3122 0124 00       		.byte	0
 3123 0125 00       		.byte	0
 3124 0126 19       		.uleb128 0x19
 3125 0127 0D       		.uleb128 0xd
 3126 0128 00       		.byte	0
 3127 0129 03       		.uleb128 0x3
 3128 012a 0E       		.uleb128 0xe
 3129 012b 3A       		.uleb128 0x3a
 3130 012c 0B       		.uleb128 0xb
 3131 012d 3B       		.uleb128 0x3b
 3132 012e 0B       		.uleb128 0xb
 3133 012f 49       		.uleb128 0x49
 3134 0130 13       		.uleb128 0x13
 3135 0131 00       		.byte	0
ARM GAS  /var/folders/vd/czx34qs52cd_f3nb04sxmghc0000gn/T//cc0YHMts.s 			page 56


 3136 0132 00       		.byte	0
 3137 0133 1A       		.uleb128 0x1a
 3138 0134 0D       		.uleb128 0xd
 3139 0135 00       		.byte	0
 3140 0136 03       		.uleb128 0x3
 3141 0137 0E       		.uleb128 0xe
 3142 0138 3A       		.uleb128 0x3a
 3143 0139 0B       		.uleb128 0xb
 3144 013a 3B       		.uleb128 0x3b
 3145 013b 05       		.uleb128 0x5
 3146 013c 49       		.uleb128 0x49
 3147 013d 13       		.uleb128 0x13
 3148 013e 00       		.byte	0
 3149 013f 00       		.byte	0
 3150 0140 1B       		.uleb128 0x1b
 3151 0141 34       		.uleb128 0x34
 3152 0142 00       		.byte	0
 3153 0143 03       		.uleb128 0x3
 3154 0144 08       		.uleb128 0x8
 3155 0145 3A       		.uleb128 0x3a
 3156 0146 0B       		.uleb128 0xb
 3157 0147 3B       		.uleb128 0x3b
 3158 0148 05       		.uleb128 0x5
 3159 0149 49       		.uleb128 0x49
 3160 014a 13       		.uleb128 0x13
 3161 014b 3F       		.uleb128 0x3f
 3162 014c 19       		.uleb128 0x19
 3163 014d 3C       		.uleb128 0x3c
 3164 014e 19       		.uleb128 0x19
 3165 014f 00       		.byte	0
 3166 0150 00       		.byte	0
 3167 0151 1C       		.uleb128 0x1c
 3168 0152 21       		.uleb128 0x21
 3169 0153 00       		.byte	0
 3170 0154 00       		.byte	0
 3171 0155 00       		.byte	0
 3172 0156 1D       		.uleb128 0x1d
 3173 0157 15       		.uleb128 0x15
 3174 0158 01       		.byte	0x1
 3175 0159 27       		.uleb128 0x27
 3176 015a 19       		.uleb128 0x19
 3177 015b 49       		.uleb128 0x49
 3178 015c 13       		.uleb128 0x13
 3179 015d 01       		.uleb128 0x1
 3180 015e 13       		.uleb128 0x13
 3181 015f 00       		.byte	0
 3182 0160 00       		.byte	0
 3183 0161 1E       		.uleb128 0x1e
 3184 0162 13       		.uleb128 0x13
 3185 0163 00       		.byte	0
 3186 0164 0B       		.uleb128 0xb
 3187 0165 0B       		.uleb128 0xb
 3188 0166 3A       		.uleb128 0x3a
 3189 0167 0B       		.uleb128 0xb
 3190 0168 3B       		.uleb128 0x3b
 3191 0169 0B       		.uleb128 0xb
 3192 016a 00       		.byte	0
ARM GAS  /var/folders/vd/czx34qs52cd_f3nb04sxmghc0000gn/T//cc0YHMts.s 			page 57


 3193 016b 00       		.byte	0
 3194 016c 1F       		.uleb128 0x1f
 3195 016d 04       		.uleb128 0x4
 3196 016e 01       		.byte	0x1
 3197 016f 3E       		.uleb128 0x3e
 3198 0170 0B       		.uleb128 0xb
 3199 0171 0B       		.uleb128 0xb
 3200 0172 0B       		.uleb128 0xb
 3201 0173 49       		.uleb128 0x49
 3202 0174 13       		.uleb128 0x13
 3203 0175 3A       		.uleb128 0x3a
 3204 0176 0B       		.uleb128 0xb
 3205 0177 3B       		.uleb128 0x3b
 3206 0178 0B       		.uleb128 0xb
 3207 0179 01       		.uleb128 0x1
 3208 017a 13       		.uleb128 0x13
 3209 017b 00       		.byte	0
 3210 017c 00       		.byte	0
 3211 017d 20       		.uleb128 0x20
 3212 017e 28       		.uleb128 0x28
 3213 017f 00       		.byte	0
 3214 0180 03       		.uleb128 0x3
 3215 0181 0E       		.uleb128 0xe
 3216 0182 1C       		.uleb128 0x1c
 3217 0183 0B       		.uleb128 0xb
 3218 0184 00       		.byte	0
 3219 0185 00       		.byte	0
 3220 0186 21       		.uleb128 0x21
 3221 0187 2E       		.uleb128 0x2e
 3222 0188 01       		.byte	0x1
 3223 0189 3F       		.uleb128 0x3f
 3224 018a 19       		.uleb128 0x19
 3225 018b 03       		.uleb128 0x3
 3226 018c 0E       		.uleb128 0xe
 3227 018d 3A       		.uleb128 0x3a
 3228 018e 0B       		.uleb128 0xb
 3229 018f 3B       		.uleb128 0x3b
 3230 0190 05       		.uleb128 0x5
 3231 0191 27       		.uleb128 0x27
 3232 0192 19       		.uleb128 0x19
 3233 0193 11       		.uleb128 0x11
 3234 0194 01       		.uleb128 0x1
 3235 0195 12       		.uleb128 0x12
 3236 0196 06       		.uleb128 0x6
 3237 0197 40       		.uleb128 0x40
 3238 0198 18       		.uleb128 0x18
 3239 0199 9742     		.uleb128 0x2117
 3240 019b 19       		.uleb128 0x19
 3241 019c 01       		.uleb128 0x1
 3242 019d 13       		.uleb128 0x13
 3243 019e 00       		.byte	0
 3244 019f 00       		.byte	0
 3245 01a0 22       		.uleb128 0x22
 3246 01a1 898201   		.uleb128 0x4109
 3247 01a4 01       		.byte	0x1
 3248 01a5 11       		.uleb128 0x11
 3249 01a6 01       		.uleb128 0x1
ARM GAS  /var/folders/vd/czx34qs52cd_f3nb04sxmghc0000gn/T//cc0YHMts.s 			page 58


 3250 01a7 9542     		.uleb128 0x2115
 3251 01a9 19       		.uleb128 0x19
 3252 01aa 31       		.uleb128 0x31
 3253 01ab 13       		.uleb128 0x13
 3254 01ac 00       		.byte	0
 3255 01ad 00       		.byte	0
 3256 01ae 23       		.uleb128 0x23
 3257 01af 8A8201   		.uleb128 0x410a
 3258 01b2 00       		.byte	0
 3259 01b3 02       		.uleb128 0x2
 3260 01b4 18       		.uleb128 0x18
 3261 01b5 9142     		.uleb128 0x2111
 3262 01b7 18       		.uleb128 0x18
 3263 01b8 00       		.byte	0
 3264 01b9 00       		.byte	0
 3265 01ba 24       		.uleb128 0x24
 3266 01bb 2E       		.uleb128 0x2e
 3267 01bc 01       		.byte	0x1
 3268 01bd 3F       		.uleb128 0x3f
 3269 01be 19       		.uleb128 0x19
 3270 01bf 03       		.uleb128 0x3
 3271 01c0 0E       		.uleb128 0xe
 3272 01c1 3A       		.uleb128 0x3a
 3273 01c2 0B       		.uleb128 0xb
 3274 01c3 3B       		.uleb128 0x3b
 3275 01c4 0B       		.uleb128 0xb
 3276 01c5 27       		.uleb128 0x27
 3277 01c6 19       		.uleb128 0x19
 3278 01c7 11       		.uleb128 0x11
 3279 01c8 01       		.uleb128 0x1
 3280 01c9 12       		.uleb128 0x12
 3281 01ca 06       		.uleb128 0x6
 3282 01cb 40       		.uleb128 0x40
 3283 01cc 18       		.uleb128 0x18
 3284 01cd 9742     		.uleb128 0x2117
 3285 01cf 19       		.uleb128 0x19
 3286 01d0 01       		.uleb128 0x1
 3287 01d1 13       		.uleb128 0x13
 3288 01d2 00       		.byte	0
 3289 01d3 00       		.byte	0
 3290 01d4 25       		.uleb128 0x25
 3291 01d5 1D       		.uleb128 0x1d
 3292 01d6 01       		.byte	0x1
 3293 01d7 31       		.uleb128 0x31
 3294 01d8 13       		.uleb128 0x13
 3295 01d9 11       		.uleb128 0x11
 3296 01da 01       		.uleb128 0x1
 3297 01db 12       		.uleb128 0x12
 3298 01dc 06       		.uleb128 0x6
 3299 01dd 58       		.uleb128 0x58
 3300 01de 0B       		.uleb128 0xb
 3301 01df 59       		.uleb128 0x59
 3302 01e0 05       		.uleb128 0x5
 3303 01e1 01       		.uleb128 0x1
 3304 01e2 13       		.uleb128 0x13
 3305 01e3 00       		.byte	0
 3306 01e4 00       		.byte	0
ARM GAS  /var/folders/vd/czx34qs52cd_f3nb04sxmghc0000gn/T//cc0YHMts.s 			page 59


 3307 01e5 26       		.uleb128 0x26
 3308 01e6 1D       		.uleb128 0x1d
 3309 01e7 01       		.byte	0x1
 3310 01e8 31       		.uleb128 0x31
 3311 01e9 13       		.uleb128 0x13
 3312 01ea 11       		.uleb128 0x11
 3313 01eb 01       		.uleb128 0x1
 3314 01ec 12       		.uleb128 0x12
 3315 01ed 06       		.uleb128 0x6
 3316 01ee 58       		.uleb128 0x58
 3317 01ef 0B       		.uleb128 0xb
 3318 01f0 59       		.uleb128 0x59
 3319 01f1 05       		.uleb128 0x5
 3320 01f2 00       		.byte	0
 3321 01f3 00       		.byte	0
 3322 01f4 27       		.uleb128 0x27
 3323 01f5 05       		.uleb128 0x5
 3324 01f6 00       		.byte	0
 3325 01f7 31       		.uleb128 0x31
 3326 01f8 13       		.uleb128 0x13
 3327 01f9 02       		.uleb128 0x2
 3328 01fa 17       		.uleb128 0x17
 3329 01fb 00       		.byte	0
 3330 01fc 00       		.byte	0
 3331 01fd 28       		.uleb128 0x28
 3332 01fe 898201   		.uleb128 0x4109
 3333 0201 00       		.byte	0
 3334 0202 11       		.uleb128 0x11
 3335 0203 01       		.uleb128 0x1
 3336 0204 31       		.uleb128 0x31
 3337 0205 13       		.uleb128 0x13
 3338 0206 00       		.byte	0
 3339 0207 00       		.byte	0
 3340 0208 29       		.uleb128 0x29
 3341 0209 898201   		.uleb128 0x4109
 3342 020c 00       		.byte	0
 3343 020d 11       		.uleb128 0x11
 3344 020e 01       		.uleb128 0x1
 3345 020f 9542     		.uleb128 0x2115
 3346 0211 19       		.uleb128 0x19
 3347 0212 31       		.uleb128 0x31
 3348 0213 13       		.uleb128 0x13
 3349 0214 00       		.byte	0
 3350 0215 00       		.byte	0
 3351 0216 2A       		.uleb128 0x2a
 3352 0217 2E       		.uleb128 0x2e
 3353 0218 00       		.byte	0
 3354 0219 03       		.uleb128 0x3
 3355 021a 0E       		.uleb128 0xe
 3356 021b 3A       		.uleb128 0x3a
 3357 021c 0B       		.uleb128 0xb
 3358 021d 3B       		.uleb128 0x3b
 3359 021e 05       		.uleb128 0x5
 3360 021f 27       		.uleb128 0x27
 3361 0220 19       		.uleb128 0x19
 3362 0221 20       		.uleb128 0x20
 3363 0222 0B       		.uleb128 0xb
ARM GAS  /var/folders/vd/czx34qs52cd_f3nb04sxmghc0000gn/T//cc0YHMts.s 			page 60


 3364 0223 00       		.byte	0
 3365 0224 00       		.byte	0
 3366 0225 2B       		.uleb128 0x2b
 3367 0226 2E       		.uleb128 0x2e
 3368 0227 01       		.byte	0x1
 3369 0228 03       		.uleb128 0x3
 3370 0229 0E       		.uleb128 0xe
 3371 022a 3A       		.uleb128 0x3a
 3372 022b 0B       		.uleb128 0xb
 3373 022c 3B       		.uleb128 0x3b
 3374 022d 05       		.uleb128 0x5
 3375 022e 27       		.uleb128 0x27
 3376 022f 19       		.uleb128 0x19
 3377 0230 20       		.uleb128 0x20
 3378 0231 0B       		.uleb128 0xb
 3379 0232 01       		.uleb128 0x1
 3380 0233 13       		.uleb128 0x13
 3381 0234 00       		.byte	0
 3382 0235 00       		.byte	0
 3383 0236 2C       		.uleb128 0x2c
 3384 0237 05       		.uleb128 0x5
 3385 0238 00       		.byte	0
 3386 0239 03       		.uleb128 0x3
 3387 023a 0E       		.uleb128 0xe
 3388 023b 3A       		.uleb128 0x3a
 3389 023c 0B       		.uleb128 0xb
 3390 023d 3B       		.uleb128 0x3b
 3391 023e 05       		.uleb128 0x5
 3392 023f 49       		.uleb128 0x49
 3393 0240 13       		.uleb128 0x13
 3394 0241 00       		.byte	0
 3395 0242 00       		.byte	0
 3396 0243 2D       		.uleb128 0x2d
 3397 0244 2E       		.uleb128 0x2e
 3398 0245 00       		.byte	0
 3399 0246 3F       		.uleb128 0x3f
 3400 0247 19       		.uleb128 0x19
 3401 0248 3C       		.uleb128 0x3c
 3402 0249 19       		.uleb128 0x19
 3403 024a 6E       		.uleb128 0x6e
 3404 024b 0E       		.uleb128 0xe
 3405 024c 03       		.uleb128 0x3
 3406 024d 0E       		.uleb128 0xe
 3407 024e 3A       		.uleb128 0x3a
 3408 024f 0B       		.uleb128 0xb
 3409 0250 3B       		.uleb128 0x3b
 3410 0251 0B       		.uleb128 0xb
 3411 0252 00       		.byte	0
 3412 0253 00       		.byte	0
 3413 0254 2E       		.uleb128 0x2e
 3414 0255 2E       		.uleb128 0x2e
 3415 0256 00       		.byte	0
 3416 0257 3F       		.uleb128 0x3f
 3417 0258 19       		.uleb128 0x19
 3418 0259 3C       		.uleb128 0x3c
 3419 025a 19       		.uleb128 0x19
 3420 025b 6E       		.uleb128 0x6e
ARM GAS  /var/folders/vd/czx34qs52cd_f3nb04sxmghc0000gn/T//cc0YHMts.s 			page 61


 3421 025c 0E       		.uleb128 0xe
 3422 025d 03       		.uleb128 0x3
 3423 025e 0E       		.uleb128 0xe
 3424 025f 3A       		.uleb128 0x3a
 3425 0260 0B       		.uleb128 0xb
 3426 0261 3B       		.uleb128 0x3b
 3427 0262 05       		.uleb128 0x5
 3428 0263 00       		.byte	0
 3429 0264 00       		.byte	0
 3430 0265 00       		.byte	0
 3431              		.section	.debug_loc,"",%progbits
 3432              	.Ldebug_loc0:
 3433              	.LLST0:
 3434 0000 14000000 		.4byte	.LVL1
 3435 0004 1A000000 		.4byte	.LVL2
 3436 0008 0300     		.2byte	0x3
 3437 000a 08       		.byte	0x8
 3438 000b 20       		.byte	0x20
 3439 000c 9F       		.byte	0x9f
 3440 000d 00000000 		.4byte	0
 3441 0011 00000000 		.4byte	0
 3442              	.LLST1:
 3443 0015 1E000000 		.4byte	.LVL3
 3444 0019 22000000 		.4byte	.LVL4
 3445 001d 0200     		.2byte	0x2
 3446 001f 30       		.byte	0x30
 3447 0020 9F       		.byte	0x9f
 3448 0021 00000000 		.4byte	0
 3449 0025 00000000 		.4byte	0
 3450              		.section	.debug_aranges,"",%progbits
 3451 0000 24000000 		.4byte	0x24
 3452 0004 0200     		.2byte	0x2
 3453 0006 00000000 		.4byte	.Ldebug_info0
 3454 000a 04       		.byte	0x4
 3455 000b 00       		.byte	0
 3456 000c 0000     		.2byte	0
 3457 000e 0000     		.2byte	0
 3458 0010 00000000 		.4byte	.LFB313
 3459 0014 2A000000 		.4byte	.LFE313-.LFB313
 3460 0018 00000000 		.4byte	.LFB314
 3461 001c 50000000 		.4byte	.LFE314-.LFB314
 3462 0020 00000000 		.4byte	0
 3463 0024 00000000 		.4byte	0
 3464              		.section	.debug_ranges,"",%progbits
 3465              	.Ldebug_ranges0:
 3466 0000 00000000 		.4byte	.LFB313
 3467 0004 2A000000 		.4byte	.LFE313
 3468 0008 00000000 		.4byte	.LFB314
 3469 000c 50000000 		.4byte	.LFE314
 3470 0010 00000000 		.4byte	0
 3471 0014 00000000 		.4byte	0
 3472              		.section	.debug_line,"",%progbits
 3473              	.Ldebug_line0:
 3474 0000 C8040000 		.section	.debug_str,"MS",%progbits,1
 3474      02005A04 
 3474      00000201 
 3474      FB0E0D00 
ARM GAS  /var/folders/vd/czx34qs52cd_f3nb04sxmghc0000gn/T//cc0YHMts.s 			page 62


 3474      01010101 
 3475              	.LASF155:
 3476 0000 6F66665F 		.ascii	"off_ctx\000"
 3476      63747800 
 3477              	.LASF86:
 3478 0008 4D314152 		.ascii	"M1AR\000"
 3478      00
 3479              	.LASF205:
 3480 000d 73746D33 		.ascii	"stm32_dma_stream_t\000"
 3480      325F646D 
 3480      615F7374 
 3480      7265616D 
 3480      5F7400
 3481              	.LASF4:
 3482 0020 73697A65 		.ascii	"size_t\000"
 3482      5F7400
 3483              	.LASF154:
 3484 0027 6F66665F 		.ascii	"off_prio\000"
 3484      7072696F 
 3484      00
 3485              	.LASF178:
 3486 0030 656E646D 		.ascii	"endmem\000"
 3486      656D00
 3487              	.LASF139:
 3488 0037 77747365 		.ascii	"wtsemp\000"
 3488      6D7000
 3489              	.LASF74:
 3490 003e 73797374 		.ascii	"systime_t\000"
 3490      696D655F 
 3490      7400
 3491              	.LASF163:
 3492 0048 6F66665F 		.ascii	"off_preempt\000"
 3492      70726565 
 3492      6D707400 
 3493              	.LASF114:
 3494 0054 504C4C49 		.ascii	"PLLI2SCFGR\000"
 3494      32534346 
 3494      475200
 3495              	.LASF144:
 3496 005f 6F776E65 		.ascii	"owner\000"
 3496      7200
 3497              	.LASF25:
 3498 0065 74707269 		.ascii	"tprio_t\000"
 3498      6F5F7400 
 3499              	.LASF166:
 3500 006d 63685F64 		.ascii	"ch_debug\000"
 3500      65627567 
 3500      00
 3501              	.LASF184:
 3502 0076 70726F76 		.ascii	"provider\000"
 3502      69646572 
 3502      00
 3503              	.LASF18:
 3504 007f 696E7433 		.ascii	"int32_t\000"
 3504      325F7400 
 3505              	.LASF260:
 3506 0087 77726974 		.ascii	"writet\000"
ARM GAS  /var/folders/vd/czx34qs52cd_f3nb04sxmghc0000gn/T//cc0YHMts.s 			page 63


 3506      657400
 3507              	.LASF58:
 3508 008e 76746675 		.ascii	"vtfunc_t\000"
 3508      6E635F74 
 3508      00
 3509              	.LASF64:
 3510 0097 63685F76 		.ascii	"ch_virtual_timers_list\000"
 3510      69727475 
 3510      616C5F74 
 3510      696D6572 
 3510      735F6C69 
 3511              	.LASF256:
 3512 00ae 77726974 		.ascii	"write\000"
 3512      6500
 3513              	.LASF186:
 3514 00b4 63685F64 		.ascii	"ch_dyn_element\000"
 3514      796E5F65 
 3514      6C656D65 
 3514      6E7400
 3515              	.LASF235:
 3516 00c3 70776D63 		.ascii	"pwmchnmsk_t\000"
 3516      686E6D73 
 3516      6B5F7400 
 3517              	.LASF227:
 3518 00cf 636F6E66 		.ascii	"config\000"
 3518      696700
 3519              	.LASF38:
 3520 00d6 73746174 		.ascii	"state\000"
 3520      6500
 3521              	.LASF258:
 3522 00dc 70757474 		.ascii	"putt\000"
 3522      00
 3523              	.LASF239:
 3524 00e1 50574D43 		.ascii	"PWMChannelConfig\000"
 3524      68616E6E 
 3524      656C436F 
 3524      6E666967 
 3524      00
 3525              	.LASF191:
 3526 00f2 6F626A5F 		.ascii	"obj_list\000"
 3526      6C697374 
 3526      00
 3527              	.LASF128:
 3528 00fb 444D4152 		.ascii	"DMAR\000"
 3528      00
 3529              	.LASF241:
 3530 0100 64696572 		.ascii	"dier\000"
 3530      00
 3531              	.LASF222:
 3532 0105 50574D5F 		.ascii	"PWM_UNINIT\000"
 3532      554E494E 
 3532      495400
 3533              	.LASF157:
 3534 0110 6F66665F 		.ascii	"off_older\000"
 3534      6F6C6465 
 3534      7200
 3535              	.LASF33:
ARM GAS  /var/folders/vd/czx34qs52cd_f3nb04sxmghc0000gn/T//cc0YHMts.s 			page 64


 3536 011a 7072696F 		.ascii	"prio\000"
 3536      00
 3537              	.LASF135:
 3538 011f 65786974 		.ascii	"exitcode\000"
 3538      636F6465 
 3538      00
 3539              	.LASF5:
 3540 0128 5F5F7569 		.ascii	"__uint8_t\000"
 3540      6E74385F 
 3540      7400
 3541              	.LASF212:
 3542 0132 715F746F 		.ascii	"q_top\000"
 3542      7000
 3543              	.LASF200:
 3544 0138 73747265 		.ascii	"stream\000"
 3544      616D00
 3545              	.LASF105:
 3546 013f 41484232 		.ascii	"AHB2LPENR\000"
 3546      4C50454E 
 3546      5200
 3547              	.LASF261:
 3548 0149 72656164 		.ascii	"readt\000"
 3548      7400
 3549              	.LASF211:
 3550 014f 715F6275 		.ascii	"q_buffer\000"
 3550      66666572 
 3550      00
 3551              	.LASF215:
 3552 0158 715F6E6F 		.ascii	"q_notify\000"
 3552      74696679 
 3552      00
 3553              	.LASF238:
 3554 0161 63616C6C 		.ascii	"callback\000"
 3554      6261636B 
 3554      00
 3555              	.LASF11:
 3556 016a 6C6F6E67 		.ascii	"long int\000"
 3556      20696E74 
 3556      00
 3557              	.LASF271:
 3558 0173 706F7274 		.ascii	"port_unlock\000"
 3558      5F756E6C 
 3558      6F636B00 
 3559              	.LASF214:
 3560 017f 715F7264 		.ascii	"q_rdptr\000"
 3560      70747200 
 3561              	.LASF148:
 3562 0187 7A65726F 		.ascii	"zero\000"
 3562      00
 3563              	.LASF268:
 3564 018c 63685379 		.ascii	"chSysLockFromISR\000"
 3564      734C6F63 
 3564      6B46726F 
 3564      6D495352 
 3564      00
 3565              	.LASF23:
 3566 019d 74737461 		.ascii	"tstate_t\000"
ARM GAS  /var/folders/vd/czx34qs52cd_f3nb04sxmghc0000gn/T//cc0YHMts.s 			page 65


 3566      74655F74 
 3566      00
 3567              	.LASF43:
 3568 01a6 6570656E 		.ascii	"epending\000"
 3568      64696E67 
 3568      00
 3569              	.LASF52:
 3570 01af 74687265 		.ascii	"threads_queue_t\000"
 3570      6164735F 
 3570      71756575 
 3570      655F7400 
 3571              	.LASF251:
 3572 01bf 6F717565 		.ascii	"oqueue\000"
 3572      756500
 3573              	.LASF118:
 3574 01c6 72656761 		.ascii	"regarm_t\000"
 3574      726D5F74 
 3574      00
 3575              	.LASF216:
 3576 01cf 715F6C69 		.ascii	"q_link\000"
 3576      6E6B00
 3577              	.LASF234:
 3578 01d6 70776D63 		.ascii	"pwmchannel_t\000"
 3578      68616E6E 
 3578      656C5F74 
 3578      00
 3579              	.LASF102:
 3580 01e3 41504232 		.ascii	"APB2ENR\000"
 3580      454E5200 
 3581              	.LASF192:
 3582 01eb 6F626A5F 		.ascii	"obj_pool\000"
 3582      706F6F6C 
 3582      00
 3583              	.LASF104:
 3584 01f4 41484231 		.ascii	"AHB1LPENR\000"
 3584      4C50454E 
 3584      5200
 3585              	.LASF252:
 3586 01fe 75736172 		.ascii	"usart\000"
 3586      7400
 3587              	.LASF179:
 3588 0204 6D656D63 		.ascii	"memcore_t\000"
 3588      6F72655F 
 3588      7400
 3589              	.LASF208:
 3590 020e 696F5F71 		.ascii	"io_queue\000"
 3590      75657565 
 3590      00
 3591              	.LASF3:
 3592 0217 7369676E 		.ascii	"signed char\000"
 3592      65642063 
 3592      68617200 
 3593              	.LASF141:
 3594 0223 65776D61 		.ascii	"ewmask\000"
 3594      736B00
 3595              	.LASF16:
 3596 022a 75696E74 		.ascii	"uint8_t\000"
ARM GAS  /var/folders/vd/czx34qs52cd_f3nb04sxmghc0000gn/T//cc0YHMts.s 			page 66


 3596      385F7400 
 3597              	.LASF27:
 3598 0232 6576656E 		.ascii	"eventmask_t\000"
 3598      746D6173 
 3598      6B5F7400 
 3599              	.LASF137:
 3600 023e 77747472 		.ascii	"wttrp\000"
 3600      7000
 3601              	.LASF236:
 3602 0244 70776D63 		.ascii	"pwmcnt_t\000"
 3602      6E745F74 
 3602      00
 3603              	.LASF267:
 3604 024d 63685379 		.ascii	"chSysUnlockFromISR\000"
 3604      73556E6C 
 3604      6F636B46 
 3604      726F6D49 
 3604      535200
 3605              	.LASF93:
 3606 0260 52455345 		.ascii	"RESERVED0\000"
 3606      52564544 
 3606      3000
 3607              	.LASF96:
 3608 026a 52455345 		.ascii	"RESERVED1\000"
 3608      52564544 
 3608      3100
 3609              	.LASF6:
 3610 0274 756E7369 		.ascii	"unsigned char\000"
 3610      676E6564 
 3610      20636861 
 3610      7200
 3611              	.LASF103:
 3612 0282 52455345 		.ascii	"RESERVED3\000"
 3612      52564544 
 3612      3300
 3613              	.LASF107:
 3614 028c 52455345 		.ascii	"RESERVED4\000"
 3614      52564544 
 3614      3400
 3615              	.LASF110:
 3616 0296 52455345 		.ascii	"RESERVED5\000"
 3616      52564544 
 3616      3500
 3617              	.LASF65:
 3618 02a0 6C617374 		.ascii	"lasttime\000"
 3618      74696D65 
 3618      00
 3619              	.LASF68:
 3620 02a9 70616E69 		.ascii	"panic_msg\000"
 3620      635F6D73 
 3620      6700
 3621              	.LASF66:
 3622 02b3 73797374 		.ascii	"system_debug_t\000"
 3622      656D5F64 
 3622      65627567 
 3622      5F7400
 3623              	.LASF244:
ARM GAS  /var/folders/vd/czx34qs52cd_f3nb04sxmghc0000gn/T//cc0YHMts.s 			page 67


 3624 02c2 53445F55 		.ascii	"SD_UNINIT\000"
 3624      4E494E49 
 3624      5400
 3625              	.LASF175:
 3626 02cc 5F426F6F 		.ascii	"_Bool\000"
 3626      6C00
 3627              	.LASF100:
 3628 02d2 52455345 		.ascii	"RESERVED2\000"
 3628      52564544 
 3628      3200
 3629              	.LASF112:
 3630 02dc 52455345 		.ascii	"RESERVED6\000"
 3630      52564544 
 3630      3600
 3631              	.LASF125:
 3632 02e6 43434D52 		.ascii	"CCMR2\000"
 3632      3200
 3633              	.LASF129:
 3634 02ec 43434D52 		.ascii	"CCMR3\000"
 3634      3300
 3635              	.LASF262:
 3636 02f2 73745F6C 		.ascii	"st_lld_init\000"
 3636      6C645F69 
 3636      6E697400 
 3637              	.LASF145:
 3638 02fe 63686172 		.ascii	"char\000"
 3638      00
 3639              	.LASF202:
 3640 0303 69736869 		.ascii	"ishift\000"
 3640      667400
 3641              	.LASF90:
 3642 030a 41484231 		.ascii	"AHB1RSTR\000"
 3642      52535452 
 3642      00
 3643              	.LASF194:
 3644 0313 73656D5F 		.ascii	"sem_list\000"
 3644      6C697374 
 3644      00
 3645              	.LASF8:
 3646 031c 5F5F7569 		.ascii	"__uint16_t\000"
 3646      6E743136 
 3646      5F7400
 3647              	.LASF98:
 3648 0327 41484232 		.ascii	"AHB2ENR\000"
 3648      454E5200 
 3649              	.LASF136:
 3650 032f 77746F62 		.ascii	"wtobjp\000"
 3650      6A7000
 3651              	.LASF220:
 3652 0336 70616C65 		.ascii	"palevent_t\000"
 3652      76656E74 
 3652      5F7400
 3653              	.LASF162:
 3654 0341 6F66665F 		.ascii	"off_refs\000"
 3654      72656673 
 3654      00
 3655              	.LASF39:
ARM GAS  /var/folders/vd/czx34qs52cd_f3nb04sxmghc0000gn/T//cc0YHMts.s 			page 68


 3656 034a 666C6167 		.ascii	"flags\000"
 3656      7300
 3657              	.LASF259:
 3658 0350 67657474 		.ascii	"gett\000"
 3658      00
 3659              	.LASF119:
 3660 0355 73746B61 		.ascii	"stkalign_t\000"
 3660      6C69676E 
 3660      5F7400
 3661              	.LASF117:
 3662 0360 55534152 		.ascii	"USART_TypeDef\000"
 3662      545F5479 
 3662      70654465 
 3662      6600
 3663              	.LASF81:
 3664 036e 41504231 		.ascii	"APB1FZ\000"
 3664      465A00
 3665              	.LASF46:
 3666 0375 6D706F6F 		.ascii	"mpool\000"
 3666      6C00
 3667              	.LASF168:
 3668 037b 6576656E 		.ascii	"event_listener_t\000"
 3668      745F6C69 
 3668      7374656E 
 3668      65725F74 
 3668      00
 3669              	.LASF151:
 3670 038c 70747273 		.ascii	"ptrsize\000"
 3670      697A6500 
 3671              	.LASF130:
 3672 0394 43435852 		.ascii	"CCXR\000"
 3672      00
 3673              	.LASF111:
 3674 0399 42444352 		.ascii	"BDCR\000"
 3674      00
 3675              	.LASF164:
 3676 039e 6F66665F 		.ascii	"off_time\000"
 3676      74696D65 
 3676      00
 3677              	.LASF233:
 3678 03a7 70776D6D 		.ascii	"pwmmode_t\000"
 3678      6F64655F 
 3678      7400
 3679              	.LASF29:
 3680 03b1 636E745F 		.ascii	"cnt_t\000"
 3680      7400
 3681              	.LASF253:
 3682 03b7 72786D61 		.ascii	"rxmask\000"
 3682      736B00
 3683              	.LASF187:
 3684 03be 64796E5F 		.ascii	"dyn_element_t\000"
 3684      656C656D 
 3684      656E745F 
 3684      7400
 3685              	.LASF83:
 3686 03cc 4442474D 		.ascii	"DBGMCU_TypeDef\000"
 3686      43555F54 
ARM GAS  /var/folders/vd/czx34qs52cd_f3nb04sxmghc0000gn/T//cc0YHMts.s 			page 69


 3686      79706544 
 3686      656600
 3687              	.LASF140:
 3688 03db 77746D74 		.ascii	"wtmtxp\000"
 3688      787000
 3689              	.LASF56:
 3690 03e2 63685F72 		.ascii	"ch_ready_list\000"
 3690      65616479 
 3690      5F6C6973 
 3690      7400
 3691              	.LASF195:
 3692 03f0 73656D5F 		.ascii	"sem_pool\000"
 3692      706F6F6C 
 3692      00
 3693              	.LASF89:
 3694 03f9 43464752 		.ascii	"CFGR\000"
 3694      00
 3695              	.LASF265:
 3696 03fe 6F73616C 		.ascii	"osalSysUnlockFromISR\000"
 3696      53797355 
 3696      6E6C6F63 
 3696      6B46726F 
 3696      6D495352 
 3697              	.LASF177:
 3698 0413 6E657874 		.ascii	"nextmem\000"
 3698      6D656D00 
 3699              	.LASF210:
 3700 041b 715F636F 		.ascii	"q_counter\000"
 3700      756E7465 
 3700      7200
 3701              	.LASF229:
 3702 0425 656E6162 		.ascii	"enabled\000"
 3702      6C656400 
 3703              	.LASF277:
 3704 042d 2E2E2F6F 		.ascii	"../os/hal/ports/STM32/LLD/TIMv1/hal_st_lld.c\000"
 3704      732F6861 
 3704      6C2F706F 
 3704      7274732F 
 3704      53544D33 
 3705              	.LASF14:
 3706 045a 5F5F7569 		.ascii	"__uint64_t\000"
 3706      6E743634 
 3706      5F7400
 3707              	.LASF249:
 3708 0465 6576656E 		.ascii	"event\000"
 3708      7400
 3709              	.LASF160:
 3710 046b 6F66665F 		.ascii	"off_state\000"
 3710      73746174 
 3710      6500
 3711              	.LASF13:
 3712 0475 6C6F6E67 		.ascii	"long unsigned int\000"
 3712      20756E73 
 3712      69676E65 
 3712      6420696E 
 3712      7400
 3713              	.LASF153:
ARM GAS  /var/folders/vd/czx34qs52cd_f3nb04sxmghc0000gn/T//cc0YHMts.s 			page 70


 3714 0487 74687265 		.ascii	"threadsize\000"
 3714      61647369 
 3714      7A6500
 3715              	.LASF123:
 3716 0492 44494552 		.ascii	"DIER\000"
 3716      00
 3717              	.LASF77:
 3718 0497 53797374 		.ascii	"SystemCoreClock\000"
 3718      656D436F 
 3718      7265436C 
 3718      6F636B00 
 3719              	.LASF142:
 3720 04a7 63685F73 		.ascii	"ch_semaphore\000"
 3720      656D6170 
 3720      686F7265 
 3720      00
 3721              	.LASF49:
 3722 04b4 63685F74 		.ascii	"ch_thread\000"
 3722      68726561 
 3722      6400
 3723              	.LASF63:
 3724 04be 76697274 		.ascii	"virtual_timers_list_t\000"
 3724      75616C5F 
 3724      74696D65 
 3724      72735F6C 
 3724      6973745F 
 3725              	.LASF146:
 3726 04d4 63685F69 		.ascii	"ch_idle_thread_wa\000"
 3726      646C655F 
 3726      74687265 
 3726      61645F77 
 3726      6100
 3727              	.LASF206:
 3728 04e6 5F73746D 		.ascii	"_stm32_dma_streams\000"
 3728      33325F64 
 3728      6D615F73 
 3728      74726561 
 3728      6D7300
 3729              	.LASF197:
 3730 04f9 6669666F 		.ascii	"fifo_list\000"
 3730      5F6C6973 
 3730      7400
 3731              	.LASF59:
 3732 0503 76697274 		.ascii	"virtual_timer_t\000"
 3732      75616C5F 
 3732      74696D65 
 3732      725F7400 
 3733              	.LASF55:
 3734 0513 72656164 		.ascii	"ready_list_t\000"
 3734      795F6C69 
 3734      73745F74 
 3734      00
 3735              	.LASF35:
 3736 0520 6F6C6465 		.ascii	"older\000"
 3736      7200
 3737              	.LASF254:
 3738 0526 53657269 		.ascii	"SerialDriverVMT\000"
ARM GAS  /var/folders/vd/czx34qs52cd_f3nb04sxmghc0000gn/T//cc0YHMts.s 			page 71


 3738      616C4472 
 3738      69766572 
 3738      564D5400 
 3739              	.LASF45:
 3740 0536 7265616C 		.ascii	"realprio\000"
 3740      7072696F 
 3740      00
 3741              	.LASF131:
 3742 053f 73746D33 		.ascii	"stm32_tim_t\000"
 3742      325F7469 
 3742      6D5F7400 
 3743              	.LASF30:
 3744 054b 75636E74 		.ascii	"ucnt_t\000"
 3744      5F7400
 3745              	.LASF231:
 3746 0552 636C6F63 		.ascii	"clock\000"
 3746      6B00
 3747              	.LASF159:
 3748 0558 6F66665F 		.ascii	"off_stklimit\000"
 3748      73746B6C 
 3748      696D6974 
 3748      00
 3749              	.LASF181:
 3750 0565 706F6F6C 		.ascii	"pool_header\000"
 3750      5F686561 
 3750      64657200 
 3751              	.LASF280:
 3752 0571 62617365 		.ascii	"basePri\000"
 3752      50726900 
 3753              	.LASF50:
 3754 0579 63685F74 		.ascii	"ch_threads_list\000"
 3754      68726561 
 3754      64735F6C 
 3754      69737400 
 3755              	.LASF276:
 3756 0589 474E5520 		.ascii	"GNU C11 7.2.1 20170904 (release) [ARM/embedded-7-br"
 3756      43313120 
 3756      372E322E 
 3756      31203230 
 3756      31373039 
 3757 05bc 616E6368 		.ascii	"anch revision 255204] -mcpu=cortex-m4 -mno-thumb-in"
 3757      20726576 
 3757      6973696F 
 3757      6E203235 
 3757      35323034 
 3758 05ef 74657277 		.ascii	"terwork -mthumb -ggdb -O2 -fomit-frame-pointer -fal"
 3758      6F726B20 
 3758      2D6D7468 
 3758      756D6220 
 3758      2D676764 
 3759 0622 69676E2D 		.ascii	"ign-functions=16 -ffunction-sections -fdata-section"
 3759      66756E63 
 3759      74696F6E 
 3759      733D3136 
 3759      202D6666 
 3760 0655 73202D66 		.ascii	"s -fno-common\000"
 3760      6E6F2D63 
ARM GAS  /var/folders/vd/czx34qs52cd_f3nb04sxmghc0000gn/T//cc0YHMts.s 			page 72


 3760      6F6D6D6F 
 3760      6E00
 3761              	.LASF88:
 3762 0663 504C4C43 		.ascii	"PLLCFGR\000"
 3762      46475200 
 3763              	.LASF12:
 3764 066b 5F5F7569 		.ascii	"__uint32_t\000"
 3764      6E743332 
 3764      5F7400
 3765              	.LASF44:
 3766 0676 6D74786C 		.ascii	"mtxlist\000"
 3766      69737400 
 3767              	.LASF1:
 3768 067e 6C6F6E67 		.ascii	"long long int\000"
 3768      206C6F6E 
 3768      6720696E 
 3768      7400
 3769              	.LASF75:
 3770 068c 73797369 		.ascii	"sysinterval_t\000"
 3770      6E746572 
 3770      76616C5F 
 3770      7400
 3771              	.LASF270:
 3772 069a 706F7274 		.ascii	"port_lock_from_isr\000"
 3772      5F6C6F63 
 3772      6B5F6672 
 3772      6F6D5F69 
 3772      737200
 3773              	.LASF113:
 3774 06ad 53534347 		.ascii	"SSCGR\000"
 3774      5200
 3775              	.LASF190:
 3776 06b3 63685F6F 		.ascii	"ch_objects_factory\000"
 3776      626A6563 
 3776      74735F66 
 3776      6163746F 
 3776      727900
 3777              	.LASF116:
 3778 06c6 47545052 		.ascii	"GTPR\000"
 3778      00
 3779              	.LASF82:
 3780 06cb 41504232 		.ascii	"APB2FZ\000"
 3780      465A00
 3781              	.LASF95:
 3782 06d2 41504232 		.ascii	"APB2RSTR\000"
 3782      52535452 
 3782      00
 3783              	.LASF266:
 3784 06db 6F73616C 		.ascii	"osalSysLockFromISR\000"
 3784      5379734C 
 3784      6F636B46 
 3784      726F6D49 
 3784      535200
 3785              	.LASF174:
 3786 06ee 6576656E 		.ascii	"event_source_t\000"
 3786      745F736F 
 3786      75726365 
ARM GAS  /var/folders/vd/czx34qs52cd_f3nb04sxmghc0000gn/T//cc0YHMts.s 			page 73


 3786      5F7400
 3787              	.LASF183:
 3788 06fd 616C6967 		.ascii	"align\000"
 3788      6E00
 3789              	.LASF76:
 3790 0703 49544D5F 		.ascii	"ITM_RxBuffer\000"
 3790      52784275 
 3790      66666572 
 3790      00
 3791              	.LASF240:
 3792 0710 66726571 		.ascii	"frequency\000"
 3792      75656E63 
 3792      7900
 3793              	.LASF109:
 3794 071a 41504232 		.ascii	"APB2LPENR\000"
 3794      4C50454E 
 3794      5200
 3795              	.LASF217:
 3796 0724 716E6F74 		.ascii	"qnotify_t\000"
 3796      6966795F 
 3796      7400
 3797              	.LASF80:
 3798 072e 4944434F 		.ascii	"IDCODE\000"
 3798      444500
 3799              	.LASF257:
 3800 0735 72656164 		.ascii	"read\000"
 3800      00
 3801              	.LASF156:
 3802 073a 6F66665F 		.ascii	"off_newer\000"
 3802      6E657765 
 3802      7200
 3803              	.LASF203:
 3804 0744 73656C66 		.ascii	"selfindex\000"
 3804      696E6465 
 3804      7800
 3805              	.LASF0:
 3806 074e 756E7369 		.ascii	"unsigned int\000"
 3806      676E6564 
 3806      20696E74 
 3806      00
 3807              	.LASF21:
 3808 075b 7274636E 		.ascii	"rtcnt_t\000"
 3808      745F7400 
 3809              	.LASF274:
 3810 0763 63685379 		.ascii	"chSysTimerHandlerI\000"
 3810      7354696D 
 3810      65724861 
 3810      6E646C65 
 3810      724900
 3811              	.LASF230:
 3812 0776 6368616E 		.ascii	"channels\000"
 3812      6E656C73 
 3812      00
 3813              	.LASF124:
 3814 077f 43434D52 		.ascii	"CCMR1\000"
 3814      3100
 3815              	.LASF264:
ARM GAS  /var/folders/vd/czx34qs52cd_f3nb04sxmghc0000gn/T//cc0YHMts.s 			page 74


 3816 0785 6F73616C 		.ascii	"osalOsTimerHandlerI\000"
 3816      4F735469 
 3816      6D657248 
 3816      616E646C 
 3816      65724900 
 3817              	.LASF232:
 3818 0799 70776D63 		.ascii	"pwmcallback_t\000"
 3818      616C6C62 
 3818      61636B5F 
 3818      7400
 3819              	.LASF275:
 3820 07a7 5F706F72 		.ascii	"_port_irq_epilogue\000"
 3820      745F6972 
 3820      715F6570 
 3820      696C6F67 
 3820      756500
 3821              	.LASF57:
 3822 07ba 63757272 		.ascii	"current\000"
 3822      656E7400 
 3823              	.LASF226:
 3824 07c2 50574D44 		.ascii	"PWMDriver\000"
 3824      72697665 
 3824      7200
 3825              	.LASF132:
 3826 07cc 6F666673 		.ascii	"offset\000"
 3826      657400
 3827              	.LASF108:
 3828 07d3 41504231 		.ascii	"APB1LPENR\000"
 3828      4C50454E 
 3828      5200
 3829              	.LASF87:
 3830 07dd 444D415F 		.ascii	"DMA_Stream_TypeDef\000"
 3830      53747265 
 3830      616D5F54 
 3830      79706544 
 3830      656600
 3831              	.LASF176:
 3832 07f0 6D656D67 		.ascii	"memgetfunc_t\000"
 3832      65746675 
 3832      6E635F74 
 3832      00
 3833              	.LASF221:
 3834 07fd 5F70616C 		.ascii	"_pal_events\000"
 3834      5F657665 
 3834      6E747300 
 3835              	.LASF92:
 3836 0809 41484233 		.ascii	"AHB3RSTR\000"
 3836      52535452 
 3836      00
 3837              	.LASF31:
 3838 0812 74687265 		.ascii	"thread_t\000"
 3838      61645F74 
 3838      00
 3839              	.LASF2:
 3840 081b 6C6F6E67 		.ascii	"long double\000"
 3840      20646F75 
 3840      626C6500 
ARM GAS  /var/folders/vd/czx34qs52cd_f3nb04sxmghc0000gn/T//cc0YHMts.s 			page 75


 3841              	.LASF172:
 3842 0827 77666C61 		.ascii	"wflags\000"
 3842      677300
 3843              	.LASF47:
 3844 082e 74687265 		.ascii	"thread_reference_t\000"
 3844      61645F72 
 3844      65666572 
 3844      656E6365 
 3844      5F7400
 3845              	.LASF138:
 3846 0841 73656E74 		.ascii	"sentmsg\000"
 3846      6D736700 
 3847              	.LASF121:
 3848 0849 706F7274 		.ascii	"port_intctx\000"
 3848      5F696E74 
 3848      63747800 
 3849              	.LASF198:
 3850 0855 6F626A65 		.ascii	"objects_factory_t\000"
 3850      6374735F 
 3850      66616374 
 3850      6F72795F 
 3850      7400
 3851              	.LASF193:
 3852 0867 6275665F 		.ascii	"buf_list\000"
 3852      6C697374 
 3852      00
 3853              	.LASF269:
 3854 0870 706F7274 		.ascii	"port_unlock_from_isr\000"
 3854      5F756E6C 
 3854      6F636B5F 
 3854      66726F6D 
 3854      5F697372 
 3855              	.LASF94:
 3856 0885 41504231 		.ascii	"APB1RSTR\000"
 3856      52535452 
 3856      00
 3857              	.LASF78:
 3858 088e 41484250 		.ascii	"AHBPrescTable\000"
 3858      72657363 
 3858      5461626C 
 3858      6500
 3859              	.LASF60:
 3860 089c 63685F76 		.ascii	"ch_virtual_timer\000"
 3860      69727475 
 3860      616C5F74 
 3860      696D6572 
 3860      00
 3861              	.LASF101:
 3862 08ad 41504231 		.ascii	"APB1ENR\000"
 3862      454E5200 
 3863              	.LASF149:
 3864 08b5 73697A65 		.ascii	"size\000"
 3864      00
 3865              	.LASF15:
 3866 08ba 6C6F6E67 		.ascii	"long long unsigned int\000"
 3866      206C6F6E 
 3866      6720756E 
ARM GAS  /var/folders/vd/czx34qs52cd_f3nb04sxmghc0000gn/T//cc0YHMts.s 			page 76


 3866      7369676E 
 3866      65642069 
 3867              	.LASF223:
 3868 08d1 50574D5F 		.ascii	"PWM_STOP\000"
 3868      53544F50 
 3868      00
 3869              	.LASF17:
 3870 08da 75696E74 		.ascii	"uint16_t\000"
 3870      31365F74 
 3870      00
 3871              	.LASF158:
 3872 08e3 6F66665F 		.ascii	"off_name\000"
 3872      6E616D65 
 3872      00
 3873              	.LASF26:
 3874 08ec 6D73675F 		.ascii	"msg_t\000"
 3874      7400
 3875              	.LASF53:
 3876 08f2 63685F74 		.ascii	"ch_threads_queue\000"
 3876      68726561 
 3876      64735F71 
 3876      75657565 
 3876      00
 3877              	.LASF28:
 3878 0903 6576656E 		.ascii	"eventflags_t\000"
 3878      74666C61 
 3878      67735F74 
 3878      00
 3879              	.LASF126:
 3880 0910 43434552 		.ascii	"CCER\000"
 3880      00
 3881              	.LASF61:
 3882 0915 64656C74 		.ascii	"delta\000"
 3882      6100
 3883              	.LASF40:
 3884 091b 72656673 		.ascii	"refs\000"
 3884      00
 3885              	.LASF32:
 3886 0920 71756575 		.ascii	"queue\000"
 3886      6500
 3887              	.LASF204:
 3888 0926 76656374 		.ascii	"vector\000"
 3888      6F7200
 3889              	.LASF199:
 3890 092d 63685F66 		.ascii	"ch_factory\000"
 3890      6163746F 
 3890      727900
 3891              	.LASF196:
 3892 0938 6D62785F 		.ascii	"mbx_list\000"
 3892      6C697374 
 3892      00
 3893              	.LASF73:
 3894 0941 6D61696E 		.ascii	"mainthread\000"
 3894      74687265 
 3894      616400
 3895              	.LASF122:
 3896 094c 534D4352 		.ascii	"SMCR\000"
ARM GAS  /var/folders/vd/czx34qs52cd_f3nb04sxmghc0000gn/T//cc0YHMts.s 			page 77


 3896      00
 3897              	.LASF228:
 3898 0951 70657269 		.ascii	"period\000"
 3898      6F6400
 3899              	.LASF150:
 3900 0958 76657273 		.ascii	"version\000"
 3900      696F6E00 
 3901              	.LASF106:
 3902 0960 41484233 		.ascii	"AHB3LPENR\000"
 3902      4C50454E 
 3902      5200
 3903              	.LASF279:
 3904 096a 5F5F7365 		.ascii	"__set_BASEPRI\000"
 3904      745F4241 
 3904      53455052 
 3904      4900
 3905              	.LASF37:
 3906 0978 77616261 		.ascii	"wabase\000"
 3906      736500
 3907              	.LASF248:
 3908 097f 53657269 		.ascii	"SerialDriver\000"
 3908      616C4472 
 3908      69766572 
 3908      00
 3909              	.LASF185:
 3910 098c 6D656D6F 		.ascii	"memory_pool_t\000"
 3910      72795F70 
 3910      6F6F6C5F 
 3910      7400
 3911              	.LASF209:
 3912 099a 715F7761 		.ascii	"q_waiting\000"
 3912      6974696E 
 3912      6700
 3913              	.LASF71:
 3914 09a4 726C6973 		.ascii	"rlist\000"
 3914      7400
 3915              	.LASF22:
 3916 09aa 746D6F64 		.ascii	"tmode_t\000"
 3916      655F7400 
 3917              	.LASF247:
 3918 09b2 73647374 		.ascii	"sdstate_t\000"
 3918      6174655F 
 3918      7400
 3919              	.LASF97:
 3920 09bc 41484231 		.ascii	"AHB1ENR\000"
 3920      454E5200 
 3921              	.LASF246:
 3922 09c4 53445F52 		.ascii	"SD_READY\000"
 3922      45414459 
 3922      00
 3923              	.LASF99:
 3924 09cd 41484233 		.ascii	"AHB3ENR\000"
 3924      454E5200 
 3925              	.LASF133:
 3926 09d5 746D5F63 		.ascii	"tm_calibration_t\000"
 3926      616C6962 
 3926      72617469 
ARM GAS  /var/folders/vd/czx34qs52cd_f3nb04sxmghc0000gn/T//cc0YHMts.s 			page 78


 3926      6F6E5F74 
 3926      00
 3927              	.LASF91:
 3928 09e6 41484232 		.ascii	"AHB2RSTR\000"
 3928      52535452 
 3928      00
 3929              	.LASF85:
 3930 09ef 4D304152 		.ascii	"M0AR\000"
 3930      00
 3931              	.LASF36:
 3932 09f4 6E616D65 		.ascii	"name\000"
 3932      00
 3933              	.LASF272:
 3934 09f9 706F7274 		.ascii	"port_lock\000"
 3934      5F6C6F63 
 3934      6B00
 3935              	.LASF170:
 3936 0a03 6C697374 		.ascii	"listener\000"
 3936      656E6572 
 3936      00
 3937              	.LASF79:
 3938 0a0c 41504250 		.ascii	"APBPrescTable\000"
 3938      72657363 
 3938      5461626C 
 3938      6500
 3939              	.LASF224:
 3940 0a1a 50574D5F 		.ascii	"PWM_READY\000"
 3940      52454144 
 3940      5900
 3941              	.LASF115:
 3942 0a24 5243435F 		.ascii	"RCC_TypeDef\000"
 3942      54797065 
 3942      44656600 
 3943              	.LASF7:
 3944 0a30 73686F72 		.ascii	"short int\000"
 3944      7420696E 
 3944      7400
 3945              	.LASF173:
 3946 0a3a 6576656E 		.ascii	"event_source\000"
 3946      745F736F 
 3946      75726365 
 3946      00
 3947              	.LASF20:
 3948 0a47 75696E74 		.ascii	"uint64_t\000"
 3948      36345F74 
 3948      00
 3949              	.LASF237:
 3950 0a50 6D6F6465 		.ascii	"mode\000"
 3950      00
 3951              	.LASF62:
 3952 0a55 66756E63 		.ascii	"func\000"
 3952      00
 3953              	.LASF143:
 3954 0a5a 63685F6D 		.ascii	"ch_mutex\000"
 3954      75746578 
 3954      00
 3955              	.LASF42:
ARM GAS  /var/folders/vd/czx34qs52cd_f3nb04sxmghc0000gn/T//cc0YHMts.s 			page 79


 3956 0a63 6D736771 		.ascii	"msgqueue\000"
 3956      75657565 
 3956      00
 3957              	.LASF250:
 3958 0a6c 69717565 		.ascii	"iqueue\000"
 3958      756500
 3959              	.LASF263:
 3960 0a73 56656374 		.ascii	"VectorB0\000"
 3960      6F724230 
 3960      00
 3961              	.LASF67:
 3962 0a7c 63685F73 		.ascii	"ch_system_debug\000"
 3962      79737465 
 3962      6D5F6465 
 3962      62756700 
 3963              	.LASF189:
 3964 0a8c 64796E5F 		.ascii	"dyn_list_t\000"
 3964      6C697374 
 3964      5F7400
 3965              	.LASF207:
 3966 0a97 696F5F71 		.ascii	"io_queue_t\000"
 3966      75657565 
 3966      5F7400
 3967              	.LASF182:
 3968 0aa2 6F626A65 		.ascii	"object_size\000"
 3968      63745F73 
 3968      697A6500 
 3969              	.LASF72:
 3970 0aae 76746C69 		.ascii	"vtlist\000"
 3970      737400
 3971              	.LASF41:
 3972 0ab5 77616974 		.ascii	"waiting\000"
 3972      696E6700 
 3973              	.LASF242:
 3974 0abd 50574D43 		.ascii	"PWMConfig\000"
 3974      6F6E6669 
 3974      6700
 3975              	.LASF167:
 3976 0ac7 6D757465 		.ascii	"mutex_t\000"
 3976      785F7400 
 3977              	.LASF24:
 3978 0acf 74726566 		.ascii	"trefs_t\000"
 3978      735F7400 
 3979              	.LASF120:
 3980 0ad7 706F7274 		.ascii	"port_context\000"
 3980      5F636F6E 
 3980      74657874 
 3980      00
 3981              	.LASF48:
 3982 0ae4 74687265 		.ascii	"threads_list_t\000"
 3982      6164735F 
 3982      6C697374 
 3982      5F7400
 3983              	.LASF243:
 3984 0af3 50574D44 		.ascii	"PWMD4\000"
 3984      3400
 3985              	.LASF70:
ARM GAS  /var/folders/vd/czx34qs52cd_f3nb04sxmghc0000gn/T//cc0YHMts.s 			page 80


 3986 0af9 63685F73 		.ascii	"ch_system\000"
 3986      79737465 
 3986      6D00
 3987              	.LASF225:
 3988 0b03 70776D73 		.ascii	"pwmstate_t\000"
 3988      74617465 
 3988      5F7400
 3989              	.LASF34:
 3990 0b0e 6E657765 		.ascii	"newer\000"
 3990      7200
 3991              	.LASF127:
 3992 0b14 42445452 		.ascii	"BDTR\000"
 3992      00
 3993              	.LASF273:
 3994 0b19 6E766963 		.ascii	"nvicEnableVector\000"
 3994      456E6162 
 3994      6C655665 
 3994      63746F72 
 3994      00
 3995              	.LASF19:
 3996 0b2a 75696E74 		.ascii	"uint32_t\000"
 3996      33325F74 
 3996      00
 3997              	.LASF278:
 3998 0b33 2F557365 		.ascii	"/Users/lantian/Projects/stm32f407vet6/dev\000"
 3998      72732F6C 
 3998      616E7469 
 3998      616E2F50 
 3998      726F6A65 
 3999              	.LASF255:
 4000 0b5d 696E7374 		.ascii	"instance_offset\000"
 4000      616E6365 
 4000      5F6F6666 
 4000      73657400 
 4001              	.LASF218:
 4002 0b6d 696E7075 		.ascii	"input_queue_t\000"
 4002      745F7175 
 4002      6575655F 
 4002      7400
 4003              	.LASF169:
 4004 0b7b 6576656E 		.ascii	"event_listener\000"
 4004      745F6C69 
 4004      7374656E 
 4004      657200
 4005              	.LASF134:
 4006 0b8a 7264796D 		.ascii	"rdymsg\000"
 4006      736700
 4007              	.LASF213:
 4008 0b91 715F7772 		.ascii	"q_wrptr\000"
 4008      70747200 
 4009              	.LASF9:
 4010 0b99 73686F72 		.ascii	"short unsigned int\000"
 4010      7420756E 
 4010      7369676E 
 4010      65642069 
 4010      6E7400
 4011              	.LASF69:
ARM GAS  /var/folders/vd/czx34qs52cd_f3nb04sxmghc0000gn/T//cc0YHMts.s 			page 81


 4012 0bac 63685F73 		.ascii	"ch_system_t\000"
 4012      79737465 
 4012      6D5F7400 
 4013              	.LASF165:
 4014 0bb8 63686465 		.ascii	"chdebug_t\000"
 4014      6275675F 
 4014      7400
 4015              	.LASF219:
 4016 0bc2 6F757470 		.ascii	"output_queue_t\000"
 4016      75745F71 
 4016      75657565 
 4016      5F7400
 4017              	.LASF152:
 4018 0bd1 74696D65 		.ascii	"timesize\000"
 4018      73697A65 
 4018      00
 4019              	.LASF10:
 4020 0bda 5F5F696E 		.ascii	"__int32_t\000"
 4020      7433325F 
 4020      7400
 4021              	.LASF245:
 4022 0be4 53445F53 		.ascii	"SD_STOP\000"
 4022      544F5000 
 4023              	.LASF84:
 4024 0bec 4E445452 		.ascii	"NDTR\000"
 4024      00
 4025              	.LASF201:
 4026 0bf1 69666372 		.ascii	"ifcr\000"
 4026      00
 4027              	.LASF180:
 4028 0bf6 63685F6D 		.ascii	"ch_memcore\000"
 4028      656D636F 
 4028      726500
 4029              	.LASF161:
 4030 0c01 6F66665F 		.ascii	"off_flags\000"
 4030      666C6167 
 4030      7300
 4031              	.LASF171:
 4032 0c0b 6576656E 		.ascii	"events\000"
 4032      747300
 4033              	.LASF51:
 4034 0c12 6E657874 		.ascii	"next\000"
 4034      00
 4035              	.LASF54:
 4036 0c17 70726576 		.ascii	"prev\000"
 4036      00
 4037              	.LASF188:
 4038 0c1c 63685F64 		.ascii	"ch_dyn_list\000"
 4038      796E5F6C 
 4038      69737400 
 4039              	.LASF147:
 4040 0c28 6964656E 		.ascii	"identifier\000"
 4040      74696669 
 4040      657200
 4041              		.ident	"GCC: (GNU Tools for Arm Embedded Processors 7-2017-q4-major) 7.2.1 20170904 (release) [ARM
ARM GAS  /var/folders/vd/czx34qs52cd_f3nb04sxmghc0000gn/T//cc0YHMts.s 			page 82


DEFINED SYMBOLS
                            *ABS*:0000000000000000 hal_st_lld.c
/var/folders/vd/czx34qs52cd_f3nb04sxmghc0000gn/T//cc0YHMts.s:16     .text.VectorB0:0000000000000000 $t
/var/folders/vd/czx34qs52cd_f3nb04sxmghc0000gn/T//cc0YHMts.s:24     .text.VectorB0:0000000000000000 VectorB0
/var/folders/vd/czx34qs52cd_f3nb04sxmghc0000gn/T//cc0YHMts.s:111    .text.st_lld_init:0000000000000000 $t
/var/folders/vd/czx34qs52cd_f3nb04sxmghc0000gn/T//cc0YHMts.s:119    .text.st_lld_init:0000000000000000 st_lld_init
/var/folders/vd/czx34qs52cd_f3nb04sxmghc0000gn/T//cc0YHMts.s:192    .text.st_lld_init:0000000000000048 $d

UNDEFINED SYMBOLS
_port_irq_epilogue
chSysTimerHandlerI
nvicEnableVector
