ARM GAS  /var/folders/vd/czx34qs52cd_f3nb04sxmghc0000gn/T//ccqeiOJD.s 			page 1


   1              		.cpu cortex-m4
   2              		.eabi_attribute 20, 1
   3              		.eabi_attribute 21, 1
   4              		.eabi_attribute 23, 3
   5              		.eabi_attribute 24, 1
   6              		.eabi_attribute 25, 1
   7              		.eabi_attribute 26, 1
   8              		.eabi_attribute 30, 2
   9              		.eabi_attribute 34, 1
  10              		.eabi_attribute 18, 4
  11              		.file	"hal_buffers.c"
  12              		.text
  13              	.Ltext0:
  14              		.cfi_sections	.debug_frame
  15              		.section	.text.ibqObjectInit,"ax",%progbits
  16              		.align	1
  17              		.p2align 4,,15
  18              		.global	ibqObjectInit
  19              		.syntax unified
  20              		.thumb
  21              		.thumb_func
  22              		.fpu softvfp
  23              		.type	ibqObjectInit, %function
  24              	ibqObjectInit:
  25              	.LFB313:
  26              		.file 1 "../os/hal/src/hal_buffers.c"
  27              		.loc 1 77 0
  28              		.cfi_startproc
  29              		@ args = 12, pretend = 0, frame = 0
  30              		@ frame_needed = 0, uses_anonymous_args = 0
  31              		@ link register save eliminated.
  32              	.LVL0:
  33 0000 70B4     		push	{r4, r5, r6}
  34              		.cfi_def_cfa_offset 12
  35              		.cfi_offset 4, -12
  36              		.cfi_offset 5, -8
  37              		.cfi_offset 6, -4
  38              		.loc 1 77 0
  39 0002 DDE90354 		ldrd	r5, r4, [sp, #12]
  40              		.loc 1 86 0
  41 0006 0433     		adds	r3, r3, #4
  42              	.LVL1:
  43              		.loc 1 82 0
  44 0008 0172     		strb	r1, [r0, #8]
  45              		.loc 1 77 0
  46 000a 0599     		ldr	r1, [sp, #20]
  47              	.LVL2:
  48              		.loc 1 87 0
  49 000c C361     		str	r3, [r0, #28]
  50              		.loc 1 86 0
  51 000e 05FB0326 		mla	r6, r5, r3, r2
  52              		.loc 1 83 0
  53 0012 0023     		movs	r3, #0
  54              	.LVL3:
  55              		.loc 1 86 0
  56 0014 8661     		str	r6, [r0, #24]
  57              		.loc 1 88 0
ARM GAS  /var/folders/vd/czx34qs52cd_f3nb04sxmghc0000gn/T//ccqeiOJD.s 			page 2


  58 0016 0562     		str	r5, [r0, #32]
  59              		.loc 1 93 0
  60 0018 C0E90C41 		strd	r4, r1, [r0, #48]
  61              	.LBB307:
  62              	.LBB308:
  63              	.LBB309:
  64              	.LBB310:
  65              		.file 2 "../os/rt/include/chschd.h"
  66              		.loc 2 540 0
  67 001c C0E90000 		strd	r0, r0, [r0]
  68              	.LVL4:
  69              	.LBE310:
  70              	.LBE309:
  71              	.LBE308:
  72              	.LBE307:
  73              		.loc 1 85 0
  74 0020 C0E90422 		strd	r2, r2, [r0, #16]
  75              		.loc 1 89 0
  76 0024 4262     		str	r2, [r0, #36]
  77              		.loc 1 83 0
  78 0026 C360     		str	r3, [r0, #12]
  79              		.loc 1 91 0
  80 0028 C0E90A33 		strd	r3, r3, [r0, #40]
  81              		.loc 1 94 0
  82 002c 70BC     		pop	{r4, r5, r6}
  83              		.cfi_restore 6
  84              		.cfi_restore 5
  85              		.cfi_restore 4
  86              		.cfi_def_cfa_offset 0
  87              	.LVL5:
  88 002e 7047     		bx	lr
  89              		.cfi_endproc
  90              	.LFE313:
  91              		.size	ibqObjectInit, .-ibqObjectInit
  92              		.section	.text.ibqResetI,"ax",%progbits
  93              		.align	1
  94              		.p2align 4,,15
  95              		.global	ibqResetI
  96              		.syntax unified
  97              		.thumb
  98              		.thumb_func
  99              		.fpu softvfp
 100              		.type	ibqResetI, %function
 101              	ibqResetI:
 102              	.LFB314:
 103              		.loc 1 107 0
 104              		.cfi_startproc
 105              		@ args = 0, pretend = 0, frame = 0
 106              		@ frame_needed = 0, uses_anonymous_args = 0
 107              		@ link register save eliminated.
 108              	.LVL6:
 109              		.loc 1 112 0
 110 0000 416A     		ldr	r1, [r0, #36]
 111              		.loc 1 111 0
 112 0002 0022     		movs	r2, #0
 113              		.loc 1 113 0
 114 0004 C0E90411 		strd	r1, r1, [r0, #16]
ARM GAS  /var/folders/vd/czx34qs52cd_f3nb04sxmghc0000gn/T//ccqeiOJD.s 			page 3


 115              		.loc 1 111 0
 116 0008 C260     		str	r2, [r0, #12]
 117              		.loc 1 115 0
 118 000a C0E90A22 		strd	r2, r2, [r0, #40]
 119              	.LVL7:
 120              	.LBB311:
 121              	.LBB312:
 122              		.file 3 "../os/hal/osal/rt/osal.h"
 123              		.loc 3 857 0
 124 000e 6FF00101 		mvn	r1, #1
 125 0012 FFF7FEBF 		b	chThdDequeueAllI
 126              	.LVL8:
 127              	.LBE312:
 128              	.LBE311:
 129              		.cfi_endproc
 130              	.LFE314:
 131              		.size	ibqResetI, .-ibqResetI
 132 0016 00BF     		.section	.text.ibqGetEmptyBufferI,"ax",%progbits
 133              		.align	1
 134              		.p2align 4,,15
 135              		.global	ibqGetEmptyBufferI
 136              		.syntax unified
 137              		.thumb
 138              		.thumb_func
 139              		.fpu softvfp
 140              		.type	ibqGetEmptyBufferI, %function
 141              	ibqGetEmptyBufferI:
 142              	.LFB315:
 143              		.loc 1 129 0
 144              		.cfi_startproc
 145              		@ args = 0, pretend = 0, frame = 0
 146              		@ frame_needed = 0, uses_anonymous_args = 0
 147              		@ link register save eliminated.
 148              	.LVL9:
 149              		.loc 1 133 0
 150 0000 D0E90432 		ldrd	r3, r2, [r0, #16]
 151 0004 9342     		cmp	r3, r2
 152 0006 01D0     		beq	.L11
 153              	.L6:
 154              		.loc 1 137 0
 155 0008 181D     		adds	r0, r3, #4
 156              	.LVL10:
 157              		.loc 1 138 0
 158 000a 7047     		bx	lr
 159              	.LVL11:
 160              	.L11:
 161              		.loc 1 133 0 discriminator 1
 162 000c C268     		ldr	r2, [r0, #12]
 163 000e 002A     		cmp	r2, #0
 164 0010 FAD0     		beq	.L6
 165              		.loc 1 134 0
 166 0012 0020     		movs	r0, #0
 167              	.LVL12:
 168 0014 7047     		bx	lr
 169              		.cfi_endproc
 170              	.LFE315:
 171              		.size	ibqGetEmptyBufferI, .-ibqGetEmptyBufferI
ARM GAS  /var/folders/vd/czx34qs52cd_f3nb04sxmghc0000gn/T//ccqeiOJD.s 			page 4


 172 0016 00BF     		.section	.text.ibqPostFullBufferI,"ax",%progbits
 173              		.align	1
 174              		.p2align 4,,15
 175              		.global	ibqPostFullBufferI
 176              		.syntax unified
 177              		.thumb
 178              		.thumb_func
 179              		.fpu softvfp
 180              		.type	ibqPostFullBufferI, %function
 181              	ibqPostFullBufferI:
 182              	.LFB316:
 183              		.loc 1 148 0
 184              		.cfi_startproc
 185              		@ args = 0, pretend = 0, frame = 0
 186              		@ frame_needed = 0, uses_anonymous_args = 0
 187              		@ link register save eliminated.
 188              	.LVL13:
 189              		.loc 1 156 0
 190 0000 0369     		ldr	r3, [r0, #16]
 191              		.loc 1 148 0
 192 0002 10B4     		push	{r4}
 193              		.cfi_def_cfa_offset 4
 194              		.cfi_offset 4, -4
 195              		.loc 1 161 0
 196 0004 8469     		ldr	r4, [r0, #24]
 197              		.loc 1 156 0
 198 0006 1960     		str	r1, [r3]
 199              		.loc 1 160 0
 200 0008 C169     		ldr	r1, [r0, #28]
 201              	.LVL14:
 202              		.loc 1 159 0
 203 000a C268     		ldr	r2, [r0, #12]
 204              		.loc 1 160 0
 205 000c 0B44     		add	r3, r3, r1
 206              	.LVL15:
 207              		.loc 1 161 0
 208 000e A342     		cmp	r3, r4
 209              		.loc 1 160 0
 210 0010 0361     		str	r3, [r0, #16]
 211              	.LVL16:
 212              		.loc 1 159 0
 213 0012 02F10102 		add	r2, r2, #1
 214              		.loc 1 162 0
 215 0016 28BF     		it	cs
 216 0018 436A     		ldrcs	r3, [r0, #36]
 217              		.loc 1 159 0
 218 001a C260     		str	r2, [r0, #12]
 219              		.loc 1 162 0
 220 001c 28BF     		it	cs
 221 001e 0361     		strcs	r3, [r0, #16]
 222              	.LVL17:
 223              	.LBB313:
 224              	.LBB314:
 225              		.loc 3 844 0
 226 0020 0021     		movs	r1, #0
 227              	.LBE314:
 228              	.LBE313:
ARM GAS  /var/folders/vd/czx34qs52cd_f3nb04sxmghc0000gn/T//ccqeiOJD.s 			page 5


 229              		.loc 1 167 0
 230 0022 10BC     		pop	{r4}
 231              		.cfi_restore 4
 232              		.cfi_def_cfa_offset 0
 233              	.LBB316:
 234              	.LBB315:
 235              		.loc 3 844 0
 236 0024 FFF7FEBF 		b	chThdDequeueNextI
 237              	.LVL18:
 238              	.LBE315:
 239              	.LBE316:
 240              		.cfi_endproc
 241              	.LFE316:
 242              		.size	ibqPostFullBufferI, .-ibqPostFullBufferI
 243              		.section	.text.ibqGetFullBufferTimeoutS,"ax",%progbits
 244              		.align	1
 245              		.p2align 4,,15
 246              		.global	ibqGetFullBufferTimeoutS
 247              		.syntax unified
 248              		.thumb
 249              		.thumb_func
 250              		.fpu softvfp
 251              		.type	ibqGetFullBufferTimeoutS, %function
 252              	ibqGetFullBufferTimeoutS:
 253              	.LFB318:
 254              		.loc 1 223 0
 255              		.cfi_startproc
 256              		@ args = 0, pretend = 0, frame = 0
 257              		@ frame_needed = 0, uses_anonymous_args = 0
 258              	.LVL19:
 259 0000 38B5     		push	{r3, r4, r5, lr}
 260              		.cfi_def_cfa_offset 16
 261              		.cfi_offset 3, -16
 262              		.cfi_offset 4, -12
 263              		.cfi_offset 5, -8
 264              		.cfi_offset 14, -4
 265              		.loc 1 223 0
 266 0002 0446     		mov	r4, r0
 267 0004 0D46     		mov	r5, r1
 268              		.loc 1 227 0
 269 0006 05E0     		b	.L16
 270              	.LVL20:
 271              	.L18:
 272              	.LBB325:
 273              		.loc 1 228 0
 274 0008 237A     		ldrb	r3, [r4, #8]	@ zero_extendqisi2
 275 000a 83B9     		cbnz	r3, .L19
 276              	.LBB326:
 277              	.LBB327:
 278              		.loc 3 831 0
 279 000c FFF7FEFF 		bl	chThdEnqueueTimeoutS
 280              	.LVL21:
 281              	.LBE327:
 282              	.LBE326:
 283              		.loc 1 232 0
 284 0010 0028     		cmp	r0, #0
 285 0012 0BDB     		blt	.L15
ARM GAS  /var/folders/vd/czx34qs52cd_f3nb04sxmghc0000gn/T//ccqeiOJD.s 			page 6


 286              	.L16:
 287              	.LVL22:
 288              	.LBE325:
 289              		.loc 1 227 0
 290 0014 E368     		ldr	r3, [r4, #12]
 291              	.LBB330:
 292              	.LBB329:
 293              	.LBB328:
 294              		.loc 3 831 0
 295 0016 2946     		mov	r1, r5
 296 0018 2046     		mov	r0, r4
 297              	.LBE328:
 298              	.LBE329:
 299              	.LBE330:
 300              		.loc 1 227 0
 301 001a 002B     		cmp	r3, #0
 302 001c F4D0     		beq	.L18
 303              	.LVL23:
 304              	.LBB331:
 305              	.LBB332:
 306              		.loc 1 240 0
 307 001e 6369     		ldr	r3, [r4, #20]
 308              		.loc 1 241 0
 309 0020 1A68     		ldr	r2, [r3]
 310              		.loc 1 240 0
 311 0022 0433     		adds	r3, r3, #4
 312              		.loc 1 241 0
 313 0024 1A44     		add	r2, r2, r3
 314              		.loc 1 240 0
 315 0026 C4E90A32 		strd	r3, r2, [r4, #40]
 316              		.loc 1 241 0
 317 002a 0020     		movs	r0, #0
 318              	.LVL24:
 319              	.L15:
 320              	.LBE332:
 321              	.LBE331:
 322              		.loc 1 244 0
 323 002c 38BD     		pop	{r3, r4, r5, pc}
 324              	.LVL25:
 325              	.L19:
 326              	.LBB333:
 327              		.loc 1 229 0
 328 002e 6FF00100 		mvn	r0, #1
 329              	.LVL26:
 330              	.LBE333:
 331              		.loc 1 244 0
 332 0032 38BD     		pop	{r3, r4, r5, pc}
 333              		.cfi_endproc
 334              	.LFE318:
 335              		.size	ibqGetFullBufferTimeoutS, .-ibqGetFullBufferTimeoutS
 336              		.section	.text.ibqGetFullBufferTimeout,"ax",%progbits
 337              		.align	1
 338              		.p2align 4,,15
 339              		.global	ibqGetFullBufferTimeout
 340              		.syntax unified
 341              		.thumb
 342              		.thumb_func
ARM GAS  /var/folders/vd/czx34qs52cd_f3nb04sxmghc0000gn/T//ccqeiOJD.s 			page 7


 343              		.fpu softvfp
 344              		.type	ibqGetFullBufferTimeout, %function
 345              	ibqGetFullBufferTimeout:
 346              	.LFB317:
 347              		.loc 1 191 0
 348              		.cfi_startproc
 349              		@ args = 0, pretend = 0, frame = 0
 350              		@ frame_needed = 0, uses_anonymous_args = 0
 351              	.LVL27:
 352 0000 08B5     		push	{r3, lr}
 353              		.cfi_def_cfa_offset 8
 354              		.cfi_offset 3, -8
 355              		.cfi_offset 14, -4
 356              	.LBB334:
 357              	.LBB335:
 358              	.LBB336:
 359              	.LBB337:
 360              	.LBB338:
 361              		.file 4 "../os/common/ext/ARM/CMSIS/Core/Include/cmsis_gcc.h"
 362              		.loc 4 490 0
 363 0002 2023     		movs	r3, #32
 364              		.syntax unified
 365              	@ 490 "../os/common/ext/ARM/CMSIS/Core/Include/cmsis_gcc.h" 1
 366 0004 83F31188 		MSR basepri, r3
 367              	@ 0 "" 2
 368              	.LVL28:
 369              		.thumb
 370              		.syntax unified
 371              	.LBE338:
 372              	.LBE337:
 373              	.LBE336:
 374              	.LBE335:
 375              	.LBE334:
 376              		.loc 1 195 0
 377 0008 FFF7FEFF 		bl	ibqGetFullBufferTimeoutS
 378              	.LVL29:
 379              	.LBB339:
 380              	.LBB340:
 381              	.LBB341:
 382              	.LBB342:
 383              	.LBB343:
 384              	.LBB344:
 385              		.loc 4 490 0
 386 000c 0023     		movs	r3, #0
 387              		.syntax unified
 388              	@ 490 "../os/common/ext/ARM/CMSIS/Core/Include/cmsis_gcc.h" 1
 389 000e 83F31188 		MSR basepri, r3
 390              	@ 0 "" 2
 391              	.LVL30:
 392              		.thumb
 393              		.syntax unified
 394              	.LBE344:
 395              	.LBE343:
 396              	.LBE342:
 397              	.LBE341:
 398              	.LBE340:
 399              	.LBE339:
ARM GAS  /var/folders/vd/czx34qs52cd_f3nb04sxmghc0000gn/T//ccqeiOJD.s 			page 8


 400              		.loc 1 199 0
 401 0012 08BD     		pop	{r3, pc}
 402              		.cfi_endproc
 403              	.LFE317:
 404              		.size	ibqGetFullBufferTimeout, .-ibqGetFullBufferTimeout
 405              		.section	.text.ibqReleaseEmptyBuffer,"ax",%progbits
 406              		.align	1
 407              		.p2align 4,,15
 408              		.global	ibqReleaseEmptyBuffer
 409              		.syntax unified
 410              		.thumb
 411              		.thumb_func
 412              		.fpu softvfp
 413              		.type	ibqReleaseEmptyBuffer, %function
 414              	ibqReleaseEmptyBuffer:
 415              	.LFB319:
 416              		.loc 1 254 0
 417              		.cfi_startproc
 418              		@ args = 0, pretend = 0, frame = 0
 419              		@ frame_needed = 0, uses_anonymous_args = 0
 420              	.LVL31:
 421 0000 10B5     		push	{r4, lr}
 422              		.cfi_def_cfa_offset 8
 423              		.cfi_offset 4, -8
 424              		.cfi_offset 14, -4
 425              	.LBB345:
 426              	.LBB346:
 427              	.LBB347:
 428              	.LBB348:
 429              	.LBB349:
 430              		.loc 4 490 0
 431 0002 2023     		movs	r3, #32
 432              		.syntax unified
 433              	@ 490 "../os/common/ext/ARM/CMSIS/Core/Include/cmsis_gcc.h" 1
 434 0004 83F31188 		MSR basepri, r3
 435              	@ 0 "" 2
 436              	.LVL32:
 437              		.thumb
 438              		.syntax unified
 439              	.LBE349:
 440              	.LBE348:
 441              	.LBE347:
 442              	.LBE346:
 443              	.LBE345:
 444              	.LBB350:
 445              	.LBB351:
 446              		.loc 1 277 0
 447 0008 D0E90614 		ldrd	r1, r4, [r0, #24]
 448              		.loc 1 276 0
 449 000c 4369     		ldr	r3, [r0, #20]
 450              		.loc 1 275 0
 451 000e C268     		ldr	r2, [r0, #12]
 452              		.loc 1 276 0
 453 0010 2344     		add	r3, r3, r4
 454              		.loc 1 277 0
 455 0012 8B42     		cmp	r3, r1
 456              		.loc 1 276 0
ARM GAS  /var/folders/vd/czx34qs52cd_f3nb04sxmghc0000gn/T//ccqeiOJD.s 			page 9


 457 0014 4361     		str	r3, [r0, #20]
 458              		.loc 1 278 0
 459 0016 24BF     		itt	cs
 460 0018 436A     		ldrcs	r3, [r0, #36]
 461 001a 4361     		strcs	r3, [r0, #20]
 462              		.loc 1 275 0
 463 001c 013A     		subs	r2, r2, #1
 464              		.loc 1 285 0
 465 001e 036B     		ldr	r3, [r0, #48]
 466              		.loc 1 275 0
 467 0020 C260     		str	r2, [r0, #12]
 468              		.loc 1 282 0
 469 0022 0022     		movs	r2, #0
 470 0024 8262     		str	r2, [r0, #40]
 471              		.loc 1 285 0
 472 0026 03B1     		cbz	r3, .L25
 473              		.loc 1 286 0
 474 0028 9847     		blx	r3
 475              	.LVL33:
 476              	.L25:
 477              	.LBE351:
 478              	.LBE350:
 479              	.LBB352:
 480              	.LBB353:
 481              	.LBB354:
 482              	.LBB355:
 483              	.LBB356:
 484              	.LBB357:
 485              		.loc 4 490 0
 486 002a 0023     		movs	r3, #0
 487              		.syntax unified
 488              	@ 490 "../os/common/ext/ARM/CMSIS/Core/Include/cmsis_gcc.h" 1
 489 002c 83F31188 		MSR basepri, r3
 490              	@ 0 "" 2
 491              	.LVL34:
 492              		.thumb
 493              		.syntax unified
 494              	.LBE357:
 495              	.LBE356:
 496              	.LBE355:
 497              	.LBE354:
 498              	.LBE353:
 499              	.LBE352:
 500              		.loc 1 259 0
 501 0030 10BD     		pop	{r4, pc}
 502              		.cfi_endproc
 503              	.LFE319:
 504              		.size	ibqReleaseEmptyBuffer, .-ibqReleaseEmptyBuffer
 505 0032 00BF     		.section	.text.ibqReleaseEmptyBufferS,"ax",%progbits
 506              		.align	1
 507              		.p2align 4,,15
 508              		.global	ibqReleaseEmptyBufferS
 509              		.syntax unified
 510              		.thumb
 511              		.thumb_func
 512              		.fpu softvfp
 513              		.type	ibqReleaseEmptyBufferS, %function
ARM GAS  /var/folders/vd/czx34qs52cd_f3nb04sxmghc0000gn/T//ccqeiOJD.s 			page 10


 514              	ibqReleaseEmptyBufferS:
 515              	.LFB320:
 516              		.loc 1 269 0
 517              		.cfi_startproc
 518              		@ args = 0, pretend = 0, frame = 0
 519              		@ frame_needed = 0, uses_anonymous_args = 0
 520              		@ link register save eliminated.
 521              	.LVL35:
 522 0000 10B4     		push	{r4}
 523              		.cfi_def_cfa_offset 4
 524              		.cfi_offset 4, -4
 525              		.loc 1 277 0
 526 0002 D0E90614 		ldrd	r1, r4, [r0, #24]
 527              		.loc 1 276 0
 528 0006 4369     		ldr	r3, [r0, #20]
 529              		.loc 1 275 0
 530 0008 C268     		ldr	r2, [r0, #12]
 531              		.loc 1 276 0
 532 000a 2344     		add	r3, r3, r4
 533              		.loc 1 277 0
 534 000c 8B42     		cmp	r3, r1
 535              		.loc 1 276 0
 536 000e 4361     		str	r3, [r0, #20]
 537              		.loc 1 278 0
 538 0010 24BF     		itt	cs
 539 0012 436A     		ldrcs	r3, [r0, #36]
 540 0014 4361     		strcs	r3, [r0, #20]
 541              		.loc 1 275 0
 542 0016 013A     		subs	r2, r2, #1
 543              		.loc 1 285 0
 544 0018 036B     		ldr	r3, [r0, #48]
 545              		.loc 1 275 0
 546 001a C260     		str	r2, [r0, #12]
 547              		.loc 1 282 0
 548 001c 0022     		movs	r2, #0
 549 001e 8262     		str	r2, [r0, #40]
 550              		.loc 1 285 0
 551 0020 0BB1     		cbz	r3, .L30
 552              		.loc 1 288 0
 553 0022 10BC     		pop	{r4}
 554              		.cfi_remember_state
 555              		.cfi_restore 4
 556              		.cfi_def_cfa_offset 0
 557              		.loc 1 286 0
 558 0024 1847     		bx	r3	@ indirect register sibling call
 559              	.LVL36:
 560              	.L30:
 561              		.cfi_restore_state
 562              		.loc 1 288 0
 563 0026 10BC     		pop	{r4}
 564              		.cfi_restore 4
 565              		.cfi_def_cfa_offset 0
 566 0028 7047     		bx	lr
 567              		.cfi_endproc
 568              	.LFE320:
 569              		.size	ibqReleaseEmptyBufferS, .-ibqReleaseEmptyBufferS
 570 002a 00BF     		.section	.text.ibqGetTimeout,"ax",%progbits
ARM GAS  /var/folders/vd/czx34qs52cd_f3nb04sxmghc0000gn/T//ccqeiOJD.s 			page 11


 571              		.align	1
 572              		.p2align 4,,15
 573              		.global	ibqGetTimeout
 574              		.syntax unified
 575              		.thumb
 576              		.thumb_func
 577              		.fpu softvfp
 578              		.type	ibqGetTimeout, %function
 579              	ibqGetTimeout:
 580              	.LFB321:
 581              		.loc 1 309 0
 582              		.cfi_startproc
 583              		@ args = 0, pretend = 0, frame = 0
 584              		@ frame_needed = 0, uses_anonymous_args = 0
 585              	.LVL37:
 586 0000 70B5     		push	{r4, r5, r6, lr}
 587              		.cfi_def_cfa_offset 16
 588              		.cfi_offset 4, -16
 589              		.cfi_offset 5, -12
 590              		.cfi_offset 6, -8
 591              		.cfi_offset 14, -4
 592              	.LBB358:
 593              	.LBB359:
 594              	.LBB360:
 595              	.LBB361:
 596              	.LBB362:
 597              		.loc 4 490 0
 598 0002 2023     		movs	r3, #32
 599              	.LBE362:
 600              	.LBE361:
 601              	.LBE360:
 602              	.LBE359:
 603              	.LBE358:
 604              		.loc 1 309 0
 605 0004 0446     		mov	r4, r0
 606              	.LBB367:
 607              	.LBB366:
 608              	.LBB365:
 609              	.LBB364:
 610              	.LBB363:
 611              		.loc 4 490 0
 612              		.syntax unified
 613              	@ 490 "../os/common/ext/ARM/CMSIS/Core/Include/cmsis_gcc.h" 1
 614 0006 83F31188 		MSR basepri, r3
 615              	@ 0 "" 2
 616              	.LVL38:
 617              		.thumb
 618              		.syntax unified
 619              	.LBE363:
 620              	.LBE364:
 621              	.LBE365:
 622              	.LBE366:
 623              	.LBE367:
 624              		.loc 1 315 0
 625 000a 856A     		ldr	r5, [r0, #40]
 626 000c E5B1     		cbz	r5, .L46
 627              	.LVL39:
ARM GAS  /var/folders/vd/czx34qs52cd_f3nb04sxmghc0000gn/T//ccqeiOJD.s 			page 12


 628              	.L35:
 629              		.loc 1 324 0
 630 000e 15F8016B 		ldrb	r6, [r5], #1	@ zero_extendqisi2
 631              	.LVL40:
 632              		.loc 1 329 0
 633 0012 E26A     		ldr	r2, [r4, #44]
 634              		.loc 1 325 0
 635 0014 A562     		str	r5, [r4, #40]
 636              		.loc 1 329 0
 637 0016 9542     		cmp	r5, r2
 638 0018 11D3     		bcc	.L39
 639              	.LVL41:
 640              	.LBB368:
 641              	.LBB369:
 642              		.loc 1 277 0
 643 001a D4E90610 		ldrd	r1, r0, [r4, #24]
 644              		.loc 1 276 0
 645 001e 6369     		ldr	r3, [r4, #20]
 646              		.loc 1 275 0
 647 0020 E268     		ldr	r2, [r4, #12]
 648              		.loc 1 276 0
 649 0022 0344     		add	r3, r3, r0
 650              		.loc 1 277 0
 651 0024 8B42     		cmp	r3, r1
 652              		.loc 1 276 0
 653 0026 6361     		str	r3, [r4, #20]
 654              		.loc 1 278 0
 655 0028 24BF     		itt	cs
 656 002a 636A     		ldrcs	r3, [r4, #36]
 657 002c 6361     		strcs	r3, [r4, #20]
 658              		.loc 1 275 0
 659 002e 013A     		subs	r2, r2, #1
 660              		.loc 1 285 0
 661 0030 236B     		ldr	r3, [r4, #48]
 662              		.loc 1 275 0
 663 0032 E260     		str	r2, [r4, #12]
 664              		.loc 1 282 0
 665 0034 0022     		movs	r2, #0
 666 0036 A262     		str	r2, [r4, #40]
 667              		.loc 1 285 0
 668 0038 0BB1     		cbz	r3, .L39
 669              		.loc 1 286 0
 670 003a 2046     		mov	r0, r4
 671 003c 9847     		blx	r3
 672              	.LVL42:
 673              	.L39:
 674              	.LBE369:
 675              	.LBE368:
 676              	.LBB370:
 677              	.LBB371:
 678              	.LBB372:
 679              	.LBB373:
 680              	.LBB374:
 681              	.LBB375:
 682              		.loc 4 490 0
 683 003e 0023     		movs	r3, #0
 684              		.syntax unified
ARM GAS  /var/folders/vd/czx34qs52cd_f3nb04sxmghc0000gn/T//ccqeiOJD.s 			page 13


 685              	@ 490 "../os/common/ext/ARM/CMSIS/Core/Include/cmsis_gcc.h" 1
 686 0040 83F31188 		MSR basepri, r3
 687              	@ 0 "" 2
 688              	.LVL43:
 689              		.thumb
 690              		.syntax unified
 691              	.L34:
 692              	.LBE375:
 693              	.LBE374:
 694              	.LBE373:
 695              	.LBE372:
 696              	.LBE371:
 697              	.LBE370:
 698              		.loc 1 335 0
 699 0044 3046     		mov	r0, r6
 700 0046 70BD     		pop	{r4, r5, r6, pc}
 701              	.LVL44:
 702              	.L46:
 703              		.loc 1 316 0
 704 0048 FFF7FEFF 		bl	ibqGetFullBufferTimeoutS
 705              	.LVL45:
 706              		.loc 1 317 0
 707 004c 0646     		mov	r6, r0
 708 004e 08B9     		cbnz	r0, .L36
 709 0050 A56A     		ldr	r5, [r4, #40]
 710 0052 DCE7     		b	.L35
 711              	.L36:
 712              	.LVL46:
 713              	.LBB376:
 714              	.LBB377:
 715              	.LBB378:
 716              	.LBB379:
 717              	.LBB380:
 718              	.LBB381:
 719              		.loc 4 490 0
 720              		.syntax unified
 721              	@ 490 "../os/common/ext/ARM/CMSIS/Core/Include/cmsis_gcc.h" 1
 722 0054 85F31188 		MSR basepri, r5
 723              	@ 0 "" 2
 724              	.LVL47:
 725              		.thumb
 726              		.syntax unified
 727              	.LBE381:
 728              	.LBE380:
 729              	.LBE379:
 730              	.LBE378:
 731              	.LBE377:
 732              	.LBE376:
 733              		.loc 1 319 0
 734 0058 F4E7     		b	.L34
 735              		.cfi_endproc
 736              	.LFE321:
 737              		.size	ibqGetTimeout, .-ibqGetTimeout
 738 005a 00BF     		.section	.text.ibqReadTimeout,"ax",%progbits
 739              		.align	1
 740              		.p2align 4,,15
 741              		.global	ibqReadTimeout
ARM GAS  /var/folders/vd/czx34qs52cd_f3nb04sxmghc0000gn/T//ccqeiOJD.s 			page 14


 742              		.syntax unified
 743              		.thumb
 744              		.thumb_func
 745              		.fpu softvfp
 746              		.type	ibqReadTimeout, %function
 747              	ibqReadTimeout:
 748              	.LFB322:
 749              		.loc 1 359 0
 750              		.cfi_startproc
 751              		@ args = 0, pretend = 0, frame = 8
 752              		@ frame_needed = 0, uses_anonymous_args = 0
 753              	.LVL48:
 754 0000 2DE9F04F 		push	{r4, r5, r6, r7, r8, r9, r10, fp, lr}
 755              		.cfi_def_cfa_offset 36
 756              		.cfi_offset 4, -36
 757              		.cfi_offset 5, -32
 758              		.cfi_offset 6, -28
 759              		.cfi_offset 7, -24
 760              		.cfi_offset 8, -20
 761              		.cfi_offset 9, -16
 762              		.cfi_offset 10, -12
 763              		.cfi_offset 11, -8
 764              		.cfi_offset 14, -4
 765 0004 9946     		mov	r9, r3
 766 0006 83B0     		sub	sp, sp, #12
 767              		.cfi_def_cfa_offset 48
 768              		.loc 1 359 0
 769 0008 0446     		mov	r4, r0
 770 000a 0E46     		mov	r6, r1
 771 000c 1746     		mov	r7, r2
 772              	.LBB382:
 773              	.LBB383:
 774              	.LBB384:
 775              	.LBB385:
 776              	.LBB386:
 777              		.loc 4 490 0
 778 000e 2023     		movs	r3, #32
 779              	.LVL49:
 780              		.syntax unified
 781              	@ 490 "../os/common/ext/ARM/CMSIS/Core/Include/cmsis_gcc.h" 1
 782 0010 83F31188 		MSR basepri, r3
 783              	@ 0 "" 2
 784              	.LVL50:
 785              		.thumb
 786              		.syntax unified
 787              	.LBE386:
 788              	.LBE385:
 789              	.LBE384:
 790              	.LBE383:
 791              	.LBE382:
 792              	.LBB387:
 793              	.LBB388:
 794              	.LBB389:
 795              	.LBB390:
 796              	.LBB391:
 797              		.file 5 "../os/hal/ports/STM32/LLD/TIMv1/hal_st_lld.h"
 798              		.loc 5 141 0
ARM GAS  /var/folders/vd/czx34qs52cd_f3nb04sxmghc0000gn/T//ccqeiOJD.s 			page 15


 799 0014 4FF08043 		mov	r3, #1073741824
 800              	.LBE391:
 801              	.LBE390:
 802              	.LBE389:
 803              	.LBE388:
 804              	.LBE387:
 805              	.LBB396:
 806              		.loc 1 374 0
 807 0018 A16A     		ldr	r1, [r4, #40]
 808              	.LVL51:
 809              	.LBE396:
 810              	.LBB453:
 811              	.LBB395:
 812              	.LBB394:
 813              	.LBB393:
 814              	.LBB392:
 815              		.loc 5 141 0
 816 001a 5A6A     		ldr	r2, [r3, #36]
 817              	.LVL52:
 818              	.LBE392:
 819              	.LBE393:
 820              	.LBE394:
 821              	.LBE395:
 822              	.LBE453:
 823              	.LBB454:
 824              	.LBB397:
 825              	.LBB398:
 826              	.LBB399:
 827              	.LBB400:
 828              	.LBB401:
 829              	.LBB402:
 830              	.LBB403:
 831 001c 0193     		str	r3, [sp, #4]
 832              	.LBE403:
 833              	.LBE402:
 834              	.LBE401:
 835              	.LBE400:
 836              	.LBE399:
 837              	.LBE398:
 838              	.LBE397:
 839              	.LBE454:
 840              		.loc 1 360 0
 841 001e 0025     		movs	r5, #0
 842              	.LBB455:
 843              	.LBB456:
 844              	.LBB457:
 845              		.file 6 "../os/rt/include/chtime.h"
 846              		.loc 6 479 0
 847 0020 09EB0203 		add	r3, r9, r2
 848 0024 0093     		str	r3, [sp]
 849              	.LVL53:
 850              	.LBE457:
 851              	.LBE456:
 852              	.LBE455:
 853              	.LBB458:
 854              	.LBB434:
 855              		.loc 1 379 0
ARM GAS  /var/folders/vd/czx34qs52cd_f3nb04sxmghc0000gn/T//ccqeiOJD.s 			page 16


 856 0026 09F1FF3A 		add	r10, r9, #-1
 857              	.LBE434:
 858              	.LBB435:
 859              	.LBB436:
 860              		.loc 1 282 0
 861 002a A846     		mov	r8, r5
 862              	.LBE436:
 863              	.LBE435:
 864              		.loc 1 374 0
 865 002c 0029     		cmp	r1, #0
 866 002e 43D0     		beq	.L68
 867              	.LVL54:
 868              	.L48:
 869              		.loc 1 404 0
 870 0030 E36A     		ldr	r3, [r4, #44]
 871              		.loc 1 405 0
 872 0032 A7EB050B 		sub	fp, r7, r5
 873              		.loc 1 404 0
 874 0036 5B1A     		subs	r3, r3, r1
 875              	.LVL55:
 876 0038 9B45     		cmp	fp, r3
 877 003a 28BF     		it	cs
 878 003c 9B46     		movcs	fp, r3
 879              	.LVL56:
 880              		.loc 1 411 0
 881 003e BBF1400F 		cmp	fp, #64
 882 0042 49D9     		bls	.L54
 883              		.loc 1 413 0
 884 0044 01F14002 		add	r2, r1, #64
 885 0048 3346     		mov	r3, r6
 886              	.LVL57:
 887              	.L55:
 888 004a D1F800E0 		ldr	lr, [r1]	@ unaligned
 889 004e D1F804C0 		ldr	ip, [r1, #4]	@ unaligned
 890 0052 8868     		ldr	r0, [r1, #8]	@ unaligned
 891 0054 D1F80CB0 		ldr	fp, [r1, #12]	@ unaligned
 892 0058 C3F80CB0 		str	fp, [r3, #12]	@ unaligned
 893 005c 1031     		adds	r1, r1, #16
 894 005e 9142     		cmp	r1, r2
 895 0060 C3F800E0 		str	lr, [r3]	@ unaligned
 896 0064 C3F804C0 		str	ip, [r3, #4]	@ unaligned
 897 0068 9860     		str	r0, [r3, #8]	@ unaligned
 898 006a 03F11003 		add	r3, r3, #16
 899 006e ECD1     		bne	.L55
 900              		.loc 1 415 0
 901 0070 A36A     		ldr	r3, [r4, #40]
 902 0072 4033     		adds	r3, r3, #64
 903              		.loc 1 414 0
 904 0074 4036     		adds	r6, r6, #64
 905              	.LVL58:
 906              		.loc 1 416 0
 907 0076 4035     		adds	r5, r5, #64
 908              	.LVL59:
 909              		.loc 1 415 0
 910 0078 A362     		str	r3, [r4, #40]
 911              	.L56:
 912              		.loc 1 426 0
ARM GAS  /var/folders/vd/czx34qs52cd_f3nb04sxmghc0000gn/T//ccqeiOJD.s 			page 17


 913 007a E26A     		ldr	r2, [r4, #44]
 914 007c 9A42     		cmp	r2, r3
 915 007e 11D8     		bhi	.L58
 916              	.LVL60:
 917              	.LBB438:
 918              	.LBB437:
 919              		.loc 1 277 0
 920 0080 D4E90621 		ldrd	r2, r1, [r4, #24]
 921              		.loc 1 276 0
 922 0084 6369     		ldr	r3, [r4, #20]
 923              		.loc 1 275 0
 924 0086 E068     		ldr	r0, [r4, #12]
 925              		.loc 1 282 0
 926 0088 C4F82880 		str	r8, [r4, #40]
 927              		.loc 1 276 0
 928 008c 0B44     		add	r3, r3, r1
 929              		.loc 1 277 0
 930 008e 9342     		cmp	r3, r2
 931              		.loc 1 276 0
 932 0090 6361     		str	r3, [r4, #20]
 933              		.loc 1 278 0
 934 0092 24BF     		itt	cs
 935 0094 636A     		ldrcs	r3, [r4, #36]
 936 0096 6361     		strcs	r3, [r4, #20]
 937              		.loc 1 285 0
 938 0098 236B     		ldr	r3, [r4, #48]
 939              		.loc 1 275 0
 940 009a 0138     		subs	r0, r0, #1
 941 009c E060     		str	r0, [r4, #12]
 942              		.loc 1 285 0
 943 009e 0BB1     		cbz	r3, .L58
 944              		.loc 1 286 0
 945 00a0 2046     		mov	r0, r4
 946 00a2 9847     		blx	r3
 947              	.LVL61:
 948              	.L58:
 949              	.LBE437:
 950              	.LBE438:
 951              	.LBB439:
 952              	.LBB440:
 953              	.LBB441:
 954              	.LBB442:
 955              	.LBB443:
 956              	.LBB444:
 957              		.loc 4 490 0
 958              		.syntax unified
 959              	@ 490 "../os/common/ext/ARM/CMSIS/Core/Include/cmsis_gcc.h" 1
 960 00a4 88F31188 		MSR basepri, r8
 961              	@ 0 "" 2
 962              	.LVL62:
 963              		.thumb
 964              		.syntax unified
 965              	.LBE444:
 966              	.LBE443:
 967              	.LBE442:
 968              	.LBE441:
 969              	.LBE440:
ARM GAS  /var/folders/vd/czx34qs52cd_f3nb04sxmghc0000gn/T//ccqeiOJD.s 			page 18


 970              	.LBE439:
 971              		.loc 1 432 0
 972 00a8 BD42     		cmp	r5, r7
 973 00aa 28D2     		bcs	.L47
 974              	.LVL63:
 975              	.LBB445:
 976              	.LBB446:
 977              	.LBB447:
 978              	.LBB448:
 979              	.LBB449:
 980              		.loc 4 490 0
 981 00ac 2023     		movs	r3, #32
 982              		.syntax unified
 983              	@ 490 "../os/common/ext/ARM/CMSIS/Core/Include/cmsis_gcc.h" 1
 984 00ae 83F31188 		MSR basepri, r3
 985              	@ 0 "" 2
 986              	.LVL64:
 987              		.thumb
 988              		.syntax unified
 989              	.LBE449:
 990              	.LBE448:
 991              	.LBE447:
 992              	.LBE446:
 993              	.LBE445:
 994              		.loc 1 374 0
 995 00b2 A16A     		ldr	r1, [r4, #40]
 996 00b4 0029     		cmp	r1, #0
 997 00b6 BBD1     		bne	.L48
 998              	.L68:
 999              	.LBB450:
 1000              		.loc 1 379 0
 1001 00b8 1AF1030F 		cmn	r10, #3
 1002 00bc 16D8     		bhi	.L69
 1003              	.LBB426:
 1004              	.LBB412:
 1005              	.LBB410:
 1006              	.LBB408:
 1007              	.LBB406:
 1008              	.LBB404:
 1009              		.loc 5 141 0
 1010 00be 019B     		ldr	r3, [sp, #4]
 1011              	.LBE404:
 1012              	.LBE406:
 1013              	.LBE408:
 1014              	.LBE410:
 1015              	.LBE412:
 1016              	.LBB413:
 1017              	.LBB414:
 1018              	.LBB415:
 1019              		.loc 6 495 0
 1020 00c0 009A     		ldr	r2, [sp]
 1021              	.LBE415:
 1022              	.LBE414:
 1023              	.LBE413:
 1024              	.LBB418:
 1025              	.LBB411:
 1026              	.LBB409:
ARM GAS  /var/folders/vd/czx34qs52cd_f3nb04sxmghc0000gn/T//ccqeiOJD.s 			page 19


 1027              	.LBB407:
 1028              	.LBB405:
 1029              		.loc 5 141 0
 1030 00c2 5B6A     		ldr	r3, [r3, #36]
 1031              	.LVL65:
 1032              	.LBE405:
 1033              	.LBE407:
 1034              	.LBE409:
 1035              	.LBE411:
 1036              	.LBE418:
 1037              	.LBB419:
 1038              	.LBB417:
 1039              	.LBB416:
 1040              		.loc 6 495 0
 1041 00c4 D31A     		subs	r3, r2, r3
 1042              	.LVL66:
 1043              	.LBE416:
 1044              	.LBE417:
 1045              	.LBE419:
 1046              		.loc 1 389 0
 1047 00c6 9945     		cmp	r9, r3
 1048 00c8 1DD3     		bcc	.L70
 1049              		.loc 1 393 0
 1050 00ca 1946     		mov	r1, r3
 1051 00cc 2046     		mov	r0, r4
 1052 00ce FFF7FEFF 		bl	ibqGetFullBufferTimeoutS
 1053              	.LVL67:
 1054              	.LBE426:
 1055              		.loc 1 397 0
 1056 00d2 88B9     		cbnz	r0, .L53
 1057              	.L71:
 1058 00d4 A16A     		ldr	r1, [r4, #40]
 1059 00d6 ABE7     		b	.L48
 1060              	.LVL68:
 1061              	.L54:
 1062              	.LBE450:
 1063              		.loc 1 419 0
 1064 00d8 3046     		mov	r0, r6
 1065 00da 5A46     		mov	r2, fp
 1066 00dc FFF7FEFF 		bl	memcpy
 1067              	.LVL69:
 1068              		.loc 1 421 0
 1069 00e0 A36A     		ldr	r3, [r4, #40]
 1070 00e2 5B44     		add	r3, r3, fp
 1071              		.loc 1 422 0
 1072 00e4 5D44     		add	r5, r5, fp
 1073              	.LVL70:
 1074              		.loc 1 420 0
 1075 00e6 5E44     		add	r6, r6, fp
 1076              	.LVL71:
 1077              		.loc 1 421 0
 1078 00e8 A362     		str	r3, [r4, #40]
 1079 00ea C6E7     		b	.L56
 1080              	.LVL72:
 1081              	.L69:
 1082              	.LBB451:
 1083              		.loc 1 380 0
ARM GAS  /var/folders/vd/czx34qs52cd_f3nb04sxmghc0000gn/T//ccqeiOJD.s 			page 20


 1084 00ec 4946     		mov	r1, r9
 1085 00ee 2046     		mov	r0, r4
 1086 00f0 FFF7FEFF 		bl	ibqGetFullBufferTimeoutS
 1087              	.LVL73:
 1088              		.loc 1 397 0
 1089 00f4 0028     		cmp	r0, #0
 1090 00f6 EDD0     		beq	.L71
 1091              	.L53:
 1092              	.LVL74:
 1093              	.LBB427:
 1094              	.LBB428:
 1095              	.LBB429:
 1096              	.LBB430:
 1097              	.LBB431:
 1098              	.LBB432:
 1099              		.loc 4 490 0
 1100 00f8 0023     		movs	r3, #0
 1101              		.syntax unified
 1102              	@ 490 "../os/common/ext/ARM/CMSIS/Core/Include/cmsis_gcc.h" 1
 1103 00fa 83F31188 		MSR basepri, r3
 1104              	@ 0 "" 2
 1105              	.LVL75:
 1106              		.thumb
 1107              		.syntax unified
 1108              	.L47:
 1109              	.LBE432:
 1110              	.LBE431:
 1111              	.LBE430:
 1112              	.LBE429:
 1113              	.LBE428:
 1114              	.LBE427:
 1115              	.LBE451:
 1116              	.LBE458:
 1117              		.loc 1 437 0
 1118 00fe 2846     		mov	r0, r5
 1119 0100 03B0     		add	sp, sp, #12
 1120              		.cfi_remember_state
 1121              		.cfi_def_cfa_offset 36
 1122              		@ sp needed
 1123 0102 BDE8F08F 		pop	{r4, r5, r6, r7, r8, r9, r10, fp, pc}
 1124              	.LVL76:
 1125              	.L70:
 1126              		.cfi_restore_state
 1127              	.LBB459:
 1128              	.LBB452:
 1129              	.LBB433:
 1130              	.LBB420:
 1131              	.LBB421:
 1132              	.LBB422:
 1133              	.LBB423:
 1134              	.LBB424:
 1135              	.LBB425:
 1136              		.loc 4 490 0
 1137              		.syntax unified
 1138              	@ 490 "../os/common/ext/ARM/CMSIS/Core/Include/cmsis_gcc.h" 1
 1139 0106 81F31188 		MSR basepri, r1
 1140              	@ 0 "" 2
ARM GAS  /var/folders/vd/czx34qs52cd_f3nb04sxmghc0000gn/T//ccqeiOJD.s 			page 21


 1141              	.LVL77:
 1142              		.thumb
 1143              		.syntax unified
 1144              	.LBE425:
 1145              	.LBE424:
 1146              	.LBE423:
 1147              	.LBE422:
 1148              	.LBE421:
 1149              	.LBE420:
 1150              	.LBE433:
 1151              	.LBE452:
 1152              	.LBE459:
 1153              		.loc 1 437 0
 1154 010a 2846     		mov	r0, r5
 1155 010c 03B0     		add	sp, sp, #12
 1156              		.cfi_def_cfa_offset 36
 1157              		@ sp needed
 1158 010e BDE8F08F 		pop	{r4, r5, r6, r7, r8, r9, r10, fp, pc}
 1159              		.cfi_endproc
 1160              	.LFE322:
 1161              		.size	ibqReadTimeout, .-ibqReadTimeout
 1162 0112 00BF     		.section	.text.obqObjectInit,"ax",%progbits
 1163              		.align	1
 1164              		.p2align 4,,15
 1165              		.global	obqObjectInit
 1166              		.syntax unified
 1167              		.thumb
 1168              		.thumb_func
 1169              		.fpu softvfp
 1170              		.type	obqObjectInit, %function
 1171              	obqObjectInit:
 1172              	.LFB323:
 1173              		.loc 1 453 0
 1174              		.cfi_startproc
 1175              		@ args = 12, pretend = 0, frame = 0
 1176              		@ frame_needed = 0, uses_anonymous_args = 0
 1177              		@ link register save eliminated.
 1178              	.LVL78:
 1179 0000 70B4     		push	{r4, r5, r6}
 1180              		.cfi_def_cfa_offset 12
 1181              		.cfi_offset 4, -12
 1182              		.cfi_offset 5, -8
 1183              		.cfi_offset 6, -4
 1184              		.loc 1 453 0
 1185 0002 DDE90345 		ldrd	r4, r5, [sp, #12]
 1186              		.loc 1 462 0
 1187 0006 0433     		adds	r3, r3, #4
 1188              	.LVL79:
 1189              		.loc 1 458 0
 1190 0008 0172     		strb	r1, [r0, #8]
 1191              		.loc 1 453 0
 1192 000a 0599     		ldr	r1, [sp, #20]
 1193              	.LVL80:
 1194              		.loc 1 463 0
 1195 000c C361     		str	r3, [r0, #28]
 1196              		.loc 1 462 0
 1197 000e 04FB0326 		mla	r6, r4, r3, r2
ARM GAS  /var/folders/vd/czx34qs52cd_f3nb04sxmghc0000gn/T//ccqeiOJD.s 			page 22


 1198              		.loc 1 466 0
 1199 0012 0023     		movs	r3, #0
 1200              	.LVL81:
 1201              		.loc 1 462 0
 1202 0014 8661     		str	r6, [r0, #24]
 1203              		.loc 1 459 0
 1204 0016 C460     		str	r4, [r0, #12]
 1205              		.loc 1 464 0
 1206 0018 0462     		str	r4, [r0, #32]
 1207              		.loc 1 469 0
 1208 001a C0E90C51 		strd	r5, r1, [r0, #48]
 1209              	.LBB460:
 1210              	.LBB461:
 1211              	.LBB462:
 1212              	.LBB463:
 1213              		.loc 2 540 0
 1214 001e C0E90000 		strd	r0, r0, [r0]
 1215              	.LVL82:
 1216              	.LBE463:
 1217              	.LBE462:
 1218              	.LBE461:
 1219              	.LBE460:
 1220              		.loc 1 461 0
 1221 0022 C0E90422 		strd	r2, r2, [r0, #16]
 1222              		.loc 1 465 0
 1223 0026 4262     		str	r2, [r0, #36]
 1224              		.loc 1 467 0
 1225 0028 C0E90A33 		strd	r3, r3, [r0, #40]
 1226              		.loc 1 470 0
 1227 002c 70BC     		pop	{r4, r5, r6}
 1228              		.cfi_restore 6
 1229              		.cfi_restore 5
 1230              		.cfi_restore 4
 1231              		.cfi_def_cfa_offset 0
 1232              	.LVL83:
 1233 002e 7047     		bx	lr
 1234              		.cfi_endproc
 1235              	.LFE323:
 1236              		.size	obqObjectInit, .-obqObjectInit
 1237              		.section	.text.obqResetI,"ax",%progbits
 1238              		.align	1
 1239              		.p2align 4,,15
 1240              		.global	obqResetI
 1241              		.syntax unified
 1242              		.thumb
 1243              		.thumb_func
 1244              		.fpu softvfp
 1245              		.type	obqResetI, %function
 1246              	obqResetI:
 1247              	.LFB324:
 1248              		.loc 1 483 0
 1249              		.cfi_startproc
 1250              		@ args = 0, pretend = 0, frame = 0
 1251              		@ frame_needed = 0, uses_anonymous_args = 0
 1252              		@ link register save eliminated.
 1253              	.LVL84:
 1254 0000 10B4     		push	{r4}
ARM GAS  /var/folders/vd/czx34qs52cd_f3nb04sxmghc0000gn/T//ccqeiOJD.s 			page 23


 1255              		.cfi_def_cfa_offset 4
 1256              		.cfi_offset 4, -4
 1257              		.loc 1 488 0
 1258 0002 D0E90841 		ldrd	r4, r1, [r0, #32]
 1259              		.loc 1 490 0
 1260 0006 0022     		movs	r2, #0
 1261              		.loc 1 487 0
 1262 0008 C460     		str	r4, [r0, #12]
 1263              		.loc 1 489 0
 1264 000a C0E90411 		strd	r1, r1, [r0, #16]
 1265              		.loc 1 491 0
 1266 000e C0E90A22 		strd	r2, r2, [r0, #40]
 1267              	.LVL85:
 1268              	.LBB464:
 1269              	.LBB465:
 1270              		.loc 3 857 0
 1271 0012 6FF00101 		mvn	r1, #1
 1272              	.LBE465:
 1273              	.LBE464:
 1274              		.loc 1 493 0
 1275 0016 10BC     		pop	{r4}
 1276              		.cfi_restore 4
 1277              		.cfi_def_cfa_offset 0
 1278              	.LBB467:
 1279              	.LBB466:
 1280              		.loc 3 857 0
 1281 0018 FFF7FEBF 		b	chThdDequeueAllI
 1282              	.LVL86:
 1283              	.LBE466:
 1284              	.LBE467:
 1285              		.cfi_endproc
 1286              	.LFE324:
 1287              		.size	obqResetI, .-obqResetI
 1288              		.section	.text.obqGetFullBufferI,"ax",%progbits
 1289              		.align	1
 1290              		.p2align 4,,15
 1291              		.global	obqGetFullBufferI
 1292              		.syntax unified
 1293              		.thumb
 1294              		.thumb_func
 1295              		.fpu softvfp
 1296              		.type	obqGetFullBufferI, %function
 1297              	obqGetFullBufferI:
 1298              	.LFB325:
 1299              		.loc 1 507 0
 1300              		.cfi_startproc
 1301              		@ args = 0, pretend = 0, frame = 0
 1302              		@ frame_needed = 0, uses_anonymous_args = 0
 1303              		@ link register save eliminated.
 1304              	.LVL87:
 1305              		.loc 1 511 0
 1306 0000 D0E90423 		ldrd	r2, r3, [r0, #16]
 1307 0004 9A42     		cmp	r2, r3
 1308 0006 04D0     		beq	.L82
 1309              	.L77:
 1310              		.loc 1 516 0
 1311 0008 1846     		mov	r0, r3
ARM GAS  /var/folders/vd/czx34qs52cd_f3nb04sxmghc0000gn/T//ccqeiOJD.s 			page 24


 1312              	.LVL88:
 1313 000a 50F8043B 		ldr	r3, [r0], #4
 1314 000e 0B60     		str	r3, [r1]
 1315              		.loc 1 519 0
 1316 0010 7047     		bx	lr
 1317              	.LVL89:
 1318              	.L82:
 1319              		.loc 1 511 0 discriminator 1
 1320 0012 C268     		ldr	r2, [r0, #12]
 1321 0014 002A     		cmp	r2, #0
 1322 0016 F7D0     		beq	.L77
 1323              		.loc 1 512 0
 1324 0018 0020     		movs	r0, #0
 1325              	.LVL90:
 1326 001a 7047     		bx	lr
 1327              		.cfi_endproc
 1328              	.LFE325:
 1329              		.size	obqGetFullBufferI, .-obqGetFullBufferI
 1330              		.section	.text.obqReleaseEmptyBufferI,"ax",%progbits
 1331              		.align	1
 1332              		.p2align 4,,15
 1333              		.global	obqReleaseEmptyBufferI
 1334              		.syntax unified
 1335              		.thumb
 1336              		.thumb_func
 1337              		.fpu softvfp
 1338              		.type	obqReleaseEmptyBufferI, %function
 1339              	obqReleaseEmptyBufferI:
 1340              	.LFB326:
 1341              		.loc 1 528 0
 1342              		.cfi_startproc
 1343              		@ args = 0, pretend = 0, frame = 0
 1344              		@ frame_needed = 0, uses_anonymous_args = 0
 1345              		@ link register save eliminated.
 1346              	.LVL91:
 1347 0000 10B4     		push	{r4}
 1348              		.cfi_def_cfa_offset 4
 1349              		.cfi_offset 4, -4
 1350              		.loc 1 536 0
 1351 0002 D0E90614 		ldrd	r1, r4, [r0, #24]
 1352              		.loc 1 535 0
 1353 0006 4369     		ldr	r3, [r0, #20]
 1354              		.loc 1 534 0
 1355 0008 C268     		ldr	r2, [r0, #12]
 1356              		.loc 1 535 0
 1357 000a 2344     		add	r3, r3, r4
 1358              		.loc 1 536 0
 1359 000c 8B42     		cmp	r3, r1
 1360              		.loc 1 535 0
 1361 000e 4361     		str	r3, [r0, #20]
 1362              		.loc 1 534 0
 1363 0010 02F10102 		add	r2, r2, #1
 1364              		.loc 1 537 0
 1365 0014 28BF     		it	cs
 1366 0016 436A     		ldrcs	r3, [r0, #36]
 1367              		.loc 1 534 0
 1368 0018 C260     		str	r2, [r0, #12]
ARM GAS  /var/folders/vd/czx34qs52cd_f3nb04sxmghc0000gn/T//ccqeiOJD.s 			page 25


 1369              		.loc 1 537 0
 1370 001a 28BF     		it	cs
 1371 001c 4361     		strcs	r3, [r0, #20]
 1372              	.LVL92:
 1373              	.LBB468:
 1374              	.LBB469:
 1375              		.loc 3 844 0
 1376 001e 0021     		movs	r1, #0
 1377              	.LBE469:
 1378              	.LBE468:
 1379              		.loc 1 542 0
 1380 0020 10BC     		pop	{r4}
 1381              		.cfi_restore 4
 1382              		.cfi_def_cfa_offset 0
 1383              	.LBB471:
 1384              	.LBB470:
 1385              		.loc 3 844 0
 1386 0022 FFF7FEBF 		b	chThdDequeueNextI
 1387              	.LVL93:
 1388              	.LBE470:
 1389              	.LBE471:
 1390              		.cfi_endproc
 1391              	.LFE326:
 1392              		.size	obqReleaseEmptyBufferI, .-obqReleaseEmptyBufferI
 1393 0026 00BF     		.section	.text.obqGetEmptyBufferTimeoutS,"ax",%progbits
 1394              		.align	1
 1395              		.p2align 4,,15
 1396              		.global	obqGetEmptyBufferTimeoutS
 1397              		.syntax unified
 1398              		.thumb
 1399              		.thumb_func
 1400              		.fpu softvfp
 1401              		.type	obqGetEmptyBufferTimeoutS, %function
 1402              	obqGetEmptyBufferTimeoutS:
 1403              	.LFB328:
 1404              		.loc 1 598 0
 1405              		.cfi_startproc
 1406              		@ args = 0, pretend = 0, frame = 0
 1407              		@ frame_needed = 0, uses_anonymous_args = 0
 1408              	.LVL94:
 1409 0000 38B5     		push	{r3, r4, r5, lr}
 1410              		.cfi_def_cfa_offset 16
 1411              		.cfi_offset 3, -16
 1412              		.cfi_offset 4, -12
 1413              		.cfi_offset 5, -8
 1414              		.cfi_offset 14, -4
 1415              		.loc 1 598 0
 1416 0002 0446     		mov	r4, r0
 1417 0004 0D46     		mov	r5, r1
 1418              		.loc 1 602 0
 1419 0006 05E0     		b	.L87
 1420              	.LVL95:
 1421              	.L89:
 1422              	.LBB480:
 1423              		.loc 1 603 0
 1424 0008 237A     		ldrb	r3, [r4, #8]	@ zero_extendqisi2
 1425 000a 83B9     		cbnz	r3, .L90
ARM GAS  /var/folders/vd/czx34qs52cd_f3nb04sxmghc0000gn/T//ccqeiOJD.s 			page 26


 1426              	.LBB481:
 1427              	.LBB482:
 1428              		.loc 3 831 0
 1429 000c FFF7FEFF 		bl	chThdEnqueueTimeoutS
 1430              	.LVL96:
 1431              	.LBE482:
 1432              	.LBE481:
 1433              		.loc 1 607 0
 1434 0010 0028     		cmp	r0, #0
 1435 0012 0BDB     		blt	.L86
 1436              	.L87:
 1437              	.LVL97:
 1438              	.LBE480:
 1439              		.loc 1 602 0
 1440 0014 E368     		ldr	r3, [r4, #12]
 1441              	.LBB485:
 1442              	.LBB484:
 1443              	.LBB483:
 1444              		.loc 3 831 0
 1445 0016 2946     		mov	r1, r5
 1446 0018 2046     		mov	r0, r4
 1447              	.LBE483:
 1448              	.LBE484:
 1449              	.LBE485:
 1450              		.loc 1 602 0
 1451 001a 002B     		cmp	r3, #0
 1452 001c F4D0     		beq	.L89
 1453              	.LVL98:
 1454              	.LBB486:
 1455              	.LBB487:
 1456              		.loc 1 615 0
 1457 001e 2369     		ldr	r3, [r4, #16]
 1458              		.loc 1 616 0
 1459 0020 E169     		ldr	r1, [r4, #28]
 1460              	.LVL99:
 1461              		.loc 1 615 0
 1462 0022 1A1D     		adds	r2, r3, #4
 1463              		.loc 1 616 0
 1464 0024 0B44     		add	r3, r3, r1
 1465 0026 C4E90A23 		strd	r2, r3, [r4, #40]
 1466              	.LVL100:
 1467 002a 0020     		movs	r0, #0
 1468              	.LVL101:
 1469              	.L86:
 1470              	.LBE487:
 1471              	.LBE486:
 1472              		.loc 1 619 0
 1473 002c 38BD     		pop	{r3, r4, r5, pc}
 1474              	.LVL102:
 1475              	.L90:
 1476              	.LBB488:
 1477              		.loc 1 604 0
 1478 002e 6FF00100 		mvn	r0, #1
 1479              	.LVL103:
 1480              	.LBE488:
 1481              		.loc 1 619 0
 1482 0032 38BD     		pop	{r3, r4, r5, pc}
ARM GAS  /var/folders/vd/czx34qs52cd_f3nb04sxmghc0000gn/T//ccqeiOJD.s 			page 27


 1483              		.cfi_endproc
 1484              	.LFE328:
 1485              		.size	obqGetEmptyBufferTimeoutS, .-obqGetEmptyBufferTimeoutS
 1486              		.section	.text.obqGetEmptyBufferTimeout,"ax",%progbits
 1487              		.align	1
 1488              		.p2align 4,,15
 1489              		.global	obqGetEmptyBufferTimeout
 1490              		.syntax unified
 1491              		.thumb
 1492              		.thumb_func
 1493              		.fpu softvfp
 1494              		.type	obqGetEmptyBufferTimeout, %function
 1495              	obqGetEmptyBufferTimeout:
 1496              	.LFB327:
 1497              		.loc 1 566 0
 1498              		.cfi_startproc
 1499              		@ args = 0, pretend = 0, frame = 0
 1500              		@ frame_needed = 0, uses_anonymous_args = 0
 1501              	.LVL104:
 1502 0000 08B5     		push	{r3, lr}
 1503              		.cfi_def_cfa_offset 8
 1504              		.cfi_offset 3, -8
 1505              		.cfi_offset 14, -4
 1506              	.LBB489:
 1507              	.LBB490:
 1508              	.LBB491:
 1509              	.LBB492:
 1510              	.LBB493:
 1511              		.loc 4 490 0
 1512 0002 2023     		movs	r3, #32
 1513              		.syntax unified
 1514              	@ 490 "../os/common/ext/ARM/CMSIS/Core/Include/cmsis_gcc.h" 1
 1515 0004 83F31188 		MSR basepri, r3
 1516              	@ 0 "" 2
 1517              	.LVL105:
 1518              		.thumb
 1519              		.syntax unified
 1520              	.LBE493:
 1521              	.LBE492:
 1522              	.LBE491:
 1523              	.LBE490:
 1524              	.LBE489:
 1525              		.loc 1 570 0
 1526 0008 FFF7FEFF 		bl	obqGetEmptyBufferTimeoutS
 1527              	.LVL106:
 1528              	.LBB494:
 1529              	.LBB495:
 1530              	.LBB496:
 1531              	.LBB497:
 1532              	.LBB498:
 1533              	.LBB499:
 1534              		.loc 4 490 0
 1535 000c 0023     		movs	r3, #0
 1536              		.syntax unified
 1537              	@ 490 "../os/common/ext/ARM/CMSIS/Core/Include/cmsis_gcc.h" 1
 1538 000e 83F31188 		MSR basepri, r3
 1539              	@ 0 "" 2
ARM GAS  /var/folders/vd/czx34qs52cd_f3nb04sxmghc0000gn/T//ccqeiOJD.s 			page 28


 1540              	.LVL107:
 1541              		.thumb
 1542              		.syntax unified
 1543              	.LBE499:
 1544              	.LBE498:
 1545              	.LBE497:
 1546              	.LBE496:
 1547              	.LBE495:
 1548              	.LBE494:
 1549              		.loc 1 574 0
 1550 0012 08BD     		pop	{r3, pc}
 1551              		.cfi_endproc
 1552              	.LFE327:
 1553              		.size	obqGetEmptyBufferTimeout, .-obqGetEmptyBufferTimeout
 1554              		.section	.text.obqPostFullBuffer,"ax",%progbits
 1555              		.align	1
 1556              		.p2align 4,,15
 1557              		.global	obqPostFullBuffer
 1558              		.syntax unified
 1559              		.thumb
 1560              		.thumb_func
 1561              		.fpu softvfp
 1562              		.type	obqPostFullBuffer, %function
 1563              	obqPostFullBuffer:
 1564              	.LFB329:
 1565              		.loc 1 630 0
 1566              		.cfi_startproc
 1567              		@ args = 0, pretend = 0, frame = 0
 1568              		@ frame_needed = 0, uses_anonymous_args = 0
 1569              	.LVL108:
 1570 0000 10B5     		push	{r4, lr}
 1571              		.cfi_def_cfa_offset 8
 1572              		.cfi_offset 4, -8
 1573              		.cfi_offset 14, -4
 1574              	.LBB500:
 1575              	.LBB501:
 1576              	.LBB502:
 1577              	.LBB503:
 1578              	.LBB504:
 1579              		.loc 4 490 0
 1580 0002 2023     		movs	r3, #32
 1581              		.syntax unified
 1582              	@ 490 "../os/common/ext/ARM/CMSIS/Core/Include/cmsis_gcc.h" 1
 1583 0004 83F31188 		MSR basepri, r3
 1584              	@ 0 "" 2
 1585              	.LVL109:
 1586              		.thumb
 1587              		.syntax unified
 1588              	.LBE504:
 1589              	.LBE503:
 1590              	.LBE502:
 1591              	.LBE501:
 1592              	.LBE500:
 1593              	.LBB505:
 1594              	.LBB506:
 1595              		.loc 1 653 0
 1596 0008 0369     		ldr	r3, [r0, #16]
ARM GAS  /var/folders/vd/czx34qs52cd_f3nb04sxmghc0000gn/T//ccqeiOJD.s 			page 29


 1597              		.loc 1 658 0
 1598 000a 8469     		ldr	r4, [r0, #24]
 1599              		.loc 1 653 0
 1600 000c 1960     		str	r1, [r3]
 1601              		.loc 1 657 0
 1602 000e C169     		ldr	r1, [r0, #28]
 1603              	.LVL110:
 1604              		.loc 1 656 0
 1605 0010 C268     		ldr	r2, [r0, #12]
 1606              		.loc 1 657 0
 1607 0012 0B44     		add	r3, r3, r1
 1608              	.LVL111:
 1609              		.loc 1 658 0
 1610 0014 A342     		cmp	r3, r4
 1611              		.loc 1 657 0
 1612 0016 0361     		str	r3, [r0, #16]
 1613              	.LVL112:
 1614              		.loc 1 659 0
 1615 0018 24BF     		itt	cs
 1616 001a 436A     		ldrcs	r3, [r0, #36]
 1617 001c 0361     		strcs	r3, [r0, #16]
 1618              		.loc 1 656 0
 1619 001e 013A     		subs	r2, r2, #1
 1620              		.loc 1 666 0
 1621 0020 036B     		ldr	r3, [r0, #48]
 1622              		.loc 1 656 0
 1623 0022 C260     		str	r2, [r0, #12]
 1624              		.loc 1 663 0
 1625 0024 0022     		movs	r2, #0
 1626 0026 8262     		str	r2, [r0, #40]
 1627              		.loc 1 666 0
 1628 0028 03B1     		cbz	r3, .L96
 1629              		.loc 1 667 0
 1630 002a 9847     		blx	r3
 1631              	.LVL113:
 1632              	.L96:
 1633              	.LBE506:
 1634              	.LBE505:
 1635              	.LBB507:
 1636              	.LBB508:
 1637              	.LBB509:
 1638              	.LBB510:
 1639              	.LBB511:
 1640              	.LBB512:
 1641              		.loc 4 490 0
 1642 002c 0023     		movs	r3, #0
 1643              		.syntax unified
 1644              	@ 490 "../os/common/ext/ARM/CMSIS/Core/Include/cmsis_gcc.h" 1
 1645 002e 83F31188 		MSR basepri, r3
 1646              	@ 0 "" 2
 1647              	.LVL114:
 1648              		.thumb
 1649              		.syntax unified
 1650              	.LBE512:
 1651              	.LBE511:
 1652              	.LBE510:
 1653              	.LBE509:
ARM GAS  /var/folders/vd/czx34qs52cd_f3nb04sxmghc0000gn/T//ccqeiOJD.s 			page 30


 1654              	.LBE508:
 1655              	.LBE507:
 1656              		.loc 1 635 0
 1657 0032 10BD     		pop	{r4, pc}
 1658              		.cfi_endproc
 1659              	.LFE329:
 1660              		.size	obqPostFullBuffer, .-obqPostFullBuffer
 1661              		.section	.text.obqPostFullBufferS,"ax",%progbits
 1662              		.align	1
 1663              		.p2align 4,,15
 1664              		.global	obqPostFullBufferS
 1665              		.syntax unified
 1666              		.thumb
 1667              		.thumb_func
 1668              		.fpu softvfp
 1669              		.type	obqPostFullBufferS, %function
 1670              	obqPostFullBufferS:
 1671              	.LFB330:
 1672              		.loc 1 646 0
 1673              		.cfi_startproc
 1674              		@ args = 0, pretend = 0, frame = 0
 1675              		@ frame_needed = 0, uses_anonymous_args = 0
 1676              		@ link register save eliminated.
 1677              	.LVL115:
 1678              		.loc 1 653 0
 1679 0000 0369     		ldr	r3, [r0, #16]
 1680              		.loc 1 646 0
 1681 0002 10B4     		push	{r4}
 1682              		.cfi_def_cfa_offset 4
 1683              		.cfi_offset 4, -4
 1684              		.loc 1 658 0
 1685 0004 8469     		ldr	r4, [r0, #24]
 1686              		.loc 1 653 0
 1687 0006 1960     		str	r1, [r3]
 1688              		.loc 1 657 0
 1689 0008 C169     		ldr	r1, [r0, #28]
 1690              	.LVL116:
 1691              		.loc 1 656 0
 1692 000a C268     		ldr	r2, [r0, #12]
 1693              		.loc 1 657 0
 1694 000c 0B44     		add	r3, r3, r1
 1695              	.LVL117:
 1696              		.loc 1 658 0
 1697 000e A342     		cmp	r3, r4
 1698              		.loc 1 657 0
 1699 0010 0361     		str	r3, [r0, #16]
 1700              	.LVL118:
 1701              		.loc 1 659 0
 1702 0012 24BF     		itt	cs
 1703 0014 436A     		ldrcs	r3, [r0, #36]
 1704 0016 0361     		strcs	r3, [r0, #16]
 1705              		.loc 1 656 0
 1706 0018 013A     		subs	r2, r2, #1
 1707              		.loc 1 666 0
 1708 001a 036B     		ldr	r3, [r0, #48]
 1709              		.loc 1 656 0
 1710 001c C260     		str	r2, [r0, #12]
ARM GAS  /var/folders/vd/czx34qs52cd_f3nb04sxmghc0000gn/T//ccqeiOJD.s 			page 31


 1711              		.loc 1 663 0
 1712 001e 0022     		movs	r2, #0
 1713 0020 8262     		str	r2, [r0, #40]
 1714              		.loc 1 666 0
 1715 0022 0BB1     		cbz	r3, .L101
 1716              		.loc 1 669 0
 1717 0024 10BC     		pop	{r4}
 1718              		.cfi_remember_state
 1719              		.cfi_restore 4
 1720              		.cfi_def_cfa_offset 0
 1721              		.loc 1 667 0
 1722 0026 1847     		bx	r3	@ indirect register sibling call
 1723              	.LVL119:
 1724              	.L101:
 1725              		.cfi_restore_state
 1726              		.loc 1 669 0
 1727 0028 10BC     		pop	{r4}
 1728              		.cfi_restore 4
 1729              		.cfi_def_cfa_offset 0
 1730 002a 7047     		bx	lr
 1731              		.cfi_endproc
 1732              	.LFE330:
 1733              		.size	obqPostFullBufferS, .-obqPostFullBufferS
 1734              		.section	.text.obqPutTimeout,"ax",%progbits
 1735              		.align	1
 1736              		.p2align 4,,15
 1737              		.global	obqPutTimeout
 1738              		.syntax unified
 1739              		.thumb
 1740              		.thumb_func
 1741              		.fpu softvfp
 1742              		.type	obqPutTimeout, %function
 1743              	obqPutTimeout:
 1744              	.LFB331:
 1745              		.loc 1 692 0
 1746              		.cfi_startproc
 1747              		@ args = 0, pretend = 0, frame = 0
 1748              		@ frame_needed = 0, uses_anonymous_args = 0
 1749              	.LVL120:
 1750 0000 70B5     		push	{r4, r5, r6, lr}
 1751              		.cfi_def_cfa_offset 16
 1752              		.cfi_offset 4, -16
 1753              		.cfi_offset 5, -12
 1754              		.cfi_offset 6, -8
 1755              		.cfi_offset 14, -4
 1756              	.LBB513:
 1757              	.LBB514:
 1758              	.LBB515:
 1759              	.LBB516:
 1760              	.LBB517:
 1761              		.loc 4 490 0
 1762 0002 2023     		movs	r3, #32
 1763              	.LBE517:
 1764              	.LBE516:
 1765              	.LBE515:
 1766              	.LBE514:
 1767              	.LBE513:
ARM GAS  /var/folders/vd/czx34qs52cd_f3nb04sxmghc0000gn/T//ccqeiOJD.s 			page 32


 1768              		.loc 1 692 0
 1769 0004 0E46     		mov	r6, r1
 1770 0006 0446     		mov	r4, r0
 1771              	.LBB522:
 1772              	.LBB521:
 1773              	.LBB520:
 1774              	.LBB519:
 1775              	.LBB518:
 1776              		.loc 4 490 0
 1777              		.syntax unified
 1778              	@ 490 "../os/common/ext/ARM/CMSIS/Core/Include/cmsis_gcc.h" 1
 1779 0008 83F31188 		MSR basepri, r3
 1780              	@ 0 "" 2
 1781              	.LVL121:
 1782              		.thumb
 1783              		.syntax unified
 1784              	.LBE518:
 1785              	.LBE519:
 1786              	.LBE520:
 1787              	.LBE521:
 1788              	.LBE522:
 1789              		.loc 1 698 0
 1790 000c 856A     		ldr	r5, [r0, #40]
 1791 000e FDB1     		cbz	r5, .L117
 1792              	.LVL122:
 1793              	.L106:
 1794              		.loc 1 707 0
 1795 0010 2E70     		strb	r6, [r5]
 1796              		.loc 1 712 0
 1797 0012 D4E90A32 		ldrd	r3, r2, [r4, #40]
 1798              		.loc 1 708 0
 1799 0016 0133     		adds	r3, r3, #1
 1800              		.loc 1 712 0
 1801 0018 9342     		cmp	r3, r2
 1802              		.loc 1 708 0
 1803 001a A362     		str	r3, [r4, #40]
 1804              		.loc 1 712 0
 1805 001c 14D3     		bcc	.L110
 1806              	.LVL123:
 1807              		.loc 1 713 0
 1808 001e E269     		ldr	r2, [r4, #28]
 1809              	.LBB523:
 1810              	.LBB524:
 1811              		.loc 1 653 0
 1812 0020 2369     		ldr	r3, [r4, #16]
 1813              		.loc 1 658 0
 1814 0022 A169     		ldr	r1, [r4, #24]
 1815              	.LBE524:
 1816              	.LBE523:
 1817              		.loc 1 713 0
 1818 0024 043A     		subs	r2, r2, #4
 1819              	.LVL124:
 1820              	.LBB526:
 1821              	.LBB525:
 1822              		.loc 1 653 0
 1823 0026 1A60     		str	r2, [r3]
 1824              		.loc 1 657 0
ARM GAS  /var/folders/vd/czx34qs52cd_f3nb04sxmghc0000gn/T//ccqeiOJD.s 			page 33


 1825 0028 E069     		ldr	r0, [r4, #28]
 1826              		.loc 1 656 0
 1827 002a E268     		ldr	r2, [r4, #12]
 1828              	.LVL125:
 1829              		.loc 1 657 0
 1830 002c 0344     		add	r3, r3, r0
 1831              	.LVL126:
 1832              		.loc 1 658 0
 1833 002e 8B42     		cmp	r3, r1
 1834              		.loc 1 657 0
 1835 0030 2361     		str	r3, [r4, #16]
 1836              	.LVL127:
 1837              		.loc 1 659 0
 1838 0032 24BF     		itt	cs
 1839 0034 636A     		ldrcs	r3, [r4, #36]
 1840 0036 2361     		strcs	r3, [r4, #16]
 1841              		.loc 1 656 0
 1842 0038 013A     		subs	r2, r2, #1
 1843              		.loc 1 666 0
 1844 003a 236B     		ldr	r3, [r4, #48]
 1845              		.loc 1 656 0
 1846 003c E260     		str	r2, [r4, #12]
 1847              		.loc 1 663 0
 1848 003e 0022     		movs	r2, #0
 1849 0040 A262     		str	r2, [r4, #40]
 1850              		.loc 1 666 0
 1851 0042 0BB1     		cbz	r3, .L110
 1852              		.loc 1 667 0
 1853 0044 2046     		mov	r0, r4
 1854 0046 9847     		blx	r3
 1855              	.LVL128:
 1856              	.L110:
 1857              	.LBE525:
 1858              	.LBE526:
 1859              	.LBB527:
 1860              	.LBB528:
 1861              	.LBB529:
 1862              	.LBB530:
 1863              	.LBB531:
 1864              	.LBB532:
 1865              		.loc 4 490 0
 1866 0048 0020     		movs	r0, #0
 1867              		.syntax unified
 1868              	@ 490 "../os/common/ext/ARM/CMSIS/Core/Include/cmsis_gcc.h" 1
 1869 004a 80F31188 		MSR basepri, r0
 1870              	@ 0 "" 2
 1871              	.LVL129:
 1872              		.thumb
 1873              		.syntax unified
 1874              	.LBE532:
 1875              	.LBE531:
 1876              	.LBE530:
 1877              	.LBE529:
 1878              	.LBE528:
 1879              	.LBE527:
 1880              		.loc 1 718 0
 1881 004e 70BD     		pop	{r4, r5, r6, pc}
ARM GAS  /var/folders/vd/czx34qs52cd_f3nb04sxmghc0000gn/T//ccqeiOJD.s 			page 34


 1882              	.LVL130:
 1883              	.L117:
 1884              		.loc 1 699 0
 1885 0050 1146     		mov	r1, r2
 1886              	.LVL131:
 1887 0052 FFF7FEFF 		bl	obqGetEmptyBufferTimeoutS
 1888              	.LVL132:
 1889              		.loc 1 700 0
 1890 0056 08B9     		cbnz	r0, .L107
 1891 0058 A56A     		ldr	r5, [r4, #40]
 1892 005a D9E7     		b	.L106
 1893              	.L107:
 1894              	.LVL133:
 1895              	.LBB533:
 1896              	.LBB534:
 1897              	.LBB535:
 1898              	.LBB536:
 1899              	.LBB537:
 1900              	.LBB538:
 1901              		.loc 4 490 0
 1902              		.syntax unified
 1903              	@ 490 "../os/common/ext/ARM/CMSIS/Core/Include/cmsis_gcc.h" 1
 1904 005c 85F31188 		MSR basepri, r5
 1905              	@ 0 "" 2
 1906              	.LVL134:
 1907              		.thumb
 1908              		.syntax unified
 1909              	.LBE538:
 1910              	.LBE537:
 1911              	.LBE536:
 1912              	.LBE535:
 1913              	.LBE534:
 1914              	.LBE533:
 1915              		.loc 1 718 0
 1916 0060 70BD     		pop	{r4, r5, r6, pc}
 1917              		.cfi_endproc
 1918              	.LFE331:
 1919              		.size	obqPutTimeout, .-obqPutTimeout
 1920 0062 00BF     		.section	.text.obqWriteTimeout,"ax",%progbits
 1921              		.align	1
 1922              		.p2align 4,,15
 1923              		.global	obqWriteTimeout
 1924              		.syntax unified
 1925              		.thumb
 1926              		.thumb_func
 1927              		.fpu softvfp
 1928              		.type	obqWriteTimeout, %function
 1929              	obqWriteTimeout:
 1930              	.LFB332:
 1931              		.loc 1 742 0
 1932              		.cfi_startproc
 1933              		@ args = 0, pretend = 0, frame = 8
 1934              		@ frame_needed = 0, uses_anonymous_args = 0
 1935              	.LVL135:
 1936 0000 2DE9F04F 		push	{r4, r5, r6, r7, r8, r9, r10, fp, lr}
 1937              		.cfi_def_cfa_offset 36
 1938              		.cfi_offset 4, -36
ARM GAS  /var/folders/vd/czx34qs52cd_f3nb04sxmghc0000gn/T//ccqeiOJD.s 			page 35


 1939              		.cfi_offset 5, -32
 1940              		.cfi_offset 6, -28
 1941              		.cfi_offset 7, -24
 1942              		.cfi_offset 8, -20
 1943              		.cfi_offset 9, -16
 1944              		.cfi_offset 10, -12
 1945              		.cfi_offset 11, -8
 1946              		.cfi_offset 14, -4
 1947 0004 9946     		mov	r9, r3
 1948 0006 83B0     		sub	sp, sp, #12
 1949              		.cfi_def_cfa_offset 48
 1950              		.loc 1 742 0
 1951 0008 0546     		mov	r5, r0
 1952 000a 0E46     		mov	r6, r1
 1953 000c 1746     		mov	r7, r2
 1954              	.LBB539:
 1955              	.LBB540:
 1956              	.LBB541:
 1957              	.LBB542:
 1958              	.LBB543:
 1959              		.loc 4 490 0
 1960 000e 2023     		movs	r3, #32
 1961              	.LVL136:
 1962              		.syntax unified
 1963              	@ 490 "../os/common/ext/ARM/CMSIS/Core/Include/cmsis_gcc.h" 1
 1964 0010 83F31188 		MSR basepri, r3
 1965              	@ 0 "" 2
 1966              	.LVL137:
 1967              		.thumb
 1968              		.syntax unified
 1969              	.LBE543:
 1970              	.LBE542:
 1971              	.LBE541:
 1972              	.LBE540:
 1973              	.LBE539:
 1974              	.LBB544:
 1975              	.LBB545:
 1976              	.LBB546:
 1977              	.LBB547:
 1978              	.LBB548:
 1979              		.loc 5 141 0
 1980 0014 4FF0804A 		mov	r10, #1073741824
 1981              	.LBE548:
 1982              	.LBE547:
 1983              	.LBE546:
 1984              	.LBE545:
 1985              	.LBE544:
 1986              	.LBB553:
 1987              		.loc 1 757 0
 1988 0018 A86A     		ldr	r0, [r5, #40]
 1989              	.LVL138:
 1990              	.LBE553:
 1991              	.LBB604:
 1992              	.LBB552:
 1993              	.LBB551:
 1994              	.LBB550:
 1995              	.LBB549:
ARM GAS  /var/folders/vd/czx34qs52cd_f3nb04sxmghc0000gn/T//ccqeiOJD.s 			page 36


 1996              		.loc 5 141 0
 1997 001a DAF82420 		ldr	r2, [r10, #36]
 1998              	.LVL139:
 1999              	.LBE549:
 2000              	.LBE550:
 2001              	.LBE551:
 2002              	.LBE552:
 2003              	.LBE604:
 2004              	.LBB605:
 2005              	.LBB554:
 2006              	.LBB555:
 2007              	.LBB556:
 2008              	.LBB557:
 2009              	.LBB558:
 2010              	.LBB559:
 2011              	.LBB560:
 2012 001e CDF804A0 		str	r10, [sp, #4]
 2013              	.LBE560:
 2014              	.LBE559:
 2015              	.LBE558:
 2016              	.LBE557:
 2017              	.LBE556:
 2018              	.LBE555:
 2019              	.LBE554:
 2020              	.LBE605:
 2021              		.loc 1 743 0
 2022 0022 4FF0000B 		mov	fp, #0
 2023              	.LBB606:
 2024              	.LBB607:
 2025              	.LBB608:
 2026              		.loc 6 479 0
 2027 0026 09EB0203 		add	r3, r9, r2
 2028 002a 0093     		str	r3, [sp]
 2029              	.LVL140:
 2030              	.LBE608:
 2031              	.LBE607:
 2032              	.LBE606:
 2033              	.LBB609:
 2034              	.LBB583:
 2035              		.loc 1 762 0
 2036 002c 09F1FF3A 		add	r10, r9, #-1
 2037              	.LBE583:
 2038              	.LBB584:
 2039              	.LBB585:
 2040              		.loc 1 663 0
 2041 0030 D846     		mov	r8, fp
 2042              	.LBE585:
 2043              	.LBE584:
 2044              		.loc 1 757 0
 2045 0032 0028     		cmp	r0, #0
 2046 0034 40D0     		beq	.L139
 2047              	.LVL141:
 2048              	.L119:
 2049              		.loc 1 787 0
 2050 0036 EA6A     		ldr	r2, [r5, #44]
 2051              		.loc 1 788 0
 2052 0038 A7EB0B04 		sub	r4, r7, fp
ARM GAS  /var/folders/vd/czx34qs52cd_f3nb04sxmghc0000gn/T//ccqeiOJD.s 			page 37


 2053              		.loc 1 787 0
 2054 003c 121A     		subs	r2, r2, r0
 2055              	.LVL142:
 2056 003e 9442     		cmp	r4, r2
 2057 0040 28BF     		it	cs
 2058 0042 1446     		movcs	r4, r2
 2059              	.LVL143:
 2060              		.loc 1 794 0
 2061 0044 402C     		cmp	r4, #64
 2062 0046 46D9     		bls	.L125
 2063              		.loc 1 796 0
 2064 0048 06F14002 		add	r2, r6, #64
 2065              	.LVL144:
 2066              	.L126:
 2067 004c 3468     		ldr	r4, [r6]	@ unaligned
 2068 004e 7168     		ldr	r1, [r6, #4]	@ unaligned
 2069 0050 B368     		ldr	r3, [r6, #8]	@ unaligned
 2070 0052 D6F80CC0 		ldr	ip, [r6, #12]	@ unaligned
 2071 0056 C0F80CC0 		str	ip, [r0, #12]	@ unaligned
 2072 005a 1036     		adds	r6, r6, #16
 2073 005c 9642     		cmp	r6, r2
 2074 005e 0460     		str	r4, [r0]	@ unaligned
 2075 0060 4160     		str	r1, [r0, #4]	@ unaligned
 2076 0062 8360     		str	r3, [r0, #8]	@ unaligned
 2077 0064 00F11000 		add	r0, r0, #16
 2078 0068 F0D1     		bne	.L126
 2079              		.loc 1 798 0
 2080 006a AA6A     		ldr	r2, [r5, #40]
 2081              	.LVL145:
 2082 006c 4032     		adds	r2, r2, #64
 2083              		.loc 1 799 0
 2084 006e 0BF1400B 		add	fp, fp, #64
 2085              	.LVL146:
 2086              		.loc 1 798 0
 2087 0072 AA62     		str	r2, [r5, #40]
 2088              	.L127:
 2089              	.LVL147:
 2090              		.loc 1 809 0
 2091 0074 E96A     		ldr	r1, [r5, #44]
 2092 0076 9142     		cmp	r1, r2
 2093 0078 14D8     		bhi	.L129
 2094              	.LVL148:
 2095              		.loc 1 810 0
 2096 007a E969     		ldr	r1, [r5, #28]
 2097              	.LBB588:
 2098              	.LBB586:
 2099              		.loc 1 653 0
 2100 007c 2A69     		ldr	r2, [r5, #16]
 2101              		.loc 1 658 0
 2102 007e AC69     		ldr	r4, [r5, #24]
 2103              	.LBE586:
 2104              	.LBE588:
 2105              		.loc 1 810 0
 2106 0080 0439     		subs	r1, r1, #4
 2107              	.LVL149:
 2108              	.LBB589:
 2109              	.LBB587:
ARM GAS  /var/folders/vd/czx34qs52cd_f3nb04sxmghc0000gn/T//ccqeiOJD.s 			page 38


 2110              		.loc 1 653 0
 2111 0082 1160     		str	r1, [r2]
 2112              		.loc 1 657 0
 2113 0084 E869     		ldr	r0, [r5, #28]
 2114              		.loc 1 656 0
 2115 0086 E968     		ldr	r1, [r5, #12]
 2116              	.LVL150:
 2117              		.loc 1 663 0
 2118 0088 C5F82880 		str	r8, [r5, #40]
 2119              		.loc 1 657 0
 2120 008c 0244     		add	r2, r2, r0
 2121              	.LVL151:
 2122              		.loc 1 658 0
 2123 008e A242     		cmp	r2, r4
 2124              		.loc 1 657 0
 2125 0090 2A61     		str	r2, [r5, #16]
 2126              	.LVL152:
 2127              		.loc 1 659 0
 2128 0092 24BF     		itt	cs
 2129 0094 6A6A     		ldrcs	r2, [r5, #36]
 2130 0096 2A61     		strcs	r2, [r5, #16]
 2131              		.loc 1 666 0
 2132 0098 2A6B     		ldr	r2, [r5, #48]
 2133              		.loc 1 656 0
 2134 009a 0139     		subs	r1, r1, #1
 2135 009c E960     		str	r1, [r5, #12]
 2136              		.loc 1 666 0
 2137 009e 0AB1     		cbz	r2, .L129
 2138              		.loc 1 667 0
 2139 00a0 2846     		mov	r0, r5
 2140 00a2 9047     		blx	r2
 2141              	.LVL153:
 2142              	.L129:
 2143              	.LBE587:
 2144              	.LBE589:
 2145              	.LBB590:
 2146              	.LBB591:
 2147              	.LBB592:
 2148              	.LBB593:
 2149              	.LBB594:
 2150              	.LBB595:
 2151              		.loc 4 490 0
 2152              		.syntax unified
 2153              	@ 490 "../os/common/ext/ARM/CMSIS/Core/Include/cmsis_gcc.h" 1
 2154 00a4 88F31188 		MSR basepri, r8
 2155              	@ 0 "" 2
 2156              	.LVL154:
 2157              		.thumb
 2158              		.syntax unified
 2159              	.LBE595:
 2160              	.LBE594:
 2161              	.LBE593:
 2162              	.LBE592:
 2163              	.LBE591:
 2164              	.LBE590:
 2165              		.loc 1 815 0
 2166 00a8 BB45     		cmp	fp, r7
ARM GAS  /var/folders/vd/czx34qs52cd_f3nb04sxmghc0000gn/T//ccqeiOJD.s 			page 39


 2167 00aa 27D2     		bcs	.L118
 2168              	.LVL155:
 2169              	.LBB596:
 2170              	.LBB597:
 2171              	.LBB598:
 2172              	.LBB599:
 2173              	.LBB600:
 2174              		.loc 4 490 0
 2175 00ac 2022     		movs	r2, #32
 2176              		.syntax unified
 2177              	@ 490 "../os/common/ext/ARM/CMSIS/Core/Include/cmsis_gcc.h" 1
 2178 00ae 82F31188 		MSR basepri, r2
 2179              	@ 0 "" 2
 2180              	.LVL156:
 2181              		.thumb
 2182              		.syntax unified
 2183              	.LBE600:
 2184              	.LBE599:
 2185              	.LBE598:
 2186              	.LBE597:
 2187              	.LBE596:
 2188              		.loc 1 757 0
 2189 00b2 A86A     		ldr	r0, [r5, #40]
 2190 00b4 0028     		cmp	r0, #0
 2191 00b6 BED1     		bne	.L119
 2192              	.L139:
 2193              	.LBB601:
 2194              		.loc 1 762 0
 2195 00b8 1AF1030F 		cmn	r10, #3
 2196 00bc 15D8     		bhi	.L140
 2197              	.LBB575:
 2198              	.LBB565:
 2199              	.LBB564:
 2200              	.LBB563:
 2201              	.LBB562:
 2202              	.LBB561:
 2203              		.loc 5 141 0
 2204 00be 019B     		ldr	r3, [sp, #4]
 2205 00c0 596A     		ldr	r1, [r3, #36]
 2206              	.LVL157:
 2207              	.LBE561:
 2208              	.LBE562:
 2209              	.LBE563:
 2210              	.LBE564:
 2211              	.LBE565:
 2212              	.LBB566:
 2213              	.LBB567:
 2214              	.LBB568:
 2215              		.loc 6 495 0
 2216 00c2 009B     		ldr	r3, [sp]
 2217 00c4 591A     		subs	r1, r3, r1
 2218              	.LVL158:
 2219              	.LBE568:
 2220              	.LBE567:
 2221              	.LBE566:
 2222              		.loc 1 772 0
 2223 00c6 8945     		cmp	r9, r1
ARM GAS  /var/folders/vd/czx34qs52cd_f3nb04sxmghc0000gn/T//ccqeiOJD.s 			page 40


 2224 00c8 1CD3     		bcc	.L141
 2225              		.loc 1 776 0
 2226 00ca 2846     		mov	r0, r5
 2227 00cc FFF7FEFF 		bl	obqGetEmptyBufferTimeoutS
 2228              	.LVL159:
 2229              	.LBE575:
 2230              		.loc 1 780 0
 2231 00d0 88B9     		cbnz	r0, .L124
 2232              	.L142:
 2233 00d2 A86A     		ldr	r0, [r5, #40]
 2234              	.LVL160:
 2235 00d4 AFE7     		b	.L119
 2236              	.LVL161:
 2237              	.L125:
 2238              	.LBE601:
 2239              		.loc 1 802 0
 2240 00d6 2246     		mov	r2, r4
 2241 00d8 3146     		mov	r1, r6
 2242 00da FFF7FEFF 		bl	memcpy
 2243              	.LVL162:
 2244              		.loc 1 804 0
 2245 00de AA6A     		ldr	r2, [r5, #40]
 2246 00e0 2244     		add	r2, r2, r4
 2247              		.loc 1 805 0
 2248 00e2 A344     		add	fp, fp, r4
 2249              	.LVL163:
 2250              		.loc 1 803 0
 2251 00e4 2644     		add	r6, r6, r4
 2252              	.LVL164:
 2253              		.loc 1 804 0
 2254 00e6 AA62     		str	r2, [r5, #40]
 2255 00e8 C4E7     		b	.L127
 2256              	.LVL165:
 2257              	.L140:
 2258              	.LBB602:
 2259              		.loc 1 763 0
 2260 00ea 4946     		mov	r1, r9
 2261 00ec 2846     		mov	r0, r5
 2262 00ee FFF7FEFF 		bl	obqGetEmptyBufferTimeoutS
 2263              	.LVL166:
 2264              		.loc 1 780 0
 2265 00f2 0028     		cmp	r0, #0
 2266 00f4 EDD0     		beq	.L142
 2267              	.L124:
 2268              	.LVL167:
 2269              	.LBB576:
 2270              	.LBB577:
 2271              	.LBB578:
 2272              	.LBB579:
 2273              	.LBB580:
 2274              	.LBB581:
 2275              		.loc 4 490 0
 2276 00f6 0022     		movs	r2, #0
 2277              		.syntax unified
 2278              	@ 490 "../os/common/ext/ARM/CMSIS/Core/Include/cmsis_gcc.h" 1
 2279 00f8 82F31188 		MSR basepri, r2
 2280              	@ 0 "" 2
ARM GAS  /var/folders/vd/czx34qs52cd_f3nb04sxmghc0000gn/T//ccqeiOJD.s 			page 41


 2281              	.LVL168:
 2282              		.thumb
 2283              		.syntax unified
 2284              	.L118:
 2285              	.LBE581:
 2286              	.LBE580:
 2287              	.LBE579:
 2288              	.LBE578:
 2289              	.LBE577:
 2290              	.LBE576:
 2291              	.LBE602:
 2292              	.LBE609:
 2293              		.loc 1 820 0
 2294 00fc 5846     		mov	r0, fp
 2295 00fe 03B0     		add	sp, sp, #12
 2296              		.cfi_remember_state
 2297              		.cfi_def_cfa_offset 36
 2298              		@ sp needed
 2299 0100 BDE8F08F 		pop	{r4, r5, r6, r7, r8, r9, r10, fp, pc}
 2300              	.LVL169:
 2301              	.L141:
 2302              		.cfi_restore_state
 2303              	.LBB610:
 2304              	.LBB603:
 2305              	.LBB582:
 2306              	.LBB569:
 2307              	.LBB570:
 2308              	.LBB571:
 2309              	.LBB572:
 2310              	.LBB573:
 2311              	.LBB574:
 2312              		.loc 4 490 0
 2313              		.syntax unified
 2314              	@ 490 "../os/common/ext/ARM/CMSIS/Core/Include/cmsis_gcc.h" 1
 2315 0104 80F31188 		MSR basepri, r0
 2316              	@ 0 "" 2
 2317              	.LVL170:
 2318              		.thumb
 2319              		.syntax unified
 2320              	.LBE574:
 2321              	.LBE573:
 2322              	.LBE572:
 2323              	.LBE571:
 2324              	.LBE570:
 2325              	.LBE569:
 2326              	.LBE582:
 2327              	.LBE603:
 2328              	.LBE610:
 2329              		.loc 1 820 0
 2330 0108 5846     		mov	r0, fp
 2331 010a 03B0     		add	sp, sp, #12
 2332              		.cfi_def_cfa_offset 36
 2333              		@ sp needed
 2334 010c BDE8F08F 		pop	{r4, r5, r6, r7, r8, r9, r10, fp, pc}
 2335              		.cfi_endproc
 2336              	.LFE332:
 2337              		.size	obqWriteTimeout, .-obqWriteTimeout
ARM GAS  /var/folders/vd/czx34qs52cd_f3nb04sxmghc0000gn/T//ccqeiOJD.s 			page 42


 2338              		.section	.text.obqTryFlushI,"ax",%progbits
 2339              		.align	1
 2340              		.p2align 4,,15
 2341              		.global	obqTryFlushI
 2342              		.syntax unified
 2343              		.thumb
 2344              		.thumb_func
 2345              		.fpu softvfp
 2346              		.type	obqTryFlushI, %function
 2347              	obqTryFlushI:
 2348              	.LFB333:
 2349              		.loc 1 835 0
 2350              		.cfi_startproc
 2351              		@ args = 0, pretend = 0, frame = 0
 2352              		@ frame_needed = 0, uses_anonymous_args = 0
 2353              		@ link register save eliminated.
 2354              	.LVL171:
 2355              		.loc 1 841 0
 2356 0000 D0E90423 		ldrd	r2, r3, [r0, #16]
 2357 0004 9A42     		cmp	r2, r3
 2358 0006 01D0     		beq	.L156
 2359              	.L148:
 2360              		.loc 1 862 0
 2361 0008 0020     		movs	r0, #0
 2362              	.LVL172:
 2363 000a 7047     		bx	lr
 2364              	.LVL173:
 2365              	.L156:
 2366              		.loc 1 841 0 discriminator 1
 2367 000c C368     		ldr	r3, [r0, #12]
 2368 000e 002B     		cmp	r3, #0
 2369 0010 FAD0     		beq	.L148
 2370              		.loc 1 841 0 is_stmt 0
 2371 0012 836A     		ldr	r3, [r0, #40]
 2372 0014 002B     		cmp	r3, #0
 2373 0016 F7D0     		beq	.L148
 2374              	.LBB611:
 2375              		.loc 1 842 0 is_stmt 1
 2376 0018 043B     		subs	r3, r3, #4
 2377              	.LVL174:
 2378              		.loc 1 844 0
 2379 001a 9B1A     		subs	r3, r3, r2
 2380              	.LVL175:
 2381 001c F4D0     		beq	.L148
 2382              	.LBE611:
 2383              		.loc 1 835 0
 2384 001e 10B4     		push	{r4}
 2385              		.cfi_def_cfa_offset 4
 2386              		.cfi_offset 4, -4
 2387              	.LBB612:
 2388              		.loc 1 847 0
 2389 0020 1360     		str	r3, [r2]
 2390              		.loc 1 852 0
 2391 0022 D0E90614 		ldrd	r1, r4, [r0, #24]
 2392              		.loc 1 850 0
 2393 0026 C368     		ldr	r3, [r0, #12]
 2394              	.LVL176:
ARM GAS  /var/folders/vd/czx34qs52cd_f3nb04sxmghc0000gn/T//ccqeiOJD.s 			page 43


 2395              		.loc 1 851 0
 2396 0028 2244     		add	r2, r2, r4
 2397              	.LVL177:
 2398              		.loc 1 850 0
 2399 002a 013B     		subs	r3, r3, #1
 2400              		.loc 1 852 0
 2401 002c 8A42     		cmp	r2, r1
 2402              		.loc 1 850 0
 2403 002e C360     		str	r3, [r0, #12]
 2404              	.LVL178:
 2405              		.loc 1 853 0
 2406 0030 28BF     		it	cs
 2407 0032 436A     		ldrcs	r3, [r0, #36]
 2408              		.loc 1 851 0
 2409 0034 0261     		str	r2, [r0, #16]
 2410              	.LVL179:
 2411              		.loc 1 853 0
 2412 0036 28BF     		it	cs
 2413 0038 0361     		strcs	r3, [r0, #16]
 2414              		.loc 1 857 0
 2415 003a 0023     		movs	r3, #0
 2416 003c 8362     		str	r3, [r0, #40]
 2417              	.LBE612:
 2418              		.loc 1 863 0
 2419 003e 10BC     		pop	{r4}
 2420              		.cfi_restore 4
 2421              		.cfi_def_cfa_offset 0
 2422              	.LBB613:
 2423              		.loc 1 859 0
 2424 0040 0120     		movs	r0, #1
 2425              	.LVL180:
 2426              	.LBE613:
 2427              		.loc 1 863 0
 2428 0042 7047     		bx	lr
 2429              		.cfi_endproc
 2430              	.LFE333:
 2431              		.size	obqTryFlushI, .-obqTryFlushI
 2432              		.section	.text.obqFlush,"ax",%progbits
 2433              		.align	1
 2434              		.p2align 4,,15
 2435              		.global	obqFlush
 2436              		.syntax unified
 2437              		.thumb
 2438              		.thumb_func
 2439              		.fpu softvfp
 2440              		.type	obqFlush, %function
 2441              	obqFlush:
 2442              	.LFB334:
 2443              		.loc 1 872 0
 2444              		.cfi_startproc
 2445              		@ args = 0, pretend = 0, frame = 0
 2446              		@ frame_needed = 0, uses_anonymous_args = 0
 2447              	.LVL181:
 2448              	.LBB614:
 2449              	.LBB615:
 2450              	.LBB616:
 2451              	.LBB617:
ARM GAS  /var/folders/vd/czx34qs52cd_f3nb04sxmghc0000gn/T//ccqeiOJD.s 			page 44


 2452              	.LBB618:
 2453              		.loc 4 490 0
 2454 0000 2023     		movs	r3, #32
 2455              		.syntax unified
 2456              	@ 490 "../os/common/ext/ARM/CMSIS/Core/Include/cmsis_gcc.h" 1
 2457 0002 83F31188 		MSR basepri, r3
 2458              	@ 0 "" 2
 2459              	.LVL182:
 2460              		.thumb
 2461              		.syntax unified
 2462              	.LBE618:
 2463              	.LBE617:
 2464              	.LBE616:
 2465              	.LBE615:
 2466              	.LBE614:
 2467              		.loc 1 877 0
 2468 0006 836A     		ldr	r3, [r0, #40]
 2469 0008 D3B1     		cbz	r3, .L169
 2470              	.LBB619:
 2471              		.loc 1 878 0
 2472 000a 0269     		ldr	r2, [r0, #16]
 2473 000c 043B     		subs	r3, r3, #4
 2474              	.LVL183:
 2475              		.loc 1 880 0
 2476 000e 9B1A     		subs	r3, r3, r2
 2477              	.LVL184:
 2478 0010 16D0     		beq	.L169
 2479              	.LVL185:
 2480              	.LBE619:
 2481              		.loc 1 872 0
 2482 0012 10B5     		push	{r4, lr}
 2483              		.cfi_def_cfa_offset 8
 2484              		.cfi_offset 4, -8
 2485              		.cfi_offset 14, -4
 2486              	.LBB622:
 2487              	.LBB620:
 2488              	.LBB621:
 2489              		.loc 1 653 0
 2490 0014 1360     		str	r3, [r2]
 2491              		.loc 1 658 0
 2492 0016 D0E90614 		ldrd	r1, r4, [r0, #24]
 2493              		.loc 1 656 0
 2494 001a C368     		ldr	r3, [r0, #12]
 2495              	.LVL186:
 2496              		.loc 1 657 0
 2497 001c 2244     		add	r2, r2, r4
 2498              	.LVL187:
 2499              		.loc 1 656 0
 2500 001e 013B     		subs	r3, r3, #1
 2501              		.loc 1 658 0
 2502 0020 8A42     		cmp	r2, r1
 2503              		.loc 1 656 0
 2504 0022 C360     		str	r3, [r0, #12]
 2505              	.LVL188:
 2506              		.loc 1 659 0
 2507 0024 28BF     		it	cs
 2508 0026 436A     		ldrcs	r3, [r0, #36]
ARM GAS  /var/folders/vd/czx34qs52cd_f3nb04sxmghc0000gn/T//ccqeiOJD.s 			page 45


 2509              		.loc 1 657 0
 2510 0028 0261     		str	r2, [r0, #16]
 2511              	.LVL189:
 2512              		.loc 1 659 0
 2513 002a 28BF     		it	cs
 2514 002c 0361     		strcs	r3, [r0, #16]
 2515              		.loc 1 666 0
 2516 002e 036B     		ldr	r3, [r0, #48]
 2517              		.loc 1 663 0
 2518 0030 0022     		movs	r2, #0
 2519 0032 8262     		str	r2, [r0, #40]
 2520              		.loc 1 666 0
 2521 0034 03B1     		cbz	r3, .L159
 2522              		.loc 1 667 0
 2523 0036 9847     		blx	r3
 2524              	.LVL190:
 2525              	.L159:
 2526              	.LBE621:
 2527              	.LBE620:
 2528              	.LBE622:
 2529              	.LBB623:
 2530              	.LBB624:
 2531              	.LBB625:
 2532              	.LBB626:
 2533              	.LBB627:
 2534              	.LBB628:
 2535              		.loc 4 490 0
 2536 0038 0023     		movs	r3, #0
 2537              		.syntax unified
 2538              	@ 490 "../os/common/ext/ARM/CMSIS/Core/Include/cmsis_gcc.h" 1
 2539 003a 83F31188 		MSR basepri, r3
 2540              	@ 0 "" 2
 2541              	.LVL191:
 2542              		.thumb
 2543              		.syntax unified
 2544              	.LBE628:
 2545              	.LBE627:
 2546              	.LBE626:
 2547              	.LBE625:
 2548              	.LBE624:
 2549              	.LBE623:
 2550              		.loc 1 886 0
 2551 003e 10BD     		pop	{r4, pc}
 2552              	.LVL192:
 2553              	.L169:
 2554              		.cfi_def_cfa_offset 0
 2555              		.cfi_restore 4
 2556              		.cfi_restore 14
 2557              	.LBB634:
 2558              	.LBB633:
 2559              	.LBB632:
 2560              	.LBB631:
 2561              	.LBB630:
 2562              	.LBB629:
 2563              		.loc 4 490 0
 2564 0040 0023     		movs	r3, #0
 2565              		.syntax unified
ARM GAS  /var/folders/vd/czx34qs52cd_f3nb04sxmghc0000gn/T//ccqeiOJD.s 			page 46


 2566              	@ 490 "../os/common/ext/ARM/CMSIS/Core/Include/cmsis_gcc.h" 1
 2567 0042 83F31188 		MSR basepri, r3
 2568              	@ 0 "" 2
 2569              	.LVL193:
 2570              		.thumb
 2571              		.syntax unified
 2572 0046 7047     		bx	lr
 2573              	.LBE629:
 2574              	.LBE630:
 2575              	.LBE631:
 2576              	.LBE632:
 2577              	.LBE633:
 2578              	.LBE634:
 2579              		.cfi_endproc
 2580              	.LFE334:
 2581              		.size	obqFlush, .-obqFlush
 2582              		.text
 2583              	.Letext0:
 2584              		.file 7 "/usr/local/Cellar/gcc-arm-none-eabi/20171218/lib/gcc/arm-none-eabi/7.2.1/include/stddef.h
 2585              		.file 8 "/usr/local/Cellar/gcc-arm-none-eabi/20171218/arm-none-eabi/include/machine/_default_types
 2586              		.file 9 "/usr/local/Cellar/gcc-arm-none-eabi/20171218/arm-none-eabi/include/sys/lock.h"
 2587              		.file 10 "/usr/local/Cellar/gcc-arm-none-eabi/20171218/arm-none-eabi/include/sys/_types.h"
 2588              		.file 11 "/usr/local/Cellar/gcc-arm-none-eabi/20171218/arm-none-eabi/include/sys/reent.h"
 2589              		.file 12 "/usr/local/Cellar/gcc-arm-none-eabi/20171218/arm-none-eabi/include/sys/_stdint.h"
 2590              		.file 13 "../os/common/ports/ARMCMx/compilers/GCC/chtypes.h"
 2591              		.file 14 "../os/rt/include/chsystypes.h"
 2592              		.file 15 "../os/common/ext/ARM/CMSIS/Core/Include/core_cm4.h"
 2593              		.file 16 "../os/common/ext/ST/STM32F4xx/system_stm32f4xx.h"
 2594              		.file 17 "../os/common/ext/ST/STM32F4xx/stm32f407xx.h"
 2595              		.file 18 "../os/common/ports/ARMCMx/chcore.h"
 2596              		.file 19 "../os/common/ports/ARMCMx/chcore_v7m.h"
 2597              		.file 20 "../os/hal/ports/STM32/LLD/TIMv1/stm32_tim.h"
 2598              		.file 21 "../os/rt/include/chtm.h"
 2599              		.file 22 "../os/rt/include/chsem.h"
 2600              		.file 23 "../os/rt/include/chmtx.h"
 2601              		.file 24 "../os/rt/include/chsys.h"
 2602              		.file 25 "../os/rt/include/chregistry.h"
 2603              		.file 26 "../os/rt/include/chevents.h"
 2604              		.file 27 "../os/common/oslib/include/chmemcore.h"
 2605              		.file 28 "../os/common/oslib/include/chmempools.h"
 2606              		.file 29 "../os/common/oslib/include/chfactory.h"
 2607              		.file 30 "../os/hal/ports/STM32/LLD/DMAv2/stm32_dma.h"
 2608              		.file 31 "../os/hal/include/hal_buffers.h"
 2609              		.file 32 "../os/hal/include/hal_queues.h"
 2610              		.file 33 "../os/hal/include/hal_pal.h"
 2611              		.file 34 "../os/hal/ports/STM32/LLD/GPIOv2/hal_pal_lld.h"
 2612              		.file 35 "../os/hal/include/hal_pwm.h"
 2613              		.file 36 "../os/hal/ports/STM32/LLD/TIMv1/hal_pwm_lld.h"
 2614              		.file 37 "../os/hal/include/hal_serial.h"
 2615              		.file 38 "../os/hal/ports/STM32/LLD/USARTv1/hal_serial_lld.h"
 2616              		.file 39 "../os/rt/include/chvt.h"
 2617              		.file 40 "../os/common/ports/ARMCMx/chcore_timer.h"
 2618              		.file 41 "../os/rt/include/chthreads.h"
 2619              		.file 42 "<built-in>"