ARM GAS  /var/folders/vd/czx34qs52cd_f3nb04sxmghc0000gn/T//ccRXSGGx.s 			page 1


   1              		.cpu cortex-m4
   2              		.eabi_attribute 20, 1
   3              		.eabi_attribute 21, 1
   4              		.eabi_attribute 23, 3
   5              		.eabi_attribute 24, 1
   6              		.eabi_attribute 25, 1
   7              		.eabi_attribute 26, 1
   8              		.eabi_attribute 30, 2
   9              		.eabi_attribute 34, 1
  10              		.eabi_attribute 18, 4
  11              		.file	"hal_pal.c"
  12              		.text
  13              	.Ltext0:
  14              		.cfi_sections	.debug_frame
  15              		.section	.text.palReadBus,"ax",%progbits
  16              		.align	1
  17              		.p2align 4,,15
  18              		.global	palReadBus
  19              		.syntax unified
  20              		.thumb
  21              		.thumb_func
  22              		.fpu softvfp
  23              		.type	palReadBus, %function
  24              	palReadBus:
  25              	.LFB313:
  26              		.file 1 "../os/hal/src/hal_pal.c"
  27              		.loc 1 65 0
  28              		.cfi_startproc
  29              		@ args = 0, pretend = 0, frame = 0
  30              		@ frame_needed = 0, uses_anonymous_args = 0
  31              		@ link register save eliminated.
  32              	.LVL0:
  33              		.loc 1 69 0
  34 0000 0368     		ldr	r3, [r0]
  35 0002 8268     		ldr	r2, [r0, #8]
  36 0004 1B69     		ldr	r3, [r3, #16]
  37 0006 4068     		ldr	r0, [r0, #4]
  38              	.LVL1:
  39 0008 D340     		lsrs	r3, r3, r2
  40              		.loc 1 70 0
  41 000a 1840     		ands	r0, r0, r3
  42 000c 7047     		bx	lr
  43              		.cfi_endproc
  44              	.LFE313:
  45              		.size	palReadBus, .-palReadBus
  46 000e 00BF     		.section	.text.palWriteBus,"ax",%progbits
  47              		.align	1
  48              		.p2align 4,,15
  49              		.global	palWriteBus
  50              		.syntax unified
  51              		.thumb
  52              		.thumb_func
  53              		.fpu softvfp
  54              		.type	palWriteBus, %function
  55              	palWriteBus:
  56              	.LFB314:
  57              		.loc 1 90 0
ARM GAS  /var/folders/vd/czx34qs52cd_f3nb04sxmghc0000gn/T//ccRXSGGx.s 			page 2


  58              		.cfi_startproc
  59              		@ args = 0, pretend = 0, frame = 0
  60              		@ frame_needed = 0, uses_anonymous_args = 0
  61              		@ link register save eliminated.
  62              	.LVL2:
  63 0000 10B4     		push	{r4}
  64              		.cfi_def_cfa_offset 4
  65              		.cfi_offset 4, -4
  66              		.loc 1 94 0
  67 0002 D0E90142 		ldrd	r4, r2, [r0, #4]
  68 0006 24EA0103 		bic	r3, r4, r1
  69 000a 2140     		ands	r1, r1, r4
  70              	.LVL3:
  71 000c 02F11004 		add	r4, r2, #16
  72 0010 A340     		lsls	r3, r3, r4
  73 0012 0068     		ldr	r0, [r0]
  74              	.LVL4:
  75              		.loc 1 95 0
  76 0014 10BC     		pop	{r4}
  77              		.cfi_restore 4
  78              		.cfi_def_cfa_offset 0
  79              		.loc 1 94 0
  80 0016 9140     		lsls	r1, r1, r2
  81 0018 1943     		orrs	r1, r1, r3
  82 001a 8161     		str	r1, [r0, #24]
  83              		.loc 1 95 0
  84 001c 7047     		bx	lr
  85              		.cfi_endproc
  86              	.LFE314:
  87              		.size	palWriteBus, .-palWriteBus
  88 001e 00BF     		.section	.text.palSetBusMode,"ax",%progbits
  89              		.align	1
  90              		.p2align 4,,15
  91              		.global	palSetBusMode
  92              		.syntax unified
  93              		.thumb
  94              		.thumb_func
  95              		.fpu softvfp
  96              		.type	palSetBusMode, %function
  97              	palSetBusMode:
  98              	.LFB315:
  99              		.loc 1 113 0
 100              		.cfi_startproc
 101              		@ args = 0, pretend = 0, frame = 0
 102              		@ frame_needed = 0, uses_anonymous_args = 0
 103              		@ link register save eliminated.
 104              	.LVL5:
 105              		.loc 1 117 0
 106 0000 0A46     		mov	r2, r1
 107 0002 D0E90113 		ldrd	r1, r3, [r0, #4]
 108              	.LVL6:
 109 0006 0068     		ldr	r0, [r0]
 110              	.LVL7:
 111 0008 9940     		lsls	r1, r1, r3
 112 000a FFF7FEBF 		b	_pal_lld_setgroupmode
 113              	.LVL8:
 114              		.cfi_endproc
ARM GAS  /var/folders/vd/czx34qs52cd_f3nb04sxmghc0000gn/T//ccRXSGGx.s 			page 3


 115              	.LFE315:
 116              		.size	palSetBusMode, .-palSetBusMode
 117 000e 00BF     		.text
 118              	.Letext0:
 119              		.file 2 "/usr/local/Cellar/gcc-arm-none-eabi/20171218/lib/gcc/arm-none-eabi/7.2.1/include/stddef.h
 120              		.file 3 "/usr/local/Cellar/gcc-arm-none-eabi/20171218/arm-none-eabi/include/machine/_default_types
 121              		.file 4 "/usr/local/Cellar/gcc-arm-none-eabi/20171218/arm-none-eabi/include/sys/_stdint.h"
 122              		.file 5 "/usr/local/Cellar/gcc-arm-none-eabi/20171218/arm-none-eabi/include/stdint.h"
 123              		.file 6 "../os/common/ports/ARMCMx/compilers/GCC/chtypes.h"
 124              		.file 7 "../os/rt/include/chsystypes.h"
 125              		.file 8 "../os/rt/include/chschd.h"
 126              		.file 9 "../os/rt/include/chtime.h"
 127              		.file 10 "../os/common/ext/ARM/CMSIS/Core/Include/core_cm4.h"
 128              		.file 11 "../os/common/ext/ST/STM32F4xx/system_stm32f4xx.h"
 129              		.file 12 "../os/common/ext/ST/STM32F4xx/stm32f407xx.h"
 130              		.file 13 "../os/common/ports/ARMCMx/chcore.h"
 131              		.file 14 "../os/common/ports/ARMCMx/chcore_v7m.h"
 132              		.file 15 "../os/hal/ports/STM32/LLD/TIMv1/stm32_tim.h"
 133              		.file 16 "../os/rt/include/chtm.h"
 134              		.file 17 "../os/rt/include/chsem.h"
 135              		.file 18 "../os/rt/include/chmtx.h"
 136              		.file 19 "../os/rt/include/chsys.h"
 137              		.file 20 "../os/rt/include/chregistry.h"
 138              		.file 21 "../os/rt/include/chevents.h"
 139              		.file 22 "../os/common/oslib/include/chmemcore.h"
 140              		.file 23 "../os/common/oslib/include/chmempools.h"
 141              		.file 24 "../os/common/oslib/include/chfactory.h"
 142              		.file 25 "../os/hal/ports/STM32/LLD/DMAv2/stm32_dma.h"
 143              		.file 26 "../os/hal/include/hal_queues.h"
 144              		.file 27 "../os/hal/include/hal_pal.h"
 145              		.file 28 "../os/hal/ports/STM32/LLD/GPIOv2/stm32_gpio.h"
 146              		.file 29 "../os/hal/ports/STM32/LLD/GPIOv2/hal_pal_lld.h"
 147              		.file 30 "../os/hal/include/hal_pwm.h"
 148              		.file 31 "../os/hal/ports/STM32/LLD/TIMv1/hal_pwm_lld.h"
 149              		.file 32 "../os/hal/include/hal_serial.h"
 150              		.file 33 "../os/hal/ports/STM32/LLD/USARTv1/hal_serial_lld.h"