ARM GAS  /var/folders/vd/czx34qs52cd_f3nb04sxmghc0000gn/T//ccZeG5MI.s 			page 1


   1              		.cpu cortex-m4
   2              		.eabi_attribute 20, 1
   3              		.eabi_attribute 21, 1
   4              		.eabi_attribute 23, 3
   5              		.eabi_attribute 24, 1
   6              		.eabi_attribute 25, 1
   7              		.eabi_attribute 26, 1
   8              		.eabi_attribute 30, 2
   9              		.eabi_attribute 34, 1
  10              		.eabi_attribute 18, 4
  11              		.file	"hal_pwm.c"
  12              		.text
  13              	.Ltext0:
  14              		.cfi_sections	.debug_frame
  15              		.section	.text.pwmInit,"ax",%progbits
  16              		.align	1
  17              		.p2align 4,,15
  18              		.global	pwmInit
  19              		.syntax unified
  20              		.thumb
  21              		.thumb_func
  22              		.fpu softvfp
  23              		.type	pwmInit, %function
  24              	pwmInit:
  25              	.LFB313:
  26              		.file 1 "../os/hal/src/hal_pwm.c"
  27              		.loc 1 56 0
  28              		.cfi_startproc
  29              		@ args = 0, pretend = 0, frame = 0
  30              		@ frame_needed = 0, uses_anonymous_args = 0
  31              		@ link register save eliminated.
  32              		.loc 1 58 0
  33 0000 FFF7FEBF 		b	pwm_lld_init
  34              	.LVL0:
  35              		.cfi_endproc
  36              	.LFE313:
  37              		.size	pwmInit, .-pwmInit
  38              		.section	.text.pwmObjectInit,"ax",%progbits
  39              		.align	1
  40              		.p2align 4,,15
  41              		.global	pwmObjectInit
  42              		.syntax unified
  43              		.thumb
  44              		.thumb_func
  45              		.fpu softvfp
  46              		.type	pwmObjectInit, %function
  47              	pwmObjectInit:
  48              	.LFB314:
  49              		.loc 1 68 0
  50              		.cfi_startproc
  51              		@ args = 0, pretend = 0, frame = 0
  52              		@ frame_needed = 0, uses_anonymous_args = 0
  53              		@ link register save eliminated.
  54              	.LVL1:
  55              		.loc 1 71 0
  56 0000 0023     		movs	r3, #0
  57              		.loc 1 70 0
ARM GAS  /var/folders/vd/czx34qs52cd_f3nb04sxmghc0000gn/T//ccZeG5MI.s 			page 2


  58 0002 0122     		movs	r2, #1
  59 0004 0270     		strb	r2, [r0]
  60              		.loc 1 71 0
  61 0006 4360     		str	r3, [r0, #4]
  62              		.loc 1 72 0
  63 0008 C360     		str	r3, [r0, #12]
  64              		.loc 1 73 0
  65 000a 0374     		strb	r3, [r0, #16]
  66              		.loc 1 77 0
  67 000c 7047     		bx	lr
  68              		.cfi_endproc
  69              	.LFE314:
  70              		.size	pwmObjectInit, .-pwmObjectInit
  71 000e 00BF     		.section	.text.pwmStart,"ax",%progbits
  72              		.align	1
  73              		.p2align 4,,15
  74              		.global	pwmStart
  75              		.syntax unified
  76              		.thumb
  77              		.thumb_func
  78              		.fpu softvfp
  79              		.type	pwmStart, %function
  80              	pwmStart:
  81              	.LFB315:
  82              		.loc 1 89 0
  83              		.cfi_startproc
  84              		@ args = 0, pretend = 0, frame = 0
  85              		@ frame_needed = 0, uses_anonymous_args = 0
  86              	.LVL2:
  87 0000 10B5     		push	{r4, lr}
  88              		.cfi_def_cfa_offset 8
  89              		.cfi_offset 4, -8
  90              		.cfi_offset 14, -4
  91              	.LBB141:
  92              	.LBB142:
  93              	.LBB143:
  94              	.LBB144:
  95              	.LBB145:
  96              		.file 2 "../os/common/ext/ARM/CMSIS/Core/Include/cmsis_gcc.h"
  97              		.loc 2 490 0
  98 0002 2023     		movs	r3, #32
  99              	.LBE145:
 100              	.LBE144:
 101              	.LBE143:
 102              	.LBE142:
 103              	.LBE141:
 104              		.loc 1 89 0
 105 0004 0446     		mov	r4, r0
 106              	.LBB150:
 107              	.LBB149:
 108              	.LBB148:
 109              	.LBB147:
 110              	.LBB146:
 111              		.loc 2 490 0
 112              		.syntax unified
 113              	@ 490 "../os/common/ext/ARM/CMSIS/Core/Include/cmsis_gcc.h" 1
 114 0006 83F31188 		MSR basepri, r3
ARM GAS  /var/folders/vd/czx34qs52cd_f3nb04sxmghc0000gn/T//ccZeG5MI.s 			page 3


 115              	@ 0 "" 2
 116              	.LVL3:
 117              		.thumb
 118              		.syntax unified
 119              	.LBE146:
 120              	.LBE147:
 121              	.LBE148:
 122              	.LBE149:
 123              	.LBE150:
 124              		.loc 1 97 0
 125 000a 4B68     		ldr	r3, [r1, #4]
 126 000c C0E90113 		strd	r1, r3, [r0, #4]
 127              		.loc 1 98 0
 128 0010 FFF7FEFF 		bl	pwm_lld_start
 129              	.LVL4:
 130              		.loc 1 100 0
 131 0014 0222     		movs	r2, #2
 132              		.loc 1 99 0
 133 0016 0023     		movs	r3, #0
 134              		.loc 1 100 0
 135 0018 2270     		strb	r2, [r4]
 136              	.LVL5:
 137              		.loc 1 99 0
 138 001a E360     		str	r3, [r4, #12]
 139              	.LBB151:
 140              	.LBB152:
 141              	.LBB153:
 142              	.LBB154:
 143              	.LBB155:
 144              	.LBB156:
 145              		.loc 2 490 0
 146              		.syntax unified
 147              	@ 490 "../os/common/ext/ARM/CMSIS/Core/Include/cmsis_gcc.h" 1
 148 001c 83F31188 		MSR basepri, r3
 149              	@ 0 "" 2
 150              	.LVL6:
 151              		.thumb
 152              		.syntax unified
 153              	.LBE156:
 154              	.LBE155:
 155              	.LBE154:
 156              	.LBE153:
 157              	.LBE152:
 158              	.LBE151:
 159              		.loc 1 102 0
 160 0020 10BD     		pop	{r4, pc}
 161              		.cfi_endproc
 162              	.LFE315:
 163              		.size	pwmStart, .-pwmStart
 164 0022 00BF     		.section	.text.pwmStop,"ax",%progbits
 165              		.align	1
 166              		.p2align 4,,15
 167              		.global	pwmStop
 168              		.syntax unified
 169              		.thumb
 170              		.thumb_func
 171              		.fpu softvfp
ARM GAS  /var/folders/vd/czx34qs52cd_f3nb04sxmghc0000gn/T//ccZeG5MI.s 			page 4


 172              		.type	pwmStop, %function
 173              	pwmStop:
 174              	.LFB316:
 175              		.loc 1 111 0
 176              		.cfi_startproc
 177              		@ args = 0, pretend = 0, frame = 0
 178              		@ frame_needed = 0, uses_anonymous_args = 0
 179              	.LVL7:
 180 0000 10B5     		push	{r4, lr}
 181              		.cfi_def_cfa_offset 8
 182              		.cfi_offset 4, -8
 183              		.cfi_offset 14, -4
 184              	.LBB157:
 185              	.LBB158:
 186              	.LBB159:
 187              	.LBB160:
 188              	.LBB161:
 189              		.loc 2 490 0
 190 0002 2023     		movs	r3, #32
 191              	.LBE161:
 192              	.LBE160:
 193              	.LBE159:
 194              	.LBE158:
 195              	.LBE157:
 196              		.loc 1 111 0
 197 0004 0446     		mov	r4, r0
 198              	.LBB166:
 199              	.LBB165:
 200              	.LBB164:
 201              	.LBB163:
 202              	.LBB162:
 203              		.loc 2 490 0
 204              		.syntax unified
 205              	@ 490 "../os/common/ext/ARM/CMSIS/Core/Include/cmsis_gcc.h" 1
 206 0006 83F31188 		MSR basepri, r3
 207              	@ 0 "" 2
 208              	.LVL8:
 209              		.thumb
 210              		.syntax unified
 211              	.LBE162:
 212              	.LBE163:
 213              	.LBE164:
 214              	.LBE165:
 215              	.LBE166:
 216              		.loc 1 120 0
 217 000a FFF7FEFF 		bl	pwm_lld_stop
 218              	.LVL9:
 219              		.loc 1 121 0
 220 000e 0023     		movs	r3, #0
 221              		.loc 1 123 0
 222 0010 0122     		movs	r2, #1
 223 0012 2270     		strb	r2, [r4]
 224              	.LVL10:
 225              		.loc 1 121 0
 226 0014 E360     		str	r3, [r4, #12]
 227              		.loc 1 122 0
 228 0016 6360     		str	r3, [r4, #4]
ARM GAS  /var/folders/vd/czx34qs52cd_f3nb04sxmghc0000gn/T//ccZeG5MI.s 			page 5


 229              	.LBB167:
 230              	.LBB168:
 231              	.LBB169:
 232              	.LBB170:
 233              	.LBB171:
 234              	.LBB172:
 235              		.loc 2 490 0
 236              		.syntax unified
 237              	@ 490 "../os/common/ext/ARM/CMSIS/Core/Include/cmsis_gcc.h" 1
 238 0018 83F31188 		MSR basepri, r3
 239              	@ 0 "" 2
 240              	.LVL11:
 241              		.thumb
 242              		.syntax unified
 243              	.LBE172:
 244              	.LBE171:
 245              	.LBE170:
 246              	.LBE169:
 247              	.LBE168:
 248              	.LBE167:
 249              		.loc 1 126 0
 250 001c 10BD     		pop	{r4, pc}
 251              		.cfi_endproc
 252              	.LFE316:
 253              		.size	pwmStop, .-pwmStop
 254 001e 00BF     		.section	.text.pwmChangePeriod,"ax",%progbits
 255              		.align	1
 256              		.p2align 4,,15
 257              		.global	pwmChangePeriod
 258              		.syntax unified
 259              		.thumb
 260              		.thumb_func
 261              		.fpu softvfp
 262              		.type	pwmChangePeriod, %function
 263              	pwmChangePeriod:
 264              	.LFB317:
 265              		.loc 1 143 0
 266              		.cfi_startproc
 267              		@ args = 0, pretend = 0, frame = 0
 268              		@ frame_needed = 0, uses_anonymous_args = 0
 269              		@ link register save eliminated.
 270              	.LVL12:
 271              	.LBB173:
 272              	.LBB174:
 273              	.LBB175:
 274              	.LBB176:
 275              	.LBB177:
 276              		.loc 2 490 0
 277 0000 2023     		movs	r3, #32
 278              		.syntax unified
 279              	@ 490 "../os/common/ext/ARM/CMSIS/Core/Include/cmsis_gcc.h" 1
 280 0002 83F31188 		MSR basepri, r3
 281              	@ 0 "" 2
 282              	.LVL13:
 283              		.thumb
 284              		.syntax unified
 285              	.LBE177:
ARM GAS  /var/folders/vd/czx34qs52cd_f3nb04sxmghc0000gn/T//ccZeG5MI.s 			page 6


 286              	.LBE176:
 287              	.LBE175:
 288              	.LBE174:
 289              	.LBE173:
 290              		.loc 1 149 0
 291 0006 8369     		ldr	r3, [r0, #24]
 292 0008 8160     		str	r1, [r0, #8]
 293 000a 0139     		subs	r1, r1, #1
 294              	.LVL14:
 295 000c D962     		str	r1, [r3, #44]
 296              	.LVL15:
 297              	.LBB178:
 298              	.LBB179:
 299              	.LBB180:
 300              	.LBB181:
 301              	.LBB182:
 302              	.LBB183:
 303              		.loc 2 490 0
 304 000e 0023     		movs	r3, #0
 305              		.syntax unified
 306              	@ 490 "../os/common/ext/ARM/CMSIS/Core/Include/cmsis_gcc.h" 1
 307 0010 83F31188 		MSR basepri, r3
 308              	@ 0 "" 2
 309              	.LVL16:
 310              		.thumb
 311              		.syntax unified
 312              	.LBE183:
 313              	.LBE182:
 314              	.LBE181:
 315              	.LBE180:
 316              	.LBE179:
 317              	.LBE178:
 318              		.loc 1 151 0
 319 0014 7047     		bx	lr
 320              		.cfi_endproc
 321              	.LFE317:
 322              		.size	pwmChangePeriod, .-pwmChangePeriod
 323 0016 00BF     		.section	.text.pwmEnableChannel,"ax",%progbits
 324              		.align	1
 325              		.p2align 4,,15
 326              		.global	pwmEnableChannel
 327              		.syntax unified
 328              		.thumb
 329              		.thumb_func
 330              		.fpu softvfp
 331              		.type	pwmEnableChannel, %function
 332              	pwmEnableChannel:
 333              	.LFB318:
 334              		.loc 1 169 0
 335              		.cfi_startproc
 336              		@ args = 0, pretend = 0, frame = 0
 337              		@ frame_needed = 0, uses_anonymous_args = 0
 338              	.LVL17:
 339 0000 70B5     		push	{r4, r5, r6, lr}
 340              		.cfi_def_cfa_offset 16
 341              		.cfi_offset 4, -16
 342              		.cfi_offset 5, -12
ARM GAS  /var/folders/vd/czx34qs52cd_f3nb04sxmghc0000gn/T//ccZeG5MI.s 			page 7


 343              		.cfi_offset 6, -8
 344              		.cfi_offset 14, -4
 345              	.LBB184:
 346              	.LBB185:
 347              	.LBB186:
 348              	.LBB187:
 349              	.LBB188:
 350              		.loc 2 490 0
 351 0002 2023     		movs	r3, #32
 352              		.syntax unified
 353              	@ 490 "../os/common/ext/ARM/CMSIS/Core/Include/cmsis_gcc.h" 1
 354 0004 83F31188 		MSR basepri, r3
 355              	@ 0 "" 2
 356              	.LVL18:
 357              		.thumb
 358              		.syntax unified
 359              	.LBE188:
 360              	.LBE187:
 361              	.LBE186:
 362              	.LBE185:
 363              	.LBE184:
 364              		.loc 1 177 0
 365 0008 0124     		movs	r4, #1
 366 000a C368     		ldr	r3, [r0, #12]
 367 000c 8C40     		lsls	r4, r4, r1
 368 000e 2343     		orrs	r3, r3, r4
 369 0010 C360     		str	r3, [r0, #12]
 370 0012 FFF7FEFF 		bl	pwm_lld_enable_channel
 371              	.LVL19:
 372              	.LBB189:
 373              	.LBB190:
 374              	.LBB191:
 375              	.LBB192:
 376              	.LBB193:
 377              	.LBB194:
 378              		.loc 2 490 0
 379 0016 0023     		movs	r3, #0
 380              		.syntax unified
 381              	@ 490 "../os/common/ext/ARM/CMSIS/Core/Include/cmsis_gcc.h" 1
 382 0018 83F31188 		MSR basepri, r3
 383              	@ 0 "" 2
 384              	.LVL20:
 385              		.thumb
 386              		.syntax unified
 387              	.LBE194:
 388              	.LBE193:
 389              	.LBE192:
 390              	.LBE191:
 391              	.LBE190:
 392              	.LBE189:
 393              		.loc 1 180 0
 394 001c 70BD     		pop	{r4, r5, r6, pc}
 395              		.cfi_endproc
 396              	.LFE318:
 397              		.size	pwmEnableChannel, .-pwmEnableChannel
 398 001e 00BF     		.section	.text.pwmDisableChannel,"ax",%progbits
 399              		.align	1
ARM GAS  /var/folders/vd/czx34qs52cd_f3nb04sxmghc0000gn/T//ccZeG5MI.s 			page 8


 400              		.p2align 4,,15
 401              		.global	pwmDisableChannel
 402              		.syntax unified
 403              		.thumb
 404              		.thumb_func
 405              		.fpu softvfp
 406              		.type	pwmDisableChannel, %function
 407              	pwmDisableChannel:
 408              	.LFB319:
 409              		.loc 1 196 0
 410              		.cfi_startproc
 411              		@ args = 0, pretend = 0, frame = 0
 412              		@ frame_needed = 0, uses_anonymous_args = 0
 413              	.LVL21:
 414 0000 38B5     		push	{r3, r4, r5, lr}
 415              		.cfi_def_cfa_offset 16
 416              		.cfi_offset 3, -16
 417              		.cfi_offset 4, -12
 418              		.cfi_offset 5, -8
 419              		.cfi_offset 14, -4
 420              	.LBB195:
 421              	.LBB196:
 422              	.LBB197:
 423              	.LBB198:
 424              	.LBB199:
 425              		.loc 2 490 0
 426 0002 2023     		movs	r3, #32
 427              		.syntax unified
 428              	@ 490 "../os/common/ext/ARM/CMSIS/Core/Include/cmsis_gcc.h" 1
 429 0004 83F31188 		MSR basepri, r3
 430              	@ 0 "" 2
 431              	.LVL22:
 432              		.thumb
 433              		.syntax unified
 434              	.LBE199:
 435              	.LBE198:
 436              	.LBE197:
 437              	.LBE196:
 438              	.LBE195:
 439              		.loc 1 204 0
 440 0008 0122     		movs	r2, #1
 441 000a C368     		ldr	r3, [r0, #12]
 442 000c 8A40     		lsls	r2, r2, r1
 443 000e 23EA0203 		bic	r3, r3, r2
 444 0012 C360     		str	r3, [r0, #12]
 445 0014 FFF7FEFF 		bl	pwm_lld_disable_channel
 446              	.LVL23:
 447              	.LBB200:
 448              	.LBB201:
 449              	.LBB202:
 450              	.LBB203:
 451              	.LBB204:
 452              	.LBB205:
 453              		.loc 2 490 0
 454 0018 0023     		movs	r3, #0
 455              		.syntax unified
 456              	@ 490 "../os/common/ext/ARM/CMSIS/Core/Include/cmsis_gcc.h" 1
ARM GAS  /var/folders/vd/czx34qs52cd_f3nb04sxmghc0000gn/T//ccZeG5MI.s 			page 9


 457 001a 83F31188 		MSR basepri, r3
 458              	@ 0 "" 2
 459              	.LVL24:
 460              		.thumb
 461              		.syntax unified
 462              	.LBE205:
 463              	.LBE204:
 464              	.LBE203:
 465              	.LBE202:
 466              	.LBE201:
 467              	.LBE200:
 468              		.loc 1 207 0
 469 001e 38BD     		pop	{r3, r4, r5, pc}
 470              		.cfi_endproc
 471              	.LFE319:
 472              		.size	pwmDisableChannel, .-pwmDisableChannel
 473              		.section	.text.pwmEnablePeriodicNotification,"ax",%progbits
 474              		.align	1
 475              		.p2align 4,,15
 476              		.global	pwmEnablePeriodicNotification
 477              		.syntax unified
 478              		.thumb
 479              		.thumb_func
 480              		.fpu softvfp
 481              		.type	pwmEnablePeriodicNotification, %function
 482              	pwmEnablePeriodicNotification:
 483              	.LFB320:
 484              		.loc 1 218 0
 485              		.cfi_startproc
 486              		@ args = 0, pretend = 0, frame = 0
 487              		@ frame_needed = 0, uses_anonymous_args = 0
 488              	.LVL25:
 489 0000 08B5     		push	{r3, lr}
 490              		.cfi_def_cfa_offset 8
 491              		.cfi_offset 3, -8
 492              		.cfi_offset 14, -4
 493              	.LBB206:
 494              	.LBB207:
 495              	.LBB208:
 496              	.LBB209:
 497              	.LBB210:
 498              		.loc 2 490 0
 499 0002 2023     		movs	r3, #32
 500              		.syntax unified
 501              	@ 490 "../os/common/ext/ARM/CMSIS/Core/Include/cmsis_gcc.h" 1
 502 0004 83F31188 		MSR basepri, r3
 503              	@ 0 "" 2
 504              	.LVL26:
 505              		.thumb
 506              		.syntax unified
 507              	.LBE210:
 508              	.LBE209:
 509              	.LBE208:
 510              	.LBE207:
 511              	.LBE206:
 512              		.loc 1 227 0
 513 0008 FFF7FEFF 		bl	pwm_lld_enable_periodic_notification
ARM GAS  /var/folders/vd/czx34qs52cd_f3nb04sxmghc0000gn/T//ccZeG5MI.s 			page 10


 514              	.LVL27:
 515              	.LBB211:
 516              	.LBB212:
 517              	.LBB213:
 518              	.LBB214:
 519              	.LBB215:
 520              	.LBB216:
 521              		.loc 2 490 0
 522 000c 0023     		movs	r3, #0
 523              		.syntax unified
 524              	@ 490 "../os/common/ext/ARM/CMSIS/Core/Include/cmsis_gcc.h" 1
 525 000e 83F31188 		MSR basepri, r3
 526              	@ 0 "" 2
 527              	.LVL28:
 528              		.thumb
 529              		.syntax unified
 530              	.LBE216:
 531              	.LBE215:
 532              	.LBE214:
 533              	.LBE213:
 534              	.LBE212:
 535              	.LBE211:
 536              		.loc 1 230 0
 537 0012 08BD     		pop	{r3, pc}
 538              		.cfi_endproc
 539              	.LFE320:
 540              		.size	pwmEnablePeriodicNotification, .-pwmEnablePeriodicNotification
 541              		.section	.text.pwmDisablePeriodicNotification,"ax",%progbits
 542              		.align	1
 543              		.p2align 4,,15
 544              		.global	pwmDisablePeriodicNotification
 545              		.syntax unified
 546              		.thumb
 547              		.thumb_func
 548              		.fpu softvfp
 549              		.type	pwmDisablePeriodicNotification, %function
 550              	pwmDisablePeriodicNotification:
 551              	.LFB321:
 552              		.loc 1 241 0
 553              		.cfi_startproc
 554              		@ args = 0, pretend = 0, frame = 0
 555              		@ frame_needed = 0, uses_anonymous_args = 0
 556              	.LVL29:
 557 0000 08B5     		push	{r3, lr}
 558              		.cfi_def_cfa_offset 8
 559              		.cfi_offset 3, -8
 560              		.cfi_offset 14, -4
 561              	.LBB217:
 562              	.LBB218:
 563              	.LBB219:
 564              	.LBB220:
 565              	.LBB221:
 566              		.loc 2 490 0
 567 0002 2023     		movs	r3, #32
 568              		.syntax unified
 569              	@ 490 "../os/common/ext/ARM/CMSIS/Core/Include/cmsis_gcc.h" 1
 570 0004 83F31188 		MSR basepri, r3
ARM GAS  /var/folders/vd/czx34qs52cd_f3nb04sxmghc0000gn/T//ccZeG5MI.s 			page 11


 571              	@ 0 "" 2
 572              	.LVL30:
 573              		.thumb
 574              		.syntax unified
 575              	.LBE221:
 576              	.LBE220:
 577              	.LBE219:
 578              	.LBE218:
 579              	.LBE217:
 580              		.loc 1 250 0
 581 0008 FFF7FEFF 		bl	pwm_lld_disable_periodic_notification
 582              	.LVL31:
 583              	.LBB222:
 584              	.LBB223:
 585              	.LBB224:
 586              	.LBB225:
 587              	.LBB226:
 588              	.LBB227:
 589              		.loc 2 490 0
 590 000c 0023     		movs	r3, #0
 591              		.syntax unified
 592              	@ 490 "../os/common/ext/ARM/CMSIS/Core/Include/cmsis_gcc.h" 1
 593 000e 83F31188 		MSR basepri, r3
 594              	@ 0 "" 2
 595              	.LVL32:
 596              		.thumb
 597              		.syntax unified
 598              	.LBE227:
 599              	.LBE226:
 600              	.LBE225:
 601              	.LBE224:
 602              	.LBE223:
 603              	.LBE222:
 604              		.loc 1 253 0
 605 0012 08BD     		pop	{r3, pc}
 606              		.cfi_endproc
 607              	.LFE321:
 608              		.size	pwmDisablePeriodicNotification, .-pwmDisablePeriodicNotification
 609              		.section	.text.pwmEnableChannelNotification,"ax",%progbits
 610              		.align	1
 611              		.p2align 4,,15
 612              		.global	pwmEnableChannelNotification
 613              		.syntax unified
 614              		.thumb
 615              		.thumb_func
 616              		.fpu softvfp
 617              		.type	pwmEnableChannelNotification, %function
 618              	pwmEnableChannelNotification:
 619              	.LFB322:
 620              		.loc 1 266 0
 621              		.cfi_startproc
 622              		@ args = 0, pretend = 0, frame = 0
 623              		@ frame_needed = 0, uses_anonymous_args = 0
 624              	.LVL33:
 625 0000 08B5     		push	{r3, lr}
 626              		.cfi_def_cfa_offset 8
 627              		.cfi_offset 3, -8
ARM GAS  /var/folders/vd/czx34qs52cd_f3nb04sxmghc0000gn/T//ccZeG5MI.s 			page 12


 628              		.cfi_offset 14, -4
 629              	.LBB228:
 630              	.LBB229:
 631              	.LBB230:
 632              	.LBB231:
 633              	.LBB232:
 634              		.loc 2 490 0
 635 0002 2023     		movs	r3, #32
 636              		.syntax unified
 637              	@ 490 "../os/common/ext/ARM/CMSIS/Core/Include/cmsis_gcc.h" 1
 638 0004 83F31188 		MSR basepri, r3
 639              	@ 0 "" 2
 640              	.LVL34:
 641              		.thumb
 642              		.syntax unified
 643              	.LBE232:
 644              	.LBE231:
 645              	.LBE230:
 646              	.LBE229:
 647              	.LBE228:
 648              		.loc 1 278 0
 649 0008 FFF7FEFF 		bl	pwm_lld_enable_channel_notification
 650              	.LVL35:
 651              	.LBB233:
 652              	.LBB234:
 653              	.LBB235:
 654              	.LBB236:
 655              	.LBB237:
 656              	.LBB238:
 657              		.loc 2 490 0
 658 000c 0023     		movs	r3, #0
 659              		.syntax unified
 660              	@ 490 "../os/common/ext/ARM/CMSIS/Core/Include/cmsis_gcc.h" 1
 661 000e 83F31188 		MSR basepri, r3
 662              	@ 0 "" 2
 663              	.LVL36:
 664              		.thumb
 665              		.syntax unified
 666              	.LBE238:
 667              	.LBE237:
 668              	.LBE236:
 669              	.LBE235:
 670              	.LBE234:
 671              	.LBE233:
 672              		.loc 1 281 0
 673 0012 08BD     		pop	{r3, pc}
 674              		.cfi_endproc
 675              	.LFE322:
 676              		.size	pwmEnableChannelNotification, .-pwmEnableChannelNotification
 677              		.section	.text.pwmDisableChannelNotification,"ax",%progbits
 678              		.align	1
 679              		.p2align 4,,15
 680              		.global	pwmDisableChannelNotification
 681              		.syntax unified
 682              		.thumb
 683              		.thumb_func
 684              		.fpu softvfp
ARM GAS  /var/folders/vd/czx34qs52cd_f3nb04sxmghc0000gn/T//ccZeG5MI.s 			page 13


 685              		.type	pwmDisableChannelNotification, %function
 686              	pwmDisableChannelNotification:
 687              	.LFB323:
 688              		.loc 1 294 0
 689              		.cfi_startproc
 690              		@ args = 0, pretend = 0, frame = 0
 691              		@ frame_needed = 0, uses_anonymous_args = 0
 692              	.LVL37:
 693 0000 08B5     		push	{r3, lr}
 694              		.cfi_def_cfa_offset 8
 695              		.cfi_offset 3, -8
 696              		.cfi_offset 14, -4
 697              	.LBB239:
 698              	.LBB240:
 699              	.LBB241:
 700              	.LBB242:
 701              	.LBB243:
 702              		.loc 2 490 0
 703 0002 2023     		movs	r3, #32
 704              		.syntax unified
 705              	@ 490 "../os/common/ext/ARM/CMSIS/Core/Include/cmsis_gcc.h" 1
 706 0004 83F31188 		MSR basepri, r3
 707              	@ 0 "" 2
 708              	.LVL38:
 709              		.thumb
 710              		.syntax unified
 711              	.LBE243:
 712              	.LBE242:
 713              	.LBE241:
 714              	.LBE240:
 715              	.LBE239:
 716              		.loc 1 306 0
 717 0008 FFF7FEFF 		bl	pwm_lld_disable_channel_notification
 718              	.LVL39:
 719              	.LBB244:
 720              	.LBB245:
 721              	.LBB246:
 722              	.LBB247:
 723              	.LBB248:
 724              	.LBB249:
 725              		.loc 2 490 0
 726 000c 0023     		movs	r3, #0
 727              		.syntax unified
 728              	@ 490 "../os/common/ext/ARM/CMSIS/Core/Include/cmsis_gcc.h" 1
 729 000e 83F31188 		MSR basepri, r3
 730              	@ 0 "" 2
 731              	.LVL40:
 732              		.thumb
 733              		.syntax unified
 734              	.LBE249:
 735              	.LBE248:
 736              	.LBE247:
 737              	.LBE246:
 738              	.LBE245:
 739              	.LBE244:
 740              		.loc 1 309 0
 741 0012 08BD     		pop	{r3, pc}
ARM GAS  /var/folders/vd/czx34qs52cd_f3nb04sxmghc0000gn/T//ccZeG5MI.s 			page 14


 742              		.cfi_endproc
 743              	.LFE323:
 744              		.size	pwmDisableChannelNotification, .-pwmDisableChannelNotification
 745              		.text
 746              	.Letext0:
 747              		.file 3 "/usr/local/Cellar/gcc-arm-none-eabi/20171218/lib/gcc/arm-none-eabi/7.2.1/include/stddef.h
 748              		.file 4 "/usr/local/Cellar/gcc-arm-none-eabi/20171218/arm-none-eabi/include/machine/_default_types
 749              		.file 5 "/usr/local/Cellar/gcc-arm-none-eabi/20171218/arm-none-eabi/include/sys/_stdint.h"
 750              		.file 6 "../os/common/ports/ARMCMx/compilers/GCC/chtypes.h"
 751              		.file 7 "../os/rt/include/chsystypes.h"
 752              		.file 8 "../os/rt/include/chschd.h"
 753              		.file 9 "../os/rt/include/chtime.h"
 754              		.file 10 "../os/common/ext/ARM/CMSIS/Core/Include/core_cm4.h"
 755              		.file 11 "../os/common/ext/ST/STM32F4xx/system_stm32f4xx.h"
 756              		.file 12 "../os/common/ext/ST/STM32F4xx/stm32f407xx.h"
 757              		.file 13 "../os/common/ports/ARMCMx/chcore.h"
 758              		.file 14 "../os/common/ports/ARMCMx/chcore_v7m.h"
 759              		.file 15 "../os/hal/ports/STM32/LLD/TIMv1/stm32_tim.h"
 760              		.file 16 "../os/rt/include/chtm.h"
 761              		.file 17 "../os/rt/include/chsem.h"
 762              		.file 18 "../os/rt/include/chmtx.h"
 763              		.file 19 "../os/rt/include/chsys.h"
 764              		.file 20 "../os/rt/include/chregistry.h"
 765              		.file 21 "../os/rt/include/chevents.h"
 766              		.file 22 "../os/common/oslib/include/chmemcore.h"
 767              		.file 23 "../os/common/oslib/include/chmempools.h"
 768              		.file 24 "../os/common/oslib/include/chfactory.h"
 769              		.file 25 "../os/hal/ports/STM32/LLD/DMAv2/stm32_dma.h"
 770              		.file 26 "../os/hal/include/hal_queues.h"
 771              		.file 27 "../os/hal/include/hal_pal.h"
 772              		.file 28 "../os/hal/ports/STM32/LLD/GPIOv2/hal_pal_lld.h"
 773              		.file 29 "../os/hal/include/hal_pwm.h"
 774              		.file 30 "../os/hal/ports/STM32/LLD/TIMv1/hal_pwm_lld.h"
 775              		.file 31 "../os/hal/include/hal_serial.h"
 776              		.file 32 "../os/hal/ports/STM32/LLD/USARTv1/hal_serial_lld.h"
 777              		.file 33 "../os/hal/osal/rt/osal.h"