ARM GAS  /var/folders/vd/czx34qs52cd_f3nb04sxmghc0000gn/T//ccl6vVGq.s 			page 1


   1              		.cpu cortex-m4
   2              		.eabi_attribute 20, 1
   3              		.eabi_attribute 21, 1
   4              		.eabi_attribute 23, 3
   5              		.eabi_attribute 24, 1
   6              		.eabi_attribute 25, 1
   7              		.eabi_attribute 26, 1
   8              		.eabi_attribute 30, 2
   9              		.eabi_attribute 34, 1
  10              		.eabi_attribute 18, 4
  11              		.file	"hal_serial.c"
  12              		.text
  13              	.Ltext0:
  14              		.cfi_sections	.debug_frame
  15              		.section	.text._readt,"ax",%progbits
  16              		.align	1
  17              		.p2align 4,,15
  18              		.syntax unified
  19              		.thumb
  20              		.thumb_func
  21              		.fpu softvfp
  22              		.type	_readt, %function
  23              	_readt:
  24              	.LFB320:
  25              		.file 1 "../os/hal/src/hal_serial.c"
  26              		.loc 1 89 0
  27              		.cfi_startproc
  28              		@ args = 0, pretend = 0, frame = 0
  29              		@ frame_needed = 0, uses_anonymous_args = 0
  30              		@ link register save eliminated.
  31              	.LVL0:
  32              		.loc 1 91 0
  33 0000 0C30     		adds	r0, r0, #12
  34              	.LVL1:
  35 0002 FFF7FEBF 		b	iqReadTimeout
  36              	.LVL2:
  37              		.cfi_endproc
  38              	.LFE320:
  39              		.size	_readt, .-_readt
  40 0006 00BF     		.section	.text._read,"ax",%progbits
  41              		.align	1
  42              		.p2align 4,,15
  43              		.syntax unified
  44              		.thumb
  45              		.thumb_func
  46              		.fpu softvfp
  47              		.type	_read, %function
  48              	_read:
  49              	.LFB314:
  50              		.loc 1 56 0
  51              		.cfi_startproc
  52              		@ args = 0, pretend = 0, frame = 0
  53              		@ frame_needed = 0, uses_anonymous_args = 0
  54              		@ link register save eliminated.
  55              	.LVL3:
  56              		.loc 1 58 0
  57 0000 0C30     		adds	r0, r0, #12
ARM GAS  /var/folders/vd/czx34qs52cd_f3nb04sxmghc0000gn/T//ccl6vVGq.s 			page 2


  58              	.LVL4:
  59 0002 4FF0FF33 		mov	r3, #-1
  60 0006 FFF7FEBF 		b	iqReadTimeout
  61              	.LVL5:
  62              		.cfi_endproc
  63              	.LFE314:
  64              		.size	_read, .-_read
  65 000a 00BF     		.section	.text._writet,"ax",%progbits
  66              		.align	1
  67              		.p2align 4,,15
  68              		.syntax unified
  69              		.thumb
  70              		.thumb_func
  71              		.fpu softvfp
  72              		.type	_writet, %function
  73              	_writet:
  74              	.LFB319:
  75              		.loc 1 83 0
  76              		.cfi_startproc
  77              		@ args = 0, pretend = 0, frame = 0
  78              		@ frame_needed = 0, uses_anonymous_args = 0
  79              		@ link register save eliminated.
  80              	.LVL6:
  81              		.loc 1 85 0
  82 0000 3030     		adds	r0, r0, #48
  83              	.LVL7:
  84 0002 FFF7FEBF 		b	oqWriteTimeout
  85              	.LVL8:
  86              		.cfi_endproc
  87              	.LFE319:
  88              		.size	_writet, .-_writet
  89 0006 00BF     		.section	.text._write,"ax",%progbits
  90              		.align	1
  91              		.p2align 4,,15
  92              		.syntax unified
  93              		.thumb
  94              		.thumb_func
  95              		.fpu softvfp
  96              		.type	_write, %function
  97              	_write:
  98              	.LFB313:
  99              		.loc 1 50 0
 100              		.cfi_startproc
 101              		@ args = 0, pretend = 0, frame = 0
 102              		@ frame_needed = 0, uses_anonymous_args = 0
 103              		@ link register save eliminated.
 104              	.LVL9:
 105              		.loc 1 52 0
 106 0000 3030     		adds	r0, r0, #48
 107              	.LVL10:
 108 0002 4FF0FF33 		mov	r3, #-1
 109 0006 FFF7FEBF 		b	oqWriteTimeout
 110              	.LVL11:
 111              		.cfi_endproc
 112              	.LFE313:
 113              		.size	_write, .-_write
 114 000a 00BF     		.section	.text._gett,"ax",%progbits
ARM GAS  /var/folders/vd/czx34qs52cd_f3nb04sxmghc0000gn/T//ccl6vVGq.s 			page 3


 115              		.align	1
 116              		.p2align 4,,15
 117              		.syntax unified
 118              		.thumb
 119              		.thumb_func
 120              		.fpu softvfp
 121              		.type	_gett, %function
 122              	_gett:
 123              	.LFB318:
 124              		.loc 1 77 0
 125              		.cfi_startproc
 126              		@ args = 0, pretend = 0, frame = 0
 127              		@ frame_needed = 0, uses_anonymous_args = 0
 128              		@ link register save eliminated.
 129              	.LVL12:
 130              		.loc 1 79 0
 131 0000 0C30     		adds	r0, r0, #12
 132              	.LVL13:
 133 0002 FFF7FEBF 		b	iqGetTimeout
 134              	.LVL14:
 135              		.cfi_endproc
 136              	.LFE318:
 137              		.size	_gett, .-_gett
 138 0006 00BF     		.section	.text._get,"ax",%progbits
 139              		.align	1
 140              		.p2align 4,,15
 141              		.syntax unified
 142              		.thumb
 143              		.thumb_func
 144              		.fpu softvfp
 145              		.type	_get, %function
 146              	_get:
 147              	.LFB316:
 148              		.loc 1 67 0
 149              		.cfi_startproc
 150              		@ args = 0, pretend = 0, frame = 0
 151              		@ frame_needed = 0, uses_anonymous_args = 0
 152              		@ link register save eliminated.
 153              	.LVL15:
 154              		.loc 1 69 0
 155 0000 0C30     		adds	r0, r0, #12
 156              	.LVL16:
 157 0002 4FF0FF31 		mov	r1, #-1
 158 0006 FFF7FEBF 		b	iqGetTimeout
 159              	.LVL17:
 160              		.cfi_endproc
 161              	.LFE316:
 162              		.size	_get, .-_get
 163 000a 00BF     		.section	.text._putt,"ax",%progbits
 164              		.align	1
 165              		.p2align 4,,15
 166              		.syntax unified
 167              		.thumb
 168              		.thumb_func
 169              		.fpu softvfp
 170              		.type	_putt, %function
 171              	_putt:
ARM GAS  /var/folders/vd/czx34qs52cd_f3nb04sxmghc0000gn/T//ccl6vVGq.s 			page 4


 172              	.LFB317:
 173              		.loc 1 72 0
 174              		.cfi_startproc
 175              		@ args = 0, pretend = 0, frame = 0
 176              		@ frame_needed = 0, uses_anonymous_args = 0
 177              		@ link register save eliminated.
 178              	.LVL18:
 179              		.loc 1 74 0
 180 0000 3030     		adds	r0, r0, #48
 181              	.LVL19:
 182 0002 FFF7FEBF 		b	oqPutTimeout
 183              	.LVL20:
 184              		.cfi_endproc
 185              	.LFE317:
 186              		.size	_putt, .-_putt
 187 0006 00BF     		.section	.text._put,"ax",%progbits
 188              		.align	1
 189              		.p2align 4,,15
 190              		.syntax unified
 191              		.thumb
 192              		.thumb_func
 193              		.fpu softvfp
 194              		.type	_put, %function
 195              	_put:
 196              	.LFB315:
 197              		.loc 1 62 0
 198              		.cfi_startproc
 199              		@ args = 0, pretend = 0, frame = 0
 200              		@ frame_needed = 0, uses_anonymous_args = 0
 201              		@ link register save eliminated.
 202              	.LVL21:
 203              		.loc 1 64 0
 204 0000 3030     		adds	r0, r0, #48
 205              	.LVL22:
 206 0002 4FF0FF32 		mov	r2, #-1
 207 0006 FFF7FEBF 		b	oqPutTimeout
 208              	.LVL23:
 209              		.cfi_endproc
 210              	.LFE315:
 211              		.size	_put, .-_put
 212 000a 00BF     		.section	.text._ctl,"ax",%progbits
 213              		.align	1
 214              		.p2align 4,,15
 215              		.syntax unified
 216              		.thumb
 217              		.thumb_func
 218              		.fpu softvfp
 219              		.type	_ctl, %function
 220              	_ctl:
 221              	.LFB332:
 222              		.cfi_startproc
 223              		@ args = 0, pretend = 0, frame = 0
 224              		@ frame_needed = 0, uses_anonymous_args = 0
 225              		@ link register save eliminated.
 226 0000 0020     		movs	r0, #0
 227 0002 7047     		bx	lr
 228              		.cfi_endproc
ARM GAS  /var/folders/vd/czx34qs52cd_f3nb04sxmghc0000gn/T//ccl6vVGq.s 			page 5


 229              	.LFE332:
 230              		.size	_ctl, .-_ctl
 231              		.section	.text.sdInit,"ax",%progbits
 232              		.align	1
 233              		.p2align 4,,15
 234              		.global	sdInit
 235              		.syntax unified
 236              		.thumb
 237              		.thumb_func
 238              		.fpu softvfp
 239              		.type	sdInit, %function
 240              	sdInit:
 241              	.LFB322:
 242              		.loc 1 135 0
 243              		.cfi_startproc
 244              		@ args = 0, pretend = 0, frame = 0
 245              		@ frame_needed = 0, uses_anonymous_args = 0
 246              		@ link register save eliminated.
 247              		.loc 1 137 0
 248 0000 FFF7FEBF 		b	sd_lld_init
 249              	.LVL24:
 250              		.cfi_endproc
 251              	.LFE322:
 252              		.size	sdInit, .-sdInit
 253              		.section	.text.sdObjectInit,"ax",%progbits
 254              		.align	1
 255              		.p2align 4,,15
 256              		.global	sdObjectInit
 257              		.syntax unified
 258              		.thumb
 259              		.thumb_func
 260              		.fpu softvfp
 261              		.type	sdObjectInit, %function
 262              	sdObjectInit:
 263              	.LFB323:
 264              		.loc 1 158 0
 265              		.cfi_startproc
 266              		@ args = 0, pretend = 0, frame = 0
 267              		@ frame_needed = 0, uses_anonymous_args = 0
 268              	.LVL25:
 269 0000 70B5     		push	{r4, r5, r6, lr}
 270              		.cfi_def_cfa_offset 16
 271              		.cfi_offset 4, -16
 272              		.cfi_offset 5, -12
 273              		.cfi_offset 6, -8
 274              		.cfi_offset 14, -4
 275              		.loc 1 160 0
 276 0002 0E4B     		ldr	r3, .L14
 277              		.loc 1 158 0
 278 0004 0446     		mov	r4, r0
 279 0006 82B0     		sub	sp, sp, #8
 280              		.cfi_def_cfa_offset 24
 281              		.loc 1 160 0
 282 0008 40F8043B 		str	r3, [r0], #4
 283              	.LVL26:
 284              		.loc 1 162 0
 285 000c 0126     		movs	r6, #1
ARM GAS  /var/folders/vd/czx34qs52cd_f3nb04sxmghc0000gn/T//ccl6vVGq.s 			page 6


 286              		.loc 1 163 0
 287 000e 0094     		str	r4, [sp]
 288              		.loc 1 158 0
 289 0010 1546     		mov	r5, r2
 290              		.loc 1 163 0
 291 0012 0B46     		mov	r3, r1
 292              	.LBB92:
 293              	.LBB93:
 294              	.LBB94:
 295              		.file 2 "../os/rt/include/chevents.h"
 296              		.loc 2 173 0
 297 0014 6060     		str	r0, [r4, #4]
 298              	.LVL27:
 299              	.LBE94:
 300              	.LBE93:
 301              	.LBE92:
 302              		.loc 1 163 0
 303 0016 04F15401 		add	r1, r4, #84
 304              	.LVL28:
 305 001a 04F10C00 		add	r0, r4, #12
 306              		.loc 1 162 0
 307 001e 2672     		strb	r6, [r4, #8]
 308              		.loc 1 163 0
 309 0020 1022     		movs	r2, #16
 310              	.LVL29:
 311 0022 FFF7FEFF 		bl	iqObjectInit
 312              	.LVL30:
 313              		.loc 1 164 0
 314 0026 0094     		str	r4, [sp]
 315 0028 2B46     		mov	r3, r5
 316 002a 04F16401 		add	r1, r4, #100
 317 002e 04F13000 		add	r0, r4, #48
 318 0032 1022     		movs	r2, #16
 319 0034 FFF7FEFF 		bl	oqObjectInit
 320              	.LVL31:
 321              		.loc 1 165 0
 322 0038 02B0     		add	sp, sp, #8
 323              		.cfi_def_cfa_offset 16
 324              		@ sp needed
 325 003a 70BD     		pop	{r4, r5, r6, pc}
 326              	.LVL32:
 327              	.L15:
 328              		.align	2
 329              	.L14:
 330 003c 00000000 		.word	.LANCHOR0
 331              		.cfi_endproc
 332              	.LFE323:
 333              		.size	sdObjectInit, .-sdObjectInit
 334              		.section	.text.sdStart,"ax",%progbits
 335              		.align	1
 336              		.p2align 4,,15
 337              		.global	sdStart
 338              		.syntax unified
 339              		.thumb
 340              		.thumb_func
 341              		.fpu softvfp
 342              		.type	sdStart, %function
ARM GAS  /var/folders/vd/czx34qs52cd_f3nb04sxmghc0000gn/T//ccl6vVGq.s 			page 7


 343              	sdStart:
 344              	.LFB324:
 345              		.loc 1 185 0
 346              		.cfi_startproc
 347              		@ args = 0, pretend = 0, frame = 0
 348              		@ frame_needed = 0, uses_anonymous_args = 0
 349              	.LVL33:
 350 0000 10B5     		push	{r4, lr}
 351              		.cfi_def_cfa_offset 8
 352              		.cfi_offset 4, -8
 353              		.cfi_offset 14, -4
 354              	.LBB95:
 355              	.LBB96:
 356              	.LBB97:
 357              	.LBB98:
 358              	.LBB99:
 359              		.file 3 "../os/common/ext/ARM/CMSIS/Core/Include/cmsis_gcc.h"
 360              		.loc 3 490 0
 361 0002 2023     		movs	r3, #32
 362              	.LBE99:
 363              	.LBE98:
 364              	.LBE97:
 365              	.LBE96:
 366              	.LBE95:
 367              		.loc 1 185 0
 368 0004 0446     		mov	r4, r0
 369              	.LBB104:
 370              	.LBB103:
 371              	.LBB102:
 372              	.LBB101:
 373              	.LBB100:
 374              		.loc 3 490 0
 375              		.syntax unified
 376              	@ 490 "../os/common/ext/ARM/CMSIS/Core/Include/cmsis_gcc.h" 1
 377 0006 83F31188 		MSR basepri, r3
 378              	@ 0 "" 2
 379              	.LVL34:
 380              		.thumb
 381              		.syntax unified
 382              	.LBE100:
 383              	.LBE101:
 384              	.LBE102:
 385              	.LBE103:
 386              	.LBE104:
 387              		.loc 1 192 0
 388 000a FFF7FEFF 		bl	sd_lld_start
 389              	.LVL35:
 390              		.loc 1 193 0
 391 000e 0223     		movs	r3, #2
 392 0010 2372     		strb	r3, [r4, #8]
 393              	.LVL36:
 394              	.LBB105:
 395              	.LBB106:
 396              	.LBB107:
 397              	.LBB108:
 398              	.LBB109:
 399              	.LBB110:
ARM GAS  /var/folders/vd/czx34qs52cd_f3nb04sxmghc0000gn/T//ccl6vVGq.s 			page 8


 400              		.loc 3 490 0
 401 0012 0023     		movs	r3, #0
 402              		.syntax unified
 403              	@ 490 "../os/common/ext/ARM/CMSIS/Core/Include/cmsis_gcc.h" 1
 404 0014 83F31188 		MSR basepri, r3
 405              	@ 0 "" 2
 406              	.LVL37:
 407              		.thumb
 408              		.syntax unified
 409              	.LBE110:
 410              	.LBE109:
 411              	.LBE108:
 412              	.LBE107:
 413              	.LBE106:
 414              	.LBE105:
 415              		.loc 1 195 0
 416 0018 10BD     		pop	{r4, pc}
 417              		.cfi_endproc
 418              	.LFE324:
 419              		.size	sdStart, .-sdStart
 420 001a 00BF     		.section	.text.sdStop,"ax",%progbits
 421              		.align	1
 422              		.p2align 4,,15
 423              		.global	sdStop
 424              		.syntax unified
 425              		.thumb
 426              		.thumb_func
 427              		.fpu softvfp
 428              		.type	sdStop, %function
 429              	sdStop:
 430              	.LFB325:
 431              		.loc 1 206 0
 432              		.cfi_startproc
 433              		@ args = 0, pretend = 0, frame = 0
 434              		@ frame_needed = 0, uses_anonymous_args = 0
 435              	.LVL38:
 436 0000 10B5     		push	{r4, lr}
 437              		.cfi_def_cfa_offset 8
 438              		.cfi_offset 4, -8
 439              		.cfi_offset 14, -4
 440              	.LBB111:
 441              	.LBB112:
 442              	.LBB113:
 443              	.LBB114:
 444              	.LBB115:
 445              		.loc 3 490 0
 446 0002 2023     		movs	r3, #32
 447              	.LBE115:
 448              	.LBE114:
 449              	.LBE113:
 450              	.LBE112:
 451              	.LBE111:
 452              		.loc 1 206 0
 453 0004 0446     		mov	r4, r0
 454              	.LBB120:
 455              	.LBB119:
 456              	.LBB118:
ARM GAS  /var/folders/vd/czx34qs52cd_f3nb04sxmghc0000gn/T//ccl6vVGq.s 			page 9


 457              	.LBB117:
 458              	.LBB116:
 459              		.loc 3 490 0
 460              		.syntax unified
 461              	@ 490 "../os/common/ext/ARM/CMSIS/Core/Include/cmsis_gcc.h" 1
 462 0006 83F31188 		MSR basepri, r3
 463              	@ 0 "" 2
 464              	.LVL39:
 465              		.thumb
 466              		.syntax unified
 467              	.LBE116:
 468              	.LBE117:
 469              	.LBE118:
 470              	.LBE119:
 471              	.LBE120:
 472              		.loc 1 215 0
 473 000a FFF7FEFF 		bl	sd_lld_stop
 474              	.LVL40:
 475              		.loc 1 216 0
 476 000e 0123     		movs	r3, #1
 477 0010 2372     		strb	r3, [r4, #8]
 478              		.loc 1 217 0
 479 0012 04F13000 		add	r0, r4, #48
 480 0016 FFF7FEFF 		bl	oqResetI
 481              	.LVL41:
 482              		.loc 1 218 0
 483 001a 04F10C00 		add	r0, r4, #12
 484 001e FFF7FEFF 		bl	iqResetI
 485              	.LVL42:
 486              	.LBB121:
 487              	.LBB122:
 488              		.file 4 "../os/hal/osal/rt/osal.h"
 489              		.loc 4 618 0
 490 0022 FFF7FEFF 		bl	chSchRescheduleS
 491              	.LVL43:
 492              	.LBE122:
 493              	.LBE121:
 494              	.LBB123:
 495              	.LBB124:
 496              	.LBB125:
 497              	.LBB126:
 498              	.LBB127:
 499              	.LBB128:
 500              		.loc 3 490 0
 501 0026 0023     		movs	r3, #0
 502              		.syntax unified
 503              	@ 490 "../os/common/ext/ARM/CMSIS/Core/Include/cmsis_gcc.h" 1
 504 0028 83F31188 		MSR basepri, r3
 505              	@ 0 "" 2
 506              	.LVL44:
 507              		.thumb
 508              		.syntax unified
 509              	.LBE128:
 510              	.LBE127:
 511              	.LBE126:
 512              	.LBE125:
 513              	.LBE124:
ARM GAS  /var/folders/vd/czx34qs52cd_f3nb04sxmghc0000gn/T//ccl6vVGq.s 			page 10


 514              	.LBE123:
 515              		.loc 1 222 0
 516 002c 10BD     		pop	{r4, pc}
 517              		.cfi_endproc
 518              	.LFE325:
 519              		.size	sdStop, .-sdStop
 520 002e 00BF     		.section	.text.sdIncomingDataI,"ax",%progbits
 521              		.align	1
 522              		.p2align 4,,15
 523              		.global	sdIncomingDataI
 524              		.syntax unified
 525              		.thumb
 526              		.thumb_func
 527              		.fpu softvfp
 528              		.type	sdIncomingDataI, %function
 529              	sdIncomingDataI:
 530              	.LFB326:
 531              		.loc 1 240 0
 532              		.cfi_startproc
 533              		@ args = 0, pretend = 0, frame = 0
 534              		@ frame_needed = 0, uses_anonymous_args = 0
 535              	.LVL45:
 536 0000 38B5     		push	{r3, r4, r5, lr}
 537              		.cfi_def_cfa_offset 16
 538              		.cfi_offset 3, -16
 539              		.cfi_offset 4, -12
 540              		.cfi_offset 5, -8
 541              		.cfi_offset 14, -4
 542              		.loc 1 245 0
 543 0002 4369     		ldr	r3, [r0, #20]
 544              		.loc 1 240 0
 545 0004 0446     		mov	r4, r0
 546 0006 0D46     		mov	r5, r1
 547              		.loc 1 245 0
 548 0008 3BB1     		cbz	r3, .L24
 549              		.loc 1 247 0
 550 000a 2946     		mov	r1, r5
 551              	.LVL46:
 552 000c 04F10C00 		add	r0, r4, #12
 553              	.LVL47:
 554 0010 FFF7FEFF 		bl	iqPutI
 555              	.LVL48:
 556 0014 0028     		cmp	r0, #0
 557 0016 0BDB     		blt	.L25
 558              	.L20:
 559              		.loc 1 249 0
 560 0018 38BD     		pop	{r3, r4, r5, pc}
 561              	.LVL49:
 562              	.L24:
 563              	.LBB129:
 564              	.LBB130:
 565              		.loc 4 895 0
 566 001a 0421     		movs	r1, #4
 567              	.LVL50:
 568 001c 0844     		add	r0, r0, r1
 569              	.LVL51:
 570 001e FFF7FEFF 		bl	chEvtBroadcastFlagsI
ARM GAS  /var/folders/vd/czx34qs52cd_f3nb04sxmghc0000gn/T//ccl6vVGq.s 			page 11


 571              	.LVL52:
 572              	.LBE130:
 573              	.LBE129:
 574              		.loc 1 247 0
 575 0022 2946     		mov	r1, r5
 576 0024 04F10C00 		add	r0, r4, #12
 577 0028 FFF7FEFF 		bl	iqPutI
 578              	.LVL53:
 579 002c 0028     		cmp	r0, #0
 580 002e F3DA     		bge	.L20
 581              	.LVL54:
 582              	.L25:
 583              	.LBB131:
 584              	.LBB132:
 585              		.loc 4 895 0
 586 0030 201D     		adds	r0, r4, #4
 587              	.LVL55:
 588 0032 4FF48061 		mov	r1, #1024
 589              	.LBE132:
 590              	.LBE131:
 591              		.loc 1 249 0
 592 0036 BDE83840 		pop	{r3, r4, r5, lr}
 593              		.cfi_restore 14
 594              		.cfi_restore 5
 595              		.cfi_restore 4
 596              		.cfi_restore 3
 597              		.cfi_def_cfa_offset 0
 598              	.LVL56:
 599              	.LBB134:
 600              	.LBB133:
 601              		.loc 4 895 0
 602 003a FFF7FEBF 		b	chEvtBroadcastFlagsI
 603              	.LVL57:
 604              	.LBE133:
 605              	.LBE134:
 606              		.cfi_endproc
 607              	.LFE326:
 608              		.size	sdIncomingDataI, .-sdIncomingDataI
 609 003e 00BF     		.section	.text.sdRequestDataI,"ax",%progbits
 610              		.align	1
 611              		.p2align 4,,15
 612              		.global	sdRequestDataI
 613              		.syntax unified
 614              		.thumb
 615              		.thumb_func
 616              		.fpu softvfp
 617              		.type	sdRequestDataI, %function
 618              	sdRequestDataI:
 619              	.LFB327:
 620              		.loc 1 266 0
 621              		.cfi_startproc
 622              		@ args = 0, pretend = 0, frame = 0
 623              		@ frame_needed = 0, uses_anonymous_args = 0
 624              	.LVL58:
 625 0000 38B5     		push	{r3, r4, r5, lr}
 626              		.cfi_def_cfa_offset 16
 627              		.cfi_offset 3, -16
ARM GAS  /var/folders/vd/czx34qs52cd_f3nb04sxmghc0000gn/T//ccl6vVGq.s 			page 12


 628              		.cfi_offset 4, -12
 629              		.cfi_offset 5, -8
 630              		.cfi_offset 14, -4
 631              		.loc 1 266 0
 632 0002 0446     		mov	r4, r0
 633              		.loc 1 272 0
 634 0004 3030     		adds	r0, r0, #48
 635              	.LVL59:
 636 0006 FFF7FEFF 		bl	oqGetI
 637              	.LVL60:
 638              		.loc 1 273 0
 639 000a 051E     		subs	r5, r0, #0
 640 000c 01DB     		blt	.L29
 641              		.loc 1 276 0
 642 000e 2846     		mov	r0, r5
 643 0010 38BD     		pop	{r3, r4, r5, pc}
 644              	.LVL61:
 645              	.L29:
 646              	.LBB135:
 647              	.LBB136:
 648              		.loc 4 895 0
 649 0012 201D     		adds	r0, r4, #4
 650              	.LVL62:
 651 0014 0821     		movs	r1, #8
 652 0016 FFF7FEFF 		bl	chEvtBroadcastFlagsI
 653              	.LVL63:
 654              	.LBE136:
 655              	.LBE135:
 656              		.loc 1 276 0
 657 001a 2846     		mov	r0, r5
 658 001c 38BD     		pop	{r3, r4, r5, pc}
 659              		.cfi_endproc
 660              	.LFE327:
 661              		.size	sdRequestDataI, .-sdRequestDataI
 662 001e 00BF     		.section	.text.sdPutWouldBlock,"ax",%progbits
 663              		.align	1
 664              		.p2align 4,,15
 665              		.global	sdPutWouldBlock
 666              		.syntax unified
 667              		.thumb
 668              		.thumb_func
 669              		.fpu softvfp
 670              		.type	sdPutWouldBlock, %function
 671              	sdPutWouldBlock:
 672              	.LFB328:
 673              		.loc 1 293 0
 674              		.cfi_startproc
 675              		@ args = 0, pretend = 0, frame = 0
 676              		@ frame_needed = 0, uses_anonymous_args = 0
 677              		@ link register save eliminated.
 678              	.LVL64:
 679              	.LBB137:
 680              	.LBB138:
 681              	.LBB139:
 682              	.LBB140:
 683              	.LBB141:
 684              		.loc 3 490 0
ARM GAS  /var/folders/vd/czx34qs52cd_f3nb04sxmghc0000gn/T//ccl6vVGq.s 			page 13


 685 0000 2023     		movs	r3, #32
 686              		.syntax unified
 687              	@ 490 "../os/common/ext/ARM/CMSIS/Core/Include/cmsis_gcc.h" 1
 688 0002 83F31188 		MSR basepri, r3
 689              	@ 0 "" 2
 690              	.LVL65:
 691              		.thumb
 692              		.syntax unified
 693              	.LBE141:
 694              	.LBE140:
 695              	.LBE139:
 696              	.LBE138:
 697              	.LBE137:
 698              	.LBB142:
 699              	.LBB143:
 700              	.LBB144:
 701              	.LBB145:
 702              	.LBB146:
 703              	.LBB147:
 704 0006 0023     		movs	r3, #0
 705              	.LBE147:
 706              	.LBE146:
 707              	.LBE145:
 708              	.LBE144:
 709              	.LBE143:
 710              	.LBE142:
 711              		.loc 1 297 0
 712 0008 806B     		ldr	r0, [r0, #56]
 713              	.LVL66:
 714              	.LBB153:
 715              	.LBB152:
 716              	.LBB151:
 717              	.LBB150:
 718              	.LBB149:
 719              	.LBB148:
 720              		.loc 3 490 0
 721              		.syntax unified
 722              	@ 490 "../os/common/ext/ARM/CMSIS/Core/Include/cmsis_gcc.h" 1
 723 000a 83F31188 		MSR basepri, r3
 724              	@ 0 "" 2
 725              	.LVL67:
 726              		.thumb
 727              		.syntax unified
 728              	.LBE148:
 729              	.LBE149:
 730              	.LBE150:
 731              	.LBE151:
 732              	.LBE152:
 733              	.LBE153:
 734              		.loc 1 301 0
 735 000e B0FA80F0 		clz	r0, r0
 736              	.LVL68:
 737 0012 4009     		lsrs	r0, r0, #5
 738 0014 7047     		bx	lr
 739              		.cfi_endproc
 740              	.LFE328:
 741              		.size	sdPutWouldBlock, .-sdPutWouldBlock
ARM GAS  /var/folders/vd/czx34qs52cd_f3nb04sxmghc0000gn/T//ccl6vVGq.s 			page 14


 742 0016 00BF     		.section	.text.sdGetWouldBlock,"ax",%progbits
 743              		.align	1
 744              		.p2align 4,,15
 745              		.global	sdGetWouldBlock
 746              		.syntax unified
 747              		.thumb
 748              		.thumb_func
 749              		.fpu softvfp
 750              		.type	sdGetWouldBlock, %function
 751              	sdGetWouldBlock:
 752              	.LFB329:
 753              		.loc 1 318 0
 754              		.cfi_startproc
 755              		@ args = 0, pretend = 0, frame = 0
 756              		@ frame_needed = 0, uses_anonymous_args = 0
 757              		@ link register save eliminated.
 758              	.LVL69:
 759              	.LBB154:
 760              	.LBB155:
 761              	.LBB156:
 762              	.LBB157:
 763              	.LBB158:
 764              		.loc 3 490 0
 765 0000 2023     		movs	r3, #32
 766              		.syntax unified
 767              	@ 490 "../os/common/ext/ARM/CMSIS/Core/Include/cmsis_gcc.h" 1
 768 0002 83F31188 		MSR basepri, r3
 769              	@ 0 "" 2
 770              	.LVL70:
 771              		.thumb
 772              		.syntax unified
 773              	.LBE158:
 774              	.LBE157:
 775              	.LBE156:
 776              	.LBE155:
 777              	.LBE154:
 778              	.LBB159:
 779              	.LBB160:
 780              	.LBB161:
 781              	.LBB162:
 782              	.LBB163:
 783              	.LBB164:
 784 0006 0023     		movs	r3, #0
 785              	.LBE164:
 786              	.LBE163:
 787              	.LBE162:
 788              	.LBE161:
 789              	.LBE160:
 790              	.LBE159:
 791              		.loc 1 322 0
 792 0008 4069     		ldr	r0, [r0, #20]
 793              	.LVL71:
 794              	.LBB170:
 795              	.LBB169:
 796              	.LBB168:
 797              	.LBB167:
 798              	.LBB166:
ARM GAS  /var/folders/vd/czx34qs52cd_f3nb04sxmghc0000gn/T//ccl6vVGq.s 			page 15


 799              	.LBB165:
 800              		.loc 3 490 0
 801              		.syntax unified
 802              	@ 490 "../os/common/ext/ARM/CMSIS/Core/Include/cmsis_gcc.h" 1
 803 000a 83F31188 		MSR basepri, r3
 804              	@ 0 "" 2
 805              	.LVL72:
 806              		.thumb
 807              		.syntax unified
 808              	.LBE165:
 809              	.LBE166:
 810              	.LBE167:
 811              	.LBE168:
 812              	.LBE169:
 813              	.LBE170:
 814              		.loc 1 326 0
 815 000e B0FA80F0 		clz	r0, r0
 816              	.LVL73:
 817 0012 4009     		lsrs	r0, r0, #5
 818 0014 7047     		bx	lr
 819              		.cfi_endproc
 820              	.LFE329:
 821              		.size	sdGetWouldBlock, .-sdGetWouldBlock
 822 0016 00BF     		.section	.text.sdControl,"ax",%progbits
 823              		.align	1
 824              		.p2align 4,,15
 825              		.global	sdControl
 826              		.syntax unified
 827              		.thumb
 828              		.thumb_func
 829              		.fpu softvfp
 830              		.type	sdControl, %function
 831              	sdControl:
 832              	.LFB330:
 833              		.loc 1 342 0
 834              		.cfi_startproc
 835              		@ args = 0, pretend = 0, frame = 0
 836              		@ frame_needed = 0, uses_anonymous_args = 0
 837              		@ link register save eliminated.
 838              	.LVL74:
 839              		.loc 1 345 0
 840 0000 0020     		movs	r0, #0
 841              	.LVL75:
 842 0002 7047     		bx	lr
 843              		.cfi_endproc
 844              	.LFE330:
 845              		.size	sdControl, .-sdControl
 846              		.section	.rodata.vmt,"a",%progbits
 847              		.align	2
 848              		.set	.LANCHOR0,. + 0
 849              		.type	vmt, %object
 850              		.size	vmt, 40
 851              	vmt:
 852 0000 00000000 		.word	0
 853 0004 00000000 		.word	_write
 854 0008 00000000 		.word	_read
 855 000c 00000000 		.word	_put
ARM GAS  /var/folders/vd/czx34qs52cd_f3nb04sxmghc0000gn/T//ccl6vVGq.s 			page 16


 856 0010 00000000 		.word	_get
 857 0014 00000000 		.word	_putt
 858 0018 00000000 		.word	_gett
 859 001c 00000000 		.word	_writet
 860 0020 00000000 		.word	_readt
 861 0024 00000000 		.word	_ctl
 862              		.text
 863              	.Letext0:
 864              		.file 5 "/usr/local/Cellar/gcc-arm-none-eabi/20171218/lib/gcc/arm-none-eabi/7.2.1/include/stddef.h
 865              		.file 6 "/usr/local/Cellar/gcc-arm-none-eabi/20171218/arm-none-eabi/include/machine/_default_types
 866              		.file 7 "/usr/local/Cellar/gcc-arm-none-eabi/20171218/arm-none-eabi/include/sys/_stdint.h"
 867              		.file 8 "../os/common/ports/ARMCMx/compilers/GCC/chtypes.h"
 868              		.file 9 "../os/rt/include/chsystypes.h"
 869              		.file 10 "../os/rt/include/chschd.h"
 870              		.file 11 "../os/rt/include/chtime.h"
 871              		.file 12 "../os/common/ext/ARM/CMSIS/Core/Include/core_cm4.h"
 872              		.file 13 "../os/common/ext/ST/STM32F4xx/system_stm32f4xx.h"
 873              		.file 14 "../os/common/ext/ST/STM32F4xx/stm32f407xx.h"
 874              		.file 15 "../os/common/ports/ARMCMx/chcore.h"
 875              		.file 16 "../os/common/ports/ARMCMx/chcore_v7m.h"
 876              		.file 17 "../os/hal/ports/STM32/LLD/TIMv1/stm32_tim.h"
 877              		.file 18 "../os/rt/include/chtm.h"
 878              		.file 19 "../os/rt/include/chsem.h"
 879              		.file 20 "../os/rt/include/chmtx.h"
 880              		.file 21 "../os/rt/include/chsys.h"
 881              		.file 22 "../os/rt/include/chregistry.h"
 882              		.file 23 "../os/common/oslib/include/chmemcore.h"
 883              		.file 24 "../os/common/oslib/include/chmempools.h"
 884              		.file 25 "../os/common/oslib/include/chfactory.h"
 885              		.file 26 "../os/hal/ports/STM32/LLD/DMAv2/stm32_dma.h"
 886              		.file 27 "../os/hal/include/hal_queues.h"
 887              		.file 28 "../os/hal/include/hal_pal.h"
 888              		.file 29 "../os/hal/ports/STM32/LLD/GPIOv2/hal_pal_lld.h"
 889              		.file 30 "../os/hal/include/hal_pwm.h"
 890              		.file 31 "../os/hal/ports/STM32/LLD/TIMv1/hal_pwm_lld.h"
 891              		.file 32 "../os/hal/include/hal_serial.h"
 892              		.file 33 "../os/hal/ports/STM32/LLD/USARTv1/hal_serial_lld.h"