ARM GAS  /var/folders/vd/czx34qs52cd_f3nb04sxmghc0000gn/T//ccI0nIfk.s 			page 1


   1              		.cpu cortex-m4
   2              		.eabi_attribute 20, 1
   3              		.eabi_attribute 21, 1
   4              		.eabi_attribute 23, 3
   5              		.eabi_attribute 24, 1
   6              		.eabi_attribute 25, 1
   7              		.eabi_attribute 26, 1
   8              		.eabi_attribute 30, 2
   9              		.eabi_attribute 34, 1
  10              		.eabi_attribute 18, 4
  11              		.file	"hal_pwm_lld.c"
  12              		.text
  13              	.Ltext0:
  14              		.cfi_sections	.debug_frame
  15              		.section	.text.pwm_lld_init,"ax",%progbits
  16              		.align	1
  17              		.p2align 4,,15
  18              		.global	pwm_lld_init
  19              		.syntax unified
  20              		.thumb
  21              		.thumb_func
  22              		.fpu softvfp
  23              		.type	pwm_lld_init, %function
  24              	pwm_lld_init:
  25              	.LFB314:
  26              		.file 1 "../os/hal/ports/STM32/LLD/TIMv1/hal_pwm_lld.c"
  27              		.loc 1 307 0
  28              		.cfi_startproc
  29              		@ args = 0, pretend = 0, frame = 0
  30              		@ frame_needed = 0, uses_anonymous_args = 0
  31 0000 10B5     		push	{r4, lr}
  32              		.cfi_def_cfa_offset 8
  33              		.cfi_offset 4, -8
  34              		.cfi_offset 14, -4
  35              		.loc 1 332 0
  36 0002 044C     		ldr	r4, .L4
  37 0004 2046     		mov	r0, r4
  38 0006 FFF7FEFF 		bl	pwmObjectInit
  39              	.LVL0:
  40              		.loc 1 333 0
  41 000a 0422     		movs	r2, #4
  42              		.loc 1 334 0
  43 000c 024B     		ldr	r3, .L4+4
  44              		.loc 1 333 0
  45 000e 2274     		strb	r2, [r4, #16]
  46              		.loc 1 334 0
  47 0010 A361     		str	r3, [r4, #24]
  48              		.loc 1 357 0
  49 0012 10BD     		pop	{r4, pc}
  50              	.L5:
  51              		.align	2
  52              	.L4:
  53 0014 00000000 		.word	.LANCHOR0
  54 0018 00080040 		.word	1073743872
  55              		.cfi_endproc
  56              	.LFE314:
  57              		.size	pwm_lld_init, .-pwm_lld_init
ARM GAS  /var/folders/vd/czx34qs52cd_f3nb04sxmghc0000gn/T//ccI0nIfk.s 			page 2


  58              		.section	.text.pwm_lld_start,"ax",%progbits
  59              		.align	1
  60              		.p2align 4,,15
  61              		.global	pwm_lld_start
  62              		.syntax unified
  63              		.thumb
  64              		.thumb_func
  65              		.fpu softvfp
  66              		.type	pwm_lld_start, %function
  67              	pwm_lld_start:
  68              	.LFB315:
  69              		.loc 1 368 0
  70              		.cfi_startproc
  71              		@ args = 0, pretend = 0, frame = 0
  72              		@ frame_needed = 0, uses_anonymous_args = 0
  73              	.LVL1:
  74              		.loc 1 372 0
  75 0000 0378     		ldrb	r3, [r0]	@ zero_extendqisi2
  76 0002 012B     		cmp	r3, #1
  77              		.loc 1 368 0
  78 0004 70B5     		push	{r4, r5, r6, lr}
  79              		.cfi_def_cfa_offset 16
  80              		.cfi_offset 4, -16
  81              		.cfi_offset 5, -12
  82              		.cfi_offset 6, -8
  83              		.cfi_offset 14, -4
  84              		.loc 1 368 0
  85 0006 0446     		mov	r4, r0
  86              		.loc 1 372 0
  87 0008 4BD0     		beq	.L34
  88              		.loc 1 494 0
  89 000a 8369     		ldr	r3, [r0, #24]
  90 000c 0022     		movs	r2, #0
  91 000e 1A60     		str	r2, [r3]
  92              		.loc 1 495 0
  93 0010 5A63     		str	r2, [r3, #52]
  94              		.loc 1 496 0
  95 0012 9A63     		str	r2, [r3, #56]
  96              		.loc 1 497 0
  97 0014 DA63     		str	r2, [r3, #60]
  98              		.loc 1 498 0
  99 0016 1A64     		str	r2, [r3, #64]
 100              		.loc 1 505 0
 101 0018 5A62     		str	r2, [r3, #36]
 102              	.LVL2:
 103              	.L9:
 104              		.loc 1 514 0
 105 001a D4E90115 		ldrd	r1, r5, [r4, #4]
 106              		.loc 1 519 0
 107 001e CA68     		ldr	r2, [r1, #12]
 108              		.loc 1 509 0
 109 0020 6069     		ldr	r0, [r4, #20]
 110 0022 0E68     		ldr	r6, [r1]
 111 0024 B0FBF6F0 		udiv	r0, r0, r6
 112              		.loc 1 519 0
 113 0028 02F00F02 		and	r2, r2, #15
 114              		.loc 1 514 0
ARM GAS  /var/folders/vd/czx34qs52cd_f3nb04sxmghc0000gn/T//ccI0nIfk.s 			page 3


 115 002c 6C1E     		subs	r4, r5, #1
 116              	.LVL3:
 117              		.loc 1 509 0
 118 002e 0138     		subs	r0, r0, #1
 119              	.LVL4:
 120              		.loc 1 515 0
 121 0030 CD6A     		ldr	r5, [r1, #44]
 122              		.loc 1 513 0
 123 0032 9862     		str	r0, [r3, #40]
 124              		.loc 1 519 0
 125 0034 012A     		cmp	r2, #1
 126              		.loc 1 514 0
 127 0036 DC62     		str	r4, [r3, #44]
 128              		.loc 1 515 0
 129 0038 5D60     		str	r5, [r3, #4]
 130              	.LVL5:
 131              		.loc 1 519 0
 132 003a 03D0     		beq	.L10
 133              		.loc 1 518 0
 134 003c 022A     		cmp	r2, #2
 135 003e 0CBF     		ite	eq
 136 0040 0322     		moveq	r2, #3
 137 0042 0022     		movne	r2, #0
 138              	.L10:
 139              	.LVL6:
 140              		.loc 1 529 0
 141 0044 4869     		ldr	r0, [r1, #20]
 142              	.LVL7:
 143 0046 00F00F00 		and	r0, r0, #15
 144 004a 0128     		cmp	r0, #1
 145 004c 26D0     		beq	.L14
 146 004e 0228     		cmp	r0, #2
 147 0050 22D0     		beq	.L35
 148              	.L13:
 149              		.loc 1 539 0
 150 0052 C869     		ldr	r0, [r1, #28]
 151 0054 00F00F00 		and	r0, r0, #15
 152 0058 0128     		cmp	r0, #1
 153 005a 1AD0     		beq	.L17
 154 005c 0228     		cmp	r0, #2
 155 005e 16D0     		beq	.L36
 156              	.L16:
 157              		.loc 1 549 0
 158 0060 486A     		ldr	r0, [r1, #36]
 159 0062 00F00F00 		and	r0, r0, #15
 160 0066 0128     		cmp	r0, #1
 161 0068 03D0     		beq	.L20
 162 006a 0228     		cmp	r0, #2
 163 006c 03D1     		bne	.L19
 164              		.loc 1 551 0
 165 006e 42F40052 		orr	r2, r2, #8192
 166              	.LVL8:
 167              	.L20:
 168              		.loc 1 554 0
 169 0072 42F48052 		orr	r2, r2, #4096
 170              	.LVL9:
 171              	.L19:
ARM GAS  /var/folders/vd/czx34qs52cd_f3nb04sxmghc0000gn/T//ccI0nIfk.s 			page 4


 172              		.loc 1 605 0
 173 0076 096B     		ldr	r1, [r1, #48]
 174              		.loc 1 602 0
 175 0078 1A62     		str	r2, [r3, #32]
 176              		.loc 1 603 0
 177 007a 0124     		movs	r4, #1
 178              		.loc 1 605 0
 179 007c 21F0FF02 		bic	r2, r1, #255
 180              	.LVL10:
 181              		.loc 1 604 0
 182 0080 0020     		movs	r0, #0
 183              		.loc 1 615 0
 184 0082 8521     		movs	r1, #133
 185              		.loc 1 603 0
 186 0084 5C61     		str	r4, [r3, #20]
 187              	.LVL11:
 188              		.loc 1 604 0
 189 0086 1861     		str	r0, [r3, #16]
 190              		.loc 1 605 0
 191 0088 DA60     		str	r2, [r3, #12]
 192              		.loc 1 615 0
 193 008a 1960     		str	r1, [r3]
 194              		.loc 1 617 0
 195 008c 70BD     		pop	{r4, r5, r6, pc}
 196              	.LVL12:
 197              	.L36:
 198              		.loc 1 541 0
 199 008e 42F40072 		orr	r2, r2, #512
 200              	.LVL13:
 201              	.L17:
 202              		.loc 1 544 0
 203 0092 42F48072 		orr	r2, r2, #256
 204              	.LVL14:
 205 0096 E3E7     		b	.L16
 206              	.L35:
 207              		.loc 1 531 0
 208 0098 42F02002 		orr	r2, r2, #32
 209              	.LVL15:
 210              	.L14:
 211              		.loc 1 534 0
 212 009c 42F01002 		orr	r2, r2, #16
 213              	.LVL16:
 214 00a0 D7E7     		b	.L13
 215              	.LVL17:
 216              	.L34:
 217              		.loc 1 421 0
 218 00a2 0F4B     		ldr	r3, .L38
 219 00a4 9842     		cmp	r0, r3
 220 00a6 05D0     		beq	.L37
 221              	.LVL18:
 222              	.L8:
 223              		.loc 1 483 0
 224 00a8 A369     		ldr	r3, [r4, #24]
 225 00aa 46F66802 		movw	r2, #26728
 226 00ae 9A61     		str	r2, [r3, #24]
 227              		.loc 1 485 0
 228 00b0 DA61     		str	r2, [r3, #28]
ARM GAS  /var/folders/vd/czx34qs52cd_f3nb04sxmghc0000gn/T//ccI0nIfk.s 			page 5


 229 00b2 B2E7     		b	.L9
 230              	.LVL19:
 231              	.L37:
 232              		.loc 1 422 0
 233 00b4 0B4B     		ldr	r3, .L38+4
 234 00b6 1A6C     		ldr	r2, [r3, #64]
 235 00b8 42F00402 		orr	r2, r2, #4
 236 00bc 1A64     		str	r2, [r3, #64]
 237 00be 1A6E     		ldr	r2, [r3, #96]
 238 00c0 42F00402 		orr	r2, r2, #4
 239 00c4 1A66     		str	r2, [r3, #96]
 240              		.loc 1 423 0
 241 00c6 1A6A     		ldr	r2, [r3, #32]
 242 00c8 0020     		movs	r0, #0
 243              	.LVL20:
 244 00ca 42F00402 		orr	r2, r2, #4
 245 00ce 1A62     		str	r2, [r3, #32]
 246              		.loc 1 425 0
 247 00d0 0721     		movs	r1, #7
 248              		.loc 1 423 0
 249 00d2 1862     		str	r0, [r3, #32]
 250              		.loc 1 425 0
 251 00d4 1E20     		movs	r0, #30
 252 00d6 FFF7FEFF 		bl	nvicEnableVector
 253              	.LVL21:
 254              		.loc 1 430 0
 255 00da 034B     		ldr	r3, .L38+8
 256 00dc 6361     		str	r3, [r4, #20]
 257 00de E3E7     		b	.L8
 258              	.L39:
 259              		.align	2
 260              	.L38:
 261 00e0 00000000 		.word	.LANCHOR0
 262 00e4 00380240 		.word	1073887232
 263 00e8 00BD0105 		.word	84000000
 264              		.cfi_endproc
 265              	.LFE315:
 266              		.size	pwm_lld_start, .-pwm_lld_start
 267              		.section	.text.pwm_lld_stop,"ax",%progbits
 268              		.align	1
 269              		.p2align 4,,15
 270              		.global	pwm_lld_stop
 271              		.syntax unified
 272              		.thumb
 273              		.thumb_func
 274              		.fpu softvfp
 275              		.type	pwm_lld_stop, %function
 276              	pwm_lld_stop:
 277              	.LFB316:
 278              		.loc 1 626 0
 279              		.cfi_startproc
 280              		@ args = 0, pretend = 0, frame = 0
 281              		@ frame_needed = 0, uses_anonymous_args = 0
 282              	.LVL22:
 283 0000 08B5     		push	{r3, lr}
 284              		.cfi_def_cfa_offset 8
 285              		.cfi_offset 3, -8
ARM GAS  /var/folders/vd/czx34qs52cd_f3nb04sxmghc0000gn/T//ccI0nIfk.s 			page 6


 286              		.cfi_offset 14, -4
 287              		.loc 1 629 0
 288 0002 0378     		ldrb	r3, [r0]	@ zero_extendqisi2
 289 0004 022B     		cmp	r3, #2
 290 0006 00D0     		beq	.L45
 291              	.L40:
 292              		.loc 1 702 0
 293 0008 08BD     		pop	{r3, pc}
 294              	.L45:
 295              		.loc 1 666 0
 296 000a 0849     		ldr	r1, .L46
 297              		.loc 1 630 0
 298 000c 8369     		ldr	r3, [r0, #24]
 299 000e 0022     		movs	r2, #0
 300              		.loc 1 666 0
 301 0010 8842     		cmp	r0, r1
 302              		.loc 1 630 0
 303 0012 1A60     		str	r2, [r3]
 304              		.loc 1 631 0
 305 0014 DA60     		str	r2, [r3, #12]
 306              		.loc 1 632 0
 307 0016 1A61     		str	r2, [r3, #16]
 308              		.loc 1 666 0
 309 0018 F6D1     		bne	.L40
 310              		.loc 1 668 0
 311 001a 1E20     		movs	r0, #30
 312              	.LVL23:
 313 001c FFF7FEFF 		bl	nvicDisableVector
 314              	.LVL24:
 315              		.loc 1 670 0
 316 0020 034A     		ldr	r2, .L46+4
 317 0022 136C     		ldr	r3, [r2, #64]
 318 0024 23F00403 		bic	r3, r3, #4
 319 0028 1364     		str	r3, [r2, #64]
 320              		.loc 1 702 0
 321 002a 08BD     		pop	{r3, pc}
 322              	.L47:
 323              		.align	2
 324              	.L46:
 325 002c 00000000 		.word	.LANCHOR0
 326 0030 00380240 		.word	1073887232
 327              		.cfi_endproc
 328              	.LFE316:
 329              		.size	pwm_lld_stop, .-pwm_lld_stop
 330              		.section	.text.pwm_lld_enable_channel,"ax",%progbits
 331              		.align	1
 332              		.p2align 4,,15
 333              		.global	pwm_lld_enable_channel
 334              		.syntax unified
 335              		.thumb
 336              		.thumb_func
 337              		.fpu softvfp
 338              		.type	pwm_lld_enable_channel, %function
 339              	pwm_lld_enable_channel:
 340              	.LFB317:
 341              		.loc 1 719 0
 342              		.cfi_startproc
ARM GAS  /var/folders/vd/czx34qs52cd_f3nb04sxmghc0000gn/T//ccI0nIfk.s 			page 7


 343              		@ args = 0, pretend = 0, frame = 0
 344              		@ frame_needed = 0, uses_anonymous_args = 0
 345              		@ link register save eliminated.
 346              	.LVL25:
 347              		.loc 1 723 0
 348 0000 8369     		ldr	r3, [r0, #24]
 349 0002 0C31     		adds	r1, r1, #12
 350              	.LVL26:
 351 0004 03EB8103 		add	r3, r3, r1, lsl #2
 352 0008 5A60     		str	r2, [r3, #4]
 353              		.loc 1 730 0
 354 000a 7047     		bx	lr
 355              		.cfi_endproc
 356              	.LFE317:
 357              		.size	pwm_lld_enable_channel, .-pwm_lld_enable_channel
 358              		.section	.text.pwm_lld_disable_channel,"ax",%progbits
 359              		.align	1
 360              		.p2align 4,,15
 361              		.global	pwm_lld_disable_channel
 362              		.syntax unified
 363              		.thumb
 364              		.thumb_func
 365              		.fpu softvfp
 366              		.type	pwm_lld_disable_channel, %function
 367              	pwm_lld_disable_channel:
 368              	.LFB318:
 369              		.loc 1 744 0
 370              		.cfi_startproc
 371              		@ args = 0, pretend = 0, frame = 0
 372              		@ frame_needed = 0, uses_anonymous_args = 0
 373              		@ link register save eliminated.
 374              	.LVL27:
 375              		.loc 1 747 0
 376 0000 8369     		ldr	r3, [r0, #24]
 377 0002 01F10C02 		add	r2, r1, #12
 378 0006 03EB8202 		add	r2, r3, r2, lsl #2
 379 000a 0020     		movs	r0, #0
 380              	.LVL28:
 381 000c 5060     		str	r0, [r2, #4]
 382              		.loc 1 748 0
 383 000e DA68     		ldr	r2, [r3, #12]
 384 0010 0220     		movs	r0, #2
 385 0012 00FA01F1 		lsl	r1, r0, r1
 386              	.LVL29:
 387 0016 22EA0101 		bic	r1, r2, r1
 388 001a D960     		str	r1, [r3, #12]
 389              		.loc 1 757 0
 390 001c 7047     		bx	lr
 391              		.cfi_endproc
 392              	.LFE318:
 393              		.size	pwm_lld_disable_channel, .-pwm_lld_disable_channel
 394 001e 00BF     		.section	.text.pwm_lld_enable_periodic_notification,"ax",%progbits
 395              		.align	1
 396              		.p2align 4,,15
 397              		.global	pwm_lld_enable_periodic_notification
 398              		.syntax unified
 399              		.thumb
ARM GAS  /var/folders/vd/czx34qs52cd_f3nb04sxmghc0000gn/T//ccI0nIfk.s 			page 8


 400              		.thumb_func
 401              		.fpu softvfp
 402              		.type	pwm_lld_enable_periodic_notification, %function
 403              	pwm_lld_enable_periodic_notification:
 404              	.LFB319:
 405              		.loc 1 768 0
 406              		.cfi_startproc
 407              		@ args = 0, pretend = 0, frame = 0
 408              		@ frame_needed = 0, uses_anonymous_args = 0
 409              		@ link register save eliminated.
 410              	.LVL30:
 411              		.loc 1 769 0
 412 0000 8269     		ldr	r2, [r0, #24]
 413 0002 D368     		ldr	r3, [r2, #12]
 414              	.LVL31:
 415              		.loc 1 773 0
 416 0004 D907     		lsls	r1, r3, #31
 417 0006 05D4     		bmi	.L50
 418              		.loc 1 775 0
 419 0008 43F00103 		orr	r3, r3, #1
 420              	.LVL32:
 421              		.loc 1 774 0
 422 000c 6FF00101 		mvn	r1, #1
 423 0010 1161     		str	r1, [r2, #16]
 424              		.loc 1 775 0
 425 0012 D360     		str	r3, [r2, #12]
 426              	.L50:
 427              		.loc 1 777 0
 428 0014 7047     		bx	lr
 429              		.cfi_endproc
 430              	.LFE319:
 431              		.size	pwm_lld_enable_periodic_notification, .-pwm_lld_enable_periodic_notification
 432 0016 00BF     		.section	.text.pwm_lld_disable_periodic_notification,"ax",%progbits
 433              		.align	1
 434              		.p2align 4,,15
 435              		.global	pwm_lld_disable_periodic_notification
 436              		.syntax unified
 437              		.thumb
 438              		.thumb_func
 439              		.fpu softvfp
 440              		.type	pwm_lld_disable_periodic_notification, %function
 441              	pwm_lld_disable_periodic_notification:
 442              	.LFB320:
 443              		.loc 1 788 0
 444              		.cfi_startproc
 445              		@ args = 0, pretend = 0, frame = 0
 446              		@ frame_needed = 0, uses_anonymous_args = 0
 447              		@ link register save eliminated.
 448              	.LVL33:
 449              		.loc 1 790 0
 450 0000 8269     		ldr	r2, [r0, #24]
 451 0002 D368     		ldr	r3, [r2, #12]
 452 0004 23F00103 		bic	r3, r3, #1
 453 0008 D360     		str	r3, [r2, #12]
 454              		.loc 1 791 0
 455 000a 7047     		bx	lr
 456              		.cfi_endproc
ARM GAS  /var/folders/vd/czx34qs52cd_f3nb04sxmghc0000gn/T//ccI0nIfk.s 			page 9


 457              	.LFE320:
 458              		.size	pwm_lld_disable_periodic_notification, .-pwm_lld_disable_periodic_notification
 459              		.section	.text.pwm_lld_enable_channel_notification,"ax",%progbits
 460              		.align	1
 461              		.p2align 4,,15
 462              		.global	pwm_lld_enable_channel_notification
 463              		.syntax unified
 464              		.thumb
 465              		.thumb_func
 466              		.fpu softvfp
 467              		.type	pwm_lld_enable_channel_notification, %function
 468              	pwm_lld_enable_channel_notification:
 469              	.LFB321:
 470              		.loc 1 805 0
 471              		.cfi_startproc
 472              		@ args = 0, pretend = 0, frame = 0
 473              		@ frame_needed = 0, uses_anonymous_args = 0
 474              		@ link register save eliminated.
 475              	.LVL34:
 476              		.loc 1 806 0
 477 0000 8069     		ldr	r0, [r0, #24]
 478              	.LVL35:
 479              		.loc 1 815 0
 480 0002 0223     		movs	r3, #2
 481              		.loc 1 806 0
 482 0004 C268     		ldr	r2, [r0, #12]
 483              	.LVL36:
 484              		.loc 1 815 0
 485 0006 03FA01F1 		lsl	r1, r3, r1
 486              	.LVL37:
 487 000a 1142     		tst	r1, r2
 488 000c 03D1     		bne	.L53
 489              		.loc 1 817 0
 490 000e 0A43     		orrs	r2, r2, r1
 491              	.LVL38:
 492              		.loc 1 816 0
 493 0010 C943     		mvns	r1, r1
 494 0012 0161     		str	r1, [r0, #16]
 495              		.loc 1 817 0
 496 0014 C260     		str	r2, [r0, #12]
 497              	.L53:
 498              		.loc 1 819 0
 499 0016 7047     		bx	lr
 500              		.cfi_endproc
 501              	.LFE321:
 502              		.size	pwm_lld_enable_channel_notification, .-pwm_lld_enable_channel_notification
 503              		.section	.text.pwm_lld_disable_channel_notification,"ax",%progbits
 504              		.align	1
 505              		.p2align 4,,15
 506              		.global	pwm_lld_disable_channel_notification
 507              		.syntax unified
 508              		.thumb
 509              		.thumb_func
 510              		.fpu softvfp
 511              		.type	pwm_lld_disable_channel_notification, %function
 512              	pwm_lld_disable_channel_notification:
 513              	.LFB322:
ARM GAS  /var/folders/vd/czx34qs52cd_f3nb04sxmghc0000gn/T//ccI0nIfk.s 			page 10


 514              		.loc 1 833 0
 515              		.cfi_startproc
 516              		@ args = 0, pretend = 0, frame = 0
 517              		@ frame_needed = 0, uses_anonymous_args = 0
 518              		@ link register save eliminated.
 519              	.LVL39:
 520              		.loc 1 835 0
 521 0000 8069     		ldr	r0, [r0, #24]
 522              	.LVL40:
 523 0002 0222     		movs	r2, #2
 524 0004 C368     		ldr	r3, [r0, #12]
 525 0006 02FA01F1 		lsl	r1, r2, r1
 526              	.LVL41:
 527 000a 23EA0103 		bic	r3, r3, r1
 528 000e C360     		str	r3, [r0, #12]
 529              		.loc 1 836 0
 530 0010 7047     		bx	lr
 531              		.cfi_endproc
 532              	.LFE322:
 533              		.size	pwm_lld_disable_channel_notification, .-pwm_lld_disable_channel_notification
 534 0012 00BF     		.section	.text.pwm_lld_serve_interrupt,"ax",%progbits
 535              		.align	1
 536              		.p2align 4,,15
 537              		.global	pwm_lld_serve_interrupt
 538              		.syntax unified
 539              		.thumb
 540              		.thumb_func
 541              		.fpu softvfp
 542              		.type	pwm_lld_serve_interrupt, %function
 543              	pwm_lld_serve_interrupt:
 544              	.LFB323:
 545              		.loc 1 848 0
 546              		.cfi_startproc
 547              		@ args = 0, pretend = 0, frame = 0
 548              		@ frame_needed = 0, uses_anonymous_args = 0
 549              	.LVL42:
 550              		.loc 1 851 0
 551 0000 8369     		ldr	r3, [r0, #24]
 552              		.loc 1 848 0
 553 0002 70B5     		push	{r4, r5, r6, lr}
 554              		.cfi_def_cfa_offset 16
 555              		.cfi_offset 4, -16
 556              		.cfi_offset 5, -12
 557              		.cfi_offset 6, -8
 558              		.cfi_offset 14, -4
 559              		.loc 1 851 0
 560 0004 1A69     		ldr	r2, [r3, #16]
 561              	.LVL43:
 562              		.loc 1 852 0
 563 0006 DC68     		ldr	r4, [r3, #12]
 564 0008 1440     		ands	r4, r4, r2
 565              	.LVL44:
 566 000a E2B2     		uxtb	r2, r4
 567              		.loc 1 853 0
 568 000c D243     		mvns	r2, r2
 569              		.loc 1 854 0
 570 000e A607     		lsls	r6, r4, #30
ARM GAS  /var/folders/vd/czx34qs52cd_f3nb04sxmghc0000gn/T//ccI0nIfk.s 			page 11


 571              		.loc 1 848 0
 572 0010 0546     		mov	r5, r0
 573              		.loc 1 853 0
 574 0012 1A61     		str	r2, [r3, #16]
 575              		.loc 1 854 0
 576 0014 03D5     		bpl	.L57
 577              		.loc 1 855 0 discriminator 1
 578 0016 4368     		ldr	r3, [r0, #4]
 579 0018 1B69     		ldr	r3, [r3, #16]
 580              		.loc 1 854 0 discriminator 1
 581 001a 03B1     		cbz	r3, .L57
 582              		.loc 1 856 0
 583 001c 9847     		blx	r3
 584              	.LVL45:
 585              	.L57:
 586              		.loc 1 857 0
 587 001e 6007     		lsls	r0, r4, #29
 588 0020 04D5     		bpl	.L58
 589              		.loc 1 858 0 discriminator 1
 590 0022 6B68     		ldr	r3, [r5, #4]
 591 0024 9B69     		ldr	r3, [r3, #24]
 592              		.loc 1 857 0 discriminator 1
 593 0026 0BB1     		cbz	r3, .L58
 594              		.loc 1 859 0
 595 0028 2846     		mov	r0, r5
 596 002a 9847     		blx	r3
 597              	.LVL46:
 598              	.L58:
 599              		.loc 1 860 0
 600 002c 2107     		lsls	r1, r4, #28
 601 002e 04D5     		bpl	.L59
 602              		.loc 1 861 0 discriminator 1
 603 0030 6B68     		ldr	r3, [r5, #4]
 604 0032 1B6A     		ldr	r3, [r3, #32]
 605              		.loc 1 860 0 discriminator 1
 606 0034 0BB1     		cbz	r3, .L59
 607              		.loc 1 862 0
 608 0036 2846     		mov	r0, r5
 609 0038 9847     		blx	r3
 610              	.LVL47:
 611              	.L59:
 612              		.loc 1 863 0
 613 003a E206     		lsls	r2, r4, #27
 614 003c 04D5     		bpl	.L60
 615              		.loc 1 864 0 discriminator 1
 616 003e 6B68     		ldr	r3, [r5, #4]
 617 0040 9B6A     		ldr	r3, [r3, #40]
 618              		.loc 1 863 0 discriminator 1
 619 0042 0BB1     		cbz	r3, .L60
 620              		.loc 1 865 0
 621 0044 2846     		mov	r0, r5
 622 0046 9847     		blx	r3
 623              	.LVL48:
 624              	.L60:
 625              		.loc 1 866 0
 626 0048 E307     		lsls	r3, r4, #31
 627 004a 06D5     		bpl	.L56
ARM GAS  /var/folders/vd/czx34qs52cd_f3nb04sxmghc0000gn/T//ccI0nIfk.s 			page 12


 628              		.loc 1 866 0 is_stmt 0 discriminator 1
 629 004c 6B68     		ldr	r3, [r5, #4]
 630 004e 9B68     		ldr	r3, [r3, #8]
 631 0050 1BB1     		cbz	r3, .L56
 632              		.loc 1 867 0 is_stmt 1
 633 0052 2846     		mov	r0, r5
 634              		.loc 1 868 0
 635 0054 BDE87040 		pop	{r4, r5, r6, lr}
 636              		.cfi_remember_state
 637              		.cfi_restore 14
 638              		.cfi_restore 6
 639              		.cfi_restore 5
 640              		.cfi_restore 4
 641              		.cfi_def_cfa_offset 0
 642              	.LVL49:
 643              		.loc 1 867 0
 644 0058 1847     		bx	r3	@ indirect register sibling call
 645              	.LVL50:
 646              	.L56:
 647              		.cfi_restore_state
 648              		.loc 1 868 0
 649 005a 70BD     		pop	{r4, r5, r6, pc}
 650              		.cfi_endproc
 651              	.LFE323:
 652              		.size	pwm_lld_serve_interrupt, .-pwm_lld_serve_interrupt
 653              		.section	.text.VectorB8,"ax",%progbits
 654              		.align	1
 655              		.p2align 4,,15
 656              		.global	VectorB8
 657              		.syntax unified
 658              		.thumb
 659              		.thumb_func
 660              		.fpu softvfp
 661              		.type	VectorB8, %function
 662              	VectorB8:
 663              	.LFB313:
 664              		.loc 1 201 0
 665              		.cfi_startproc
 666              		@ args = 0, pretend = 0, frame = 0
 667              		@ frame_needed = 0, uses_anonymous_args = 0
 668 0000 08B5     		push	{r3, lr}
 669              		.cfi_def_cfa_offset 8
 670              		.cfi_offset 3, -8
 671              		.cfi_offset 14, -4
 672              		.loc 1 205 0
 673 0002 0348     		ldr	r0, .L95
 674 0004 FFF7FEFF 		bl	pwm_lld_serve_interrupt
 675              	.LVL51:
 676              		.loc 1 208 0
 677 0008 BDE80840 		pop	{r3, lr}
 678              		.cfi_restore 14
 679              		.cfi_restore 3
 680              		.cfi_def_cfa_offset 0
 681              		.loc 1 207 0
 682 000c FFF7FEBF 		b	_port_irq_epilogue
 683              	.LVL52:
 684              	.L96:
ARM GAS  /var/folders/vd/czx34qs52cd_f3nb04sxmghc0000gn/T//ccI0nIfk.s 			page 13


 685              		.align	2
 686              	.L95:
 687 0010 00000000 		.word	.LANCHOR0
 688              		.cfi_endproc
 689              	.LFE313:
 690              		.size	VectorB8, .-VectorB8
 691              		.global	PWMD4
 692              		.section	.bss.PWMD4,"aw",%nobits
 693              		.align	2
 694              		.set	.LANCHOR0,. + 0
 695              		.type	PWMD4, %object
 696              		.size	PWMD4, 28
 697              	PWMD4:
 698 0000 00000000 		.space	28
 698      00000000 
 698      00000000 
 698      00000000 
 698      00000000 
 699              		.text
 700              	.Letext0:
 701              		.file 2 "/usr/local/Cellar/gcc-arm-none-eabi/20171218/lib/gcc/arm-none-eabi/7.2.1/include/stddef.h
 702              		.file 3 "/usr/local/Cellar/gcc-arm-none-eabi/20171218/arm-none-eabi/include/machine/_default_types
 703              		.file 4 "/usr/local/Cellar/gcc-arm-none-eabi/20171218/arm-none-eabi/include/sys/_stdint.h"
 704              		.file 5 "../os/common/ports/ARMCMx/compilers/GCC/chtypes.h"
 705              		.file 6 "../os/rt/include/chsystypes.h"
 706              		.file 7 "../os/rt/include/chschd.h"
 707              		.file 8 "../os/rt/include/chtime.h"
 708              		.file 9 "../os/common/ext/ARM/CMSIS/Core/Include/core_cm4.h"
 709              		.file 10 "../os/common/ext/ST/STM32F4xx/system_stm32f4xx.h"
 710              		.file 11 "../os/common/ext/ST/STM32F4xx/stm32f407xx.h"
 711              		.file 12 "../os/common/ports/ARMCMx/chcore.h"
 712              		.file 13 "../os/common/ports/ARMCMx/chcore_v7m.h"
 713              		.file 14 "../os/hal/ports/STM32/LLD/TIMv1/stm32_tim.h"
 714              		.file 15 "../os/rt/include/chtm.h"
 715              		.file 16 "../os/rt/include/chsem.h"
 716              		.file 17 "../os/rt/include/chmtx.h"
 717              		.file 18 "../os/rt/include/chsys.h"
 718              		.file 19 "../os/rt/include/chregistry.h"
 719              		.file 20 "../os/rt/include/chevents.h"
 720              		.file 21 "../os/common/oslib/include/chmemcore.h"
 721              		.file 22 "../os/common/oslib/include/chmempools.h"
 722              		.file 23 "../os/common/oslib/include/chfactory.h"
 723              		.file 24 "../os/hal/ports/STM32/LLD/DMAv2/stm32_dma.h"
 724              		.file 25 "../os/hal/include/hal_queues.h"
 725              		.file 26 "../os/hal/include/hal_pal.h"
 726              		.file 27 "../os/hal/ports/STM32/LLD/GPIOv2/hal_pal_lld.h"
 727              		.file 28 "../os/hal/include/hal_pwm.h"
 728              		.file 29 "../os/hal/ports/STM32/LLD/TIMv1/hal_pwm_lld.h"
 729              		.file 30 "../os/hal/include/hal_serial.h"
 730              		.file 31 "../os/hal/ports/STM32/LLD/USARTv1/hal_serial_lld.h"
 731              		.file 32 "../os/hal/ports/common/ARMCMx/nvic.h"
 732              		.section	.debug_info,"",%progbits
 733              	.Ldebug_info0:
 734 0000 83160000 		.4byte	0x1683
 735 0004 0400     		.2byte	0x4
 736 0006 00000000 		.4byte	.Ldebug_abbrev0
 737 000a 04       		.byte	0x4
ARM GAS  /var/folders/vd/czx34qs52cd_f3nb04sxmghc0000gn/T//ccI0nIfk.s 			page 14


 738 000b 01       		.uleb128 0x1
 739 000c 83050000 		.4byte	.LASF277
 740 0010 0C       		.byte	0xc
 741 0011 AB020000 		.4byte	.LASF278
 742 0015 4F0B0000 		.4byte	.LASF279
 743 0019 00000000 		.4byte	.Ldebug_ranges0+0
 744 001d 00000000 		.4byte	0
 745 0021 00000000 		.4byte	.Ldebug_line0
 746 0025 02       		.uleb128 0x2
 747 0026 04       		.byte	0x4
 748 0027 07       		.byte	0x7
 749 0028 3D070000 		.4byte	.LASF0
 750 002c 03       		.uleb128 0x3
 751 002d 04       		.byte	0x4
 752 002e 05       		.byte	0x5
 753 002f 696E7400 		.ascii	"int\000"
 754 0033 04       		.uleb128 0x4
 755 0034 20000000 		.4byte	.LASF4
 756 0038 02       		.byte	0x2
 757 0039 D8       		.byte	0xd8
 758 003a 25000000 		.4byte	0x25
 759 003e 05       		.uleb128 0x5
 760 003f 33000000 		.4byte	0x33
 761 0043 02       		.uleb128 0x2
 762 0044 08       		.byte	0x8
 763 0045 05       		.byte	0x5
 764 0046 78060000 		.4byte	.LASF1
 765 004a 02       		.uleb128 0x2
 766 004b 08       		.byte	0x8
 767 004c 04       		.byte	0x4
 768 004d 16080000 		.4byte	.LASF2
 769 0051 02       		.uleb128 0x2
 770 0052 01       		.byte	0x1
 771 0053 06       		.byte	0x6
 772 0054 35020000 		.4byte	.LASF3
 773 0058 04       		.uleb128 0x4
 774 0059 63010000 		.4byte	.LASF5
 775 005d 03       		.byte	0x3
 776 005e 2B       		.byte	0x2b
 777 005f 63000000 		.4byte	0x63
 778 0063 02       		.uleb128 0x2
 779 0064 01       		.byte	0x1
 780 0065 08       		.byte	0x8
 781 0066 7F020000 		.4byte	.LASF6
 782 006a 02       		.uleb128 0x2
 783 006b 02       		.byte	0x2
 784 006c 05       		.byte	0x5
 785 006d 4C0A0000 		.4byte	.LASF7
 786 0071 04       		.uleb128 0x4
 787 0072 40030000 		.4byte	.LASF8
 788 0076 03       		.byte	0x3
 789 0077 39       		.byte	0x39
 790 0078 7C000000 		.4byte	0x7c
 791 007c 02       		.uleb128 0x2
 792 007d 02       		.byte	0x2
 793 007e 07       		.byte	0x7
 794 007f C30B0000 		.4byte	.LASF9
ARM GAS  /var/folders/vd/czx34qs52cd_f3nb04sxmghc0000gn/T//ccI0nIfk.s 			page 15


 795 0083 04       		.uleb128 0x4
 796 0084 040C0000 		.4byte	.LASF10
 797 0088 03       		.byte	0x3
 798 0089 4D       		.byte	0x4d
 799 008a 8E000000 		.4byte	0x8e
 800 008e 02       		.uleb128 0x2
 801 008f 04       		.byte	0x4
 802 0090 05       		.byte	0x5
 803 0091 A5010000 		.4byte	.LASF11
 804 0095 04       		.uleb128 0x4
 805 0096 65060000 		.4byte	.LASF12
 806 009a 03       		.byte	0x3
 807 009b 4F       		.byte	0x4f
 808 009c A0000000 		.4byte	0xa0
 809 00a0 02       		.uleb128 0x2
 810 00a1 04       		.byte	0x4
 811 00a2 07       		.byte	0x7
 812 00a3 6F040000 		.4byte	.LASF13
 813 00a7 04       		.uleb128 0x4
 814 00a8 5A040000 		.4byte	.LASF14
 815 00ac 03       		.byte	0x3
 816 00ad 69       		.byte	0x69
 817 00ae B2000000 		.4byte	0xb2
 818 00b2 02       		.uleb128 0x2
 819 00b3 08       		.byte	0x8
 820 00b4 07       		.byte	0x7
 821 00b5 BF080000 		.4byte	.LASF15
 822 00b9 04       		.uleb128 0x4
 823 00ba 48020000 		.4byte	.LASF16
 824 00be 04       		.byte	0x4
 825 00bf 18       		.byte	0x18
 826 00c0 58000000 		.4byte	0x58
 827 00c4 06       		.uleb128 0x6
 828 00c5 B9000000 		.4byte	0xb9
 829 00c9 04       		.uleb128 0x4
 830 00ca DF080000 		.4byte	.LASF17
 831 00ce 04       		.byte	0x4
 832 00cf 24       		.byte	0x24
 833 00d0 71000000 		.4byte	0x71
 834 00d4 04       		.uleb128 0x4
 835 00d5 7F000000 		.4byte	.LASF18
 836 00d9 04       		.byte	0x4
 837 00da 2C       		.byte	0x2c
 838 00db 83000000 		.4byte	0x83
 839 00df 05       		.uleb128 0x5
 840 00e0 D4000000 		.4byte	0xd4
 841 00e4 04       		.uleb128 0x4
 842 00e5 460B0000 		.4byte	.LASF19
 843 00e9 04       		.byte	0x4
 844 00ea 30       		.byte	0x30
 845 00eb 95000000 		.4byte	0x95
 846 00ef 05       		.uleb128 0x5
 847 00f0 E4000000 		.4byte	0xe4
 848 00f4 04       		.uleb128 0x4
 849 00f5 630A0000 		.4byte	.LASF20
 850 00f9 04       		.byte	0x4
 851 00fa 3C       		.byte	0x3c
ARM GAS  /var/folders/vd/czx34qs52cd_f3nb04sxmghc0000gn/T//ccI0nIfk.s 			page 16


 852 00fb A7000000 		.4byte	0xa7
 853 00ff 04       		.uleb128 0x4
 854 0100 4A070000 		.4byte	.LASF21
 855 0104 05       		.byte	0x5
 856 0105 39       		.byte	0x39
 857 0106 E4000000 		.4byte	0xe4
 858 010a 04       		.uleb128 0x4
 859 010b B9090000 		.4byte	.LASF22
 860 010f 05       		.byte	0x5
 861 0110 3C       		.byte	0x3c
 862 0111 B9000000 		.4byte	0xb9
 863 0115 04       		.uleb128 0x4
 864 0116 BB010000 		.4byte	.LASF23
 865 011a 05       		.byte	0x5
 866 011b 3D       		.byte	0x3d
 867 011c B9000000 		.4byte	0xb9
 868 0120 04       		.uleb128 0x4
 869 0121 EB0A0000 		.4byte	.LASF24
 870 0125 05       		.byte	0x5
 871 0126 3E       		.byte	0x3e
 872 0127 B9000000 		.4byte	0xb9
 873 012b 04       		.uleb128 0x4
 874 012c 65000000 		.4byte	.LASF25
 875 0130 05       		.byte	0x5
 876 0131 40       		.byte	0x40
 877 0132 E4000000 		.4byte	0xe4
 878 0136 04       		.uleb128 0x4
 879 0137 F1080000 		.4byte	.LASF26
 880 013b 05       		.byte	0x5
 881 013c 41       		.byte	0x41
 882 013d D4000000 		.4byte	0xd4
 883 0141 04       		.uleb128 0x4
 884 0142 50020000 		.4byte	.LASF27
 885 0146 05       		.byte	0x5
 886 0147 43       		.byte	0x43
 887 0148 E4000000 		.4byte	0xe4
 888 014c 04       		.uleb128 0x4
 889 014d 08090000 		.4byte	.LASF28
 890 0151 05       		.byte	0x5
 891 0152 44       		.byte	0x44
 892 0153 E4000000 		.4byte	0xe4
 893 0157 04       		.uleb128 0x4
 894 0158 CE030000 		.4byte	.LASF29
 895 015c 05       		.byte	0x5
 896 015d 45       		.byte	0x45
 897 015e D4000000 		.4byte	0xd4
 898 0162 04       		.uleb128 0x4
 899 0163 4D050000 		.4byte	.LASF30
 900 0167 05       		.byte	0x5
 901 0168 46       		.byte	0x46
 902 0169 E4000000 		.4byte	0xe4
 903 016d 04       		.uleb128 0x4
 904 016e 0D080000 		.4byte	.LASF31
 905 0172 06       		.byte	0x6
 906 0173 34       		.byte	0x34
 907 0174 78010000 		.4byte	0x178
 908 0178 07       		.uleb128 0x7
ARM GAS  /var/folders/vd/czx34qs52cd_f3nb04sxmghc0000gn/T//ccI0nIfk.s 			page 17


 909 0179 B6040000 		.4byte	.LASF49
 910 017d 44       		.byte	0x44
 911 017e 07       		.byte	0x7
 912 017f 8E       		.byte	0x8e
 913 0180 56020000 		.4byte	0x256
 914 0184 08       		.uleb128 0x8
 915 0185 25090000 		.4byte	.LASF32
 916 0189 07       		.byte	0x7
 917 018a 8F       		.byte	0x8f
 918 018b 8B020000 		.4byte	0x28b
 919 018f 00       		.byte	0
 920 0190 08       		.uleb128 0x8
 921 0191 48010000 		.4byte	.LASF33
 922 0195 07       		.byte	0x7
 923 0196 90       		.byte	0x90
 924 0197 2B010000 		.4byte	0x12b
 925 019b 08       		.byte	0x8
 926 019c 09       		.uleb128 0x9
 927 019d 63747800 		.ascii	"ctx\000"
 928 01a1 07       		.byte	0x7
 929 01a2 91       		.byte	0x91
 930 01a3 90070000 		.4byte	0x790
 931 01a7 0C       		.byte	0xc
 932 01a8 08       		.uleb128 0x8
 933 01a9 2A0B0000 		.4byte	.LASF34
 934 01ad 07       		.byte	0x7
 935 01ae 93       		.byte	0x93
 936 01af 61020000 		.4byte	0x261
 937 01b3 10       		.byte	0x10
 938 01b4 08       		.uleb128 0x8
 939 01b5 22050000 		.4byte	.LASF35
 940 01b9 07       		.byte	0x7
 941 01ba 94       		.byte	0x94
 942 01bb 61020000 		.4byte	0x261
 943 01bf 14       		.byte	0x14
 944 01c0 08       		.uleb128 0x8
 945 01c1 030A0000 		.4byte	.LASF36
 946 01c5 07       		.byte	0x7
 947 01c6 9B       		.byte	0x9b
 948 01c7 2C0A0000 		.4byte	0xa2c
 949 01cb 18       		.byte	0x18
 950 01cc 08       		.uleb128 0x8
 951 01cd 87090000 		.4byte	.LASF37
 952 01d1 07       		.byte	0x7
 953 01d2 A4       		.byte	0xa4
 954 01d3 430A0000 		.4byte	0xa43
 955 01d7 1C       		.byte	0x1c
 956 01d8 08       		.uleb128 0x8
 957 01d9 04010000 		.4byte	.LASF38
 958 01dd 07       		.byte	0x7
 959 01de A9       		.byte	0xa9
 960 01df 15010000 		.4byte	0x115
 961 01e3 20       		.byte	0x20
 962 01e4 08       		.uleb128 0x8
 963 01e5 6E030000 		.4byte	.LASF39
 964 01e9 07       		.byte	0x7
 965 01ea AD       		.byte	0xad
ARM GAS  /var/folders/vd/czx34qs52cd_f3nb04sxmghc0000gn/T//ccI0nIfk.s 			page 18


 966 01eb 0A010000 		.4byte	0x10a
 967 01ef 21       		.byte	0x21
 968 01f0 08       		.uleb128 0x8
 969 01f1 20090000 		.4byte	.LASF40
 970 01f5 07       		.byte	0x7
 971 01f6 B2       		.byte	0xb2
 972 01f7 20010000 		.4byte	0x120
 973 01fb 22       		.byte	0x22
 974 01fc 0A       		.uleb128 0xa
 975 01fd 7500     		.ascii	"u\000"
 976 01ff 07       		.byte	0x7
 977 0200 0301     		.2byte	0x103
 978 0202 62090000 		.4byte	0x962
 979 0206 24       		.byte	0x24
 980 0207 0B       		.uleb128 0xb
 981 0208 D10A0000 		.4byte	.LASF41
 982 020c 07       		.byte	0x7
 983 020d 0801     		.2byte	0x108
 984 020f 67020000 		.4byte	0x267
 985 0213 28       		.byte	0x28
 986 0214 0B       		.uleb128 0xb
 987 0215 7F0A0000 		.4byte	.LASF42
 988 0219 07       		.byte	0x7
 989 021a 0E01     		.2byte	0x10e
 990 021c 8B020000 		.4byte	0x28b
 991 0220 2C       		.byte	0x2c
 992 0221 0B       		.uleb128 0xb
 993 0222 C4010000 		.4byte	.LASF43
 994 0226 07       		.byte	0x7
 995 0227 1401     		.2byte	0x114
 996 0229 41010000 		.4byte	0x141
 997 022d 34       		.byte	0x34
 998 022e 0B       		.uleb128 0xb
 999 022f 70060000 		.4byte	.LASF44
 1000 0233 07       		.byte	0x7
 1001 0234 1B01     		.2byte	0x11b
 1002 0236 260A0000 		.4byte	0xa26
 1003 023a 38       		.byte	0x38
 1004 023b 0B       		.uleb128 0xb
 1005 023c 38050000 		.4byte	.LASF45
 1006 0240 07       		.byte	0x7
 1007 0241 1F01     		.2byte	0x11f
 1008 0243 2B010000 		.4byte	0x12b
 1009 0247 3C       		.byte	0x3c
 1010 0248 0B       		.uleb128 0xb
 1011 0249 92030000 		.4byte	.LASF46
 1012 024d 07       		.byte	0x7
 1013 024e 2601     		.2byte	0x126
 1014 0250 3E030000 		.4byte	0x33e
 1015 0254 40       		.byte	0x40
 1016 0255 00       		.byte	0
 1017 0256 04       		.uleb128 0x4
 1018 0257 3B080000 		.4byte	.LASF47
 1019 025b 06       		.byte	0x6
 1020 025c 39       		.byte	0x39
 1021 025d 61020000 		.4byte	0x261
 1022 0261 0C       		.uleb128 0xc
ARM GAS  /var/folders/vd/czx34qs52cd_f3nb04sxmghc0000gn/T//ccI0nIfk.s 			page 19


 1023 0262 04       		.byte	0x4
 1024 0263 6D010000 		.4byte	0x16d
 1025 0267 04       		.uleb128 0x4
 1026 0268 000B0000 		.4byte	.LASF48
 1027 026c 06       		.byte	0x6
 1028 026d 3E       		.byte	0x3e
 1029 026e 72020000 		.4byte	0x272
 1030 0272 07       		.uleb128 0x7
 1031 0273 73050000 		.4byte	.LASF50
 1032 0277 04       		.byte	0x4
 1033 0278 07       		.byte	0x7
 1034 0279 7C       		.byte	0x7c
 1035 027a 8B020000 		.4byte	0x28b
 1036 027e 08       		.uleb128 0x8
 1037 027f 3C0C0000 		.4byte	.LASF51
 1038 0283 07       		.byte	0x7
 1039 0284 7D       		.byte	0x7d
 1040 0285 61020000 		.4byte	0x261
 1041 0289 00       		.byte	0
 1042 028a 00       		.byte	0
 1043 028b 04       		.uleb128 0x4
 1044 028c CD010000 		.4byte	.LASF52
 1045 0290 06       		.byte	0x6
 1046 0291 45       		.byte	0x45
 1047 0292 96020000 		.4byte	0x296
 1048 0296 07       		.uleb128 0x7
 1049 0297 F7080000 		.4byte	.LASF53
 1050 029b 08       		.byte	0x8
 1051 029c 07       		.byte	0x7
 1052 029d 83       		.byte	0x83
 1053 029e BB020000 		.4byte	0x2bb
 1054 02a2 08       		.uleb128 0x8
 1055 02a3 3C0C0000 		.4byte	.LASF51
 1056 02a7 07       		.byte	0x7
 1057 02a8 84       		.byte	0x84
 1058 02a9 61020000 		.4byte	0x261
 1059 02ad 00       		.byte	0
 1060 02ae 08       		.uleb128 0x8
 1061 02af 650C0000 		.4byte	.LASF54
 1062 02b3 07       		.byte	0x7
 1063 02b4 85       		.byte	0x85
 1064 02b5 61020000 		.4byte	0x261
 1065 02b9 04       		.byte	0x4
 1066 02ba 00       		.byte	0
 1067 02bb 04       		.uleb128 0x4
 1068 02bc 15050000 		.4byte	.LASF55
 1069 02c0 06       		.byte	0x6
 1070 02c1 4C       		.byte	0x4c
 1071 02c2 C6020000 		.4byte	0x2c6
 1072 02c6 0D       		.uleb128 0xd
 1073 02c7 F9030000 		.4byte	.LASF56
 1074 02cb 1C       		.byte	0x1c
 1075 02cc 07       		.byte	0x7
 1076 02cd 5E01     		.2byte	0x15e
 1077 02cf 22030000 		.4byte	0x322
 1078 02d3 0B       		.uleb128 0xb
 1079 02d4 25090000 		.4byte	.LASF32
ARM GAS  /var/folders/vd/czx34qs52cd_f3nb04sxmghc0000gn/T//ccI0nIfk.s 			page 20


 1080 02d8 07       		.byte	0x7
 1081 02d9 5F01     		.2byte	0x15f
 1082 02db 8B020000 		.4byte	0x28b
 1083 02df 00       		.byte	0
 1084 02e0 0B       		.uleb128 0xb
 1085 02e1 48010000 		.4byte	.LASF33
 1086 02e5 07       		.byte	0x7
 1087 02e6 6001     		.2byte	0x160
 1088 02e8 2B010000 		.4byte	0x12b
 1089 02ec 08       		.byte	0x8
 1090 02ed 0A       		.uleb128 0xa
 1091 02ee 63747800 		.ascii	"ctx\000"
 1092 02f2 07       		.byte	0x7
 1093 02f3 6201     		.2byte	0x162
 1094 02f5 90070000 		.4byte	0x790
 1095 02f9 0C       		.byte	0xc
 1096 02fa 0B       		.uleb128 0xb
 1097 02fb 2A0B0000 		.4byte	.LASF34
 1098 02ff 07       		.byte	0x7
 1099 0300 6501     		.2byte	0x165
 1100 0302 61020000 		.4byte	0x261
 1101 0306 10       		.byte	0x10
 1102 0307 0B       		.uleb128 0xb
 1103 0308 22050000 		.4byte	.LASF35
 1104 030c 07       		.byte	0x7
 1105 030d 6601     		.2byte	0x166
 1106 030f 61020000 		.4byte	0x261
 1107 0313 14       		.byte	0x14
 1108 0314 0B       		.uleb128 0xb
 1109 0315 90070000 		.4byte	.LASF57
 1110 0319 07       		.byte	0x7
 1111 031a 6901     		.2byte	0x169
 1112 031c 61020000 		.4byte	0x261
 1113 0320 18       		.byte	0x18
 1114 0321 00       		.byte	0
 1115 0322 04       		.uleb128 0x4
 1116 0323 8E000000 		.4byte	.LASF58
 1117 0327 06       		.byte	0x6
 1118 0328 51       		.byte	0x51
 1119 0329 2D030000 		.4byte	0x32d
 1120 032d 0C       		.uleb128 0xc
 1121 032e 04       		.byte	0x4
 1122 032f 33030000 		.4byte	0x333
 1123 0333 0E       		.uleb128 0xe
 1124 0334 3E030000 		.4byte	0x33e
 1125 0338 0F       		.uleb128 0xf
 1126 0339 3E030000 		.4byte	0x33e
 1127 033d 00       		.byte	0
 1128 033e 10       		.uleb128 0x10
 1129 033f 04       		.byte	0x4
 1130 0340 04       		.uleb128 0x4
 1131 0341 05050000 		.4byte	.LASF59
 1132 0345 06       		.byte	0x6
 1133 0346 56       		.byte	0x56
 1134 0347 4B030000 		.4byte	0x34b
 1135 034b 0D       		.uleb128 0xd
 1136 034c A1080000 		.4byte	.LASF60
ARM GAS  /var/folders/vd/czx34qs52cd_f3nb04sxmghc0000gn/T//ccI0nIfk.s 			page 21


 1137 0350 14       		.byte	0x14
 1138 0351 07       		.byte	0x7
 1139 0352 3901     		.2byte	0x139
 1140 0354 9A030000 		.4byte	0x39a
 1141 0358 0B       		.uleb128 0xb
 1142 0359 3C0C0000 		.4byte	.LASF51
 1143 035d 07       		.byte	0x7
 1144 035e 3A01     		.2byte	0x13a
 1145 0360 490A0000 		.4byte	0xa49
 1146 0364 00       		.byte	0
 1147 0365 0B       		.uleb128 0xb
 1148 0366 650C0000 		.4byte	.LASF54
 1149 036a 07       		.byte	0x7
 1150 036b 3B01     		.2byte	0x13b
 1151 036d 490A0000 		.4byte	0xa49
 1152 0371 04       		.byte	0x4
 1153 0372 0B       		.uleb128 0xb
 1154 0373 1A090000 		.4byte	.LASF61
 1155 0377 07       		.byte	0x7
 1156 0378 3C01     		.2byte	0x13c
 1157 037a 71040000 		.4byte	0x471
 1158 037e 08       		.byte	0x8
 1159 037f 0B       		.uleb128 0xb
 1160 0380 710A0000 		.4byte	.LASF62
 1161 0384 07       		.byte	0x7
 1162 0385 3D01     		.2byte	0x13d
 1163 0387 22030000 		.4byte	0x322
 1164 038b 0C       		.byte	0xc
 1165 038c 0A       		.uleb128 0xa
 1166 038d 70617200 		.ascii	"par\000"
 1167 0391 07       		.byte	0x7
 1168 0392 3F01     		.2byte	0x13f
 1169 0394 3E030000 		.4byte	0x33e
 1170 0398 10       		.byte	0x10
 1171 0399 00       		.byte	0
 1172 039a 04       		.uleb128 0x4
 1173 039b C0040000 		.4byte	.LASF63
 1174 039f 06       		.byte	0x6
 1175 03a0 5B       		.byte	0x5b
 1176 03a1 A5030000 		.4byte	0x3a5
 1177 03a5 0D       		.uleb128 0xd
 1178 03a6 97000000 		.4byte	.LASF64
 1179 03aa 10       		.byte	0x10
 1180 03ab 07       		.byte	0x7
 1181 03ac 4901     		.2byte	0x149
 1182 03ae E7030000 		.4byte	0x3e7
 1183 03b2 0B       		.uleb128 0xb
 1184 03b3 3C0C0000 		.4byte	.LASF51
 1185 03b7 07       		.byte	0x7
 1186 03b8 4A01     		.2byte	0x14a
 1187 03ba 490A0000 		.4byte	0xa49
 1188 03be 00       		.byte	0
 1189 03bf 0B       		.uleb128 0xb
 1190 03c0 650C0000 		.4byte	.LASF54
 1191 03c4 07       		.byte	0x7
 1192 03c5 4C01     		.2byte	0x14c
 1193 03c7 490A0000 		.4byte	0xa49
ARM GAS  /var/folders/vd/czx34qs52cd_f3nb04sxmghc0000gn/T//ccI0nIfk.s 			page 22


 1194 03cb 04       		.byte	0x4
 1195 03cc 0B       		.uleb128 0xb
 1196 03cd 1A090000 		.4byte	.LASF61
 1197 03d1 07       		.byte	0x7
 1198 03d2 4E01     		.2byte	0x14e
 1199 03d4 71040000 		.4byte	0x471
 1200 03d8 08       		.byte	0x8
 1201 03d9 0B       		.uleb128 0xb
 1202 03da DB030000 		.4byte	.LASF65
 1203 03de 07       		.byte	0x7
 1204 03df 5601     		.2byte	0x156
 1205 03e1 66040000 		.4byte	0x466
 1206 03e5 0C       		.byte	0xc
 1207 03e6 00       		.byte	0
 1208 03e7 04       		.uleb128 0x4
 1209 03e8 E3020000 		.4byte	.LASF66
 1210 03ec 06       		.byte	0x6
 1211 03ed 60       		.byte	0x60
 1212 03ee F2030000 		.4byte	0x3f2
 1213 03f2 0D       		.uleb128 0xd
 1214 03f3 8F0A0000 		.4byte	.LASF67
 1215 03f7 04       		.byte	0x4
 1216 03f8 07       		.byte	0x7
 1217 03f9 7001     		.2byte	0x170
 1218 03fb 0D040000 		.4byte	0x40d
 1219 03ff 0B       		.uleb128 0xb
 1220 0400 D9020000 		.4byte	.LASF68
 1221 0404 07       		.byte	0x7
 1222 0405 7801     		.2byte	0x178
 1223 0407 320A0000 		.4byte	0xa32
 1224 040b 00       		.byte	0
 1225 040c 00       		.byte	0
 1226 040d 04       		.uleb128 0x4
 1227 040e D60B0000 		.4byte	.LASF69
 1228 0412 06       		.byte	0x6
 1229 0413 65       		.byte	0x65
 1230 0414 18040000 		.4byte	0x418
 1231 0418 0D       		.uleb128 0xd
 1232 0419 150B0000 		.4byte	.LASF70
 1233 041d 78       		.byte	0x78
 1234 041e 07       		.byte	0x7
 1235 041f 9001     		.2byte	0x190
 1236 0421 66040000 		.4byte	0x466
 1237 0425 0B       		.uleb128 0xb
 1238 0426 B3090000 		.4byte	.LASF71
 1239 042a 07       		.byte	0x7
 1240 042b 9401     		.2byte	0x194
 1241 042d BB020000 		.4byte	0x2bb
 1242 0431 00       		.byte	0
 1243 0432 0B       		.uleb128 0xb
 1244 0433 CA0A0000 		.4byte	.LASF72
 1245 0437 07       		.byte	0x7
 1246 0438 9801     		.2byte	0x198
 1247 043a 9A030000 		.4byte	0x39a
 1248 043e 1C       		.byte	0x1c
 1249 043f 0A       		.uleb128 0xa
 1250 0440 64626700 		.ascii	"dbg\000"
ARM GAS  /var/folders/vd/czx34qs52cd_f3nb04sxmghc0000gn/T//ccI0nIfk.s 			page 23


 1251 0444 07       		.byte	0x7
 1252 0445 9C01     		.2byte	0x19c
 1253 0447 E7030000 		.4byte	0x3e7
 1254 044b 2C       		.byte	0x2c
 1255 044c 0B       		.uleb128 0xb
 1256 044d 46090000 		.4byte	.LASF73
 1257 0451 07       		.byte	0x7
 1258 0452 A001     		.2byte	0x1a0
 1259 0454 6D010000 		.4byte	0x16d
 1260 0458 30       		.byte	0x30
 1261 0459 0A       		.uleb128 0xa
 1262 045a 746D00   		.ascii	"tm\000"
 1263 045d 07       		.byte	0x7
 1264 045e A501     		.2byte	0x1a5
 1265 0460 57090000 		.4byte	0x957
 1266 0464 74       		.byte	0x74
 1267 0465 00       		.byte	0
 1268 0466 04       		.uleb128 0x4
 1269 0467 3E000000 		.4byte	.LASF74
 1270 046b 08       		.byte	0x8
 1271 046c 8C       		.byte	0x8c
 1272 046d E4000000 		.4byte	0xe4
 1273 0471 04       		.uleb128 0x4
 1274 0472 86060000 		.4byte	.LASF75
 1275 0476 08       		.byte	0x8
 1276 0477 98       		.byte	0x98
 1277 0478 E4000000 		.4byte	0xe4
 1278 047c 11       		.uleb128 0x11
 1279 047d E4000000 		.4byte	0xe4
 1280 0481 8C040000 		.4byte	0x48c
 1281 0485 12       		.uleb128 0x12
 1282 0486 25000000 		.4byte	0x25
 1283 048a 01       		.byte	0x1
 1284 048b 00       		.byte	0
 1285 048c 13       		.uleb128 0x13
 1286 048d F3060000 		.4byte	.LASF76
 1287 0491 09       		.byte	0x9
 1288 0492 F407     		.2byte	0x7f4
 1289 0494 DF000000 		.4byte	0xdf
 1290 0498 14       		.uleb128 0x14
 1291 0499 91040000 		.4byte	.LASF77
 1292 049d 0A       		.byte	0xa
 1293 049e 4C       		.byte	0x4c
 1294 049f E4000000 		.4byte	0xe4
 1295 04a3 11       		.uleb128 0x11
 1296 04a4 C4000000 		.4byte	0xc4
 1297 04a8 B3040000 		.4byte	0x4b3
 1298 04ac 12       		.uleb128 0x12
 1299 04ad 25000000 		.4byte	0x25
 1300 04b1 0F       		.byte	0xf
 1301 04b2 00       		.byte	0
 1302 04b3 06       		.uleb128 0x6
 1303 04b4 A3040000 		.4byte	0x4a3
 1304 04b8 14       		.uleb128 0x14
 1305 04b9 93080000 		.4byte	.LASF78
 1306 04bd 0A       		.byte	0xa
 1307 04be 4E       		.byte	0x4e
ARM GAS  /var/folders/vd/czx34qs52cd_f3nb04sxmghc0000gn/T//ccI0nIfk.s 			page 24


 1308 04bf B3040000 		.4byte	0x4b3
 1309 04c3 11       		.uleb128 0x11
 1310 04c4 C4000000 		.4byte	0xc4
 1311 04c8 D3040000 		.4byte	0x4d3
 1312 04cc 12       		.uleb128 0x12
 1313 04cd 25000000 		.4byte	0x25
 1314 04d1 07       		.byte	0x7
 1315 04d2 00       		.byte	0
 1316 04d3 06       		.uleb128 0x6
 1317 04d4 C3040000 		.4byte	0x4c3
 1318 04d8 14       		.uleb128 0x14
 1319 04d9 280A0000 		.4byte	.LASF79
 1320 04dd 0A       		.byte	0xa
 1321 04de 4F       		.byte	0x4f
 1322 04df D3040000 		.4byte	0x4d3
 1323 04e3 15       		.uleb128 0x15
 1324 04e4 18       		.byte	0x18
 1325 04e5 0B       		.byte	0xb
 1326 04e6 6A01     		.2byte	0x16a
 1327 04e8 3A050000 		.4byte	0x53a
 1328 04ec 0A       		.uleb128 0xa
 1329 04ed 435200   		.ascii	"CR\000"
 1330 04f0 0B       		.byte	0xb
 1331 04f1 6C01     		.2byte	0x16c
 1332 04f3 EF000000 		.4byte	0xef
 1333 04f7 00       		.byte	0
 1334 04f8 0B       		.uleb128 0xb
 1335 04f9 160C0000 		.4byte	.LASF80
 1336 04fd 0B       		.byte	0xb
 1337 04fe 6D01     		.2byte	0x16d
 1338 0500 EF000000 		.4byte	0xef
 1339 0504 04       		.byte	0x4
 1340 0505 0A       		.uleb128 0xa
 1341 0506 50415200 		.ascii	"PAR\000"
 1342 050a 0B       		.byte	0xb
 1343 050b 6E01     		.2byte	0x16e
 1344 050d EF000000 		.4byte	0xef
 1345 0511 08       		.byte	0x8
 1346 0512 0B       		.uleb128 0xb
 1347 0513 FE090000 		.4byte	.LASF81
 1348 0517 0B       		.byte	0xb
 1349 0518 6F01     		.2byte	0x16f
 1350 051a EF000000 		.4byte	0xef
 1351 051e 0C       		.byte	0xc
 1352 051f 0B       		.uleb128 0xb
 1353 0520 08000000 		.4byte	.LASF82
 1354 0524 0B       		.byte	0xb
 1355 0525 7001     		.2byte	0x170
 1356 0527 EF000000 		.4byte	0xef
 1357 052b 10       		.byte	0x10
 1358 052c 0A       		.uleb128 0xa
 1359 052d 46435200 		.ascii	"FCR\000"
 1360 0531 0B       		.byte	0xb
 1361 0532 7101     		.2byte	0x171
 1362 0534 EF000000 		.4byte	0xef
 1363 0538 14       		.byte	0x14
 1364 0539 00       		.byte	0
ARM GAS  /var/folders/vd/czx34qs52cd_f3nb04sxmghc0000gn/T//ccI0nIfk.s 			page 25


 1365 053a 16       		.uleb128 0x16
 1366 053b B3070000 		.4byte	.LASF83
 1367 053f 0B       		.byte	0xb
 1368 0540 7201     		.2byte	0x172
 1369 0542 E3040000 		.4byte	0x4e3
 1370 0546 11       		.uleb128 0x11
 1371 0547 EF000000 		.4byte	0xef
 1372 054b 56050000 		.4byte	0x556
 1373 054f 12       		.uleb128 0x12
 1374 0550 25000000 		.4byte	0x25
 1375 0554 01       		.byte	0x1
 1376 0555 00       		.byte	0
 1377 0556 05       		.uleb128 0x5
 1378 0557 46050000 		.4byte	0x546
 1379 055b 11       		.uleb128 0x11
 1380 055c EF000000 		.4byte	0xef
 1381 0560 6B050000 		.4byte	0x56b
 1382 0564 12       		.uleb128 0x12
 1383 0565 25000000 		.4byte	0x25
 1384 0569 03       		.byte	0x3
 1385 056a 00       		.byte	0
 1386 056b 05       		.uleb128 0x5
 1387 056c 5B050000 		.4byte	0x55b
 1388 0570 15       		.uleb128 0x15
 1389 0571 88       		.byte	0x88
 1390 0572 0B       		.byte	0xb
 1391 0573 6502     		.2byte	0x265
 1392 0575 FF060000 		.4byte	0x6ff
 1393 0579 0A       		.uleb128 0xa
 1394 057a 435200   		.ascii	"CR\000"
 1395 057d 0B       		.byte	0xb
 1396 057e 6702     		.2byte	0x267
 1397 0580 EF000000 		.4byte	0xef
 1398 0584 00       		.byte	0
 1399 0585 0B       		.uleb128 0xb
 1400 0586 5D060000 		.4byte	.LASF84
 1401 058a 0B       		.byte	0xb
 1402 058b 6802     		.2byte	0x268
 1403 058d EF000000 		.4byte	0xef
 1404 0591 04       		.byte	0x4
 1405 0592 0B       		.uleb128 0xb
 1406 0593 10040000 		.4byte	.LASF85
 1407 0597 0B       		.byte	0xb
 1408 0598 6902     		.2byte	0x269
 1409 059a EF000000 		.4byte	0xef
 1410 059e 08       		.byte	0x8
 1411 059f 0A       		.uleb128 0xa
 1412 05a0 43495200 		.ascii	"CIR\000"
 1413 05a4 0B       		.byte	0xb
 1414 05a5 6A02     		.2byte	0x26a
 1415 05a7 EF000000 		.4byte	0xef
 1416 05ab 0C       		.byte	0xc
 1417 05ac 0B       		.uleb128 0xb
 1418 05ad 2E030000 		.4byte	.LASF86
 1419 05b1 0B       		.byte	0xb
 1420 05b2 6B02     		.2byte	0x26b
 1421 05b4 EF000000 		.4byte	0xef
ARM GAS  /var/folders/vd/czx34qs52cd_f3nb04sxmghc0000gn/T//ccI0nIfk.s 			page 26


 1422 05b8 10       		.byte	0x10
 1423 05b9 0B       		.uleb128 0xb
 1424 05ba F5090000 		.4byte	.LASF87
 1425 05be 0B       		.byte	0xb
 1426 05bf 6C02     		.2byte	0x26c
 1427 05c1 EF000000 		.4byte	0xef
 1428 05c5 14       		.byte	0x14
 1429 05c6 0B       		.uleb128 0xb
 1430 05c7 04080000 		.4byte	.LASF88
 1431 05cb 0B       		.byte	0xb
 1432 05cc 6D02     		.2byte	0x26d
 1433 05ce EF000000 		.4byte	0xef
 1434 05d2 18       		.byte	0x18
 1435 05d3 0B       		.uleb128 0xb
 1436 05d4 6B020000 		.4byte	.LASF89
 1437 05d8 0B       		.byte	0xb
 1438 05d9 6E02     		.2byte	0x26e
 1439 05db E4000000 		.4byte	0xe4
 1440 05df 1C       		.byte	0x1c
 1441 05e0 0B       		.uleb128 0xb
 1442 05e1 8A080000 		.4byte	.LASF90
 1443 05e5 0B       		.byte	0xb
 1444 05e6 6F02     		.2byte	0x26f
 1445 05e8 EF000000 		.4byte	0xef
 1446 05ec 20       		.byte	0x20
 1447 05ed 0B       		.uleb128 0xb
 1448 05ee BD060000 		.4byte	.LASF91
 1449 05f2 0B       		.byte	0xb
 1450 05f3 7002     		.2byte	0x270
 1451 05f5 EF000000 		.4byte	0xef
 1452 05f9 24       		.byte	0x24
 1453 05fa 0B       		.uleb128 0xb
 1454 05fb 75020000 		.4byte	.LASF92
 1455 05ff 0B       		.byte	0xb
 1456 0600 7102     		.2byte	0x271
 1457 0602 7C040000 		.4byte	0x47c
 1458 0606 28       		.byte	0x28
 1459 0607 0B       		.uleb128 0xb
 1460 0608 CB090000 		.4byte	.LASF93
 1461 060c 0B       		.byte	0xb
 1462 060d 7202     		.2byte	0x272
 1463 060f EF000000 		.4byte	0xef
 1464 0613 30       		.byte	0x30
 1465 0614 0B       		.uleb128 0xb
 1466 0615 4B030000 		.4byte	.LASF94
 1467 0619 0B       		.byte	0xb
 1468 061a 7302     		.2byte	0x273
 1469 061c EF000000 		.4byte	0xef
 1470 0620 34       		.byte	0x34
 1471 0621 0B       		.uleb128 0xb
 1472 0622 DC090000 		.4byte	.LASF95
 1473 0626 0B       		.byte	0xb
 1474 0627 7402     		.2byte	0x274
 1475 0629 EF000000 		.4byte	0xef
 1476 062d 38       		.byte	0x38
 1477 062e 0B       		.uleb128 0xb
 1478 062f 02030000 		.4byte	.LASF96
ARM GAS  /var/folders/vd/czx34qs52cd_f3nb04sxmghc0000gn/T//ccI0nIfk.s 			page 27


 1479 0633 0B       		.byte	0xb
 1480 0634 7502     		.2byte	0x275
 1481 0636 E4000000 		.4byte	0xe4
 1482 063a 3C       		.byte	0x3c
 1483 063b 0B       		.uleb128 0xb
 1484 063c B2080000 		.4byte	.LASF97
 1485 0640 0B       		.byte	0xb
 1486 0641 7602     		.2byte	0x276
 1487 0643 EF000000 		.4byte	0xef
 1488 0647 40       		.byte	0x40
 1489 0648 0B       		.uleb128 0xb
 1490 0649 01020000 		.4byte	.LASF98
 1491 064d 0B       		.byte	0xb
 1492 064e 7702     		.2byte	0x277
 1493 0650 EF000000 		.4byte	0xef
 1494 0654 44       		.byte	0x44
 1495 0655 0B       		.uleb128 0xb
 1496 0656 8D020000 		.4byte	.LASF99
 1497 065a 0B       		.byte	0xb
 1498 065b 7802     		.2byte	0x278
 1499 065d 7C040000 		.4byte	0x47c
 1500 0661 48       		.byte	0x48
 1501 0662 0B       		.uleb128 0xb
 1502 0663 12020000 		.4byte	.LASF100
 1503 0667 0B       		.byte	0xb
 1504 0668 7902     		.2byte	0x279
 1505 066a EF000000 		.4byte	0xef
 1506 066e 50       		.byte	0x50
 1507 066f 0B       		.uleb128 0xb
 1508 0670 7A010000 		.4byte	.LASF101
 1509 0674 0B       		.byte	0xb
 1510 0675 7A02     		.2byte	0x27a
 1511 0677 EF000000 		.4byte	0xef
 1512 067b 54       		.byte	0x54
 1513 067c 0B       		.uleb128 0xb
 1514 067d 65090000 		.4byte	.LASF102
 1515 0681 0B       		.byte	0xb
 1516 0682 7B02     		.2byte	0x27b
 1517 0684 EF000000 		.4byte	0xef
 1518 0688 58       		.byte	0x58
 1519 0689 0B       		.uleb128 0xb
 1520 068a 97020000 		.4byte	.LASF103
 1521 068e 0B       		.byte	0xb
 1522 068f 7C02     		.2byte	0x27c
 1523 0691 E4000000 		.4byte	0xe4
 1524 0695 5C       		.byte	0x5c
 1525 0696 0B       		.uleb128 0xb
 1526 0697 A9070000 		.4byte	.LASF104
 1527 069b 0B       		.byte	0xb
 1528 069c 7D02     		.2byte	0x27d
 1529 069e EF000000 		.4byte	0xef
 1530 06a2 60       		.byte	0x60
 1531 06a3 0B       		.uleb128 0xb
 1532 06a4 0A070000 		.4byte	.LASF105
 1533 06a8 0B       		.byte	0xb
 1534 06a9 7E02     		.2byte	0x27e
 1535 06ab EF000000 		.4byte	0xef
ARM GAS  /var/folders/vd/czx34qs52cd_f3nb04sxmghc0000gn/T//ccI0nIfk.s 			page 28


 1536 06af 64       		.byte	0x64
 1537 06b0 0B       		.uleb128 0xb
 1538 06b1 A1020000 		.4byte	.LASF106
 1539 06b5 0B       		.byte	0xb
 1540 06b6 7F02     		.2byte	0x27f
 1541 06b8 7C040000 		.4byte	0x47c
 1542 06bc 68       		.byte	0x68
 1543 06bd 0B       		.uleb128 0xb
 1544 06be B6030000 		.4byte	.LASF107
 1545 06c2 0B       		.byte	0xb
 1546 06c3 8002     		.2byte	0x280
 1547 06c5 EF000000 		.4byte	0xef
 1548 06c9 70       		.byte	0x70
 1549 06ca 0A       		.uleb128 0xa
 1550 06cb 43535200 		.ascii	"CSR\000"
 1551 06cf 0B       		.byte	0xb
 1552 06d0 8102     		.2byte	0x281
 1553 06d2 EF000000 		.4byte	0xef
 1554 06d6 74       		.byte	0x74
 1555 06d7 0B       		.uleb128 0xb
 1556 06d8 0C030000 		.4byte	.LASF108
 1557 06dc 0B       		.byte	0xb
 1558 06dd 8202     		.2byte	0x282
 1559 06df 7C040000 		.4byte	0x47c
 1560 06e3 78       		.byte	0x78
 1561 06e4 0B       		.uleb128 0xb
 1562 06e5 9A060000 		.4byte	.LASF109
 1563 06e9 0B       		.byte	0xb
 1564 06ea 8302     		.2byte	0x283
 1565 06ec EF000000 		.4byte	0xef
 1566 06f0 80       		.byte	0x80
 1567 06f1 0B       		.uleb128 0xb
 1568 06f2 54000000 		.4byte	.LASF110
 1569 06f6 0B       		.byte	0xb
 1570 06f7 8402     		.2byte	0x284
 1571 06f9 EF000000 		.4byte	0xef
 1572 06fd 84       		.byte	0x84
 1573 06fe 00       		.byte	0
 1574 06ff 16       		.uleb128 0x16
 1575 0700 400A0000 		.4byte	.LASF111
 1576 0704 0B       		.byte	0xb
 1577 0705 8502     		.2byte	0x285
 1578 0707 70050000 		.4byte	0x570
 1579 070b 15       		.uleb128 0x15
 1580 070c 1C       		.byte	0x1c
 1581 070d 0B       		.byte	0xb
 1582 070e 0603     		.2byte	0x306
 1583 0710 6E070000 		.4byte	0x76e
 1584 0714 0A       		.uleb128 0xa
 1585 0715 535200   		.ascii	"SR\000"
 1586 0718 0B       		.byte	0xb
 1587 0719 0803     		.2byte	0x308
 1588 071b EF000000 		.4byte	0xef
 1589 071f 00       		.byte	0
 1590 0720 0A       		.uleb128 0xa
 1591 0721 445200   		.ascii	"DR\000"
 1592 0724 0B       		.byte	0xb
ARM GAS  /var/folders/vd/czx34qs52cd_f3nb04sxmghc0000gn/T//ccI0nIfk.s 			page 29


 1593 0725 0903     		.2byte	0x309
 1594 0727 EF000000 		.4byte	0xef
 1595 072b 04       		.byte	0x4
 1596 072c 0A       		.uleb128 0xa
 1597 072d 42525200 		.ascii	"BRR\000"
 1598 0731 0B       		.byte	0xb
 1599 0732 0A03     		.2byte	0x30a
 1600 0734 EF000000 		.4byte	0xef
 1601 0738 08       		.byte	0x8
 1602 0739 0A       		.uleb128 0xa
 1603 073a 43523100 		.ascii	"CR1\000"
 1604 073e 0B       		.byte	0xb
 1605 073f 0B03     		.2byte	0x30b
 1606 0741 EF000000 		.4byte	0xef
 1607 0745 0C       		.byte	0xc
 1608 0746 0A       		.uleb128 0xa
 1609 0747 43523200 		.ascii	"CR2\000"
 1610 074b 0B       		.byte	0xb
 1611 074c 0C03     		.2byte	0x30c
 1612 074e EF000000 		.4byte	0xef
 1613 0752 10       		.byte	0x10
 1614 0753 0A       		.uleb128 0xa
 1615 0754 43523300 		.ascii	"CR3\000"
 1616 0758 0B       		.byte	0xb
 1617 0759 0D03     		.2byte	0x30d
 1618 075b EF000000 		.4byte	0xef
 1619 075f 14       		.byte	0x14
 1620 0760 0B       		.uleb128 0xb
 1621 0761 B3060000 		.4byte	.LASF112
 1622 0765 0B       		.byte	0xb
 1623 0766 0E03     		.2byte	0x30e
 1624 0768 EF000000 		.4byte	0xef
 1625 076c 18       		.byte	0x18
 1626 076d 00       		.byte	0
 1627 076e 16       		.uleb128 0x16
 1628 076f 84030000 		.4byte	.LASF113
 1629 0773 0B       		.byte	0xb
 1630 0774 0F03     		.2byte	0x30f
 1631 0776 0B070000 		.4byte	0x70b
 1632 077a 04       		.uleb128 0x4
 1633 077b E4010000 		.4byte	.LASF114
 1634 077f 0C       		.byte	0xc
 1635 0780 65       		.byte	0x65
 1636 0781 3E030000 		.4byte	0x33e
 1637 0785 04       		.uleb128 0x4
 1638 0786 79030000 		.4byte	.LASF115
 1639 078a 0C       		.byte	0xc
 1640 078b 6D       		.byte	0x6d
 1641 078c F4000000 		.4byte	0xf4
 1642 0790 07       		.uleb128 0x7
 1643 0791 F30A0000 		.4byte	.LASF116
 1644 0795 04       		.byte	0x4
 1645 0796 0C       		.byte	0xc
 1646 0797 89       		.byte	0x89
 1647 0798 A8070000 		.4byte	0x7a8
 1648 079c 09       		.uleb128 0x9
 1649 079d 737000   		.ascii	"sp\000"
ARM GAS  /var/folders/vd/czx34qs52cd_f3nb04sxmghc0000gn/T//ccI0nIfk.s 			page 30


 1650 07a0 0C       		.byte	0xc
 1651 07a1 8A       		.byte	0x8a
 1652 07a2 24080000 		.4byte	0x824
 1653 07a6 00       		.byte	0
 1654 07a7 00       		.byte	0
 1655 07a8 0D       		.uleb128 0xd
 1656 07a9 56080000 		.4byte	.LASF117
 1657 07ad 24       		.byte	0x24
 1658 07ae 0D       		.byte	0xd
 1659 07af 5901     		.2byte	0x159
 1660 07b1 24080000 		.4byte	0x824
 1661 07b5 0A       		.uleb128 0xa
 1662 07b6 723400   		.ascii	"r4\000"
 1663 07b9 0D       		.byte	0xd
 1664 07ba 6C01     		.2byte	0x16c
 1665 07bc 7A070000 		.4byte	0x77a
 1666 07c0 00       		.byte	0
 1667 07c1 0A       		.uleb128 0xa
 1668 07c2 723500   		.ascii	"r5\000"
 1669 07c5 0D       		.byte	0xd
 1670 07c6 6D01     		.2byte	0x16d
 1671 07c8 7A070000 		.4byte	0x77a
 1672 07cc 04       		.byte	0x4
 1673 07cd 0A       		.uleb128 0xa
 1674 07ce 723600   		.ascii	"r6\000"
 1675 07d1 0D       		.byte	0xd
 1676 07d2 6E01     		.2byte	0x16e
 1677 07d4 7A070000 		.4byte	0x77a
 1678 07d8 08       		.byte	0x8
 1679 07d9 0A       		.uleb128 0xa
 1680 07da 723700   		.ascii	"r7\000"
 1681 07dd 0D       		.byte	0xd
 1682 07de 6F01     		.2byte	0x16f
 1683 07e0 7A070000 		.4byte	0x77a
 1684 07e4 0C       		.byte	0xc
 1685 07e5 0A       		.uleb128 0xa
 1686 07e6 723800   		.ascii	"r8\000"
 1687 07e9 0D       		.byte	0xd
 1688 07ea 7001     		.2byte	0x170
 1689 07ec 7A070000 		.4byte	0x77a
 1690 07f0 10       		.byte	0x10
 1691 07f1 0A       		.uleb128 0xa
 1692 07f2 723900   		.ascii	"r9\000"
 1693 07f5 0D       		.byte	0xd
 1694 07f6 7101     		.2byte	0x171
 1695 07f8 7A070000 		.4byte	0x77a
 1696 07fc 14       		.byte	0x14
 1697 07fd 0A       		.uleb128 0xa
 1698 07fe 72313000 		.ascii	"r10\000"
 1699 0802 0D       		.byte	0xd
 1700 0803 7201     		.2byte	0x172
 1701 0805 7A070000 		.4byte	0x77a
 1702 0809 18       		.byte	0x18
 1703 080a 0A       		.uleb128 0xa
 1704 080b 72313100 		.ascii	"r11\000"
 1705 080f 0D       		.byte	0xd
 1706 0810 7301     		.2byte	0x173
ARM GAS  /var/folders/vd/czx34qs52cd_f3nb04sxmghc0000gn/T//ccI0nIfk.s 			page 31


 1707 0812 7A070000 		.4byte	0x77a
 1708 0816 1C       		.byte	0x1c
 1709 0817 0A       		.uleb128 0xa
 1710 0818 6C7200   		.ascii	"lr\000"
 1711 081b 0D       		.byte	0xd
 1712 081c 7401     		.2byte	0x174
 1713 081e 7A070000 		.4byte	0x77a
 1714 0822 20       		.byte	0x20
 1715 0823 00       		.byte	0
 1716 0824 0C       		.uleb128 0xc
 1717 0825 04       		.byte	0x4
 1718 0826 A8070000 		.4byte	0x7a8
 1719 082a 15       		.uleb128 0x15
 1720 082b 60       		.byte	0x60
 1721 082c 0E       		.byte	0xe
 1722 082d F501     		.2byte	0x1f5
 1723 082f 36090000 		.4byte	0x936
 1724 0833 0A       		.uleb128 0xa
 1725 0834 43523100 		.ascii	"CR1\000"
 1726 0838 0E       		.byte	0xe
 1727 0839 F601     		.2byte	0x1f6
 1728 083b EF000000 		.4byte	0xef
 1729 083f 00       		.byte	0
 1730 0840 0A       		.uleb128 0xa
 1731 0841 43523200 		.ascii	"CR2\000"
 1732 0845 0E       		.byte	0xe
 1733 0846 F701     		.2byte	0x1f7
 1734 0848 EF000000 		.4byte	0xef
 1735 084c 04       		.byte	0x4
 1736 084d 0B       		.uleb128 0xb
 1737 084e 51090000 		.4byte	.LASF118
 1738 0852 0E       		.byte	0xe
 1739 0853 F801     		.2byte	0x1f8
 1740 0855 EF000000 		.4byte	0xef
 1741 0859 08       		.byte	0x8
 1742 085a 0B       		.uleb128 0xb
 1743 085b 8C040000 		.4byte	.LASF119
 1744 085f 0E       		.byte	0xe
 1745 0860 F901     		.2byte	0x1f9
 1746 0862 EF000000 		.4byte	0xef
 1747 0866 0C       		.byte	0xc
 1748 0867 0A       		.uleb128 0xa
 1749 0868 535200   		.ascii	"SR\000"
 1750 086b 0E       		.byte	0xe
 1751 086c FA01     		.2byte	0x1fa
 1752 086e EF000000 		.4byte	0xef
 1753 0872 10       		.byte	0x10
 1754 0873 0A       		.uleb128 0xa
 1755 0874 45475200 		.ascii	"EGR\000"
 1756 0878 0E       		.byte	0xe
 1757 0879 FB01     		.2byte	0x1fb
 1758 087b EF000000 		.4byte	0xef
 1759 087f 14       		.byte	0x14
 1760 0880 0B       		.uleb128 0xb
 1761 0881 5B070000 		.4byte	.LASF120
 1762 0885 0E       		.byte	0xe
 1763 0886 FC01     		.2byte	0x1fc
ARM GAS  /var/folders/vd/czx34qs52cd_f3nb04sxmghc0000gn/T//ccI0nIfk.s 			page 32


 1764 0888 EF000000 		.4byte	0xef
 1765 088c 18       		.byte	0x18
 1766 088d 0B       		.uleb128 0xb
 1767 088e 16030000 		.4byte	.LASF121
 1768 0892 0E       		.byte	0xe
 1769 0893 FD01     		.2byte	0x1fd
 1770 0895 EF000000 		.4byte	0xef
 1771 0899 1C       		.byte	0x1c
 1772 089a 0B       		.uleb128 0xb
 1773 089b 15090000 		.4byte	.LASF122
 1774 089f 0E       		.byte	0xe
 1775 08a0 FE01     		.2byte	0x1fe
 1776 08a2 EF000000 		.4byte	0xef
 1777 08a6 20       		.byte	0x20
 1778 08a7 0A       		.uleb128 0xa
 1779 08a8 434E5400 		.ascii	"CNT\000"
 1780 08ac 0E       		.byte	0xe
 1781 08ad FF01     		.2byte	0x1ff
 1782 08af EF000000 		.4byte	0xef
 1783 08b3 24       		.byte	0x24
 1784 08b4 0A       		.uleb128 0xa
 1785 08b5 50534300 		.ascii	"PSC\000"
 1786 08b9 0E       		.byte	0xe
 1787 08ba 0002     		.2byte	0x200
 1788 08bc EF000000 		.4byte	0xef
 1789 08c0 28       		.byte	0x28
 1790 08c1 0A       		.uleb128 0xa
 1791 08c2 41525200 		.ascii	"ARR\000"
 1792 08c6 0E       		.byte	0xe
 1793 08c7 0102     		.2byte	0x201
 1794 08c9 EF000000 		.4byte	0xef
 1795 08cd 2C       		.byte	0x2c
 1796 08ce 0A       		.uleb128 0xa
 1797 08cf 52435200 		.ascii	"RCR\000"
 1798 08d3 0E       		.byte	0xe
 1799 08d4 0202     		.2byte	0x202
 1800 08d6 EF000000 		.4byte	0xef
 1801 08da 30       		.byte	0x30
 1802 08db 0A       		.uleb128 0xa
 1803 08dc 43435200 		.ascii	"CCR\000"
 1804 08e0 0E       		.byte	0xe
 1805 08e1 0302     		.2byte	0x203
 1806 08e3 6B050000 		.4byte	0x56b
 1807 08e7 34       		.byte	0x34
 1808 08e8 0B       		.uleb128 0xb
 1809 08e9 300B0000 		.4byte	.LASF123
 1810 08ed 0E       		.byte	0xe
 1811 08ee 0402     		.2byte	0x204
 1812 08f0 EF000000 		.4byte	0xef
 1813 08f4 44       		.byte	0x44
 1814 08f5 0A       		.uleb128 0xa
 1815 08f6 44435200 		.ascii	"DCR\000"
 1816 08fa 0E       		.byte	0xe
 1817 08fb 0502     		.2byte	0x205
 1818 08fd EF000000 		.4byte	0xef
 1819 0901 48       		.byte	0x48
 1820 0902 0B       		.uleb128 0xb
ARM GAS  /var/folders/vd/czx34qs52cd_f3nb04sxmghc0000gn/T//ccI0nIfk.s 			page 33


 1821 0903 29010000 		.4byte	.LASF124
 1822 0907 0E       		.byte	0xe
 1823 0908 0602     		.2byte	0x206
 1824 090a EF000000 		.4byte	0xef
 1825 090e 4C       		.byte	0x4c
 1826 090f 0A       		.uleb128 0xa
 1827 0910 4F5200   		.ascii	"OR\000"
 1828 0913 0E       		.byte	0xe
 1829 0914 0702     		.2byte	0x207
 1830 0916 EF000000 		.4byte	0xef
 1831 091a 50       		.byte	0x50
 1832 091b 0B       		.uleb128 0xb
 1833 091c 1C030000 		.4byte	.LASF125
 1834 0920 0E       		.byte	0xe
 1835 0921 0802     		.2byte	0x208
 1836 0923 EF000000 		.4byte	0xef
 1837 0927 54       		.byte	0x54
 1838 0928 0B       		.uleb128 0xb
 1839 0929 B1030000 		.4byte	.LASF126
 1840 092d 0E       		.byte	0xe
 1841 092e 0902     		.2byte	0x209
 1842 0930 56050000 		.4byte	0x556
 1843 0934 58       		.byte	0x58
 1844 0935 00       		.byte	0
 1845 0936 16       		.uleb128 0x16
 1846 0937 41050000 		.4byte	.LASF127
 1847 093b 0E       		.byte	0xe
 1848 093c 0A02     		.2byte	0x20a
 1849 093e 2A080000 		.4byte	0x82a
 1850 0942 17       		.uleb128 0x17
 1851 0943 04       		.byte	0x4
 1852 0944 0F       		.byte	0xf
 1853 0945 38       		.byte	0x38
 1854 0946 57090000 		.4byte	0x957
 1855 094a 08       		.uleb128 0x8
 1856 094b A2070000 		.4byte	.LASF128
 1857 094f 0F       		.byte	0xf
 1858 0950 3C       		.byte	0x3c
 1859 0951 FF000000 		.4byte	0xff
 1860 0955 00       		.byte	0
 1861 0956 00       		.byte	0
 1862 0957 04       		.uleb128 0x4
 1863 0958 E4090000 		.4byte	.LASF129
 1864 095c 0F       		.byte	0xf
 1865 095d 3D       		.byte	0x3d
 1866 095e 42090000 		.4byte	0x942
 1867 0962 18       		.uleb128 0x18
 1868 0963 04       		.byte	0x4
 1869 0964 07       		.byte	0x7
 1870 0965 C6       		.byte	0xc6
 1871 0966 C4090000 		.4byte	0x9c4
 1872 096a 19       		.uleb128 0x19
 1873 096b B40B0000 		.4byte	.LASF130
 1874 096f 07       		.byte	0x7
 1875 0970 CD       		.byte	0xcd
 1876 0971 36010000 		.4byte	0x136
 1877 0975 19       		.uleb128 0x19
ARM GAS  /var/folders/vd/czx34qs52cd_f3nb04sxmghc0000gn/T//ccI0nIfk.s 			page 34


 1878 0976 5A010000 		.4byte	.LASF131
 1879 097a 07       		.byte	0x7
 1880 097b D4       		.byte	0xd4
 1881 097c 36010000 		.4byte	0x136
 1882 0980 19       		.uleb128 0x19
 1883 0981 53030000 		.4byte	.LASF132
 1884 0985 07       		.byte	0x7
 1885 0986 DB       		.byte	0xdb
 1886 0987 3E030000 		.4byte	0x33e
 1887 098b 19       		.uleb128 0x19
 1888 098c 5C020000 		.4byte	.LASF133
 1889 0990 07       		.byte	0x7
 1890 0991 E2       		.byte	0xe2
 1891 0992 C4090000 		.4byte	0x9c4
 1892 0996 19       		.uleb128 0x19
 1893 0997 4E080000 		.4byte	.LASF134
 1894 099b 07       		.byte	0x7
 1895 099c E7       		.byte	0xe7
 1896 099d 36010000 		.4byte	0x136
 1897 09a1 19       		.uleb128 0x19
 1898 09a2 37000000 		.4byte	.LASF135
 1899 09a6 07       		.byte	0x7
 1900 09a7 F0       		.byte	0xf0
 1901 09a8 EF090000 		.4byte	0x9ef
 1902 09ac 19       		.uleb128 0x19
 1903 09ad F2030000 		.4byte	.LASF136
 1904 09b1 07       		.byte	0x7
 1905 09b2 F9       		.byte	0xf9
 1906 09b3 260A0000 		.4byte	0xa26
 1907 09b7 1A       		.uleb128 0x1a
 1908 09b8 41020000 		.4byte	.LASF137
 1909 09bc 07       		.byte	0x7
 1910 09bd 0101     		.2byte	0x101
 1911 09bf 41010000 		.4byte	0x141
 1912 09c3 00       		.byte	0
 1913 09c4 0C       		.uleb128 0xc
 1914 09c5 04       		.byte	0x4
 1915 09c6 56020000 		.4byte	0x256
 1916 09ca 07       		.uleb128 0x7
 1917 09cb A1040000 		.4byte	.LASF138
 1918 09cf 0C       		.byte	0xc
 1919 09d0 10       		.byte	0x10
 1920 09d1 34       		.byte	0x34
 1921 09d2 EF090000 		.4byte	0x9ef
 1922 09d6 08       		.uleb128 0x8
 1923 09d7 25090000 		.4byte	.LASF32
 1924 09db 10       		.byte	0x10
 1925 09dc 35       		.byte	0x35
 1926 09dd 8B020000 		.4byte	0x28b
 1927 09e1 00       		.byte	0
 1928 09e2 09       		.uleb128 0x9
 1929 09e3 636E7400 		.ascii	"cnt\000"
 1930 09e7 10       		.byte	0x10
 1931 09e8 37       		.byte	0x37
 1932 09e9 57010000 		.4byte	0x157
 1933 09ed 08       		.byte	0x8
 1934 09ee 00       		.byte	0
ARM GAS  /var/folders/vd/czx34qs52cd_f3nb04sxmghc0000gn/T//ccI0nIfk.s 			page 35


 1935 09ef 0C       		.uleb128 0xc
 1936 09f0 04       		.byte	0x4
 1937 09f1 CA090000 		.4byte	0x9ca
 1938 09f5 07       		.uleb128 0x7
 1939 09f6 760A0000 		.4byte	.LASF139
 1940 09fa 10       		.byte	0x10
 1941 09fb 11       		.byte	0x11
 1942 09fc 39       		.byte	0x39
 1943 09fd 260A0000 		.4byte	0xa26
 1944 0a01 08       		.uleb128 0x8
 1945 0a02 25090000 		.4byte	.LASF32
 1946 0a06 11       		.byte	0x11
 1947 0a07 3A       		.byte	0x3a
 1948 0a08 8B020000 		.4byte	0x28b
 1949 0a0c 00       		.byte	0
 1950 0a0d 08       		.uleb128 0x8
 1951 0a0e 5F000000 		.4byte	.LASF140
 1952 0a12 11       		.byte	0x11
 1953 0a13 3C       		.byte	0x3c
 1954 0a14 61020000 		.4byte	0x261
 1955 0a18 08       		.byte	0x8
 1956 0a19 08       		.uleb128 0x8
 1957 0a1a 3C0C0000 		.4byte	.LASF51
 1958 0a1e 11       		.byte	0x11
 1959 0a1f 3E       		.byte	0x3e
 1960 0a20 880B0000 		.4byte	0xb88
 1961 0a24 0C       		.byte	0xc
 1962 0a25 00       		.byte	0
 1963 0a26 0C       		.uleb128 0xc
 1964 0a27 04       		.byte	0x4
 1965 0a28 F5090000 		.4byte	0x9f5
 1966 0a2c 0C       		.uleb128 0xc
 1967 0a2d 04       		.byte	0x4
 1968 0a2e 3E0A0000 		.4byte	0xa3e
 1969 0a32 05       		.uleb128 0x5
 1970 0a33 2C0A0000 		.4byte	0xa2c
 1971 0a37 02       		.uleb128 0x2
 1972 0a38 01       		.byte	0x1
 1973 0a39 08       		.byte	0x8
 1974 0a3a 22030000 		.4byte	.LASF141
 1975 0a3e 06       		.uleb128 0x6
 1976 0a3f 370A0000 		.4byte	0xa37
 1977 0a43 0C       		.uleb128 0xc
 1978 0a44 04       		.byte	0x4
 1979 0a45 85070000 		.4byte	0x785
 1980 0a49 0C       		.uleb128 0xc
 1981 0a4a 04       		.byte	0x4
 1982 0a4b 40030000 		.4byte	0x340
 1983 0a4f 1B       		.uleb128 0x1b
 1984 0a50 636800   		.ascii	"ch\000"
 1985 0a53 07       		.byte	0x7
 1986 0a54 C701     		.2byte	0x1c7
 1987 0a56 0D040000 		.4byte	0x40d
 1988 0a5a 11       		.uleb128 0x11
 1989 0a5b 85070000 		.4byte	0x785
 1990 0a5f 650A0000 		.4byte	0xa65
 1991 0a63 1C       		.uleb128 0x1c
ARM GAS  /var/folders/vd/czx34qs52cd_f3nb04sxmghc0000gn/T//ccI0nIfk.s 			page 36


 1992 0a64 00       		.byte	0
 1993 0a65 13       		.uleb128 0x13
 1994 0a66 D6040000 		.4byte	.LASF142
 1995 0a6a 12       		.byte	0x12
 1996 0a6b 1701     		.2byte	0x117
 1997 0a6d 5A0A0000 		.4byte	0xa5a
 1998 0a71 17       		.uleb128 0x17
 1999 0a72 16       		.byte	0x16
 2000 0a73 13       		.byte	0x13
 2001 0a74 34       		.byte	0x34
 2002 0a75 520B0000 		.4byte	0xb52
 2003 0a79 08       		.uleb128 0x8
 2004 0a7a 760C0000 		.4byte	.LASF143
 2005 0a7e 13       		.byte	0x13
 2006 0a7f 35       		.byte	0x35
 2007 0a80 520B0000 		.4byte	0xb52
 2008 0a84 00       		.byte	0
 2009 0a85 08       		.uleb128 0x8
 2010 0a86 B6010000 		.4byte	.LASF144
 2011 0a8a 13       		.byte	0x13
 2012 0a8b 36       		.byte	0x36
 2013 0a8c B9000000 		.4byte	0xb9
 2014 0a90 04       		.byte	0x4
 2015 0a91 08       		.uleb128 0x8
 2016 0a92 BA080000 		.4byte	.LASF145
 2017 0a96 13       		.byte	0x13
 2018 0a97 37       		.byte	0x37
 2019 0a98 B9000000 		.4byte	0xb9
 2020 0a9c 05       		.byte	0x5
 2021 0a9d 08       		.uleb128 0x8
 2022 0a9e 5D090000 		.4byte	.LASF146
 2023 0aa2 13       		.byte	0x13
 2024 0aa3 38       		.byte	0x38
 2025 0aa4 C9000000 		.4byte	0xc9
 2026 0aa8 06       		.byte	0x6
 2027 0aa9 08       		.uleb128 0x8
 2028 0aaa A9030000 		.4byte	.LASF147
 2029 0aae 13       		.byte	0x13
 2030 0aaf 39       		.byte	0x39
 2031 0ab0 B9000000 		.4byte	0xb9
 2032 0ab4 08       		.byte	0x8
 2033 0ab5 08       		.uleb128 0x8
 2034 0ab6 FB0B0000 		.4byte	.LASF148
 2035 0aba 13       		.byte	0x13
 2036 0abb 3A       		.byte	0x3a
 2037 0abc B9000000 		.4byte	0xb9
 2038 0ac0 09       		.byte	0x9
 2039 0ac1 08       		.uleb128 0x8
 2040 0ac2 81040000 		.4byte	.LASF149
 2041 0ac6 13       		.byte	0x13
 2042 0ac7 3B       		.byte	0x3b
 2043 0ac8 B9000000 		.4byte	0xb9
 2044 0acc 0A       		.byte	0xa
 2045 0acd 08       		.uleb128 0x8
 2046 0ace 27000000 		.4byte	.LASF150
 2047 0ad2 13       		.byte	0x13
 2048 0ad3 3C       		.byte	0x3c
ARM GAS  /var/folders/vd/czx34qs52cd_f3nb04sxmghc0000gn/T//ccI0nIfk.s 			page 37


 2049 0ad4 B9000000 		.4byte	0xb9
 2050 0ad8 0B       		.byte	0xb
 2051 0ad9 08       		.uleb128 0x8
 2052 0ada 00000000 		.4byte	.LASF151
 2053 0ade 13       		.byte	0x13
 2054 0adf 3D       		.byte	0x3d
 2055 0ae0 B9000000 		.4byte	0xb9
 2056 0ae4 0C       		.byte	0xc
 2057 0ae5 08       		.uleb128 0x8
 2058 0ae6 29070000 		.4byte	.LASF152
 2059 0aea 13       		.byte	0x13
 2060 0aeb 3E       		.byte	0x3e
 2061 0aec B9000000 		.4byte	0xb9
 2062 0af0 0D       		.byte	0xd
 2063 0af1 08       		.uleb128 0x8
 2064 0af2 3E010000 		.4byte	.LASF153
 2065 0af6 13       		.byte	0x13
 2066 0af7 3F       		.byte	0x3f
 2067 0af8 B9000000 		.4byte	0xb9
 2068 0afc 0E       		.byte	0xe
 2069 0afd 08       		.uleb128 0x8
 2070 0afe E8080000 		.4byte	.LASF154
 2071 0b02 13       		.byte	0x13
 2072 0b03 40       		.byte	0x40
 2073 0b04 B9000000 		.4byte	0xb9
 2074 0b08 0F       		.byte	0xf
 2075 0b09 08       		.uleb128 0x8
 2076 0b0a 5A050000 		.4byte	.LASF155
 2077 0b0e 13       		.byte	0x13
 2078 0b0f 41       		.byte	0x41
 2079 0b10 B9000000 		.4byte	0xb9
 2080 0b14 10       		.byte	0x10
 2081 0b15 08       		.uleb128 0x8
 2082 0b16 65040000 		.4byte	.LASF156
 2083 0b1a 13       		.byte	0x13
 2084 0b1b 42       		.byte	0x42
 2085 0b1c B9000000 		.4byte	0xb9
 2086 0b20 11       		.byte	0x11
 2087 0b21 08       		.uleb128 0x8
 2088 0b22 2B0C0000 		.4byte	.LASF157
 2089 0b26 13       		.byte	0x13
 2090 0b27 43       		.byte	0x43
 2091 0b28 B9000000 		.4byte	0xb9
 2092 0b2c 12       		.byte	0x12
 2093 0b2d 08       		.uleb128 0x8
 2094 0b2e 65030000 		.4byte	.LASF158
 2095 0b32 13       		.byte	0x13
 2096 0b33 44       		.byte	0x44
 2097 0b34 B9000000 		.4byte	0xb9
 2098 0b38 13       		.byte	0x13
 2099 0b39 08       		.uleb128 0x8
 2100 0b3a 48000000 		.4byte	.LASF159
 2101 0b3e 13       		.byte	0x13
 2102 0b3f 45       		.byte	0x45
 2103 0b40 B9000000 		.4byte	0xb9
 2104 0b44 14       		.byte	0x14
 2105 0b45 08       		.uleb128 0x8
ARM GAS  /var/folders/vd/czx34qs52cd_f3nb04sxmghc0000gn/T//ccI0nIfk.s 			page 38


 2106 0b46 BB030000 		.4byte	.LASF160
 2107 0b4a 13       		.byte	0x13
 2108 0b4b 46       		.byte	0x46
 2109 0b4c B9000000 		.4byte	0xb9
 2110 0b50 15       		.byte	0x15
 2111 0b51 00       		.byte	0
 2112 0b52 11       		.uleb128 0x11
 2113 0b53 370A0000 		.4byte	0xa37
 2114 0b57 620B0000 		.4byte	0xb62
 2115 0b5b 12       		.uleb128 0x12
 2116 0b5c 25000000 		.4byte	0x25
 2117 0b60 03       		.byte	0x3
 2118 0b61 00       		.byte	0
 2119 0b62 04       		.uleb128 0x4
 2120 0b63 E20B0000 		.4byte	.LASF161
 2121 0b67 13       		.byte	0x13
 2122 0b68 47       		.byte	0x47
 2123 0b69 710A0000 		.4byte	0xa71
 2124 0b6d 06       		.uleb128 0x6
 2125 0b6e 620B0000 		.4byte	0xb62
 2126 0b72 14       		.uleb128 0x14
 2127 0b73 6D000000 		.4byte	.LASF162
 2128 0b77 13       		.byte	0x13
 2129 0b78 6C       		.byte	0x6c
 2130 0b79 6D0B0000 		.4byte	0xb6d
 2131 0b7d 04       		.uleb128 0x4
 2132 0b7e E30A0000 		.4byte	.LASF163
 2133 0b82 11       		.byte	0x11
 2134 0b83 34       		.byte	0x34
 2135 0b84 F5090000 		.4byte	0x9f5
 2136 0b88 0C       		.uleb128 0xc
 2137 0b89 04       		.byte	0x4
 2138 0b8a 7D0B0000 		.4byte	0xb7d
 2139 0b8e 04       		.uleb128 0x4
 2140 0b8f 98030000 		.4byte	.LASF164
 2141 0b93 14       		.byte	0x14
 2142 0b94 34       		.byte	0x34
 2143 0b95 990B0000 		.4byte	0xb99
 2144 0b99 07       		.uleb128 0x7
 2145 0b9a A50B0000 		.4byte	.LASF165
 2146 0b9e 14       		.byte	0x14
 2147 0b9f 14       		.byte	0x14
 2148 0ba0 39       		.byte	0x39
 2149 0ba1 E20B0000 		.4byte	0xbe2
 2150 0ba5 08       		.uleb128 0x8
 2151 0ba6 3C0C0000 		.4byte	.LASF51
 2152 0baa 14       		.byte	0x14
 2153 0bab 3A       		.byte	0x3a
 2154 0bac E20B0000 		.4byte	0xbe2
 2155 0bb0 00       		.byte	0
 2156 0bb1 08       		.uleb128 0x8
 2157 0bb2 080A0000 		.4byte	.LASF166
 2158 0bb6 14       		.byte	0x14
 2159 0bb7 3D       		.byte	0x3d
 2160 0bb8 61020000 		.4byte	0x261
 2161 0bbc 04       		.byte	0x4
 2162 0bbd 08       		.uleb128 0x8
ARM GAS  /var/folders/vd/czx34qs52cd_f3nb04sxmghc0000gn/T//ccI0nIfk.s 			page 39


 2163 0bbe 350C0000 		.4byte	.LASF167
 2164 0bc2 14       		.byte	0x14
 2165 0bc3 3F       		.byte	0x3f
 2166 0bc4 41010000 		.4byte	0x141
 2167 0bc8 08       		.byte	0x8
 2168 0bc9 08       		.uleb128 0x8
 2169 0bca 6E030000 		.4byte	.LASF39
 2170 0bce 14       		.byte	0x14
 2171 0bcf 41       		.byte	0x41
 2172 0bd0 4C010000 		.4byte	0x14c
 2173 0bd4 0C       		.byte	0xc
 2174 0bd5 08       		.uleb128 0x8
 2175 0bd6 22080000 		.4byte	.LASF168
 2176 0bda 14       		.byte	0x14
 2177 0bdb 43       		.byte	0x43
 2178 0bdc 4C010000 		.4byte	0x14c
 2179 0be0 10       		.byte	0x10
 2180 0be1 00       		.byte	0
 2181 0be2 0C       		.uleb128 0xc
 2182 0be3 04       		.byte	0x4
 2183 0be4 8E0B0000 		.4byte	0xb8e
 2184 0be8 07       		.uleb128 0x7
 2185 0be9 560A0000 		.4byte	.LASF169
 2186 0bed 04       		.byte	0x4
 2187 0bee 14       		.byte	0x14
 2188 0bef 4A       		.byte	0x4a
 2189 0bf0 010C0000 		.4byte	0xc01
 2190 0bf4 08       		.uleb128 0x8
 2191 0bf5 3C0C0000 		.4byte	.LASF51
 2192 0bf9 14       		.byte	0x14
 2193 0bfa 4B       		.byte	0x4b
 2194 0bfb E20B0000 		.4byte	0xbe2
 2195 0bff 00       		.byte	0
 2196 0c00 00       		.byte	0
 2197 0c01 04       		.uleb128 0x4
 2198 0c02 DE060000 		.4byte	.LASF170
 2199 0c06 14       		.byte	0x14
 2200 0c07 4E       		.byte	0x4e
 2201 0c08 E80B0000 		.4byte	0xbe8
 2202 0c0c 02       		.uleb128 0x2
 2203 0c0d 01       		.byte	0x1
 2204 0c0e 02       		.byte	0x2
 2205 0c0f FC020000 		.4byte	.LASF171
 2206 0c13 04       		.uleb128 0x4
 2207 0c14 EB070000 		.4byte	.LASF172
 2208 0c18 15       		.byte	0x15
 2209 0c19 4B       		.byte	0x4b
 2210 0c1a 1E0C0000 		.4byte	0xc1e
 2211 0c1e 0C       		.uleb128 0xc
 2212 0c1f 04       		.byte	0x4
 2213 0c20 240C0000 		.4byte	0xc24
 2214 0c24 1D       		.uleb128 0x1d
 2215 0c25 3E030000 		.4byte	0x33e
 2216 0c29 380C0000 		.4byte	0xc38
 2217 0c2d 0F       		.uleb128 0xf
 2218 0c2e 33000000 		.4byte	0x33
 2219 0c32 0F       		.uleb128 0xf
ARM GAS  /var/folders/vd/czx34qs52cd_f3nb04sxmghc0000gn/T//ccI0nIfk.s 			page 40


 2220 0c33 25000000 		.4byte	0x25
 2221 0c37 00       		.byte	0
 2222 0c38 17       		.uleb128 0x17
 2223 0c39 08       		.byte	0x8
 2224 0c3a 15       		.byte	0x15
 2225 0c3b 55       		.byte	0x55
 2226 0c3c 590C0000 		.4byte	0xc59
 2227 0c40 08       		.uleb128 0x8
 2228 0c41 1A040000 		.4byte	.LASF173
 2229 0c45 15       		.byte	0x15
 2230 0c46 59       		.byte	0x59
 2231 0c47 590C0000 		.4byte	0xc59
 2232 0c4b 00       		.byte	0
 2233 0c4c 08       		.uleb128 0x8
 2234 0c4d 30000000 		.4byte	.LASF174
 2235 0c51 15       		.byte	0x15
 2236 0c52 5D       		.byte	0x5d
 2237 0c53 590C0000 		.4byte	0xc59
 2238 0c57 04       		.byte	0x4
 2239 0c58 00       		.byte	0
 2240 0c59 0C       		.uleb128 0xc
 2241 0c5a 04       		.byte	0x4
 2242 0c5b B9000000 		.4byte	0xb9
 2243 0c5f 04       		.uleb128 0x4
 2244 0c60 22020000 		.4byte	.LASF175
 2245 0c64 15       		.byte	0x15
 2246 0c65 5E       		.byte	0x5e
 2247 0c66 380C0000 		.4byte	0xc38
 2248 0c6a 14       		.uleb128 0x14
 2249 0c6b 200C0000 		.4byte	.LASF176
 2250 0c6f 15       		.byte	0x15
 2251 0c70 69       		.byte	0x69
 2252 0c71 5F0C0000 		.4byte	0xc5f
 2253 0c75 07       		.uleb128 0x7
 2254 0c76 67050000 		.4byte	.LASF177
 2255 0c7a 04       		.byte	0x4
 2256 0c7b 16       		.byte	0x16
 2257 0c7c 3C       		.byte	0x3c
 2258 0c7d 8E0C0000 		.4byte	0xc8e
 2259 0c81 08       		.uleb128 0x8
 2260 0c82 3C0C0000 		.4byte	.LASF51
 2261 0c86 16       		.byte	0x16
 2262 0c87 3D       		.byte	0x3d
 2263 0c88 8E0C0000 		.4byte	0xc8e
 2264 0c8c 00       		.byte	0
 2265 0c8d 00       		.byte	0
 2266 0c8e 0C       		.uleb128 0xc
 2267 0c8f 04       		.byte	0x4
 2268 0c90 750C0000 		.4byte	0xc75
 2269 0c94 17       		.uleb128 0x17
 2270 0c95 10       		.byte	0x10
 2271 0c96 16       		.byte	0x16
 2272 0c97 44       		.byte	0x44
 2273 0c98 CD0C0000 		.4byte	0xccd
 2274 0c9c 08       		.uleb128 0x8
 2275 0c9d 3C0C0000 		.4byte	.LASF51
 2276 0ca1 16       		.byte	0x16
ARM GAS  /var/folders/vd/czx34qs52cd_f3nb04sxmghc0000gn/T//ccI0nIfk.s 			page 41


 2277 0ca2 45       		.byte	0x45
 2278 0ca3 8E0C0000 		.4byte	0xc8e
 2279 0ca7 00       		.byte	0
 2280 0ca8 08       		.uleb128 0x8
 2281 0ca9 BE0A0000 		.4byte	.LASF178
 2282 0cad 16       		.byte	0x16
 2283 0cae 46       		.byte	0x46
 2284 0caf 33000000 		.4byte	0x33
 2285 0cb3 04       		.byte	0x4
 2286 0cb4 08       		.uleb128 0x8
 2287 0cb5 ED060000 		.4byte	.LASF179
 2288 0cb9 16       		.byte	0x16
 2289 0cba 48       		.byte	0x48
 2290 0cbb 25000000 		.4byte	0x25
 2291 0cbf 08       		.byte	0x8
 2292 0cc0 08       		.uleb128 0x8
 2293 0cc1 76000000 		.4byte	.LASF180
 2294 0cc5 16       		.byte	0x16
 2295 0cc6 49       		.byte	0x49
 2296 0cc7 130C0000 		.4byte	0xc13
 2297 0ccb 0C       		.byte	0xc
 2298 0ccc 00       		.byte	0
 2299 0ccd 04       		.uleb128 0x4
 2300 0cce 9B090000 		.4byte	.LASF181
 2301 0cd2 16       		.byte	0x16
 2302 0cd3 4B       		.byte	0x4b
 2303 0cd4 940C0000 		.4byte	0xc94
 2304 0cd8 07       		.uleb128 0x7
 2305 0cd9 E2000000 		.4byte	.LASF182
 2306 0cdd 10       		.byte	0x10
 2307 0cde 17       		.byte	0x17
 2308 0cdf 97       		.byte	0x97
 2309 0ce0 090D0000 		.4byte	0xd09
 2310 0ce4 08       		.uleb128 0x8
 2311 0ce5 3C0C0000 		.4byte	.LASF51
 2312 0ce9 17       		.byte	0x17
 2313 0cea 9B       		.byte	0x9b
 2314 0ceb 090D0000 		.4byte	0xd09
 2315 0cef 00       		.byte	0
 2316 0cf0 08       		.uleb128 0x8
 2317 0cf1 20090000 		.4byte	.LASF40
 2318 0cf5 17       		.byte	0x17
 2319 0cf6 9F       		.byte	0x9f
 2320 0cf7 62010000 		.4byte	0x162
 2321 0cfb 04       		.byte	0x4
 2322 0cfc 08       		.uleb128 0x8
 2323 0cfd 030A0000 		.4byte	.LASF36
 2324 0d01 17       		.byte	0x17
 2325 0d02 A1       		.byte	0xa1
 2326 0d03 0F0D0000 		.4byte	0xd0f
 2327 0d07 08       		.byte	0x8
 2328 0d08 00       		.byte	0
 2329 0d09 0C       		.uleb128 0xc
 2330 0d0a 04       		.byte	0x4
 2331 0d0b D80C0000 		.4byte	0xcd8
 2332 0d0f 11       		.uleb128 0x11
 2333 0d10 370A0000 		.4byte	0xa37
ARM GAS  /var/folders/vd/czx34qs52cd_f3nb04sxmghc0000gn/T//ccI0nIfk.s 			page 42


 2334 0d14 1F0D0000 		.4byte	0xd1f
 2335 0d18 12       		.uleb128 0x12
 2336 0d19 25000000 		.4byte	0x25
 2337 0d1d 07       		.byte	0x7
 2338 0d1e 00       		.byte	0
 2339 0d1f 04       		.uleb128 0x4
 2340 0d20 E4030000 		.4byte	.LASF183
 2341 0d24 17       		.byte	0x17
 2342 0d25 A5       		.byte	0xa5
 2343 0d26 D80C0000 		.4byte	0xcd8
 2344 0d2a 07       		.uleb128 0x7
 2345 0d2b 6A0C0000 		.4byte	.LASF184
 2346 0d2f 04       		.byte	0x4
 2347 0d30 17       		.byte	0x17
 2348 0d31 AA       		.byte	0xaa
 2349 0d32 430D0000 		.4byte	0xd43
 2350 0d36 08       		.uleb128 0x8
 2351 0d37 3C0C0000 		.4byte	.LASF51
 2352 0d3b 17       		.byte	0x17
 2353 0d3c AB       		.byte	0xab
 2354 0d3d 430D0000 		.4byte	0xd43
 2355 0d41 00       		.byte	0
 2356 0d42 00       		.byte	0
 2357 0d43 0C       		.uleb128 0xc
 2358 0d44 04       		.byte	0x4
 2359 0d45 1F0D0000 		.4byte	0xd1f
 2360 0d49 04       		.uleb128 0x4
 2361 0d4a A80A0000 		.4byte	.LASF185
 2362 0d4e 17       		.byte	0x17
 2363 0d4f AC       		.byte	0xac
 2364 0d50 2A0D0000 		.4byte	0xd2a
 2365 0d54 0D       		.uleb128 0xd
 2366 0d55 A0060000 		.4byte	.LASF186
 2367 0d59 44       		.byte	0x44
 2368 0d5a 17       		.byte	0x17
 2369 0d5b 1501     		.2byte	0x115
 2370 0d5d CA0D0000 		.4byte	0xdca
 2371 0d61 0A       		.uleb128 0xa
 2372 0d62 6D747800 		.ascii	"mtx\000"
 2373 0d66 17       		.byte	0x17
 2374 0d67 1A01     		.2byte	0x11a
 2375 0d69 7D0B0000 		.4byte	0xb7d
 2376 0d6d 00       		.byte	0
 2377 0d6e 0B       		.uleb128 0xb
 2378 0d6f 20010000 		.4byte	.LASF187
 2379 0d73 17       		.byte	0x17
 2380 0d74 2101     		.2byte	0x121
 2381 0d76 490D0000 		.4byte	0xd49
 2382 0d7a 10       		.byte	0x10
 2383 0d7b 0B       		.uleb128 0xb
 2384 0d7c 09020000 		.4byte	.LASF188
 2385 0d80 17       		.byte	0x17
 2386 0d81 2501     		.2byte	0x125
 2387 0d83 CD0C0000 		.4byte	0xccd
 2388 0d87 14       		.byte	0x14
 2389 0d88 0B       		.uleb128 0xb
 2390 0d89 74080000 		.4byte	.LASF189
ARM GAS  /var/folders/vd/czx34qs52cd_f3nb04sxmghc0000gn/T//ccI0nIfk.s 			page 43


 2391 0d8d 17       		.byte	0x17
 2392 0d8e 2A01     		.2byte	0x12a
 2393 0d90 490D0000 		.4byte	0xd49
 2394 0d94 24       		.byte	0x24
 2395 0d95 0B       		.uleb128 0xb
 2396 0d96 37030000 		.4byte	.LASF190
 2397 0d9a 17       		.byte	0x17
 2398 0d9b 3001     		.2byte	0x130
 2399 0d9d 490D0000 		.4byte	0xd49
 2400 0da1 28       		.byte	0x28
 2401 0da2 0B       		.uleb128 0xb
 2402 0da3 07040000 		.4byte	.LASF191
 2403 0da7 17       		.byte	0x17
 2404 0da8 3401     		.2byte	0x134
 2405 0daa CD0C0000 		.4byte	0xccd
 2406 0dae 2C       		.byte	0x2c
 2407 0daf 0B       		.uleb128 0xb
 2408 0db0 3D090000 		.4byte	.LASF192
 2409 0db4 17       		.byte	0x17
 2410 0db5 3A01     		.2byte	0x13a
 2411 0db7 490D0000 		.4byte	0xd49
 2412 0dbb 3C       		.byte	0x3c
 2413 0dbc 0B       		.uleb128 0xb
 2414 0dbd FB040000 		.4byte	.LASF193
 2415 0dc1 17       		.byte	0x17
 2416 0dc2 4001     		.2byte	0x140
 2417 0dc4 490D0000 		.4byte	0xd49
 2418 0dc8 40       		.byte	0x40
 2419 0dc9 00       		.byte	0
 2420 0dca 16       		.uleb128 0x16
 2421 0dcb 62080000 		.4byte	.LASF194
 2422 0dcf 17       		.byte	0x17
 2423 0dd0 4201     		.2byte	0x142
 2424 0dd2 540D0000 		.4byte	0xd54
 2425 0dd6 13       		.uleb128 0x13
 2426 0dd7 32090000 		.4byte	.LASF195
 2427 0ddb 17       		.byte	0x17
 2428 0ddc 4D01     		.2byte	0x14d
 2429 0dde CA0D0000 		.4byte	0xdca
 2430 0de2 15       		.uleb128 0x15
 2431 0de3 0C       		.byte	0xc
 2432 0de4 18       		.byte	0x18
 2433 0de5 6A01     		.2byte	0x16a
 2434 0de7 2D0E0000 		.4byte	0xe2d
 2435 0deb 0B       		.uleb128 0xb
 2436 0dec 73010000 		.4byte	.LASF196
 2437 0df0 18       		.byte	0x18
 2438 0df1 6B01     		.2byte	0x16b
 2439 0df3 2D0E0000 		.4byte	0xe2d
 2440 0df7 00       		.byte	0
 2441 0df8 0B       		.uleb128 0xb
 2442 0df9 1B0C0000 		.4byte	.LASF197
 2443 0dfd 18       		.byte	0x18
 2444 0dfe 6C01     		.2byte	0x16c
 2445 0e00 330E0000 		.4byte	0xe33
 2446 0e04 04       		.byte	0x4
 2447 0e05 0B       		.uleb128 0xb
ARM GAS  /var/folders/vd/czx34qs52cd_f3nb04sxmghc0000gn/T//ccI0nIfk.s 			page 44


 2448 0e06 27030000 		.4byte	.LASF198
 2449 0e0a 18       		.byte	0x18
 2450 0e0b 6D01     		.2byte	0x16d
 2451 0e0d B9000000 		.4byte	0xb9
 2452 0e11 08       		.byte	0x8
 2453 0e12 0B       		.uleb128 0xb
 2454 0e13 33070000 		.4byte	.LASF199
 2455 0e17 18       		.byte	0x18
 2456 0e18 6F01     		.2byte	0x16f
 2457 0e1a B9000000 		.4byte	0xb9
 2458 0e1e 09       		.byte	0x9
 2459 0e1f 0B       		.uleb128 0xb
 2460 0e20 2B090000 		.4byte	.LASF200
 2461 0e24 18       		.byte	0x18
 2462 0e25 7001     		.2byte	0x170
 2463 0e27 B9000000 		.4byte	0xb9
 2464 0e2b 0A       		.byte	0xa
 2465 0e2c 00       		.byte	0
 2466 0e2d 0C       		.uleb128 0xc
 2467 0e2e 04       		.byte	0x4
 2468 0e2f 3A050000 		.4byte	0x53a
 2469 0e33 0C       		.uleb128 0xc
 2470 0e34 04       		.byte	0x4
 2471 0e35 EF000000 		.4byte	0xef
 2472 0e39 16       		.uleb128 0x16
 2473 0e3a 0D000000 		.4byte	.LASF201
 2474 0e3e 18       		.byte	0x18
 2475 0e3f 7101     		.2byte	0x171
 2476 0e41 E20D0000 		.4byte	0xde2
 2477 0e45 06       		.uleb128 0x6
 2478 0e46 390E0000 		.4byte	0xe39
 2479 0e4a 11       		.uleb128 0x11
 2480 0e4b 450E0000 		.4byte	0xe45
 2481 0e4f 5A0E0000 		.4byte	0xe5a
 2482 0e53 12       		.uleb128 0x12
 2483 0e54 25000000 		.4byte	0x25
 2484 0e58 0F       		.byte	0xf
 2485 0e59 00       		.byte	0
 2486 0e5a 06       		.uleb128 0x6
 2487 0e5b 4A0E0000 		.4byte	0xe4a
 2488 0e5f 13       		.uleb128 0x13
 2489 0e60 E8040000 		.4byte	.LASF202
 2490 0e64 18       		.byte	0x18
 2491 0e65 5C02     		.2byte	0x25c
 2492 0e67 5A0E0000 		.4byte	0xe5a
 2493 0e6b 1D       		.uleb128 0x1d
 2494 0e6c 33000000 		.4byte	0x33
 2495 0e70 840E0000 		.4byte	0xe84
 2496 0e74 0F       		.uleb128 0xf
 2497 0e75 3E030000 		.4byte	0x33e
 2498 0e79 0F       		.uleb128 0xf
 2499 0e7a 840E0000 		.4byte	0xe84
 2500 0e7e 0F       		.uleb128 0xf
 2501 0e7f 33000000 		.4byte	0x33
 2502 0e83 00       		.byte	0
 2503 0e84 0C       		.uleb128 0xc
 2504 0e85 04       		.byte	0x4
ARM GAS  /var/folders/vd/czx34qs52cd_f3nb04sxmghc0000gn/T//ccI0nIfk.s 			page 45


 2505 0e86 C4000000 		.4byte	0xc4
 2506 0e8a 0C       		.uleb128 0xc
 2507 0e8b 04       		.byte	0x4
 2508 0e8c 6B0E0000 		.4byte	0xe6b
 2509 0e90 1D       		.uleb128 0x1d
 2510 0e91 33000000 		.4byte	0x33
 2511 0e95 A90E0000 		.4byte	0xea9
 2512 0e99 0F       		.uleb128 0xf
 2513 0e9a 3E030000 		.4byte	0x33e
 2514 0e9e 0F       		.uleb128 0xf
 2515 0e9f 590C0000 		.4byte	0xc59
 2516 0ea3 0F       		.uleb128 0xf
 2517 0ea4 33000000 		.4byte	0x33
 2518 0ea8 00       		.byte	0
 2519 0ea9 0C       		.uleb128 0xc
 2520 0eaa 04       		.byte	0x4
 2521 0eab 900E0000 		.4byte	0xe90
 2522 0eaf 1D       		.uleb128 0x1d
 2523 0eb0 36010000 		.4byte	0x136
 2524 0eb4 C30E0000 		.4byte	0xec3
 2525 0eb8 0F       		.uleb128 0xf
 2526 0eb9 3E030000 		.4byte	0x33e
 2527 0ebd 0F       		.uleb128 0xf
 2528 0ebe B9000000 		.4byte	0xb9
 2529 0ec2 00       		.byte	0
 2530 0ec3 0C       		.uleb128 0xc
 2531 0ec4 04       		.byte	0x4
 2532 0ec5 AF0E0000 		.4byte	0xeaf
 2533 0ec9 1D       		.uleb128 0x1d
 2534 0eca 36010000 		.4byte	0x136
 2535 0ece D80E0000 		.4byte	0xed8
 2536 0ed2 0F       		.uleb128 0xf
 2537 0ed3 3E030000 		.4byte	0x33e
 2538 0ed7 00       		.byte	0
 2539 0ed8 0C       		.uleb128 0xc
 2540 0ed9 04       		.byte	0x4
 2541 0eda C90E0000 		.4byte	0xec9
 2542 0ede 1D       		.uleb128 0x1d
 2543 0edf 36010000 		.4byte	0x136
 2544 0ee3 F70E0000 		.4byte	0xef7
 2545 0ee7 0F       		.uleb128 0xf
 2546 0ee8 3E030000 		.4byte	0x33e
 2547 0eec 0F       		.uleb128 0xf
 2548 0eed B9000000 		.4byte	0xb9
 2549 0ef1 0F       		.uleb128 0xf
 2550 0ef2 71040000 		.4byte	0x471
 2551 0ef6 00       		.byte	0
 2552 0ef7 0C       		.uleb128 0xc
 2553 0ef8 04       		.byte	0x4
 2554 0ef9 DE0E0000 		.4byte	0xede
 2555 0efd 1D       		.uleb128 0x1d
 2556 0efe 36010000 		.4byte	0x136
 2557 0f02 110F0000 		.4byte	0xf11
 2558 0f06 0F       		.uleb128 0xf
 2559 0f07 3E030000 		.4byte	0x33e
 2560 0f0b 0F       		.uleb128 0xf
 2561 0f0c 71040000 		.4byte	0x471
ARM GAS  /var/folders/vd/czx34qs52cd_f3nb04sxmghc0000gn/T//ccI0nIfk.s 			page 46


 2562 0f10 00       		.byte	0
 2563 0f11 0C       		.uleb128 0xc
 2564 0f12 04       		.byte	0x4
 2565 0f13 FD0E0000 		.4byte	0xefd
 2566 0f17 1D       		.uleb128 0x1d
 2567 0f18 33000000 		.4byte	0x33
 2568 0f1c 350F0000 		.4byte	0xf35
 2569 0f20 0F       		.uleb128 0xf
 2570 0f21 3E030000 		.4byte	0x33e
 2571 0f25 0F       		.uleb128 0xf
 2572 0f26 840E0000 		.4byte	0xe84
 2573 0f2a 0F       		.uleb128 0xf
 2574 0f2b 33000000 		.4byte	0x33
 2575 0f2f 0F       		.uleb128 0xf
 2576 0f30 71040000 		.4byte	0x471
 2577 0f34 00       		.byte	0
 2578 0f35 0C       		.uleb128 0xc
 2579 0f36 04       		.byte	0x4
 2580 0f37 170F0000 		.4byte	0xf17
 2581 0f3b 1D       		.uleb128 0x1d
 2582 0f3c 33000000 		.4byte	0x33
 2583 0f40 590F0000 		.4byte	0xf59
 2584 0f44 0F       		.uleb128 0xf
 2585 0f45 3E030000 		.4byte	0x33e
 2586 0f49 0F       		.uleb128 0xf
 2587 0f4a 590C0000 		.4byte	0xc59
 2588 0f4e 0F       		.uleb128 0xf
 2589 0f4f 33000000 		.4byte	0x33
 2590 0f53 0F       		.uleb128 0xf
 2591 0f54 71040000 		.4byte	0x471
 2592 0f58 00       		.byte	0
 2593 0f59 0C       		.uleb128 0xc
 2594 0f5a 04       		.byte	0x4
 2595 0f5b 3B0F0000 		.4byte	0xf3b
 2596 0f5f 1D       		.uleb128 0x1d
 2597 0f60 36010000 		.4byte	0x136
 2598 0f64 780F0000 		.4byte	0xf78
 2599 0f68 0F       		.uleb128 0xf
 2600 0f69 3E030000 		.4byte	0x33e
 2601 0f6d 0F       		.uleb128 0xf
 2602 0f6e 25000000 		.4byte	0x25
 2603 0f72 0F       		.uleb128 0xf
 2604 0f73 3E030000 		.4byte	0x33e
 2605 0f77 00       		.byte	0
 2606 0f78 0C       		.uleb128 0xc
 2607 0f79 04       		.byte	0x4
 2608 0f7a 5F0F0000 		.4byte	0xf5f
 2609 0f7e 04       		.uleb128 0x4
 2610 0f7f B30A0000 		.4byte	.LASF203
 2611 0f83 19       		.byte	0x19
 2612 0f84 3A       		.byte	0x3a
 2613 0f85 890F0000 		.4byte	0xf89
 2614 0f89 07       		.uleb128 0x7
 2615 0f8a 2C020000 		.4byte	.LASF204
 2616 0f8e 24       		.byte	0x24
 2617 0f8f 19       		.byte	0x19
 2618 0f90 4B       		.byte	0x4b
ARM GAS  /var/folders/vd/czx34qs52cd_f3nb04sxmghc0000gn/T//ccI0nIfk.s 			page 47


 2619 0f91 F60F0000 		.4byte	0xff6
 2620 0f95 08       		.uleb128 0x8
 2621 0f96 A9090000 		.4byte	.LASF205
 2622 0f9a 19       		.byte	0x19
 2623 0f9b 4C       		.byte	0x4c
 2624 0f9c 8B020000 		.4byte	0x28b
 2625 0fa0 00       		.byte	0
 2626 0fa1 08       		.uleb128 0x8
 2627 0fa2 48040000 		.4byte	.LASF206
 2628 0fa6 19       		.byte	0x19
 2629 0fa7 4D       		.byte	0x4d
 2630 0fa8 3E000000 		.4byte	0x3e
 2631 0fac 08       		.byte	0x8
 2632 0fad 08       		.uleb128 0x8
 2633 0fae 8A010000 		.4byte	.LASF207
 2634 0fb2 19       		.byte	0x19
 2635 0fb3 4E       		.byte	0x4e
 2636 0fb4 590C0000 		.4byte	0xc59
 2637 0fb8 0C       		.byte	0xc
 2638 0fb9 08       		.uleb128 0x8
 2639 0fba 6D010000 		.4byte	.LASF208
 2640 0fbe 19       		.byte	0x19
 2641 0fbf 4F       		.byte	0x4f
 2642 0fc0 590C0000 		.4byte	0xc59
 2643 0fc4 10       		.byte	0x10
 2644 0fc5 08       		.uleb128 0x8
 2645 0fc6 BB0B0000 		.4byte	.LASF209
 2646 0fca 19       		.byte	0x19
 2647 0fcb 51       		.byte	0x51
 2648 0fcc 590C0000 		.4byte	0xc59
 2649 0fd0 14       		.byte	0x14
 2650 0fd1 08       		.uleb128 0x8
 2651 0fd2 AE010000 		.4byte	.LASF210
 2652 0fd6 19       		.byte	0x19
 2653 0fd7 52       		.byte	0x52
 2654 0fd8 590C0000 		.4byte	0xc59
 2655 0fdc 18       		.byte	0x18
 2656 0fdd 08       		.uleb128 0x8
 2657 0fde 93010000 		.4byte	.LASF211
 2658 0fe2 19       		.byte	0x19
 2659 0fe3 53       		.byte	0x53
 2660 0fe4 F60F0000 		.4byte	0xff6
 2661 0fe8 1C       		.byte	0x1c
 2662 0fe9 08       		.uleb128 0x8
 2663 0fea ED010000 		.4byte	.LASF212
 2664 0fee 19       		.byte	0x19
 2665 0fef 54       		.byte	0x54
 2666 0ff0 3E030000 		.4byte	0x33e
 2667 0ff4 20       		.byte	0x20
 2668 0ff5 00       		.byte	0
 2669 0ff6 04       		.uleb128 0x4
 2670 0ff7 14070000 		.4byte	.LASF213
 2671 0ffb 19       		.byte	0x19
 2672 0ffc 41       		.byte	0x41
 2673 0ffd 01100000 		.4byte	0x1001
 2674 1001 0C       		.uleb128 0xc
 2675 1002 04       		.byte	0x4
ARM GAS  /var/folders/vd/czx34qs52cd_f3nb04sxmghc0000gn/T//ccI0nIfk.s 			page 48


 2676 1003 07100000 		.4byte	0x1007
 2677 1007 0E       		.uleb128 0xe
 2678 1008 12100000 		.4byte	0x1012
 2679 100c 0F       		.uleb128 0xf
 2680 100d 12100000 		.4byte	0x1012
 2681 1011 00       		.byte	0
 2682 1012 0C       		.uleb128 0xc
 2683 1013 04       		.byte	0x4
 2684 1014 7E0F0000 		.4byte	0xf7e
 2685 1018 04       		.uleb128 0x4
 2686 1019 890B0000 		.4byte	.LASF214
 2687 101d 19       		.byte	0x19
 2688 101e 61       		.byte	0x61
 2689 101f 7E0F0000 		.4byte	0xf7e
 2690 1023 04       		.uleb128 0x4
 2691 1024 EC0B0000 		.4byte	.LASF215
 2692 1028 19       		.byte	0x19
 2693 1029 6D       		.byte	0x6d
 2694 102a 7E0F0000 		.4byte	0xf7e
 2695 102e 1E       		.uleb128 0x1e
 2696 102f 00       		.byte	0
 2697 1030 1A       		.byte	0x1a
 2698 1031 99       		.byte	0x99
 2699 1032 04       		.uleb128 0x4
 2700 1033 5A030000 		.4byte	.LASF216
 2701 1037 1A       		.byte	0x1a
 2702 1038 AA       		.byte	0xaa
 2703 1039 2E100000 		.4byte	0x102e
 2704 103d 11       		.uleb128 0x11
 2705 103e 32100000 		.4byte	0x1032
 2706 1042 4D100000 		.4byte	0x104d
 2707 1046 12       		.uleb128 0x12
 2708 1047 25000000 		.4byte	0x25
 2709 104b 0F       		.byte	0xf
 2710 104c 00       		.byte	0
 2711 104d 13       		.uleb128 0x13
 2712 104e F8070000 		.4byte	.LASF217
 2713 1052 1B       		.byte	0x1b
 2714 1053 DA01     		.2byte	0x1da
 2715 1055 3D100000 		.4byte	0x103d
 2716 1059 1F       		.uleb128 0x1f
 2717 105a 07       		.byte	0x7
 2718 105b 01       		.byte	0x1
 2719 105c 63000000 		.4byte	0x63
 2720 1060 1C       		.byte	0x1c
 2721 1061 4A       		.byte	0x4a
 2722 1062 79100000 		.4byte	0x1079
 2723 1066 20       		.uleb128 0x20
 2724 1067 33010000 		.4byte	.LASF218
 2725 106b 00       		.byte	0
 2726 106c 20       		.uleb128 0x20
 2727 106d D6080000 		.4byte	.LASF219
 2728 1071 01       		.byte	0x1
 2729 1072 20       		.uleb128 0x20
 2730 1073 360A0000 		.4byte	.LASF220
 2731 1077 02       		.byte	0x2
 2732 1078 00       		.byte	0
ARM GAS  /var/folders/vd/czx34qs52cd_f3nb04sxmghc0000gn/T//ccI0nIfk.s 			page 49


 2733 1079 04       		.uleb128 0x4
 2734 107a 1F0B0000 		.4byte	.LASF221
 2735 107e 1C       		.byte	0x1c
 2736 107f 4E       		.byte	0x4e
 2737 1080 59100000 		.4byte	0x1059
 2738 1084 04       		.uleb128 0x4
 2739 1085 98070000 		.4byte	.LASF222
 2740 1089 1C       		.byte	0x1c
 2741 108a 53       		.byte	0x53
 2742 108b 8F100000 		.4byte	0x108f
 2743 108f 0D       		.uleb128 0xd
 2744 1090 98070000 		.4byte	.LASF222
 2745 1094 1C       		.byte	0x1c
 2746 1095 1D       		.byte	0x1d
 2747 1096 B201     		.2byte	0x1b2
 2748 1098 F8100000 		.4byte	0x10f8
 2749 109c 0B       		.uleb128 0xb
 2750 109d 04010000 		.4byte	.LASF38
 2751 10a1 1D       		.byte	0x1d
 2752 10a2 B601     		.2byte	0x1b6
 2753 10a4 79100000 		.4byte	0x1079
 2754 10a8 00       		.byte	0
 2755 10a9 0B       		.uleb128 0xb
 2756 10aa FD000000 		.4byte	.LASF223
 2757 10ae 1D       		.byte	0x1d
 2758 10af BA01     		.2byte	0x1ba
 2759 10b1 F3110000 		.4byte	0x11f3
 2760 10b5 04       		.byte	0x4
 2761 10b6 0B       		.uleb128 0xb
 2762 10b7 56090000 		.4byte	.LASF224
 2763 10bb 1D       		.byte	0x1d
 2764 10bc BE01     		.2byte	0x1be
 2765 10be 3E110000 		.4byte	0x113e
 2766 10c2 08       		.byte	0x8
 2767 10c3 0B       		.uleb128 0xb
 2768 10c4 52040000 		.4byte	.LASF225
 2769 10c8 1D       		.byte	0x1d
 2770 10c9 C201     		.2byte	0x1c2
 2771 10cb 32110000 		.4byte	0x1132
 2772 10cf 0C       		.byte	0xc
 2773 10d0 0B       		.uleb128 0xb
 2774 10d1 52070000 		.4byte	.LASF226
 2775 10d5 1D       		.byte	0x1d
 2776 10d6 C601     		.2byte	0x1c6
 2777 10d8 26110000 		.4byte	0x1126
 2778 10dc 10       		.byte	0x10
 2779 10dd 0B       		.uleb128 0xb
 2780 10de 54050000 		.4byte	.LASF227
 2781 10e2 1D       		.byte	0x1d
 2782 10e3 CE01     		.2byte	0x1ce
 2783 10e5 E4000000 		.4byte	0xe4
 2784 10e9 14       		.byte	0x14
 2785 10ea 0A       		.uleb128 0xa
 2786 10eb 74696D00 		.ascii	"tim\000"
 2787 10ef 1D       		.byte	0x1d
 2788 10f0 D201     		.2byte	0x1d2
 2789 10f2 F9110000 		.4byte	0x11f9
ARM GAS  /var/folders/vd/czx34qs52cd_f3nb04sxmghc0000gn/T//ccI0nIfk.s 			page 50


 2790 10f6 18       		.byte	0x18
 2791 10f7 00       		.byte	0
 2792 10f8 04       		.uleb128 0x4
 2793 10f9 6F070000 		.4byte	.LASF228
 2794 10fd 1C       		.byte	0x1c
 2795 10fe 5A       		.byte	0x5a
 2796 10ff 03110000 		.4byte	0x1103
 2797 1103 0C       		.uleb128 0xc
 2798 1104 04       		.byte	0x4
 2799 1105 09110000 		.4byte	0x1109
 2800 1109 0E       		.uleb128 0xe
 2801 110a 14110000 		.4byte	0x1114
 2802 110e 0F       		.uleb128 0xf
 2803 110f 14110000 		.4byte	0x1114
 2804 1113 00       		.byte	0
 2805 1114 0C       		.uleb128 0xc
 2806 1115 04       		.byte	0x4
 2807 1116 84100000 		.4byte	0x1084
 2808 111a 16       		.uleb128 0x16
 2809 111b C4030000 		.4byte	.LASF229
 2810 111f 1D       		.byte	0x1d
 2811 1120 5E01     		.2byte	0x15e
 2812 1122 E4000000 		.4byte	0xe4
 2813 1126 16       		.uleb128 0x16
 2814 1127 F4010000 		.4byte	.LASF230
 2815 112b 1D       		.byte	0x1d
 2816 112c 6301     		.2byte	0x163
 2817 112e B9000000 		.4byte	0xb9
 2818 1132 16       		.uleb128 0x16
 2819 1133 F1000000 		.4byte	.LASF231
 2820 1137 1D       		.byte	0x1d
 2821 1138 6801     		.2byte	0x168
 2822 113a E4000000 		.4byte	0xe4
 2823 113e 16       		.uleb128 0x16
 2824 113f 62020000 		.4byte	.LASF232
 2825 1143 1D       		.byte	0x1d
 2826 1144 6D01     		.2byte	0x16d
 2827 1146 E4000000 		.4byte	0xe4
 2828 114a 15       		.uleb128 0x15
 2829 114b 08       		.byte	0x8
 2830 114c 1D       		.byte	0x1d
 2831 114d 7201     		.2byte	0x172
 2832 114f 6E110000 		.4byte	0x116e
 2833 1153 0B       		.uleb128 0xb
 2834 1154 6C0A0000 		.4byte	.LASF233
 2835 1158 1D       		.byte	0x1d
 2836 1159 7601     		.2byte	0x176
 2837 115b 1A110000 		.4byte	0x111a
 2838 115f 00       		.byte	0
 2839 1160 0B       		.uleb128 0xb
 2840 1161 9C010000 		.4byte	.LASF234
 2841 1165 1D       		.byte	0x1d
 2842 1166 7C01     		.2byte	0x17c
 2843 1168 F8100000 		.4byte	0x10f8
 2844 116c 04       		.byte	0x4
 2845 116d 00       		.byte	0
 2846 116e 16       		.uleb128 0x16
ARM GAS  /var/folders/vd/czx34qs52cd_f3nb04sxmghc0000gn/T//ccI0nIfk.s 			page 51


 2847 116f 0F010000 		.4byte	.LASF235
 2848 1173 1D       		.byte	0x1d
 2849 1174 7E01     		.2byte	0x17e
 2850 1176 4A110000 		.4byte	0x114a
 2851 117a 15       		.uleb128 0x15
 2852 117b 34       		.byte	0x34
 2853 117c 1D       		.byte	0x1d
 2854 117d 8301     		.2byte	0x183
 2855 117f D2110000 		.4byte	0x11d2
 2856 1183 0B       		.uleb128 0xb
 2857 1184 00070000 		.4byte	.LASF236
 2858 1188 1D       		.byte	0x1d
 2859 1189 8901     		.2byte	0x189
 2860 118b E4000000 		.4byte	0xe4
 2861 118f 00       		.byte	0
 2862 1190 0B       		.uleb128 0xb
 2863 1191 56090000 		.4byte	.LASF224
 2864 1195 1D       		.byte	0x1d
 2865 1196 8F01     		.2byte	0x18f
 2866 1198 3E110000 		.4byte	0x113e
 2867 119c 04       		.byte	0x4
 2868 119d 0B       		.uleb128 0xb
 2869 119e 9C010000 		.4byte	.LASF234
 2870 11a2 1D       		.byte	0x1d
 2871 11a3 9501     		.2byte	0x195
 2872 11a5 F8100000 		.4byte	0x10f8
 2873 11a9 08       		.byte	0x8
 2874 11aa 0B       		.uleb128 0xb
 2875 11ab 52070000 		.4byte	.LASF226
 2876 11af 1D       		.byte	0x1d
 2877 11b0 9901     		.2byte	0x199
 2878 11b2 D2110000 		.4byte	0x11d2
 2879 11b6 0C       		.byte	0xc
 2880 11b7 0A       		.uleb128 0xa
 2881 11b8 63723200 		.ascii	"cr2\000"
 2882 11bc 1D       		.byte	0x1d
 2883 11bd 9F01     		.2byte	0x19f
 2884 11bf E4000000 		.4byte	0xe4
 2885 11c3 2C       		.byte	0x2c
 2886 11c4 0B       		.uleb128 0xb
 2887 11c5 2E010000 		.4byte	.LASF237
 2888 11c9 1D       		.byte	0x1d
 2889 11ca AC01     		.2byte	0x1ac
 2890 11cc E4000000 		.4byte	0xe4
 2891 11d0 30       		.byte	0x30
 2892 11d1 00       		.byte	0
 2893 11d2 11       		.uleb128 0x11
 2894 11d3 6E110000 		.4byte	0x116e
 2895 11d7 E2110000 		.4byte	0x11e2
 2896 11db 12       		.uleb128 0x12
 2897 11dc 25000000 		.4byte	0x25
 2898 11e0 03       		.byte	0x3
 2899 11e1 00       		.byte	0
 2900 11e2 16       		.uleb128 0x16
 2901 11e3 D90A0000 		.4byte	.LASF238
 2902 11e7 1D       		.byte	0x1d
 2903 11e8 AD01     		.2byte	0x1ad
ARM GAS  /var/folders/vd/czx34qs52cd_f3nb04sxmghc0000gn/T//ccI0nIfk.s 			page 52


 2904 11ea 7A110000 		.4byte	0x117a
 2905 11ee 06       		.uleb128 0x6
 2906 11ef E2110000 		.4byte	0x11e2
 2907 11f3 0C       		.uleb128 0xc
 2908 11f4 04       		.byte	0x4
 2909 11f5 EE110000 		.4byte	0x11ee
 2910 11f9 0C       		.uleb128 0xc
 2911 11fa 04       		.byte	0x4
 2912 11fb 36090000 		.4byte	0x936
 2913 11ff 13       		.uleb128 0x13
 2914 1200 0F0B0000 		.4byte	.LASF239
 2915 1204 1D       		.byte	0x1d
 2916 1205 FD01     		.2byte	0x1fd
 2917 1207 84100000 		.4byte	0x1084
 2918 120b 1F       		.uleb128 0x1f
 2919 120c 07       		.byte	0x7
 2920 120d 01       		.byte	0x1
 2921 120e 63000000 		.4byte	0x63
 2922 1212 1E       		.byte	0x1e
 2923 1213 58       		.byte	0x58
 2924 1214 2B120000 		.4byte	0x122b
 2925 1218 20       		.uleb128 0x20
 2926 1219 F2020000 		.4byte	.LASF240
 2927 121d 00       		.byte	0
 2928 121e 20       		.uleb128 0x20
 2929 121f 0E0C0000 		.4byte	.LASF241
 2930 1223 01       		.byte	0x1
 2931 1224 20       		.uleb128 0x20
 2932 1225 D3090000 		.4byte	.LASF242
 2933 1229 02       		.byte	0x2
 2934 122a 00       		.byte	0
 2935 122b 04       		.uleb128 0x4
 2936 122c C1090000 		.4byte	.LASF243
 2937 1230 1E       		.byte	0x1e
 2938 1231 5C       		.byte	0x5c
 2939 1232 0B120000 		.4byte	0x120b
 2940 1236 04       		.uleb128 0x4
 2941 1237 8E090000 		.4byte	.LASF244
 2942 123b 1E       		.byte	0x1e
 2943 123c 61       		.byte	0x61
 2944 123d 41120000 		.4byte	0x1241
 2945 1241 07       		.uleb128 0x7
 2946 1242 8E090000 		.4byte	.LASF244
 2947 1246 7C       		.byte	0x7c
 2948 1247 1E       		.byte	0x1e
 2949 1248 7B       		.byte	0x7b
 2950 1249 B8120000 		.4byte	0x12b8
 2951 124d 09       		.uleb128 0x9
 2952 124e 766D7400 		.ascii	"vmt\000"
 2953 1252 1E       		.byte	0x1e
 2954 1253 7D       		.byte	0x7d
 2955 1254 4E130000 		.4byte	0x134e
 2956 1258 00       		.byte	0
 2957 1259 08       		.uleb128 0x8
 2958 125a 1E070000 		.4byte	.LASF245
 2959 125e 1E       		.byte	0x1e
 2960 125f 7E       		.byte	0x7e
ARM GAS  /var/folders/vd/czx34qs52cd_f3nb04sxmghc0000gn/T//ccI0nIfk.s 			page 53


 2961 1260 010C0000 		.4byte	0xc01
 2962 1264 04       		.byte	0x4
 2963 1265 08       		.uleb128 0x8
 2964 1266 04010000 		.4byte	.LASF38
 2965 126a 1E       		.byte	0x1e
 2966 126b 7E       		.byte	0x7e
 2967 126c 2B120000 		.4byte	0x122b
 2968 1270 08       		.byte	0x8
 2969 1271 08       		.uleb128 0x8
 2970 1272 880A0000 		.4byte	.LASF246
 2971 1276 1E       		.byte	0x1e
 2972 1277 7E       		.byte	0x7e
 2973 1278 18100000 		.4byte	0x1018
 2974 127c 0C       		.byte	0xc
 2975 127d 08       		.uleb128 0x8
 2976 127e DD010000 		.4byte	.LASF247
 2977 1282 1E       		.byte	0x1e
 2978 1283 7E       		.byte	0x7e
 2979 1284 23100000 		.4byte	0x1023
 2980 1288 30       		.byte	0x30
 2981 1289 09       		.uleb128 0x9
 2982 128a 696200   		.ascii	"ib\000"
 2983 128d 1E       		.byte	0x1e
 2984 128e 7E       		.byte	0x7e
 2985 128f 54130000 		.4byte	0x1354
 2986 1293 54       		.byte	0x54
 2987 1294 09       		.uleb128 0x9
 2988 1295 6F6200   		.ascii	"ob\000"
 2989 1298 1E       		.byte	0x1e
 2990 1299 7E       		.byte	0x7e
 2991 129a 54130000 		.4byte	0x1354
 2992 129e 64       		.byte	0x64
 2993 129f 08       		.uleb128 0x8
 2994 12a0 1C020000 		.4byte	.LASF248
 2995 12a4 1E       		.byte	0x1e
 2996 12a5 7E       		.byte	0x7e
 2997 12a6 64130000 		.4byte	0x1364
 2998 12aa 74       		.byte	0x74
 2999 12ab 08       		.uleb128 0x8
 3000 12ac D4030000 		.4byte	.LASF249
 3001 12b0 1E       		.byte	0x1e
 3002 12b1 7E       		.byte	0x7e
 3003 12b2 B9000000 		.4byte	0xb9
 3004 12b6 78       		.byte	0x78
 3005 12b7 00       		.byte	0
 3006 12b8 1B       		.uleb128 0x1b
 3007 12b9 53443100 		.ascii	"SD1\000"
 3008 12bd 1F       		.byte	0x1f
 3009 12be 4401     		.2byte	0x144
 3010 12c0 36120000 		.4byte	0x1236
 3011 12c4 07       		.uleb128 0x7
 3012 12c5 28050000 		.4byte	.LASF250
 3013 12c9 28       		.byte	0x28
 3014 12ca 1E       		.byte	0x1e
 3015 12cb 70       		.byte	0x70
 3016 12cc 49130000 		.4byte	0x1349
 3017 12d0 08       		.uleb128 0x8
ARM GAS  /var/folders/vd/czx34qs52cd_f3nb04sxmghc0000gn/T//ccI0nIfk.s 			page 54


 3018 12d1 790B0000 		.4byte	.LASF251
 3019 12d5 1E       		.byte	0x1e
 3020 12d6 71       		.byte	0x71
 3021 12d7 33000000 		.4byte	0x33
 3022 12db 00       		.byte	0
 3023 12dc 08       		.uleb128 0x8
 3024 12dd DC000000 		.4byte	.LASF252
 3025 12e1 1E       		.byte	0x1e
 3026 12e2 71       		.byte	0x71
 3027 12e3 8A0E0000 		.4byte	0xe8a
 3028 12e7 04       		.byte	0x4
 3029 12e8 08       		.uleb128 0x8
 3030 12e9 24070000 		.4byte	.LASF253
 3031 12ed 1E       		.byte	0x1e
 3032 12ee 71       		.byte	0x71
 3033 12ef A90E0000 		.4byte	0xea9
 3034 12f3 08       		.byte	0x8
 3035 12f4 09       		.uleb128 0x9
 3036 12f5 70757400 		.ascii	"put\000"
 3037 12f9 1E       		.byte	0x1e
 3038 12fa 71       		.byte	0x71
 3039 12fb C30E0000 		.4byte	0xec3
 3040 12ff 0C       		.byte	0xc
 3041 1300 09       		.uleb128 0x9
 3042 1301 67657400 		.ascii	"get\000"
 3043 1305 1E       		.byte	0x1e
 3044 1306 71       		.byte	0x71
 3045 1307 D80E0000 		.4byte	0xed8
 3046 130b 10       		.byte	0x10
 3047 130c 08       		.uleb128 0x8
 3048 130d 0A010000 		.4byte	.LASF254
 3049 1311 1E       		.byte	0x1e
 3050 1312 71       		.byte	0x71
 3051 1313 F70E0000 		.4byte	0xef7
 3052 1317 14       		.byte	0x14
 3053 1318 08       		.uleb128 0x8
 3054 1319 74030000 		.4byte	.LASF255
 3055 131d 1E       		.byte	0x1e
 3056 131e 71       		.byte	0x71
 3057 131f 110F0000 		.4byte	0xf11
 3058 1323 18       		.byte	0x18
 3059 1324 08       		.uleb128 0x8
 3060 1325 87000000 		.4byte	.LASF256
 3061 1329 1E       		.byte	0x1e
 3062 132a 71       		.byte	0x71
 3063 132b 350F0000 		.4byte	0xf35
 3064 132f 1C       		.byte	0x1c
 3065 1330 08       		.uleb128 0x8
 3066 1331 84010000 		.4byte	.LASF257
 3067 1335 1E       		.byte	0x1e
 3068 1336 71       		.byte	0x71
 3069 1337 590F0000 		.4byte	0xf59
 3070 133b 20       		.byte	0x20
 3071 133c 09       		.uleb128 0x9
 3072 133d 63746C00 		.ascii	"ctl\000"
 3073 1341 1E       		.byte	0x1e
 3074 1342 71       		.byte	0x71
ARM GAS  /var/folders/vd/czx34qs52cd_f3nb04sxmghc0000gn/T//ccI0nIfk.s 			page 55


 3075 1343 780F0000 		.4byte	0xf78
 3076 1347 24       		.byte	0x24
 3077 1348 00       		.byte	0
 3078 1349 06       		.uleb128 0x6
 3079 134a C4120000 		.4byte	0x12c4
 3080 134e 0C       		.uleb128 0xc
 3081 134f 04       		.byte	0x4
 3082 1350 49130000 		.4byte	0x1349
 3083 1354 11       		.uleb128 0x11
 3084 1355 B9000000 		.4byte	0xb9
 3085 1359 64130000 		.4byte	0x1364
 3086 135d 12       		.uleb128 0x12
 3087 135e 25000000 		.4byte	0x25
 3088 1362 0F       		.byte	0xf
 3089 1363 00       		.byte	0
 3090 1364 0C       		.uleb128 0xc
 3091 1365 04       		.byte	0x4
 3092 1366 6E070000 		.4byte	0x76e
 3093 136a 21       		.uleb128 0x21
 3094 136b FF110000 		.4byte	0x11ff
 3095 136f 01       		.byte	0x1
 3096 1370 42       		.byte	0x42
 3097 1371 05       		.uleb128 0x5
 3098 1372 03       		.byte	0x3
 3099 1373 00000000 		.4byte	PWMD4
 3100 1377 22       		.uleb128 0x22
 3101 1378 6F090000 		.4byte	.LASF258
 3102 137c 01       		.byte	0x1
 3103 137d 5003     		.2byte	0x350
 3104 137f 00000000 		.4byte	.LFB323
 3105 1383 5C000000 		.4byte	.LFE323-.LFB323
 3106 1387 01       		.uleb128 0x1
 3107 1388 9C       		.byte	0x9c
 3108 1389 FA130000 		.4byte	0x13fa
 3109 138d 23       		.uleb128 0x23
 3110 138e B8060000 		.4byte	.LASF260
 3111 1392 01       		.byte	0x1
 3112 1393 5003     		.2byte	0x350
 3113 1395 14110000 		.4byte	0x1114
 3114 1399 00000000 		.4byte	.LLST13
 3115 139d 24       		.uleb128 0x24
 3116 139e 737200   		.ascii	"sr\000"
 3117 13a1 01       		.byte	0x1
 3118 13a2 5103     		.2byte	0x351
 3119 13a4 E4000000 		.4byte	0xe4
 3120 13a8 42000000 		.4byte	.LLST14
 3121 13ac 25       		.uleb128 0x25
 3122 13ad 1E000000 		.4byte	.LVL45
 3123 13b1 BC130000 		.4byte	0x13bc
 3124 13b5 26       		.uleb128 0x26
 3125 13b6 01       		.uleb128 0x1
 3126 13b7 50       		.byte	0x50
 3127 13b8 02       		.uleb128 0x2
 3128 13b9 75       		.byte	0x75
 3129 13ba 00       		.sleb128 0
 3130 13bb 00       		.byte	0
 3131 13bc 25       		.uleb128 0x25
ARM GAS  /var/folders/vd/czx34qs52cd_f3nb04sxmghc0000gn/T//ccI0nIfk.s 			page 56


 3132 13bd 2C000000 		.4byte	.LVL46
 3133 13c1 CC130000 		.4byte	0x13cc
 3134 13c5 26       		.uleb128 0x26
 3135 13c6 01       		.uleb128 0x1
 3136 13c7 50       		.byte	0x50
 3137 13c8 02       		.uleb128 0x2
 3138 13c9 75       		.byte	0x75
 3139 13ca 00       		.sleb128 0
 3140 13cb 00       		.byte	0
 3141 13cc 25       		.uleb128 0x25
 3142 13cd 3A000000 		.4byte	.LVL47
 3143 13d1 DC130000 		.4byte	0x13dc
 3144 13d5 26       		.uleb128 0x26
 3145 13d6 01       		.uleb128 0x1
 3146 13d7 50       		.byte	0x50
 3147 13d8 02       		.uleb128 0x2
 3148 13d9 75       		.byte	0x75
 3149 13da 00       		.sleb128 0
 3150 13db 00       		.byte	0
 3151 13dc 25       		.uleb128 0x25
 3152 13dd 48000000 		.4byte	.LVL48
 3153 13e1 EC130000 		.4byte	0x13ec
 3154 13e5 26       		.uleb128 0x26
 3155 13e6 01       		.uleb128 0x1
 3156 13e7 50       		.byte	0x50
 3157 13e8 02       		.uleb128 0x2
 3158 13e9 75       		.byte	0x75
 3159 13ea 00       		.sleb128 0
 3160 13eb 00       		.byte	0
 3161 13ec 27       		.uleb128 0x27
 3162 13ed 5A000000 		.4byte	.LVL50
 3163 13f1 26       		.uleb128 0x26
 3164 13f2 01       		.uleb128 0x1
 3165 13f3 50       		.byte	0x50
 3166 13f4 03       		.uleb128 0x3
 3167 13f5 F3       		.byte	0xf3
 3168 13f6 01       		.uleb128 0x1
 3169 13f7 50       		.byte	0x50
 3170 13f8 00       		.byte	0
 3171 13f9 00       		.byte	0
 3172 13fa 22       		.uleb128 0x22
 3173 13fb B7000000 		.4byte	.LASF259
 3174 13ff 01       		.byte	0x1
 3175 1400 4003     		.2byte	0x340
 3176 1402 00000000 		.4byte	.LFB322
 3177 1406 12000000 		.4byte	.LFE322-.LFB322
 3178 140a 01       		.uleb128 0x1
 3179 140b 9C       		.byte	0x9c
 3180 140c 31140000 		.4byte	0x1431
 3181 1410 23       		.uleb128 0x23
 3182 1411 B8060000 		.4byte	.LASF260
 3183 1415 01       		.byte	0x1
 3184 1416 4003     		.2byte	0x340
 3185 1418 14110000 		.4byte	0x1114
 3186 141c 75000000 		.4byte	.LLST11
 3187 1420 23       		.uleb128 0x23
 3188 1421 AE040000 		.4byte	.LASF261
ARM GAS  /var/folders/vd/czx34qs52cd_f3nb04sxmghc0000gn/T//ccI0nIfk.s 			page 57


 3189 1425 01       		.byte	0x1
 3190 1426 4103     		.2byte	0x341
 3191 1428 26110000 		.4byte	0x1126
 3192 142c 96000000 		.4byte	.LLST12
 3193 1430 00       		.byte	0
 3194 1431 22       		.uleb128 0x22
 3195 1432 410C0000 		.4byte	.LASF262
 3196 1436 01       		.byte	0x1
 3197 1437 2403     		.2byte	0x324
 3198 1439 00000000 		.4byte	.LFB321
 3199 143d 18000000 		.4byte	.LFE321-.LFB321
 3200 1441 01       		.uleb128 0x1
 3201 1442 9C       		.byte	0x9c
 3202 1443 78140000 		.4byte	0x1478
 3203 1447 23       		.uleb128 0x23
 3204 1448 B8060000 		.4byte	.LASF260
 3205 144c 01       		.byte	0x1
 3206 144d 2403     		.2byte	0x324
 3207 144f 14110000 		.4byte	0x1114
 3208 1453 B7000000 		.4byte	.LLST8
 3209 1457 23       		.uleb128 0x23
 3210 1458 AE040000 		.4byte	.LASF261
 3211 145c 01       		.byte	0x1
 3212 145d 2503     		.2byte	0x325
 3213 145f 26110000 		.4byte	0x1126
 3214 1463 D8000000 		.4byte	.LLST9
 3215 1467 28       		.uleb128 0x28
 3216 1468 2E010000 		.4byte	.LASF237
 3217 146c 01       		.byte	0x1
 3218 146d 2603     		.2byte	0x326
 3219 146f E4000000 		.4byte	0xe4
 3220 1473 F9000000 		.4byte	.LLST10
 3221 1477 00       		.byte	0
 3222 1478 22       		.uleb128 0x22
 3223 1479 22040000 		.4byte	.LASF263
 3224 147d 01       		.byte	0x1
 3225 147e 1403     		.2byte	0x314
 3226 1480 00000000 		.4byte	.LFB320
 3227 1484 0C000000 		.4byte	.LFE320-.LFB320
 3228 1488 01       		.uleb128 0x1
 3229 1489 9C       		.byte	0x9c
 3230 148a 9D140000 		.4byte	0x149d
 3231 148e 29       		.uleb128 0x29
 3232 148f B8060000 		.4byte	.LASF260
 3233 1493 01       		.byte	0x1
 3234 1494 1403     		.2byte	0x314
 3235 1496 14110000 		.4byte	0x1114
 3236 149a 01       		.uleb128 0x1
 3237 149b 50       		.byte	0x50
 3238 149c 00       		.byte	0
 3239 149d 22       		.uleb128 0x22
 3240 149e C6070000 		.4byte	.LASF264
 3241 14a2 01       		.byte	0x1
 3242 14a3 0003     		.2byte	0x300
 3243 14a5 00000000 		.4byte	.LFB319
 3244 14a9 16000000 		.4byte	.LFE319-.LFB319
 3245 14ad 01       		.uleb128 0x1
ARM GAS  /var/folders/vd/czx34qs52cd_f3nb04sxmghc0000gn/T//ccI0nIfk.s 			page 58


 3246 14ae 9C       		.byte	0x9c
 3247 14af D2140000 		.4byte	0x14d2
 3248 14b3 29       		.uleb128 0x29
 3249 14b4 B8060000 		.4byte	.LASF260
 3250 14b8 01       		.byte	0x1
 3251 14b9 0003     		.2byte	0x300
 3252 14bb 14110000 		.4byte	0x1114
 3253 14bf 01       		.uleb128 0x1
 3254 14c0 50       		.byte	0x50
 3255 14c1 28       		.uleb128 0x28
 3256 14c2 2E010000 		.4byte	.LASF237
 3257 14c6 01       		.byte	0x1
 3258 14c7 0103     		.2byte	0x301
 3259 14c9 E4000000 		.4byte	0xe4
 3260 14cd 0C010000 		.4byte	.LLST7
 3261 14d1 00       		.byte	0
 3262 14d2 22       		.uleb128 0x22
 3263 14d3 C6060000 		.4byte	.LASF265
 3264 14d7 01       		.byte	0x1
 3265 14d8 E802     		.2byte	0x2e8
 3266 14da 00000000 		.4byte	.LFB318
 3267 14de 1E000000 		.4byte	.LFE318-.LFB318
 3268 14e2 01       		.uleb128 0x1
 3269 14e3 9C       		.byte	0x9c
 3270 14e4 09150000 		.4byte	0x1509
 3271 14e8 23       		.uleb128 0x23
 3272 14e9 B8060000 		.4byte	.LASF260
 3273 14ed 01       		.byte	0x1
 3274 14ee E802     		.2byte	0x2e8
 3275 14f0 14110000 		.4byte	0x1114
 3276 14f4 1F010000 		.4byte	.LLST5
 3277 14f8 23       		.uleb128 0x23
 3278 14f9 AE040000 		.4byte	.LASF261
 3279 14fd 01       		.byte	0x1
 3280 14fe E802     		.2byte	0x2e8
 3281 1500 26110000 		.4byte	0x1126
 3282 1504 40010000 		.4byte	.LLST6
 3283 1508 00       		.byte	0
 3284 1509 22       		.uleb128 0x22
 3285 150a 110A0000 		.4byte	.LASF266
 3286 150e 01       		.byte	0x1
 3287 150f CD02     		.2byte	0x2cd
 3288 1511 00000000 		.4byte	.LFB317
 3289 1515 0C000000 		.4byte	.LFE317-.LFB317
 3290 1519 01       		.uleb128 0x1
 3291 151a 9C       		.byte	0x9c
 3292 151b 4C150000 		.4byte	0x154c
 3293 151f 29       		.uleb128 0x29
 3294 1520 B8060000 		.4byte	.LASF260
 3295 1524 01       		.byte	0x1
 3296 1525 CD02     		.2byte	0x2cd
 3297 1527 14110000 		.4byte	0x1114
 3298 152b 01       		.uleb128 0x1
 3299 152c 50       		.byte	0x50
 3300 152d 23       		.uleb128 0x23
 3301 152e AE040000 		.4byte	.LASF261
 3302 1532 01       		.byte	0x1
ARM GAS  /var/folders/vd/czx34qs52cd_f3nb04sxmghc0000gn/T//ccI0nIfk.s 			page 59


 3303 1533 CE02     		.2byte	0x2ce
 3304 1535 26110000 		.4byte	0x1126
 3305 1539 61010000 		.4byte	.LLST4
 3306 153d 29       		.uleb128 0x29
 3307 153e 94060000 		.4byte	.LASF267
 3308 1542 01       		.byte	0x1
 3309 1543 CF02     		.2byte	0x2cf
 3310 1545 3E110000 		.4byte	0x113e
 3311 1549 01       		.uleb128 0x1
 3312 154a 52       		.byte	0x52
 3313 154b 00       		.byte	0
 3314 154c 22       		.uleb128 0x22
 3315 154d 4D010000 		.4byte	.LASF268
 3316 1551 01       		.byte	0x1
 3317 1552 7202     		.2byte	0x272
 3318 1554 00000000 		.4byte	.LFB316
 3319 1558 34000000 		.4byte	.LFE316-.LFB316
 3320 155c 01       		.uleb128 0x1
 3321 155d 9C       		.byte	0x9c
 3322 155e 82150000 		.4byte	0x1582
 3323 1562 23       		.uleb128 0x23
 3324 1563 B8060000 		.4byte	.LASF260
 3325 1567 01       		.byte	0x1
 3326 1568 7202     		.2byte	0x272
 3327 156a 14110000 		.4byte	0x1114
 3328 156e 82010000 		.4byte	.LLST3
 3329 1572 2A       		.uleb128 0x2a
 3330 1573 20000000 		.4byte	.LVL24
 3331 1577 58160000 		.4byte	0x1658
 3332 157b 26       		.uleb128 0x26
 3333 157c 01       		.uleb128 0x1
 3334 157d 50       		.byte	0x50
 3335 157e 01       		.uleb128 0x1
 3336 157f 4E       		.byte	0x4e
 3337 1580 00       		.byte	0
 3338 1581 00       		.byte	0
 3339 1582 22       		.uleb128 0x22
 3340 1583 61070000 		.4byte	.LASF269
 3341 1587 01       		.byte	0x1
 3342 1588 7001     		.2byte	0x170
 3343 158a 00000000 		.4byte	.LFB315
 3344 158e EC000000 		.4byte	.LFE315-.LFB315
 3345 1592 01       		.uleb128 0x1
 3346 1593 9C       		.byte	0x9c
 3347 1594 E6150000 		.4byte	0x15e6
 3348 1598 23       		.uleb128 0x23
 3349 1599 B8060000 		.4byte	.LASF260
 3350 159d 01       		.byte	0x1
 3351 159e 7001     		.2byte	0x170
 3352 15a0 14110000 		.4byte	0x1114
 3353 15a4 A3010000 		.4byte	.LLST0
 3354 15a8 24       		.uleb128 0x24
 3355 15a9 70736300 		.ascii	"psc\000"
 3356 15ad 01       		.byte	0x1
 3357 15ae 7101     		.2byte	0x171
 3358 15b0 E4000000 		.4byte	0xe4
 3359 15b4 FB010000 		.4byte	.LLST1
ARM GAS  /var/folders/vd/czx34qs52cd_f3nb04sxmghc0000gn/T//ccI0nIfk.s 			page 60


 3360 15b8 28       		.uleb128 0x28
 3361 15b9 15040000 		.4byte	.LASF270
 3362 15bd 01       		.byte	0x1
 3363 15be 7201     		.2byte	0x172
 3364 15c0 E4000000 		.4byte	0xe4
 3365 15c4 2A020000 		.4byte	.LLST2
 3366 15c8 2B       		.uleb128 0x2b
 3367 15c9 AE000000 		.4byte	.LASF280
 3368 15cd F6150000 		.4byte	0x15f6
 3369 15d1 2A       		.uleb128 0x2a
 3370 15d2 DA000000 		.4byte	.LVL21
 3371 15d6 63160000 		.4byte	0x1663
 3372 15da 26       		.uleb128 0x26
 3373 15db 01       		.uleb128 0x1
 3374 15dc 50       		.byte	0x50
 3375 15dd 01       		.uleb128 0x1
 3376 15de 4E       		.byte	0x4e
 3377 15df 26       		.uleb128 0x26
 3378 15e0 01       		.uleb128 0x1
 3379 15e1 51       		.byte	0x51
 3380 15e2 01       		.uleb128 0x1
 3381 15e3 37       		.byte	0x37
 3382 15e4 00       		.byte	0
 3383 15e5 00       		.byte	0
 3384 15e6 11       		.uleb128 0x11
 3385 15e7 3E0A0000 		.4byte	0xa3e
 3386 15eb F6150000 		.4byte	0x15f6
 3387 15ef 12       		.uleb128 0x12
 3388 15f0 25000000 		.4byte	0x25
 3389 15f4 0D       		.byte	0xd
 3390 15f5 00       		.byte	0
 3391 15f6 06       		.uleb128 0x6
 3392 15f7 E6150000 		.4byte	0x15e6
 3393 15fb 22       		.uleb128 0x22
 3394 15fc 7D080000 		.4byte	.LASF271
 3395 1600 01       		.byte	0x1
 3396 1601 3301     		.2byte	0x133
 3397 1603 00000000 		.4byte	.LFB314
 3398 1607 1C000000 		.4byte	.LFE314-.LFB314
 3399 160b 01       		.uleb128 0x1
 3400 160c 9C       		.byte	0x9c
 3401 160d 22160000 		.4byte	0x1622
 3402 1611 2A       		.uleb128 0x2a
 3403 1612 0A000000 		.4byte	.LVL0
 3404 1616 6E160000 		.4byte	0x166e
 3405 161a 26       		.uleb128 0x26
 3406 161b 01       		.uleb128 0x1
 3407 161c 50       		.byte	0x50
 3408 161d 02       		.uleb128 0x2
 3409 161e 74       		.byte	0x74
 3410 161f 00       		.sleb128 0
 3411 1620 00       		.byte	0
 3412 1621 00       		.byte	0
 3413 1622 2C       		.uleb128 0x2c
 3414 1623 9F0A0000 		.4byte	.LASF272
 3415 1627 01       		.byte	0x1
 3416 1628 C9       		.byte	0xc9
ARM GAS  /var/folders/vd/czx34qs52cd_f3nb04sxmghc0000gn/T//ccI0nIfk.s 			page 61


 3417 1629 00000000 		.4byte	.LFB313
 3418 162d 14000000 		.4byte	.LFE313-.LFB313
 3419 1631 01       		.uleb128 0x1
 3420 1632 9C       		.byte	0x9c
 3421 1633 58160000 		.4byte	0x1658
 3422 1637 2D       		.uleb128 0x2d
 3423 1638 08000000 		.4byte	.LVL51
 3424 163c 77130000 		.4byte	0x1377
 3425 1640 4E160000 		.4byte	0x164e
 3426 1644 26       		.uleb128 0x26
 3427 1645 01       		.uleb128 0x1
 3428 1646 50       		.byte	0x50
 3429 1647 05       		.uleb128 0x5
 3430 1648 03       		.byte	0x3
 3431 1649 00000000 		.4byte	.LANCHOR0
 3432 164d 00       		.byte	0
 3433 164e 2E       		.uleb128 0x2e
 3434 164f 10000000 		.4byte	.LVL52
 3435 1653 7A160000 		.4byte	0x167a
 3436 1657 00       		.byte	0
 3437 1658 2F       		.uleb128 0x2f
 3438 1659 29080000 		.4byte	.LASF273
 3439 165d 29080000 		.4byte	.LASF273
 3440 1661 20       		.byte	0x20
 3441 1662 4F       		.byte	0x4f
 3442 1663 2F       		.uleb128 0x2f
 3443 1664 350B0000 		.4byte	.LASF274
 3444 1668 350B0000 		.4byte	.LASF274
 3445 166c 20       		.byte	0x20
 3446 166d 4E       		.byte	0x4e
 3447 166e 30       		.uleb128 0x30
 3448 166f 970B0000 		.4byte	.LASF275
 3449 1673 970B0000 		.4byte	.LASF275
 3450 1677 1C       		.byte	0x1c
 3451 1678 2001     		.2byte	0x120
 3452 167a 30       		.uleb128 0x30
 3453 167b 7D070000 		.4byte	.LASF276
 3454 167f 7D070000 		.4byte	.LASF276
 3455 1683 0D       		.byte	0xd
 3456 1684 EA01     		.2byte	0x1ea
 3457 1686 00       		.byte	0
 3458              		.section	.debug_abbrev,"",%progbits
 3459              	.Ldebug_abbrev0:
 3460 0000 01       		.uleb128 0x1
 3461 0001 11       		.uleb128 0x11
 3462 0002 01       		.byte	0x1
 3463 0003 25       		.uleb128 0x25
 3464 0004 0E       		.uleb128 0xe
 3465 0005 13       		.uleb128 0x13
 3466 0006 0B       		.uleb128 0xb
 3467 0007 03       		.uleb128 0x3
 3468 0008 0E       		.uleb128 0xe
 3469 0009 1B       		.uleb128 0x1b
 3470 000a 0E       		.uleb128 0xe
 3471 000b 55       		.uleb128 0x55
 3472 000c 17       		.uleb128 0x17
 3473 000d 11       		.uleb128 0x11
ARM GAS  /var/folders/vd/czx34qs52cd_f3nb04sxmghc0000gn/T//ccI0nIfk.s 			page 62


 3474 000e 01       		.uleb128 0x1
 3475 000f 10       		.uleb128 0x10
 3476 0010 17       		.uleb128 0x17
 3477 0011 00       		.byte	0
 3478 0012 00       		.byte	0
 3479 0013 02       		.uleb128 0x2
 3480 0014 24       		.uleb128 0x24
 3481 0015 00       		.byte	0
 3482 0016 0B       		.uleb128 0xb
 3483 0017 0B       		.uleb128 0xb
 3484 0018 3E       		.uleb128 0x3e
 3485 0019 0B       		.uleb128 0xb
 3486 001a 03       		.uleb128 0x3
 3487 001b 0E       		.uleb128 0xe
 3488 001c 00       		.byte	0
 3489 001d 00       		.byte	0
 3490 001e 03       		.uleb128 0x3
 3491 001f 24       		.uleb128 0x24
 3492 0020 00       		.byte	0
 3493 0021 0B       		.uleb128 0xb
 3494 0022 0B       		.uleb128 0xb
 3495 0023 3E       		.uleb128 0x3e
 3496 0024 0B       		.uleb128 0xb
 3497 0025 03       		.uleb128 0x3
 3498 0026 08       		.uleb128 0x8
 3499 0027 00       		.byte	0
 3500 0028 00       		.byte	0
 3501 0029 04       		.uleb128 0x4
 3502 002a 16       		.uleb128 0x16
 3503 002b 00       		.byte	0
 3504 002c 03       		.uleb128 0x3
 3505 002d 0E       		.uleb128 0xe
 3506 002e 3A       		.uleb128 0x3a
 3507 002f 0B       		.uleb128 0xb
 3508 0030 3B       		.uleb128 0x3b
 3509 0031 0B       		.uleb128 0xb
 3510 0032 49       		.uleb128 0x49
 3511 0033 13       		.uleb128 0x13
 3512 0034 00       		.byte	0
 3513 0035 00       		.byte	0
 3514 0036 05       		.uleb128 0x5
 3515 0037 35       		.uleb128 0x35
 3516 0038 00       		.byte	0
 3517 0039 49       		.uleb128 0x49
 3518 003a 13       		.uleb128 0x13
 3519 003b 00       		.byte	0
 3520 003c 00       		.byte	0
 3521 003d 06       		.uleb128 0x6
 3522 003e 26       		.uleb128 0x26
 3523 003f 00       		.byte	0
 3524 0040 49       		.uleb128 0x49
 3525 0041 13       		.uleb128 0x13
 3526 0042 00       		.byte	0
 3527 0043 00       		.byte	0
 3528 0044 07       		.uleb128 0x7
 3529 0045 13       		.uleb128 0x13
 3530 0046 01       		.byte	0x1
ARM GAS  /var/folders/vd/czx34qs52cd_f3nb04sxmghc0000gn/T//ccI0nIfk.s 			page 63


 3531 0047 03       		.uleb128 0x3
 3532 0048 0E       		.uleb128 0xe
 3533 0049 0B       		.uleb128 0xb
 3534 004a 0B       		.uleb128 0xb
 3535 004b 3A       		.uleb128 0x3a
 3536 004c 0B       		.uleb128 0xb
 3537 004d 3B       		.uleb128 0x3b
 3538 004e 0B       		.uleb128 0xb
 3539 004f 01       		.uleb128 0x1
 3540 0050 13       		.uleb128 0x13
 3541 0051 00       		.byte	0
 3542 0052 00       		.byte	0
 3543 0053 08       		.uleb128 0x8
 3544 0054 0D       		.uleb128 0xd
 3545 0055 00       		.byte	0
 3546 0056 03       		.uleb128 0x3
 3547 0057 0E       		.uleb128 0xe
 3548 0058 3A       		.uleb128 0x3a
 3549 0059 0B       		.uleb128 0xb
 3550 005a 3B       		.uleb128 0x3b
 3551 005b 0B       		.uleb128 0xb
 3552 005c 49       		.uleb128 0x49
 3553 005d 13       		.uleb128 0x13
 3554 005e 38       		.uleb128 0x38
 3555 005f 0B       		.uleb128 0xb
 3556 0060 00       		.byte	0
 3557 0061 00       		.byte	0
 3558 0062 09       		.uleb128 0x9
 3559 0063 0D       		.uleb128 0xd
 3560 0064 00       		.byte	0
 3561 0065 03       		.uleb128 0x3
 3562 0066 08       		.uleb128 0x8
 3563 0067 3A       		.uleb128 0x3a
 3564 0068 0B       		.uleb128 0xb
 3565 0069 3B       		.uleb128 0x3b
 3566 006a 0B       		.uleb128 0xb
 3567 006b 49       		.uleb128 0x49
 3568 006c 13       		.uleb128 0x13
 3569 006d 38       		.uleb128 0x38
 3570 006e 0B       		.uleb128 0xb
 3571 006f 00       		.byte	0
 3572 0070 00       		.byte	0
 3573 0071 0A       		.uleb128 0xa
 3574 0072 0D       		.uleb128 0xd
 3575 0073 00       		.byte	0
 3576 0074 03       		.uleb128 0x3
 3577 0075 08       		.uleb128 0x8
 3578 0076 3A       		.uleb128 0x3a
 3579 0077 0B       		.uleb128 0xb
 3580 0078 3B       		.uleb128 0x3b
 3581 0079 05       		.uleb128 0x5
 3582 007a 49       		.uleb128 0x49
 3583 007b 13       		.uleb128 0x13
 3584 007c 38       		.uleb128 0x38
 3585 007d 0B       		.uleb128 0xb
 3586 007e 00       		.byte	0
 3587 007f 00       		.byte	0
ARM GAS  /var/folders/vd/czx34qs52cd_f3nb04sxmghc0000gn/T//ccI0nIfk.s 			page 64


 3588 0080 0B       		.uleb128 0xb
 3589 0081 0D       		.uleb128 0xd
 3590 0082 00       		.byte	0
 3591 0083 03       		.uleb128 0x3
 3592 0084 0E       		.uleb128 0xe
 3593 0085 3A       		.uleb128 0x3a
 3594 0086 0B       		.uleb128 0xb
 3595 0087 3B       		.uleb128 0x3b
 3596 0088 05       		.uleb128 0x5
 3597 0089 49       		.uleb128 0x49
 3598 008a 13       		.uleb128 0x13
 3599 008b 38       		.uleb128 0x38
 3600 008c 0B       		.uleb128 0xb
 3601 008d 00       		.byte	0
 3602 008e 00       		.byte	0
 3603 008f 0C       		.uleb128 0xc
 3604 0090 0F       		.uleb128 0xf
 3605 0091 00       		.byte	0
 3606 0092 0B       		.uleb128 0xb
 3607 0093 0B       		.uleb128 0xb
 3608 0094 49       		.uleb128 0x49
 3609 0095 13       		.uleb128 0x13
 3610 0096 00       		.byte	0
 3611 0097 00       		.byte	0
 3612 0098 0D       		.uleb128 0xd
 3613 0099 13       		.uleb128 0x13
 3614 009a 01       		.byte	0x1
 3615 009b 03       		.uleb128 0x3
 3616 009c 0E       		.uleb128 0xe
 3617 009d 0B       		.uleb128 0xb
 3618 009e 0B       		.uleb128 0xb
 3619 009f 3A       		.uleb128 0x3a
 3620 00a0 0B       		.uleb128 0xb
 3621 00a1 3B       		.uleb128 0x3b
 3622 00a2 05       		.uleb128 0x5
 3623 00a3 01       		.uleb128 0x1
 3624 00a4 13       		.uleb128 0x13
 3625 00a5 00       		.byte	0
 3626 00a6 00       		.byte	0
 3627 00a7 0E       		.uleb128 0xe
 3628 00a8 15       		.uleb128 0x15
 3629 00a9 01       		.byte	0x1
 3630 00aa 27       		.uleb128 0x27
 3631 00ab 19       		.uleb128 0x19
 3632 00ac 01       		.uleb128 0x1
 3633 00ad 13       		.uleb128 0x13
 3634 00ae 00       		.byte	0
 3635 00af 00       		.byte	0
 3636 00b0 0F       		.uleb128 0xf
 3637 00b1 05       		.uleb128 0x5
 3638 00b2 00       		.byte	0
 3639 00b3 49       		.uleb128 0x49
 3640 00b4 13       		.uleb128 0x13
 3641 00b5 00       		.byte	0
 3642 00b6 00       		.byte	0
 3643 00b7 10       		.uleb128 0x10
 3644 00b8 0F       		.uleb128 0xf
ARM GAS  /var/folders/vd/czx34qs52cd_f3nb04sxmghc0000gn/T//ccI0nIfk.s 			page 65


 3645 00b9 00       		.byte	0
 3646 00ba 0B       		.uleb128 0xb
 3647 00bb 0B       		.uleb128 0xb
 3648 00bc 00       		.byte	0
 3649 00bd 00       		.byte	0
 3650 00be 11       		.uleb128 0x11
 3651 00bf 01       		.uleb128 0x1
 3652 00c0 01       		.byte	0x1
 3653 00c1 49       		.uleb128 0x49
 3654 00c2 13       		.uleb128 0x13
 3655 00c3 01       		.uleb128 0x1
 3656 00c4 13       		.uleb128 0x13
 3657 00c5 00       		.byte	0
 3658 00c6 00       		.byte	0
 3659 00c7 12       		.uleb128 0x12
 3660 00c8 21       		.uleb128 0x21
 3661 00c9 00       		.byte	0
 3662 00ca 49       		.uleb128 0x49
 3663 00cb 13       		.uleb128 0x13
 3664 00cc 2F       		.uleb128 0x2f
 3665 00cd 0B       		.uleb128 0xb
 3666 00ce 00       		.byte	0
 3667 00cf 00       		.byte	0
 3668 00d0 13       		.uleb128 0x13
 3669 00d1 34       		.uleb128 0x34
 3670 00d2 00       		.byte	0
 3671 00d3 03       		.uleb128 0x3
 3672 00d4 0E       		.uleb128 0xe
 3673 00d5 3A       		.uleb128 0x3a
 3674 00d6 0B       		.uleb128 0xb
 3675 00d7 3B       		.uleb128 0x3b
 3676 00d8 05       		.uleb128 0x5
 3677 00d9 49       		.uleb128 0x49
 3678 00da 13       		.uleb128 0x13
 3679 00db 3F       		.uleb128 0x3f
 3680 00dc 19       		.uleb128 0x19
 3681 00dd 3C       		.uleb128 0x3c
 3682 00de 19       		.uleb128 0x19
 3683 00df 00       		.byte	0
 3684 00e0 00       		.byte	0
 3685 00e1 14       		.uleb128 0x14
 3686 00e2 34       		.uleb128 0x34
 3687 00e3 00       		.byte	0
 3688 00e4 03       		.uleb128 0x3
 3689 00e5 0E       		.uleb128 0xe
 3690 00e6 3A       		.uleb128 0x3a
 3691 00e7 0B       		.uleb128 0xb
 3692 00e8 3B       		.uleb128 0x3b
 3693 00e9 0B       		.uleb128 0xb
 3694 00ea 49       		.uleb128 0x49
 3695 00eb 13       		.uleb128 0x13
 3696 00ec 3F       		.uleb128 0x3f
 3697 00ed 19       		.uleb128 0x19
 3698 00ee 3C       		.uleb128 0x3c
 3699 00ef 19       		.uleb128 0x19
 3700 00f0 00       		.byte	0
 3701 00f1 00       		.byte	0
ARM GAS  /var/folders/vd/czx34qs52cd_f3nb04sxmghc0000gn/T//ccI0nIfk.s 			page 66


 3702 00f2 15       		.uleb128 0x15
 3703 00f3 13       		.uleb128 0x13
 3704 00f4 01       		.byte	0x1
 3705 00f5 0B       		.uleb128 0xb
 3706 00f6 0B       		.uleb128 0xb
 3707 00f7 3A       		.uleb128 0x3a
 3708 00f8 0B       		.uleb128 0xb
 3709 00f9 3B       		.uleb128 0x3b
 3710 00fa 05       		.uleb128 0x5
 3711 00fb 01       		.uleb128 0x1
 3712 00fc 13       		.uleb128 0x13
 3713 00fd 00       		.byte	0
 3714 00fe 00       		.byte	0
 3715 00ff 16       		.uleb128 0x16
 3716 0100 16       		.uleb128 0x16
 3717 0101 00       		.byte	0
 3718 0102 03       		.uleb128 0x3
 3719 0103 0E       		.uleb128 0xe
 3720 0104 3A       		.uleb128 0x3a
 3721 0105 0B       		.uleb128 0xb
 3722 0106 3B       		.uleb128 0x3b
 3723 0107 05       		.uleb128 0x5
 3724 0108 49       		.uleb128 0x49
 3725 0109 13       		.uleb128 0x13
 3726 010a 00       		.byte	0
 3727 010b 00       		.byte	0
 3728 010c 17       		.uleb128 0x17
 3729 010d 13       		.uleb128 0x13
 3730 010e 01       		.byte	0x1
 3731 010f 0B       		.uleb128 0xb
 3732 0110 0B       		.uleb128 0xb
 3733 0111 3A       		.uleb128 0x3a
 3734 0112 0B       		.uleb128 0xb
 3735 0113 3B       		.uleb128 0x3b
 3736 0114 0B       		.uleb128 0xb
 3737 0115 01       		.uleb128 0x1
 3738 0116 13       		.uleb128 0x13
 3739 0117 00       		.byte	0
 3740 0118 00       		.byte	0
 3741 0119 18       		.uleb128 0x18
 3742 011a 17       		.uleb128 0x17
 3743 011b 01       		.byte	0x1
 3744 011c 0B       		.uleb128 0xb
 3745 011d 0B       		.uleb128 0xb
 3746 011e 3A       		.uleb128 0x3a
 3747 011f 0B       		.uleb128 0xb
 3748 0120 3B       		.uleb128 0x3b
 3749 0121 0B       		.uleb128 0xb
 3750 0122 01       		.uleb128 0x1
 3751 0123 13       		.uleb128 0x13
 3752 0124 00       		.byte	0
 3753 0125 00       		.byte	0
 3754 0126 19       		.uleb128 0x19
 3755 0127 0D       		.uleb128 0xd
 3756 0128 00       		.byte	0
 3757 0129 03       		.uleb128 0x3
 3758 012a 0E       		.uleb128 0xe
ARM GAS  /var/folders/vd/czx34qs52cd_f3nb04sxmghc0000gn/T//ccI0nIfk.s 			page 67


 3759 012b 3A       		.uleb128 0x3a
 3760 012c 0B       		.uleb128 0xb
 3761 012d 3B       		.uleb128 0x3b
 3762 012e 0B       		.uleb128 0xb
 3763 012f 49       		.uleb128 0x49
 3764 0130 13       		.uleb128 0x13
 3765 0131 00       		.byte	0
 3766 0132 00       		.byte	0
 3767 0133 1A       		.uleb128 0x1a
 3768 0134 0D       		.uleb128 0xd
 3769 0135 00       		.byte	0
 3770 0136 03       		.uleb128 0x3
 3771 0137 0E       		.uleb128 0xe
 3772 0138 3A       		.uleb128 0x3a
 3773 0139 0B       		.uleb128 0xb
 3774 013a 3B       		.uleb128 0x3b
 3775 013b 05       		.uleb128 0x5
 3776 013c 49       		.uleb128 0x49
 3777 013d 13       		.uleb128 0x13
 3778 013e 00       		.byte	0
 3779 013f 00       		.byte	0
 3780 0140 1B       		.uleb128 0x1b
 3781 0141 34       		.uleb128 0x34
 3782 0142 00       		.byte	0
 3783 0143 03       		.uleb128 0x3
 3784 0144 08       		.uleb128 0x8
 3785 0145 3A       		.uleb128 0x3a
 3786 0146 0B       		.uleb128 0xb
 3787 0147 3B       		.uleb128 0x3b
 3788 0148 05       		.uleb128 0x5
 3789 0149 49       		.uleb128 0x49
 3790 014a 13       		.uleb128 0x13
 3791 014b 3F       		.uleb128 0x3f
 3792 014c 19       		.uleb128 0x19
 3793 014d 3C       		.uleb128 0x3c
 3794 014e 19       		.uleb128 0x19
 3795 014f 00       		.byte	0
 3796 0150 00       		.byte	0
 3797 0151 1C       		.uleb128 0x1c
 3798 0152 21       		.uleb128 0x21
 3799 0153 00       		.byte	0
 3800 0154 00       		.byte	0
 3801 0155 00       		.byte	0
 3802 0156 1D       		.uleb128 0x1d
 3803 0157 15       		.uleb128 0x15
 3804 0158 01       		.byte	0x1
 3805 0159 27       		.uleb128 0x27
 3806 015a 19       		.uleb128 0x19
 3807 015b 49       		.uleb128 0x49
 3808 015c 13       		.uleb128 0x13
 3809 015d 01       		.uleb128 0x1
 3810 015e 13       		.uleb128 0x13
 3811 015f 00       		.byte	0
 3812 0160 00       		.byte	0
 3813 0161 1E       		.uleb128 0x1e
 3814 0162 13       		.uleb128 0x13
 3815 0163 00       		.byte	0
ARM GAS  /var/folders/vd/czx34qs52cd_f3nb04sxmghc0000gn/T//ccI0nIfk.s 			page 68


 3816 0164 0B       		.uleb128 0xb
 3817 0165 0B       		.uleb128 0xb
 3818 0166 3A       		.uleb128 0x3a
 3819 0167 0B       		.uleb128 0xb
 3820 0168 3B       		.uleb128 0x3b
 3821 0169 0B       		.uleb128 0xb
 3822 016a 00       		.byte	0
 3823 016b 00       		.byte	0
 3824 016c 1F       		.uleb128 0x1f
 3825 016d 04       		.uleb128 0x4
 3826 016e 01       		.byte	0x1
 3827 016f 3E       		.uleb128 0x3e
 3828 0170 0B       		.uleb128 0xb
 3829 0171 0B       		.uleb128 0xb
 3830 0172 0B       		.uleb128 0xb
 3831 0173 49       		.uleb128 0x49
 3832 0174 13       		.uleb128 0x13
 3833 0175 3A       		.uleb128 0x3a
 3834 0176 0B       		.uleb128 0xb
 3835 0177 3B       		.uleb128 0x3b
 3836 0178 0B       		.uleb128 0xb
 3837 0179 01       		.uleb128 0x1
 3838 017a 13       		.uleb128 0x13
 3839 017b 00       		.byte	0
 3840 017c 00       		.byte	0
 3841 017d 20       		.uleb128 0x20
 3842 017e 28       		.uleb128 0x28
 3843 017f 00       		.byte	0
 3844 0180 03       		.uleb128 0x3
 3845 0181 0E       		.uleb128 0xe
 3846 0182 1C       		.uleb128 0x1c
 3847 0183 0B       		.uleb128 0xb
 3848 0184 00       		.byte	0
 3849 0185 00       		.byte	0
 3850 0186 21       		.uleb128 0x21
 3851 0187 34       		.uleb128 0x34
 3852 0188 00       		.byte	0
 3853 0189 47       		.uleb128 0x47
 3854 018a 13       		.uleb128 0x13
 3855 018b 3A       		.uleb128 0x3a
 3856 018c 0B       		.uleb128 0xb
 3857 018d 3B       		.uleb128 0x3b
 3858 018e 0B       		.uleb128 0xb
 3859 018f 02       		.uleb128 0x2
 3860 0190 18       		.uleb128 0x18
 3861 0191 00       		.byte	0
 3862 0192 00       		.byte	0
 3863 0193 22       		.uleb128 0x22
 3864 0194 2E       		.uleb128 0x2e
 3865 0195 01       		.byte	0x1
 3866 0196 3F       		.uleb128 0x3f
 3867 0197 19       		.uleb128 0x19
 3868 0198 03       		.uleb128 0x3
 3869 0199 0E       		.uleb128 0xe
 3870 019a 3A       		.uleb128 0x3a
 3871 019b 0B       		.uleb128 0xb
 3872 019c 3B       		.uleb128 0x3b
ARM GAS  /var/folders/vd/czx34qs52cd_f3nb04sxmghc0000gn/T//ccI0nIfk.s 			page 69


 3873 019d 05       		.uleb128 0x5
 3874 019e 27       		.uleb128 0x27
 3875 019f 19       		.uleb128 0x19
 3876 01a0 11       		.uleb128 0x11
 3877 01a1 01       		.uleb128 0x1
 3878 01a2 12       		.uleb128 0x12
 3879 01a3 06       		.uleb128 0x6
 3880 01a4 40       		.uleb128 0x40
 3881 01a5 18       		.uleb128 0x18
 3882 01a6 9742     		.uleb128 0x2117
 3883 01a8 19       		.uleb128 0x19
 3884 01a9 01       		.uleb128 0x1
 3885 01aa 13       		.uleb128 0x13
 3886 01ab 00       		.byte	0
 3887 01ac 00       		.byte	0
 3888 01ad 23       		.uleb128 0x23
 3889 01ae 05       		.uleb128 0x5
 3890 01af 00       		.byte	0
 3891 01b0 03       		.uleb128 0x3
 3892 01b1 0E       		.uleb128 0xe
 3893 01b2 3A       		.uleb128 0x3a
 3894 01b3 0B       		.uleb128 0xb
 3895 01b4 3B       		.uleb128 0x3b
 3896 01b5 05       		.uleb128 0x5
 3897 01b6 49       		.uleb128 0x49
 3898 01b7 13       		.uleb128 0x13
 3899 01b8 02       		.uleb128 0x2
 3900 01b9 17       		.uleb128 0x17
 3901 01ba 00       		.byte	0
 3902 01bb 00       		.byte	0
 3903 01bc 24       		.uleb128 0x24
 3904 01bd 34       		.uleb128 0x34
 3905 01be 00       		.byte	0
 3906 01bf 03       		.uleb128 0x3
 3907 01c0 08       		.uleb128 0x8
 3908 01c1 3A       		.uleb128 0x3a
 3909 01c2 0B       		.uleb128 0xb
 3910 01c3 3B       		.uleb128 0x3b
 3911 01c4 05       		.uleb128 0x5
 3912 01c5 49       		.uleb128 0x49
 3913 01c6 13       		.uleb128 0x13
 3914 01c7 02       		.uleb128 0x2
 3915 01c8 17       		.uleb128 0x17
 3916 01c9 00       		.byte	0
 3917 01ca 00       		.byte	0
 3918 01cb 25       		.uleb128 0x25
 3919 01cc 898201   		.uleb128 0x4109
 3920 01cf 01       		.byte	0x1
 3921 01d0 11       		.uleb128 0x11
 3922 01d1 01       		.uleb128 0x1
 3923 01d2 01       		.uleb128 0x1
 3924 01d3 13       		.uleb128 0x13
 3925 01d4 00       		.byte	0
 3926 01d5 00       		.byte	0
 3927 01d6 26       		.uleb128 0x26
 3928 01d7 8A8201   		.uleb128 0x410a
 3929 01da 00       		.byte	0
ARM GAS  /var/folders/vd/czx34qs52cd_f3nb04sxmghc0000gn/T//ccI0nIfk.s 			page 70


 3930 01db 02       		.uleb128 0x2
 3931 01dc 18       		.uleb128 0x18
 3932 01dd 9142     		.uleb128 0x2111
 3933 01df 18       		.uleb128 0x18
 3934 01e0 00       		.byte	0
 3935 01e1 00       		.byte	0
 3936 01e2 27       		.uleb128 0x27
 3937 01e3 898201   		.uleb128 0x4109
 3938 01e6 01       		.byte	0x1
 3939 01e7 11       		.uleb128 0x11
 3940 01e8 01       		.uleb128 0x1
 3941 01e9 9542     		.uleb128 0x2115
 3942 01eb 19       		.uleb128 0x19
 3943 01ec 00       		.byte	0
 3944 01ed 00       		.byte	0
 3945 01ee 28       		.uleb128 0x28
 3946 01ef 34       		.uleb128 0x34
 3947 01f0 00       		.byte	0
 3948 01f1 03       		.uleb128 0x3
 3949 01f2 0E       		.uleb128 0xe
 3950 01f3 3A       		.uleb128 0x3a
 3951 01f4 0B       		.uleb128 0xb
 3952 01f5 3B       		.uleb128 0x3b
 3953 01f6 05       		.uleb128 0x5
 3954 01f7 49       		.uleb128 0x49
 3955 01f8 13       		.uleb128 0x13
 3956 01f9 02       		.uleb128 0x2
 3957 01fa 17       		.uleb128 0x17
 3958 01fb 00       		.byte	0
 3959 01fc 00       		.byte	0
 3960 01fd 29       		.uleb128 0x29
 3961 01fe 05       		.uleb128 0x5
 3962 01ff 00       		.byte	0
 3963 0200 03       		.uleb128 0x3
 3964 0201 0E       		.uleb128 0xe
 3965 0202 3A       		.uleb128 0x3a
 3966 0203 0B       		.uleb128 0xb
 3967 0204 3B       		.uleb128 0x3b
 3968 0205 05       		.uleb128 0x5
 3969 0206 49       		.uleb128 0x49
 3970 0207 13       		.uleb128 0x13
 3971 0208 02       		.uleb128 0x2
 3972 0209 18       		.uleb128 0x18
 3973 020a 00       		.byte	0
 3974 020b 00       		.byte	0
 3975 020c 2A       		.uleb128 0x2a
 3976 020d 898201   		.uleb128 0x4109
 3977 0210 01       		.byte	0x1
 3978 0211 11       		.uleb128 0x11
 3979 0212 01       		.uleb128 0x1
 3980 0213 31       		.uleb128 0x31
 3981 0214 13       		.uleb128 0x13
 3982 0215 00       		.byte	0
 3983 0216 00       		.byte	0
 3984 0217 2B       		.uleb128 0x2b
 3985 0218 34       		.uleb128 0x34
 3986 0219 00       		.byte	0
ARM GAS  /var/folders/vd/czx34qs52cd_f3nb04sxmghc0000gn/T//ccI0nIfk.s 			page 71


 3987 021a 03       		.uleb128 0x3
 3988 021b 0E       		.uleb128 0xe
 3989 021c 49       		.uleb128 0x49
 3990 021d 13       		.uleb128 0x13
 3991 021e 34       		.uleb128 0x34
 3992 021f 19       		.uleb128 0x19
 3993 0220 00       		.byte	0
 3994 0221 00       		.byte	0
 3995 0222 2C       		.uleb128 0x2c
 3996 0223 2E       		.uleb128 0x2e
 3997 0224 01       		.byte	0x1
 3998 0225 3F       		.uleb128 0x3f
 3999 0226 19       		.uleb128 0x19
 4000 0227 03       		.uleb128 0x3
 4001 0228 0E       		.uleb128 0xe
 4002 0229 3A       		.uleb128 0x3a
 4003 022a 0B       		.uleb128 0xb
 4004 022b 3B       		.uleb128 0x3b
 4005 022c 0B       		.uleb128 0xb
 4006 022d 27       		.uleb128 0x27
 4007 022e 19       		.uleb128 0x19
 4008 022f 11       		.uleb128 0x11
 4009 0230 01       		.uleb128 0x1
 4010 0231 12       		.uleb128 0x12
 4011 0232 06       		.uleb128 0x6
 4012 0233 40       		.uleb128 0x40
 4013 0234 18       		.uleb128 0x18
 4014 0235 9742     		.uleb128 0x2117
 4015 0237 19       		.uleb128 0x19
 4016 0238 01       		.uleb128 0x1
 4017 0239 13       		.uleb128 0x13
 4018 023a 00       		.byte	0
 4019 023b 00       		.byte	0
 4020 023c 2D       		.uleb128 0x2d
 4021 023d 898201   		.uleb128 0x4109
 4022 0240 01       		.byte	0x1
 4023 0241 11       		.uleb128 0x11
 4024 0242 01       		.uleb128 0x1
 4025 0243 31       		.uleb128 0x31
 4026 0244 13       		.uleb128 0x13
 4027 0245 01       		.uleb128 0x1
 4028 0246 13       		.uleb128 0x13
 4029 0247 00       		.byte	0
 4030 0248 00       		.byte	0
 4031 0249 2E       		.uleb128 0x2e
 4032 024a 898201   		.uleb128 0x4109
 4033 024d 00       		.byte	0
 4034 024e 11       		.uleb128 0x11
 4035 024f 01       		.uleb128 0x1
 4036 0250 9542     		.uleb128 0x2115
 4037 0252 19       		.uleb128 0x19
 4038 0253 31       		.uleb128 0x31
 4039 0254 13       		.uleb128 0x13
 4040 0255 00       		.byte	0
 4041 0256 00       		.byte	0
 4042 0257 2F       		.uleb128 0x2f
 4043 0258 2E       		.uleb128 0x2e
ARM GAS  /var/folders/vd/czx34qs52cd_f3nb04sxmghc0000gn/T//ccI0nIfk.s 			page 72


 4044 0259 00       		.byte	0
 4045 025a 3F       		.uleb128 0x3f
 4046 025b 19       		.uleb128 0x19
 4047 025c 3C       		.uleb128 0x3c
 4048 025d 19       		.uleb128 0x19
 4049 025e 6E       		.uleb128 0x6e
 4050 025f 0E       		.uleb128 0xe
 4051 0260 03       		.uleb128 0x3
 4052 0261 0E       		.uleb128 0xe
 4053 0262 3A       		.uleb128 0x3a
 4054 0263 0B       		.uleb128 0xb
 4055 0264 3B       		.uleb128 0x3b
 4056 0265 0B       		.uleb128 0xb
 4057 0266 00       		.byte	0
 4058 0267 00       		.byte	0
 4059 0268 30       		.uleb128 0x30
 4060 0269 2E       		.uleb128 0x2e
 4061 026a 00       		.byte	0
 4062 026b 3F       		.uleb128 0x3f
 4063 026c 19       		.uleb128 0x19
 4064 026d 3C       		.uleb128 0x3c
 4065 026e 19       		.uleb128 0x19
 4066 026f 6E       		.uleb128 0x6e
 4067 0270 0E       		.uleb128 0xe
 4068 0271 03       		.uleb128 0x3
 4069 0272 0E       		.uleb128 0xe
 4070 0273 3A       		.uleb128 0x3a
 4071 0274 0B       		.uleb128 0xb
 4072 0275 3B       		.uleb128 0x3b
 4073 0276 05       		.uleb128 0x5
 4074 0277 00       		.byte	0
 4075 0278 00       		.byte	0
 4076 0279 00       		.byte	0
 4077              		.section	.debug_loc,"",%progbits
 4078              	.Ldebug_loc0:
 4079              	.LLST13:
 4080 0000 00000000 		.4byte	.LVL42
 4081 0004 1D000000 		.4byte	.LVL45-1
 4082 0008 0100     		.2byte	0x1
 4083 000a 50       		.byte	0x50
 4084 000b 1D000000 		.4byte	.LVL45-1
 4085 000f 58000000 		.4byte	.LVL49
 4086 0013 0100     		.2byte	0x1
 4087 0015 55       		.byte	0x55
 4088 0016 58000000 		.4byte	.LVL49
 4089 001a 59000000 		.4byte	.LVL50-1
 4090 001e 0100     		.2byte	0x1
 4091 0020 50       		.byte	0x50
 4092 0021 59000000 		.4byte	.LVL50-1
 4093 0025 5A000000 		.4byte	.LVL50
 4094 0029 0400     		.2byte	0x4
 4095 002b F3       		.byte	0xf3
 4096 002c 01       		.uleb128 0x1
 4097 002d 50       		.byte	0x50
 4098 002e 9F       		.byte	0x9f
 4099 002f 5A000000 		.4byte	.LVL50
 4100 0033 5C000000 		.4byte	.LFE323
ARM GAS  /var/folders/vd/czx34qs52cd_f3nb04sxmghc0000gn/T//ccI0nIfk.s 			page 73


 4101 0037 0100     		.2byte	0x1
 4102 0039 55       		.byte	0x55
 4103 003a 00000000 		.4byte	0
 4104 003e 00000000 		.4byte	0
 4105              	.LLST14:
 4106 0042 06000000 		.4byte	.LVL43
 4107 0046 0A000000 		.4byte	.LVL44
 4108 004a 0100     		.2byte	0x1
 4109 004c 52       		.byte	0x52
 4110 004d 0A000000 		.4byte	.LVL44
 4111 0051 58000000 		.4byte	.LVL49
 4112 0055 0600     		.2byte	0x6
 4113 0057 74       		.byte	0x74
 4114 0058 00       		.sleb128 0
 4115 0059 08       		.byte	0x8
 4116 005a FF       		.byte	0xff
 4117 005b 1A       		.byte	0x1a
 4118 005c 9F       		.byte	0x9f
 4119 005d 5A000000 		.4byte	.LVL50
 4120 0061 5C000000 		.4byte	.LFE323
 4121 0065 0600     		.2byte	0x6
 4122 0067 74       		.byte	0x74
 4123 0068 00       		.sleb128 0
 4124 0069 08       		.byte	0x8
 4125 006a FF       		.byte	0xff
 4126 006b 1A       		.byte	0x1a
 4127 006c 9F       		.byte	0x9f
 4128 006d 00000000 		.4byte	0
 4129 0071 00000000 		.4byte	0
 4130              	.LLST11:
 4131 0075 00000000 		.4byte	.LVL39
 4132 0079 02000000 		.4byte	.LVL40
 4133 007d 0100     		.2byte	0x1
 4134 007f 50       		.byte	0x50
 4135 0080 02000000 		.4byte	.LVL40
 4136 0084 12000000 		.4byte	.LFE322
 4137 0088 0400     		.2byte	0x4
 4138 008a F3       		.byte	0xf3
 4139 008b 01       		.uleb128 0x1
 4140 008c 50       		.byte	0x50
 4141 008d 9F       		.byte	0x9f
 4142 008e 00000000 		.4byte	0
 4143 0092 00000000 		.4byte	0
 4144              	.LLST12:
 4145 0096 00000000 		.4byte	.LVL39
 4146 009a 0A000000 		.4byte	.LVL41
 4147 009e 0100     		.2byte	0x1
 4148 00a0 51       		.byte	0x51
 4149 00a1 0A000000 		.4byte	.LVL41
 4150 00a5 12000000 		.4byte	.LFE322
 4151 00a9 0400     		.2byte	0x4
 4152 00ab F3       		.byte	0xf3
 4153 00ac 01       		.uleb128 0x1
 4154 00ad 51       		.byte	0x51
 4155 00ae 9F       		.byte	0x9f
 4156 00af 00000000 		.4byte	0
 4157 00b3 00000000 		.4byte	0
ARM GAS  /var/folders/vd/czx34qs52cd_f3nb04sxmghc0000gn/T//ccI0nIfk.s 			page 74


 4158              	.LLST8:
 4159 00b7 00000000 		.4byte	.LVL34
 4160 00bb 02000000 		.4byte	.LVL35
 4161 00bf 0100     		.2byte	0x1
 4162 00c1 50       		.byte	0x50
 4163 00c2 02000000 		.4byte	.LVL35
 4164 00c6 18000000 		.4byte	.LFE321
 4165 00ca 0400     		.2byte	0x4
 4166 00cc F3       		.byte	0xf3
 4167 00cd 01       		.uleb128 0x1
 4168 00ce 50       		.byte	0x50
 4169 00cf 9F       		.byte	0x9f
 4170 00d0 00000000 		.4byte	0
 4171 00d4 00000000 		.4byte	0
 4172              	.LLST9:
 4173 00d8 00000000 		.4byte	.LVL34
 4174 00dc 0A000000 		.4byte	.LVL37
 4175 00e0 0100     		.2byte	0x1
 4176 00e2 51       		.byte	0x51
 4177 00e3 0A000000 		.4byte	.LVL37
 4178 00e7 18000000 		.4byte	.LFE321
 4179 00eb 0400     		.2byte	0x4
 4180 00ed F3       		.byte	0xf3
 4181 00ee 01       		.uleb128 0x1
 4182 00ef 51       		.byte	0x51
 4183 00f0 9F       		.byte	0x9f
 4184 00f1 00000000 		.4byte	0
 4185 00f5 00000000 		.4byte	0
 4186              	.LLST10:
 4187 00f9 06000000 		.4byte	.LVL36
 4188 00fd 10000000 		.4byte	.LVL38
 4189 0101 0100     		.2byte	0x1
 4190 0103 52       		.byte	0x52
 4191 0104 00000000 		.4byte	0
 4192 0108 00000000 		.4byte	0
 4193              	.LLST7:
 4194 010c 04000000 		.4byte	.LVL31
 4195 0110 0C000000 		.4byte	.LVL32
 4196 0114 0100     		.2byte	0x1
 4197 0116 53       		.byte	0x53
 4198 0117 00000000 		.4byte	0
 4199 011b 00000000 		.4byte	0
 4200              	.LLST5:
 4201 011f 00000000 		.4byte	.LVL27
 4202 0123 0C000000 		.4byte	.LVL28
 4203 0127 0100     		.2byte	0x1
 4204 0129 50       		.byte	0x50
 4205 012a 0C000000 		.4byte	.LVL28
 4206 012e 1E000000 		.4byte	.LFE318
 4207 0132 0400     		.2byte	0x4
 4208 0134 F3       		.byte	0xf3
 4209 0135 01       		.uleb128 0x1
 4210 0136 50       		.byte	0x50
 4211 0137 9F       		.byte	0x9f
 4212 0138 00000000 		.4byte	0
 4213 013c 00000000 		.4byte	0
 4214              	.LLST6:
ARM GAS  /var/folders/vd/czx34qs52cd_f3nb04sxmghc0000gn/T//ccI0nIfk.s 			page 75


 4215 0140 00000000 		.4byte	.LVL27
 4216 0144 16000000 		.4byte	.LVL29
 4217 0148 0100     		.2byte	0x1
 4218 014a 51       		.byte	0x51
 4219 014b 16000000 		.4byte	.LVL29
 4220 014f 1E000000 		.4byte	.LFE318
 4221 0153 0400     		.2byte	0x4
 4222 0155 F3       		.byte	0xf3
 4223 0156 01       		.uleb128 0x1
 4224 0157 51       		.byte	0x51
 4225 0158 9F       		.byte	0x9f
 4226 0159 00000000 		.4byte	0
 4227 015d 00000000 		.4byte	0
 4228              	.LLST4:
 4229 0161 00000000 		.4byte	.LVL25
 4230 0165 04000000 		.4byte	.LVL26
 4231 0169 0100     		.2byte	0x1
 4232 016b 51       		.byte	0x51
 4233 016c 04000000 		.4byte	.LVL26
 4234 0170 0C000000 		.4byte	.LFE317
 4235 0174 0400     		.2byte	0x4
 4236 0176 F3       		.byte	0xf3
 4237 0177 01       		.uleb128 0x1
 4238 0178 51       		.byte	0x51
 4239 0179 9F       		.byte	0x9f
 4240 017a 00000000 		.4byte	0
 4241 017e 00000000 		.4byte	0
 4242              	.LLST3:
 4243 0182 00000000 		.4byte	.LVL22
 4244 0186 1C000000 		.4byte	.LVL23
 4245 018a 0100     		.2byte	0x1
 4246 018c 50       		.byte	0x50
 4247 018d 1C000000 		.4byte	.LVL23
 4248 0191 34000000 		.4byte	.LFE316
 4249 0195 0400     		.2byte	0x4
 4250 0197 F3       		.byte	0xf3
 4251 0198 01       		.uleb128 0x1
 4252 0199 50       		.byte	0x50
 4253 019a 9F       		.byte	0x9f
 4254 019b 00000000 		.4byte	0
 4255 019f 00000000 		.4byte	0
 4256              	.LLST0:
 4257 01a3 00000000 		.4byte	.LVL1
 4258 01a7 1A000000 		.4byte	.LVL2
 4259 01ab 0100     		.2byte	0x1
 4260 01ad 50       		.byte	0x50
 4261 01ae 1A000000 		.4byte	.LVL2
 4262 01b2 2E000000 		.4byte	.LVL3
 4263 01b6 0100     		.2byte	0x1
 4264 01b8 54       		.byte	0x54
 4265 01b9 2E000000 		.4byte	.LVL3
 4266 01bd A2000000 		.4byte	.LVL17
 4267 01c1 0400     		.2byte	0x4
 4268 01c3 F3       		.byte	0xf3
 4269 01c4 01       		.uleb128 0x1
 4270 01c5 50       		.byte	0x50
 4271 01c6 9F       		.byte	0x9f
ARM GAS  /var/folders/vd/czx34qs52cd_f3nb04sxmghc0000gn/T//ccI0nIfk.s 			page 76


 4272 01c7 A2000000 		.4byte	.LVL17
 4273 01cb A8000000 		.4byte	.LVL18
 4274 01cf 0100     		.2byte	0x1
 4275 01d1 50       		.byte	0x50
 4276 01d2 A8000000 		.4byte	.LVL18
 4277 01d6 B4000000 		.4byte	.LVL19
 4278 01da 0100     		.2byte	0x1
 4279 01dc 54       		.byte	0x54
 4280 01dd B4000000 		.4byte	.LVL19
 4281 01e1 CA000000 		.4byte	.LVL20
 4282 01e5 0100     		.2byte	0x1
 4283 01e7 50       		.byte	0x50
 4284 01e8 CA000000 		.4byte	.LVL20
 4285 01ec EC000000 		.4byte	.LFE315
 4286 01f0 0100     		.2byte	0x1
 4287 01f2 54       		.byte	0x54
 4288 01f3 00000000 		.4byte	0
 4289 01f7 00000000 		.4byte	0
 4290              	.LLST1:
 4291 01fb 30000000 		.4byte	.LVL4
 4292 01ff 46000000 		.4byte	.LVL7
 4293 0203 0100     		.2byte	0x1
 4294 0205 50       		.byte	0x50
 4295 0206 46000000 		.4byte	.LVL7
 4296 020a A2000000 		.4byte	.LVL17
 4297 020e 1200     		.2byte	0x12
 4298 0210 F3       		.byte	0xf3
 4299 0211 01       		.uleb128 0x1
 4300 0212 50       		.byte	0x50
 4301 0213 23       		.byte	0x23
 4302 0214 14       		.uleb128 0x14
 4303 0215 06       		.byte	0x6
 4304 0216 F7       		.byte	0xf7
 4305 0217 25       		.uleb128 0x25
 4306 0218 76       		.byte	0x76
 4307 0219 00       		.sleb128 0
 4308 021a F7       		.byte	0xf7
 4309 021b 25       		.uleb128 0x25
 4310 021c 1B       		.byte	0x1b
 4311 021d F7       		.byte	0xf7
 4312 021e 00       		.uleb128 0
 4313 021f 31       		.byte	0x31
 4314 0220 1C       		.byte	0x1c
 4315 0221 9F       		.byte	0x9f
 4316 0222 00000000 		.4byte	0
 4317 0226 00000000 		.4byte	0
 4318              	.LLST2:
 4319 022a 3A000000 		.4byte	.LVL5
 4320 022e 44000000 		.4byte	.LVL6
 4321 0232 0200     		.2byte	0x2
 4322 0234 30       		.byte	0x30
 4323 0235 9F       		.byte	0x9f
 4324 0236 44000000 		.4byte	.LVL6
 4325 023a 80000000 		.4byte	.LVL10
 4326 023e 0100     		.2byte	0x1
 4327 0240 52       		.byte	0x52
 4328 0241 80000000 		.4byte	.LVL10
ARM GAS  /var/folders/vd/czx34qs52cd_f3nb04sxmghc0000gn/T//ccI0nIfk.s 			page 77


 4329 0245 86000000 		.4byte	.LVL11
 4330 0249 0200     		.2byte	0x2
 4331 024b 73       		.byte	0x73
 4332 024c 20       		.sleb128 32
 4333 024d 8E000000 		.4byte	.LVL12
 4334 0251 A2000000 		.4byte	.LVL17
 4335 0255 0100     		.2byte	0x1
 4336 0257 52       		.byte	0x52
 4337 0258 00000000 		.4byte	0
 4338 025c 00000000 		.4byte	0
 4339              		.section	.debug_aranges,"",%progbits
 4340 0000 6C000000 		.4byte	0x6c
 4341 0004 0200     		.2byte	0x2
 4342 0006 00000000 		.4byte	.Ldebug_info0
 4343 000a 04       		.byte	0x4
 4344 000b 00       		.byte	0
 4345 000c 0000     		.2byte	0
 4346 000e 0000     		.2byte	0
 4347 0010 00000000 		.4byte	.LFB314
 4348 0014 1C000000 		.4byte	.LFE314-.LFB314
 4349 0018 00000000 		.4byte	.LFB315
 4350 001c EC000000 		.4byte	.LFE315-.LFB315
 4351 0020 00000000 		.4byte	.LFB316
 4352 0024 34000000 		.4byte	.LFE316-.LFB316
 4353 0028 00000000 		.4byte	.LFB317
 4354 002c 0C000000 		.4byte	.LFE317-.LFB317
 4355 0030 00000000 		.4byte	.LFB318
 4356 0034 1E000000 		.4byte	.LFE318-.LFB318
 4357 0038 00000000 		.4byte	.LFB319
 4358 003c 16000000 		.4byte	.LFE319-.LFB319
 4359 0040 00000000 		.4byte	.LFB320
 4360 0044 0C000000 		.4byte	.LFE320-.LFB320
 4361 0048 00000000 		.4byte	.LFB321
 4362 004c 18000000 		.4byte	.LFE321-.LFB321
 4363 0050 00000000 		.4byte	.LFB322
 4364 0054 12000000 		.4byte	.LFE322-.LFB322
 4365 0058 00000000 		.4byte	.LFB323
 4366 005c 5C000000 		.4byte	.LFE323-.LFB323
 4367 0060 00000000 		.4byte	.LFB313
 4368 0064 14000000 		.4byte	.LFE313-.LFB313
 4369 0068 00000000 		.4byte	0
 4370 006c 00000000 		.4byte	0
 4371              		.section	.debug_ranges,"",%progbits
 4372              	.Ldebug_ranges0:
 4373 0000 00000000 		.4byte	.LFB314
 4374 0004 1C000000 		.4byte	.LFE314
 4375 0008 00000000 		.4byte	.LFB315
 4376 000c EC000000 		.4byte	.LFE315
 4377 0010 00000000 		.4byte	.LFB316
 4378 0014 34000000 		.4byte	.LFE316
 4379 0018 00000000 		.4byte	.LFB317
 4380 001c 0C000000 		.4byte	.LFE317
 4381 0020 00000000 		.4byte	.LFB318
 4382 0024 1E000000 		.4byte	.LFE318
 4383 0028 00000000 		.4byte	.LFB319
 4384 002c 16000000 		.4byte	.LFE319
 4385 0030 00000000 		.4byte	.LFB320
ARM GAS  /var/folders/vd/czx34qs52cd_f3nb04sxmghc0000gn/T//ccI0nIfk.s 			page 78


 4386 0034 0C000000 		.4byte	.LFE320
 4387 0038 00000000 		.4byte	.LFB321
 4388 003c 18000000 		.4byte	.LFE321
 4389 0040 00000000 		.4byte	.LFB322
 4390 0044 12000000 		.4byte	.LFE322
 4391 0048 00000000 		.4byte	.LFB323
 4392 004c 5C000000 		.4byte	.LFE323
 4393 0050 00000000 		.4byte	.LFB313
 4394 0054 14000000 		.4byte	.LFE313
 4395 0058 00000000 		.4byte	0
 4396 005c 00000000 		.4byte	0
 4397              		.section	.debug_line,"",%progbits
 4398              	.Ldebug_line0:
 4399 0000 CA050000 		.section	.debug_str,"MS",%progbits,1
 4399      02003004 
 4399      00000201 
 4399      FB0E0D00 
 4399      01010101 
 4400              	.LASF151:
 4401 0000 6F66665F 		.ascii	"off_ctx\000"
 4401      63747800 
 4402              	.LASF82:
 4403 0008 4D314152 		.ascii	"M1AR\000"
 4403      00
 4404              	.LASF201:
 4405 000d 73746D33 		.ascii	"stm32_dma_stream_t\000"
 4405      325F646D 
 4405      615F7374 
 4405      7265616D 
 4405      5F7400
 4406              	.LASF4:
 4407 0020 73697A65 		.ascii	"size_t\000"
 4407      5F7400
 4408              	.LASF150:
 4409 0027 6F66665F 		.ascii	"off_prio\000"
 4409      7072696F 
 4409      00
 4410              	.LASF174:
 4411 0030 656E646D 		.ascii	"endmem\000"
 4411      656D00
 4412              	.LASF135:
 4413 0037 77747365 		.ascii	"wtsemp\000"
 4413      6D7000
 4414              	.LASF74:
 4415 003e 73797374 		.ascii	"systime_t\000"
 4415      696D655F 
 4415      7400
 4416              	.LASF159:
 4417 0048 6F66665F 		.ascii	"off_preempt\000"
 4417      70726565 
 4417      6D707400 
 4418              	.LASF110:
 4419 0054 504C4C49 		.ascii	"PLLI2SCFGR\000"
 4419      32534346 
 4419      475200
 4420              	.LASF140:
 4421 005f 6F776E65 		.ascii	"owner\000"
ARM GAS  /var/folders/vd/czx34qs52cd_f3nb04sxmghc0000gn/T//ccI0nIfk.s 			page 79


 4421      7200
 4422              	.LASF25:
 4423 0065 74707269 		.ascii	"tprio_t\000"
 4423      6F5F7400 
 4424              	.LASF162:
 4425 006d 63685F64 		.ascii	"ch_debug\000"
 4425      65627567 
 4425      00
 4426              	.LASF180:
 4427 0076 70726F76 		.ascii	"provider\000"
 4427      69646572 
 4427      00
 4428              	.LASF18:
 4429 007f 696E7433 		.ascii	"int32_t\000"
 4429      325F7400 
 4430              	.LASF256:
 4431 0087 77726974 		.ascii	"writet\000"
 4431      657400
 4432              	.LASF58:
 4433 008e 76746675 		.ascii	"vtfunc_t\000"
 4433      6E635F74 
 4433      00
 4434              	.LASF64:
 4435 0097 63685F76 		.ascii	"ch_virtual_timers_list\000"
 4435      69727475 
 4435      616C5F74 
 4435      696D6572 
 4435      735F6C69 
 4436              	.LASF280:
 4437 00ae 5F5F6675 		.ascii	"__func__\000"
 4437      6E635F5F 
 4437      00
 4438              	.LASF259:
 4439 00b7 70776D5F 		.ascii	"pwm_lld_disable_channel_notification\000"
 4439      6C6C645F 
 4439      64697361 
 4439      626C655F 
 4439      6368616E 
 4440              	.LASF252:
 4441 00dc 77726974 		.ascii	"write\000"
 4441      6500
 4442              	.LASF182:
 4443 00e2 63685F64 		.ascii	"ch_dyn_element\000"
 4443      796E5F65 
 4443      6C656D65 
 4443      6E7400
 4444              	.LASF231:
 4445 00f1 70776D63 		.ascii	"pwmchnmsk_t\000"
 4445      686E6D73 
 4445      6B5F7400 
 4446              	.LASF223:
 4447 00fd 636F6E66 		.ascii	"config\000"
 4447      696700
 4448              	.LASF38:
 4449 0104 73746174 		.ascii	"state\000"
 4449      6500
 4450              	.LASF254:
ARM GAS  /var/folders/vd/czx34qs52cd_f3nb04sxmghc0000gn/T//ccI0nIfk.s 			page 80


 4451 010a 70757474 		.ascii	"putt\000"
 4451      00
 4452              	.LASF235:
 4453 010f 50574D43 		.ascii	"PWMChannelConfig\000"
 4453      68616E6E 
 4453      656C436F 
 4453      6E666967 
 4453      00
 4454              	.LASF187:
 4455 0120 6F626A5F 		.ascii	"obj_list\000"
 4455      6C697374 
 4455      00
 4456              	.LASF124:
 4457 0129 444D4152 		.ascii	"DMAR\000"
 4457      00
 4458              	.LASF237:
 4459 012e 64696572 		.ascii	"dier\000"
 4459      00
 4460              	.LASF218:
 4461 0133 50574D5F 		.ascii	"PWM_UNINIT\000"
 4461      554E494E 
 4461      495400
 4462              	.LASF153:
 4463 013e 6F66665F 		.ascii	"off_older\000"
 4463      6F6C6465 
 4463      7200
 4464              	.LASF33:
 4465 0148 7072696F 		.ascii	"prio\000"
 4465      00
 4466              	.LASF268:
 4467 014d 70776D5F 		.ascii	"pwm_lld_stop\000"
 4467      6C6C645F 
 4467      73746F70 
 4467      00
 4468              	.LASF131:
 4469 015a 65786974 		.ascii	"exitcode\000"
 4469      636F6465 
 4469      00
 4470              	.LASF5:
 4471 0163 5F5F7569 		.ascii	"__uint8_t\000"
 4471      6E74385F 
 4471      7400
 4472              	.LASF208:
 4473 016d 715F746F 		.ascii	"q_top\000"
 4473      7000
 4474              	.LASF196:
 4475 0173 73747265 		.ascii	"stream\000"
 4475      616D00
 4476              	.LASF101:
 4477 017a 41484232 		.ascii	"AHB2LPENR\000"
 4477      4C50454E 
 4477      5200
 4478              	.LASF257:
 4479 0184 72656164 		.ascii	"readt\000"
 4479      7400
 4480              	.LASF207:
 4481 018a 715F6275 		.ascii	"q_buffer\000"
ARM GAS  /var/folders/vd/czx34qs52cd_f3nb04sxmghc0000gn/T//ccI0nIfk.s 			page 81


 4481      66666572 
 4481      00
 4482              	.LASF211:
 4483 0193 715F6E6F 		.ascii	"q_notify\000"
 4483      74696679 
 4483      00
 4484              	.LASF234:
 4485 019c 63616C6C 		.ascii	"callback\000"
 4485      6261636B 
 4485      00
 4486              	.LASF11:
 4487 01a5 6C6F6E67 		.ascii	"long int\000"
 4487      20696E74 
 4487      00
 4488              	.LASF210:
 4489 01ae 715F7264 		.ascii	"q_rdptr\000"
 4489      70747200 
 4490              	.LASF144:
 4491 01b6 7A65726F 		.ascii	"zero\000"
 4491      00
 4492              	.LASF23:
 4493 01bb 74737461 		.ascii	"tstate_t\000"
 4493      74655F74 
 4493      00
 4494              	.LASF43:
 4495 01c4 6570656E 		.ascii	"epending\000"
 4495      64696E67 
 4495      00
 4496              	.LASF52:
 4497 01cd 74687265 		.ascii	"threads_queue_t\000"
 4497      6164735F 
 4497      71756575 
 4497      655F7400 
 4498              	.LASF247:
 4499 01dd 6F717565 		.ascii	"oqueue\000"
 4499      756500
 4500              	.LASF114:
 4501 01e4 72656761 		.ascii	"regarm_t\000"
 4501      726D5F74 
 4501      00
 4502              	.LASF212:
 4503 01ed 715F6C69 		.ascii	"q_link\000"
 4503      6E6B00
 4504              	.LASF230:
 4505 01f4 70776D63 		.ascii	"pwmchannel_t\000"
 4505      68616E6E 
 4505      656C5F74 
 4505      00
 4506              	.LASF98:
 4507 0201 41504232 		.ascii	"APB2ENR\000"
 4507      454E5200 
 4508              	.LASF188:
 4509 0209 6F626A5F 		.ascii	"obj_pool\000"
 4509      706F6F6C 
 4509      00
 4510              	.LASF100:
 4511 0212 41484231 		.ascii	"AHB1LPENR\000"
ARM GAS  /var/folders/vd/czx34qs52cd_f3nb04sxmghc0000gn/T//ccI0nIfk.s 			page 82


 4511      4C50454E 
 4511      5200
 4512              	.LASF248:
 4513 021c 75736172 		.ascii	"usart\000"
 4513      7400
 4514              	.LASF175:
 4515 0222 6D656D63 		.ascii	"memcore_t\000"
 4515      6F72655F 
 4515      7400
 4516              	.LASF204:
 4517 022c 696F5F71 		.ascii	"io_queue\000"
 4517      75657565 
 4517      00
 4518              	.LASF3:
 4519 0235 7369676E 		.ascii	"signed char\000"
 4519      65642063 
 4519      68617200 
 4520              	.LASF137:
 4521 0241 65776D61 		.ascii	"ewmask\000"
 4521      736B00
 4522              	.LASF16:
 4523 0248 75696E74 		.ascii	"uint8_t\000"
 4523      385F7400 
 4524              	.LASF27:
 4525 0250 6576656E 		.ascii	"eventmask_t\000"
 4525      746D6173 
 4525      6B5F7400 
 4526              	.LASF133:
 4527 025c 77747472 		.ascii	"wttrp\000"
 4527      7000
 4528              	.LASF232:
 4529 0262 70776D63 		.ascii	"pwmcnt_t\000"
 4529      6E745F74 
 4529      00
 4530              	.LASF89:
 4531 026b 52455345 		.ascii	"RESERVED0\000"
 4531      52564544 
 4531      3000
 4532              	.LASF92:
 4533 0275 52455345 		.ascii	"RESERVED1\000"
 4533      52564544 
 4533      3100
 4534              	.LASF6:
 4535 027f 756E7369 		.ascii	"unsigned char\000"
 4535      676E6564 
 4535      20636861 
 4535      7200
 4536              	.LASF99:
 4537 028d 52455345 		.ascii	"RESERVED3\000"
 4537      52564544 
 4537      3300
 4538              	.LASF103:
 4539 0297 52455345 		.ascii	"RESERVED4\000"
 4539      52564544 
 4539      3400
 4540              	.LASF106:
 4541 02a1 52455345 		.ascii	"RESERVED5\000"
ARM GAS  /var/folders/vd/czx34qs52cd_f3nb04sxmghc0000gn/T//ccI0nIfk.s 			page 83


 4541      52564544 
 4541      3500
 4542              	.LASF278:
 4543 02ab 2E2E2F6F 		.ascii	"../os/hal/ports/STM32/LLD/TIMv1/hal_pwm_lld.c\000"
 4543      732F6861 
 4543      6C2F706F 
 4543      7274732F 
 4543      53544D33 
 4544              	.LASF68:
 4545 02d9 70616E69 		.ascii	"panic_msg\000"
 4545      635F6D73 
 4545      6700
 4546              	.LASF66:
 4547 02e3 73797374 		.ascii	"system_debug_t\000"
 4547      656D5F64 
 4547      65627567 
 4547      5F7400
 4548              	.LASF240:
 4549 02f2 53445F55 		.ascii	"SD_UNINIT\000"
 4549      4E494E49 
 4549      5400
 4550              	.LASF171:
 4551 02fc 5F426F6F 		.ascii	"_Bool\000"
 4551      6C00
 4552              	.LASF96:
 4553 0302 52455345 		.ascii	"RESERVED2\000"
 4553      52564544 
 4553      3200
 4554              	.LASF108:
 4555 030c 52455345 		.ascii	"RESERVED6\000"
 4555      52564544 
 4555      3600
 4556              	.LASF121:
 4557 0316 43434D52 		.ascii	"CCMR2\000"
 4557      3200
 4558              	.LASF125:
 4559 031c 43434D52 		.ascii	"CCMR3\000"
 4559      3300
 4560              	.LASF141:
 4561 0322 63686172 		.ascii	"char\000"
 4561      00
 4562              	.LASF198:
 4563 0327 69736869 		.ascii	"ishift\000"
 4563      667400
 4564              	.LASF86:
 4565 032e 41484231 		.ascii	"AHB1RSTR\000"
 4565      52535452 
 4565      00
 4566              	.LASF190:
 4567 0337 73656D5F 		.ascii	"sem_list\000"
 4567      6C697374 
 4567      00
 4568              	.LASF8:
 4569 0340 5F5F7569 		.ascii	"__uint16_t\000"
 4569      6E743136 
 4569      5F7400
 4570              	.LASF94:
ARM GAS  /var/folders/vd/czx34qs52cd_f3nb04sxmghc0000gn/T//ccI0nIfk.s 			page 84


 4571 034b 41484232 		.ascii	"AHB2ENR\000"
 4571      454E5200 
 4572              	.LASF132:
 4573 0353 77746F62 		.ascii	"wtobjp\000"
 4573      6A7000
 4574              	.LASF216:
 4575 035a 70616C65 		.ascii	"palevent_t\000"
 4575      76656E74 
 4575      5F7400
 4576              	.LASF158:
 4577 0365 6F66665F 		.ascii	"off_refs\000"
 4577      72656673 
 4577      00
 4578              	.LASF39:
 4579 036e 666C6167 		.ascii	"flags\000"
 4579      7300
 4580              	.LASF255:
 4581 0374 67657474 		.ascii	"gett\000"
 4581      00
 4582              	.LASF115:
 4583 0379 73746B61 		.ascii	"stkalign_t\000"
 4583      6C69676E 
 4583      5F7400
 4584              	.LASF113:
 4585 0384 55534152 		.ascii	"USART_TypeDef\000"
 4585      545F5479 
 4585      70654465 
 4585      6600
 4586              	.LASF46:
 4587 0392 6D706F6F 		.ascii	"mpool\000"
 4587      6C00
 4588              	.LASF164:
 4589 0398 6576656E 		.ascii	"event_listener_t\000"
 4589      745F6C69 
 4589      7374656E 
 4589      65725F74 
 4589      00
 4590              	.LASF147:
 4591 03a9 70747273 		.ascii	"ptrsize\000"
 4591      697A6500 
 4592              	.LASF126:
 4593 03b1 43435852 		.ascii	"CCXR\000"
 4593      00
 4594              	.LASF107:
 4595 03b6 42444352 		.ascii	"BDCR\000"
 4595      00
 4596              	.LASF160:
 4597 03bb 6F66665F 		.ascii	"off_time\000"
 4597      74696D65 
 4597      00
 4598              	.LASF229:
 4599 03c4 70776D6D 		.ascii	"pwmmode_t\000"
 4599      6F64655F 
 4599      7400
 4600              	.LASF29:
 4601 03ce 636E745F 		.ascii	"cnt_t\000"
 4601      7400
ARM GAS  /var/folders/vd/czx34qs52cd_f3nb04sxmghc0000gn/T//ccI0nIfk.s 			page 85


 4602              	.LASF249:
 4603 03d4 72786D61 		.ascii	"rxmask\000"
 4603      736B00
 4604              	.LASF65:
 4605 03db 6C617374 		.ascii	"lasttime\000"
 4605      74696D65 
 4605      00
 4606              	.LASF183:
 4607 03e4 64796E5F 		.ascii	"dyn_element_t\000"
 4607      656C656D 
 4607      656E745F 
 4607      7400
 4608              	.LASF136:
 4609 03f2 77746D74 		.ascii	"wtmtxp\000"
 4609      787000
 4610              	.LASF56:
 4611 03f9 63685F72 		.ascii	"ch_ready_list\000"
 4611      65616479 
 4611      5F6C6973 
 4611      7400
 4612              	.LASF191:
 4613 0407 73656D5F 		.ascii	"sem_pool\000"
 4613      706F6F6C 
 4613      00
 4614              	.LASF85:
 4615 0410 43464752 		.ascii	"CFGR\000"
 4615      00
 4616              	.LASF270:
 4617 0415 63636572 		.ascii	"ccer\000"
 4617      00
 4618              	.LASF173:
 4619 041a 6E657874 		.ascii	"nextmem\000"
 4619      6D656D00 
 4620              	.LASF263:
 4621 0422 70776D5F 		.ascii	"pwm_lld_disable_periodic_notification\000"
 4621      6C6C645F 
 4621      64697361 
 4621      626C655F 
 4621      70657269 
 4622              	.LASF206:
 4623 0448 715F636F 		.ascii	"q_counter\000"
 4623      756E7465 
 4623      7200
 4624              	.LASF225:
 4625 0452 656E6162 		.ascii	"enabled\000"
 4625      6C656400 
 4626              	.LASF14:
 4627 045a 5F5F7569 		.ascii	"__uint64_t\000"
 4627      6E743634 
 4627      5F7400
 4628              	.LASF156:
 4629 0465 6F66665F 		.ascii	"off_state\000"
 4629      73746174 
 4629      6500
 4630              	.LASF13:
 4631 046f 6C6F6E67 		.ascii	"long unsigned int\000"
 4631      20756E73 
ARM GAS  /var/folders/vd/czx34qs52cd_f3nb04sxmghc0000gn/T//ccI0nIfk.s 			page 86


 4631      69676E65 
 4631      6420696E 
 4631      7400
 4632              	.LASF149:
 4633 0481 74687265 		.ascii	"threadsize\000"
 4633      61647369 
 4633      7A6500
 4634              	.LASF119:
 4635 048c 44494552 		.ascii	"DIER\000"
 4635      00
 4636              	.LASF77:
 4637 0491 53797374 		.ascii	"SystemCoreClock\000"
 4637      656D436F 
 4637      7265436C 
 4637      6F636B00 
 4638              	.LASF138:
 4639 04a1 63685F73 		.ascii	"ch_semaphore\000"
 4639      656D6170 
 4639      686F7265 
 4639      00
 4640              	.LASF261:
 4641 04ae 6368616E 		.ascii	"channel\000"
 4641      6E656C00 
 4642              	.LASF49:
 4643 04b6 63685F74 		.ascii	"ch_thread\000"
 4643      68726561 
 4643      6400
 4644              	.LASF63:
 4645 04c0 76697274 		.ascii	"virtual_timers_list_t\000"
 4645      75616C5F 
 4645      74696D65 
 4645      72735F6C 
 4645      6973745F 
 4646              	.LASF142:
 4647 04d6 63685F69 		.ascii	"ch_idle_thread_wa\000"
 4647      646C655F 
 4647      74687265 
 4647      61645F77 
 4647      6100
 4648              	.LASF202:
 4649 04e8 5F73746D 		.ascii	"_stm32_dma_streams\000"
 4649      33325F64 
 4649      6D615F73 
 4649      74726561 
 4649      6D7300
 4650              	.LASF193:
 4651 04fb 6669666F 		.ascii	"fifo_list\000"
 4651      5F6C6973 
 4651      7400
 4652              	.LASF59:
 4653 0505 76697274 		.ascii	"virtual_timer_t\000"
 4653      75616C5F 
 4653      74696D65 
 4653      725F7400 
 4654              	.LASF55:
 4655 0515 72656164 		.ascii	"ready_list_t\000"
 4655      795F6C69 
ARM GAS  /var/folders/vd/czx34qs52cd_f3nb04sxmghc0000gn/T//ccI0nIfk.s 			page 87


 4655      73745F74 
 4655      00
 4656              	.LASF35:
 4657 0522 6F6C6465 		.ascii	"older\000"
 4657      7200
 4658              	.LASF250:
 4659 0528 53657269 		.ascii	"SerialDriverVMT\000"
 4659      616C4472 
 4659      69766572 
 4659      564D5400 
 4660              	.LASF45:
 4661 0538 7265616C 		.ascii	"realprio\000"
 4661      7072696F 
 4661      00
 4662              	.LASF127:
 4663 0541 73746D33 		.ascii	"stm32_tim_t\000"
 4663      325F7469 
 4663      6D5F7400 
 4664              	.LASF30:
 4665 054d 75636E74 		.ascii	"ucnt_t\000"
 4665      5F7400
 4666              	.LASF227:
 4667 0554 636C6F63 		.ascii	"clock\000"
 4667      6B00
 4668              	.LASF155:
 4669 055a 6F66665F 		.ascii	"off_stklimit\000"
 4669      73746B6C 
 4669      696D6974 
 4669      00
 4670              	.LASF177:
 4671 0567 706F6F6C 		.ascii	"pool_header\000"
 4671      5F686561 
 4671      64657200 
 4672              	.LASF50:
 4673 0573 63685F74 		.ascii	"ch_threads_list\000"
 4673      68726561 
 4673      64735F6C 
 4673      69737400 
 4674              	.LASF277:
 4675 0583 474E5520 		.ascii	"GNU C11 7.2.1 20170904 (release) [ARM/embedded-7-br"
 4675      43313120 
 4675      372E322E 
 4675      31203230 
 4675      31373039 
 4676 05b6 616E6368 		.ascii	"anch revision 255204] -mcpu=cortex-m4 -mno-thumb-in"
 4676      20726576 
 4676      6973696F 
 4676      6E203235 
 4676      35323034 
 4677 05e9 74657277 		.ascii	"terwork -mthumb -ggdb -O2 -fomit-frame-pointer -fal"
 4677      6F726B20 
 4677      2D6D7468 
 4677      756D6220 
 4677      2D676764 
 4678 061c 69676E2D 		.ascii	"ign-functions=16 -ffunction-sections -fdata-section"
 4678      66756E63 
 4678      74696F6E 
ARM GAS  /var/folders/vd/czx34qs52cd_f3nb04sxmghc0000gn/T//ccI0nIfk.s 			page 88


 4678      733D3136 
 4678      202D6666 
 4679 064f 73202D66 		.ascii	"s -fno-common\000"
 4679      6E6F2D63 
 4679      6F6D6D6F 
 4679      6E00
 4680              	.LASF84:
 4681 065d 504C4C43 		.ascii	"PLLCFGR\000"
 4681      46475200 
 4682              	.LASF12:
 4683 0665 5F5F7569 		.ascii	"__uint32_t\000"
 4683      6E743332 
 4683      5F7400
 4684              	.LASF44:
 4685 0670 6D74786C 		.ascii	"mtxlist\000"
 4685      69737400 
 4686              	.LASF1:
 4687 0678 6C6F6E67 		.ascii	"long long int\000"
 4687      206C6F6E 
 4687      6720696E 
 4687      7400
 4688              	.LASF75:
 4689 0686 73797369 		.ascii	"sysinterval_t\000"
 4689      6E746572 
 4689      76616C5F 
 4689      7400
 4690              	.LASF267:
 4691 0694 77696474 		.ascii	"width\000"
 4691      6800
 4692              	.LASF109:
 4693 069a 53534347 		.ascii	"SSCGR\000"
 4693      5200
 4694              	.LASF186:
 4695 06a0 63685F6F 		.ascii	"ch_objects_factory\000"
 4695      626A6563 
 4695      74735F66 
 4695      6163746F 
 4695      727900
 4696              	.LASF112:
 4697 06b3 47545052 		.ascii	"GTPR\000"
 4697      00
 4698              	.LASF260:
 4699 06b8 70776D70 		.ascii	"pwmp\000"
 4699      00
 4700              	.LASF91:
 4701 06bd 41504232 		.ascii	"APB2RSTR\000"
 4701      52535452 
 4701      00
 4702              	.LASF265:
 4703 06c6 70776D5F 		.ascii	"pwm_lld_disable_channel\000"
 4703      6C6C645F 
 4703      64697361 
 4703      626C655F 
 4703      6368616E 
 4704              	.LASF170:
 4705 06de 6576656E 		.ascii	"event_source_t\000"
 4705      745F736F 
ARM GAS  /var/folders/vd/czx34qs52cd_f3nb04sxmghc0000gn/T//ccI0nIfk.s 			page 89


 4705      75726365 
 4705      5F7400
 4706              	.LASF179:
 4707 06ed 616C6967 		.ascii	"align\000"
 4707      6E00
 4708              	.LASF76:
 4709 06f3 49544D5F 		.ascii	"ITM_RxBuffer\000"
 4709      52784275 
 4709      66666572 
 4709      00
 4710              	.LASF236:
 4711 0700 66726571 		.ascii	"frequency\000"
 4711      75656E63 
 4711      7900
 4712              	.LASF105:
 4713 070a 41504232 		.ascii	"APB2LPENR\000"
 4713      4C50454E 
 4713      5200
 4714              	.LASF213:
 4715 0714 716E6F74 		.ascii	"qnotify_t\000"
 4715      6966795F 
 4715      7400
 4716              	.LASF245:
 4717 071e 6576656E 		.ascii	"event\000"
 4717      7400
 4718              	.LASF253:
 4719 0724 72656164 		.ascii	"read\000"
 4719      00
 4720              	.LASF152:
 4721 0729 6F66665F 		.ascii	"off_newer\000"
 4721      6E657765 
 4721      7200
 4722              	.LASF199:
 4723 0733 73656C66 		.ascii	"selfindex\000"
 4723      696E6465 
 4723      7800
 4724              	.LASF0:
 4725 073d 756E7369 		.ascii	"unsigned int\000"
 4725      676E6564 
 4725      20696E74 
 4725      00
 4726              	.LASF21:
 4727 074a 7274636E 		.ascii	"rtcnt_t\000"
 4727      745F7400 
 4728              	.LASF226:
 4729 0752 6368616E 		.ascii	"channels\000"
 4729      6E656C73 
 4729      00
 4730              	.LASF120:
 4731 075b 43434D52 		.ascii	"CCMR1\000"
 4731      3100
 4732              	.LASF269:
 4733 0761 70776D5F 		.ascii	"pwm_lld_start\000"
 4733      6C6C645F 
 4733      73746172 
 4733      7400
 4734              	.LASF228:
ARM GAS  /var/folders/vd/czx34qs52cd_f3nb04sxmghc0000gn/T//ccI0nIfk.s 			page 90


 4735 076f 70776D63 		.ascii	"pwmcallback_t\000"
 4735      616C6C62 
 4735      61636B5F 
 4735      7400
 4736              	.LASF276:
 4737 077d 5F706F72 		.ascii	"_port_irq_epilogue\000"
 4737      745F6972 
 4737      715F6570 
 4737      696C6F67 
 4737      756500
 4738              	.LASF57:
 4739 0790 63757272 		.ascii	"current\000"
 4739      656E7400 
 4740              	.LASF222:
 4741 0798 50574D44 		.ascii	"PWMDriver\000"
 4741      72697665 
 4741      7200
 4742              	.LASF128:
 4743 07a2 6F666673 		.ascii	"offset\000"
 4743      657400
 4744              	.LASF104:
 4745 07a9 41504231 		.ascii	"APB1LPENR\000"
 4745      4C50454E 
 4745      5200
 4746              	.LASF83:
 4747 07b3 444D415F 		.ascii	"DMA_Stream_TypeDef\000"
 4747      53747265 
 4747      616D5F54 
 4747      79706544 
 4747      656600
 4748              	.LASF264:
 4749 07c6 70776D5F 		.ascii	"pwm_lld_enable_periodic_notification\000"
 4749      6C6C645F 
 4749      656E6162 
 4749      6C655F70 
 4749      6572696F 
 4750              	.LASF172:
 4751 07eb 6D656D67 		.ascii	"memgetfunc_t\000"
 4751      65746675 
 4751      6E635F74 
 4751      00
 4752              	.LASF217:
 4753 07f8 5F70616C 		.ascii	"_pal_events\000"
 4753      5F657665 
 4753      6E747300 
 4754              	.LASF88:
 4755 0804 41484233 		.ascii	"AHB3RSTR\000"
 4755      52535452 
 4755      00
 4756              	.LASF31:
 4757 080d 74687265 		.ascii	"thread_t\000"
 4757      61645F74 
 4757      00
 4758              	.LASF2:
 4759 0816 6C6F6E67 		.ascii	"long double\000"
 4759      20646F75 
 4759      626C6500 
ARM GAS  /var/folders/vd/czx34qs52cd_f3nb04sxmghc0000gn/T//ccI0nIfk.s 			page 91


 4760              	.LASF168:
 4761 0822 77666C61 		.ascii	"wflags\000"
 4761      677300
 4762              	.LASF273:
 4763 0829 6E766963 		.ascii	"nvicDisableVector\000"
 4763      44697361 
 4763      626C6556 
 4763      6563746F 
 4763      7200
 4764              	.LASF47:
 4765 083b 74687265 		.ascii	"thread_reference_t\000"
 4765      61645F72 
 4765      65666572 
 4765      656E6365 
 4765      5F7400
 4766              	.LASF134:
 4767 084e 73656E74 		.ascii	"sentmsg\000"
 4767      6D736700 
 4768              	.LASF117:
 4769 0856 706F7274 		.ascii	"port_intctx\000"
 4769      5F696E74 
 4769      63747800 
 4770              	.LASF194:
 4771 0862 6F626A65 		.ascii	"objects_factory_t\000"
 4771      6374735F 
 4771      66616374 
 4771      6F72795F 
 4771      7400
 4772              	.LASF189:
 4773 0874 6275665F 		.ascii	"buf_list\000"
 4773      6C697374 
 4773      00
 4774              	.LASF271:
 4775 087d 70776D5F 		.ascii	"pwm_lld_init\000"
 4775      6C6C645F 
 4775      696E6974 
 4775      00
 4776              	.LASF90:
 4777 088a 41504231 		.ascii	"APB1RSTR\000"
 4777      52535452 
 4777      00
 4778              	.LASF78:
 4779 0893 41484250 		.ascii	"AHBPrescTable\000"
 4779      72657363 
 4779      5461626C 
 4779      6500
 4780              	.LASF60:
 4781 08a1 63685F76 		.ascii	"ch_virtual_timer\000"
 4781      69727475 
 4781      616C5F74 
 4781      696D6572 
 4781      00
 4782              	.LASF97:
 4783 08b2 41504231 		.ascii	"APB1ENR\000"
 4783      454E5200 
 4784              	.LASF145:
 4785 08ba 73697A65 		.ascii	"size\000"
ARM GAS  /var/folders/vd/czx34qs52cd_f3nb04sxmghc0000gn/T//ccI0nIfk.s 			page 92


 4785      00
 4786              	.LASF15:
 4787 08bf 6C6F6E67 		.ascii	"long long unsigned int\000"
 4787      206C6F6E 
 4787      6720756E 
 4787      7369676E 
 4787      65642069 
 4788              	.LASF219:
 4789 08d6 50574D5F 		.ascii	"PWM_STOP\000"
 4789      53544F50 
 4789      00
 4790              	.LASF17:
 4791 08df 75696E74 		.ascii	"uint16_t\000"
 4791      31365F74 
 4791      00
 4792              	.LASF154:
 4793 08e8 6F66665F 		.ascii	"off_name\000"
 4793      6E616D65 
 4793      00
 4794              	.LASF26:
 4795 08f1 6D73675F 		.ascii	"msg_t\000"
 4795      7400
 4796              	.LASF53:
 4797 08f7 63685F74 		.ascii	"ch_threads_queue\000"
 4797      68726561 
 4797      64735F71 
 4797      75657565 
 4797      00
 4798              	.LASF28:
 4799 0908 6576656E 		.ascii	"eventflags_t\000"
 4799      74666C61 
 4799      67735F74 
 4799      00
 4800              	.LASF122:
 4801 0915 43434552 		.ascii	"CCER\000"
 4801      00
 4802              	.LASF61:
 4803 091a 64656C74 		.ascii	"delta\000"
 4803      6100
 4804              	.LASF40:
 4805 0920 72656673 		.ascii	"refs\000"
 4805      00
 4806              	.LASF32:
 4807 0925 71756575 		.ascii	"queue\000"
 4807      6500
 4808              	.LASF200:
 4809 092b 76656374 		.ascii	"vector\000"
 4809      6F7200
 4810              	.LASF195:
 4811 0932 63685F66 		.ascii	"ch_factory\000"
 4811      6163746F 
 4811      727900
 4812              	.LASF192:
 4813 093d 6D62785F 		.ascii	"mbx_list\000"
 4813      6C697374 
 4813      00
 4814              	.LASF73:
ARM GAS  /var/folders/vd/czx34qs52cd_f3nb04sxmghc0000gn/T//ccI0nIfk.s 			page 93


 4815 0946 6D61696E 		.ascii	"mainthread\000"
 4815      74687265 
 4815      616400
 4816              	.LASF118:
 4817 0951 534D4352 		.ascii	"SMCR\000"
 4817      00
 4818              	.LASF224:
 4819 0956 70657269 		.ascii	"period\000"
 4819      6F6400
 4820              	.LASF146:
 4821 095d 76657273 		.ascii	"version\000"
 4821      696F6E00 
 4822              	.LASF102:
 4823 0965 41484233 		.ascii	"AHB3LPENR\000"
 4823      4C50454E 
 4823      5200
 4824              	.LASF258:
 4825 096f 70776D5F 		.ascii	"pwm_lld_serve_interrupt\000"
 4825      6C6C645F 
 4825      73657276 
 4825      655F696E 
 4825      74657272 
 4826              	.LASF37:
 4827 0987 77616261 		.ascii	"wabase\000"
 4827      736500
 4828              	.LASF244:
 4829 098e 53657269 		.ascii	"SerialDriver\000"
 4829      616C4472 
 4829      69766572 
 4829      00
 4830              	.LASF181:
 4831 099b 6D656D6F 		.ascii	"memory_pool_t\000"
 4831      72795F70 
 4831      6F6F6C5F 
 4831      7400
 4832              	.LASF205:
 4833 09a9 715F7761 		.ascii	"q_waiting\000"
 4833      6974696E 
 4833      6700
 4834              	.LASF71:
 4835 09b3 726C6973 		.ascii	"rlist\000"
 4835      7400
 4836              	.LASF22:
 4837 09b9 746D6F64 		.ascii	"tmode_t\000"
 4837      655F7400 
 4838              	.LASF243:
 4839 09c1 73647374 		.ascii	"sdstate_t\000"
 4839      6174655F 
 4839      7400
 4840              	.LASF93:
 4841 09cb 41484231 		.ascii	"AHB1ENR\000"
 4841      454E5200 
 4842              	.LASF242:
 4843 09d3 53445F52 		.ascii	"SD_READY\000"
 4843      45414459 
 4843      00
 4844              	.LASF95:
ARM GAS  /var/folders/vd/czx34qs52cd_f3nb04sxmghc0000gn/T//ccI0nIfk.s 			page 94


 4845 09dc 41484233 		.ascii	"AHB3ENR\000"
 4845      454E5200 
 4846              	.LASF129:
 4847 09e4 746D5F63 		.ascii	"tm_calibration_t\000"
 4847      616C6962 
 4847      72617469 
 4847      6F6E5F74 
 4847      00
 4848              	.LASF87:
 4849 09f5 41484232 		.ascii	"AHB2RSTR\000"
 4849      52535452 
 4849      00
 4850              	.LASF81:
 4851 09fe 4D304152 		.ascii	"M0AR\000"
 4851      00
 4852              	.LASF36:
 4853 0a03 6E616D65 		.ascii	"name\000"
 4853      00
 4854              	.LASF166:
 4855 0a08 6C697374 		.ascii	"listener\000"
 4855      656E6572 
 4855      00
 4856              	.LASF266:
 4857 0a11 70776D5F 		.ascii	"pwm_lld_enable_channel\000"
 4857      6C6C645F 
 4857      656E6162 
 4857      6C655F63 
 4857      68616E6E 
 4858              	.LASF79:
 4859 0a28 41504250 		.ascii	"APBPrescTable\000"
 4859      72657363 
 4859      5461626C 
 4859      6500
 4860              	.LASF220:
 4861 0a36 50574D5F 		.ascii	"PWM_READY\000"
 4861      52454144 
 4861      5900
 4862              	.LASF111:
 4863 0a40 5243435F 		.ascii	"RCC_TypeDef\000"
 4863      54797065 
 4863      44656600 
 4864              	.LASF7:
 4865 0a4c 73686F72 		.ascii	"short int\000"
 4865      7420696E 
 4865      7400
 4866              	.LASF169:
 4867 0a56 6576656E 		.ascii	"event_source\000"
 4867      745F736F 
 4867      75726365 
 4867      00
 4868              	.LASF20:
 4869 0a63 75696E74 		.ascii	"uint64_t\000"
 4869      36345F74 
 4869      00
 4870              	.LASF233:
 4871 0a6c 6D6F6465 		.ascii	"mode\000"
 4871      00
ARM GAS  /var/folders/vd/czx34qs52cd_f3nb04sxmghc0000gn/T//ccI0nIfk.s 			page 95


 4872              	.LASF62:
 4873 0a71 66756E63 		.ascii	"func\000"
 4873      00
 4874              	.LASF139:
 4875 0a76 63685F6D 		.ascii	"ch_mutex\000"
 4875      75746578 
 4875      00
 4876              	.LASF42:
 4877 0a7f 6D736771 		.ascii	"msgqueue\000"
 4877      75657565 
 4877      00
 4878              	.LASF246:
 4879 0a88 69717565 		.ascii	"iqueue\000"
 4879      756500
 4880              	.LASF67:
 4881 0a8f 63685F73 		.ascii	"ch_system_debug\000"
 4881      79737465 
 4881      6D5F6465 
 4881      62756700 
 4882              	.LASF272:
 4883 0a9f 56656374 		.ascii	"VectorB8\000"
 4883      6F724238 
 4883      00
 4884              	.LASF185:
 4885 0aa8 64796E5F 		.ascii	"dyn_list_t\000"
 4885      6C697374 
 4885      5F7400
 4886              	.LASF203:
 4887 0ab3 696F5F71 		.ascii	"io_queue_t\000"
 4887      75657565 
 4887      5F7400
 4888              	.LASF178:
 4889 0abe 6F626A65 		.ascii	"object_size\000"
 4889      63745F73 
 4889      697A6500 
 4890              	.LASF72:
 4891 0aca 76746C69 		.ascii	"vtlist\000"
 4891      737400
 4892              	.LASF41:
 4893 0ad1 77616974 		.ascii	"waiting\000"
 4893      696E6700 
 4894              	.LASF238:
 4895 0ad9 50574D43 		.ascii	"PWMConfig\000"
 4895      6F6E6669 
 4895      6700
 4896              	.LASF163:
 4897 0ae3 6D757465 		.ascii	"mutex_t\000"
 4897      785F7400 
 4898              	.LASF24:
 4899 0aeb 74726566 		.ascii	"trefs_t\000"
 4899      735F7400 
 4900              	.LASF116:
 4901 0af3 706F7274 		.ascii	"port_context\000"
 4901      5F636F6E 
 4901      74657874 
 4901      00
 4902              	.LASF48:
ARM GAS  /var/folders/vd/czx34qs52cd_f3nb04sxmghc0000gn/T//ccI0nIfk.s 			page 96


 4903 0b00 74687265 		.ascii	"threads_list_t\000"
 4903      6164735F 
 4903      6C697374 
 4903      5F7400
 4904              	.LASF239:
 4905 0b0f 50574D44 		.ascii	"PWMD4\000"
 4905      3400
 4906              	.LASF70:
 4907 0b15 63685F73 		.ascii	"ch_system\000"
 4907      79737465 
 4907      6D00
 4908              	.LASF221:
 4909 0b1f 70776D73 		.ascii	"pwmstate_t\000"
 4909      74617465 
 4909      5F7400
 4910              	.LASF34:
 4911 0b2a 6E657765 		.ascii	"newer\000"
 4911      7200
 4912              	.LASF123:
 4913 0b30 42445452 		.ascii	"BDTR\000"
 4913      00
 4914              	.LASF274:
 4915 0b35 6E766963 		.ascii	"nvicEnableVector\000"
 4915      456E6162 
 4915      6C655665 
 4915      63746F72 
 4915      00
 4916              	.LASF19:
 4917 0b46 75696E74 		.ascii	"uint32_t\000"
 4917      33325F74 
 4917      00
 4918              	.LASF279:
 4919 0b4f 2F557365 		.ascii	"/Users/lantian/Projects/stm32f407vet6/dev\000"
 4919      72732F6C 
 4919      616E7469 
 4919      616E2F50 
 4919      726F6A65 
 4920              	.LASF251:
 4921 0b79 696E7374 		.ascii	"instance_offset\000"
 4921      616E6365 
 4921      5F6F6666 
 4921      73657400 
 4922              	.LASF214:
 4923 0b89 696E7075 		.ascii	"input_queue_t\000"
 4923      745F7175 
 4923      6575655F 
 4923      7400
 4924              	.LASF275:
 4925 0b97 70776D4F 		.ascii	"pwmObjectInit\000"
 4925      626A6563 
 4925      74496E69 
 4925      7400
 4926              	.LASF165:
 4927 0ba5 6576656E 		.ascii	"event_listener\000"
 4927      745F6C69 
 4927      7374656E 
 4927      657200
ARM GAS  /var/folders/vd/czx34qs52cd_f3nb04sxmghc0000gn/T//ccI0nIfk.s 			page 97


 4928              	.LASF130:
 4929 0bb4 7264796D 		.ascii	"rdymsg\000"
 4929      736700
 4930              	.LASF209:
 4931 0bbb 715F7772 		.ascii	"q_wrptr\000"
 4931      70747200 
 4932              	.LASF9:
 4933 0bc3 73686F72 		.ascii	"short unsigned int\000"
 4933      7420756E 
 4933      7369676E 
 4933      65642069 
 4933      6E7400
 4934              	.LASF69:
 4935 0bd6 63685F73 		.ascii	"ch_system_t\000"
 4935      79737465 
 4935      6D5F7400 
 4936              	.LASF161:
 4937 0be2 63686465 		.ascii	"chdebug_t\000"
 4937      6275675F 
 4937      7400
 4938              	.LASF215:
 4939 0bec 6F757470 		.ascii	"output_queue_t\000"
 4939      75745F71 
 4939      75657565 
 4939      5F7400
 4940              	.LASF148:
 4941 0bfb 74696D65 		.ascii	"timesize\000"
 4941      73697A65 
 4941      00
 4942              	.LASF10:
 4943 0c04 5F5F696E 		.ascii	"__int32_t\000"
 4943      7433325F 
 4943      7400
 4944              	.LASF241:
 4945 0c0e 53445F53 		.ascii	"SD_STOP\000"
 4945      544F5000 
 4946              	.LASF80:
 4947 0c16 4E445452 		.ascii	"NDTR\000"
 4947      00
 4948              	.LASF197:
 4949 0c1b 69666372 		.ascii	"ifcr\000"
 4949      00
 4950              	.LASF176:
 4951 0c20 63685F6D 		.ascii	"ch_memcore\000"
 4951      656D636F 
 4951      726500
 4952              	.LASF157:
 4953 0c2b 6F66665F 		.ascii	"off_flags\000"
 4953      666C6167 
 4953      7300
 4954              	.LASF167:
 4955 0c35 6576656E 		.ascii	"events\000"
 4955      747300
 4956              	.LASF51:
 4957 0c3c 6E657874 		.ascii	"next\000"
 4957      00
 4958              	.LASF262:
ARM GAS  /var/folders/vd/czx34qs52cd_f3nb04sxmghc0000gn/T//ccI0nIfk.s 			page 98


 4959 0c41 70776D5F 		.ascii	"pwm_lld_enable_channel_notification\000"
 4959      6C6C645F 
 4959      656E6162 
 4959      6C655F63 
 4959      68616E6E 
 4960              	.LASF54:
 4961 0c65 70726576 		.ascii	"prev\000"
 4961      00
 4962              	.LASF184:
 4963 0c6a 63685F64 		.ascii	"ch_dyn_list\000"
 4963      796E5F6C 
 4963      69737400 
 4964              	.LASF143:
 4965 0c76 6964656E 		.ascii	"identifier\000"
 4965      74696669 
 4965      657200
 4966              		.ident	"GCC: (GNU Tools for Arm Embedded Processors 7-2017-q4-major) 7.2.1 20170904 (release) [ARM
ARM GAS  /var/folders/vd/czx34qs52cd_f3nb04sxmghc0000gn/T//ccI0nIfk.s 			page 99


DEFINED SYMBOLS
                            *ABS*:0000000000000000 hal_pwm_lld.c
/var/folders/vd/czx34qs52cd_f3nb04sxmghc0000gn/T//ccI0nIfk.s:16     .text.pwm_lld_init:0000000000000000 $t
/var/folders/vd/czx34qs52cd_f3nb04sxmghc0000gn/T//ccI0nIfk.s:24     .text.pwm_lld_init:0000000000000000 pwm_lld_init
/var/folders/vd/czx34qs52cd_f3nb04sxmghc0000gn/T//ccI0nIfk.s:53     .text.pwm_lld_init:0000000000000014 $d
/var/folders/vd/czx34qs52cd_f3nb04sxmghc0000gn/T//ccI0nIfk.s:59     .text.pwm_lld_start:0000000000000000 $t
/var/folders/vd/czx34qs52cd_f3nb04sxmghc0000gn/T//ccI0nIfk.s:67     .text.pwm_lld_start:0000000000000000 pwm_lld_start
/var/folders/vd/czx34qs52cd_f3nb04sxmghc0000gn/T//ccI0nIfk.s:261    .text.pwm_lld_start:00000000000000e0 $d
/var/folders/vd/czx34qs52cd_f3nb04sxmghc0000gn/T//ccI0nIfk.s:268    .text.pwm_lld_stop:0000000000000000 $t
/var/folders/vd/czx34qs52cd_f3nb04sxmghc0000gn/T//ccI0nIfk.s:276    .text.pwm_lld_stop:0000000000000000 pwm_lld_stop
/var/folders/vd/czx34qs52cd_f3nb04sxmghc0000gn/T//ccI0nIfk.s:325    .text.pwm_lld_stop:000000000000002c $d
/var/folders/vd/czx34qs52cd_f3nb04sxmghc0000gn/T//ccI0nIfk.s:331    .text.pwm_lld_enable_channel:0000000000000000 $t
/var/folders/vd/czx34qs52cd_f3nb04sxmghc0000gn/T//ccI0nIfk.s:339    .text.pwm_lld_enable_channel:0000000000000000 pwm_lld_enable_channel
/var/folders/vd/czx34qs52cd_f3nb04sxmghc0000gn/T//ccI0nIfk.s:359    .text.pwm_lld_disable_channel:0000000000000000 $t
/var/folders/vd/czx34qs52cd_f3nb04sxmghc0000gn/T//ccI0nIfk.s:367    .text.pwm_lld_disable_channel:0000000000000000 pwm_lld_disable_channel
/var/folders/vd/czx34qs52cd_f3nb04sxmghc0000gn/T//ccI0nIfk.s:395    .text.pwm_lld_enable_periodic_notification:0000000000000000 $t
/var/folders/vd/czx34qs52cd_f3nb04sxmghc0000gn/T//ccI0nIfk.s:403    .text.pwm_lld_enable_periodic_notification:0000000000000000 pwm_lld_enable_periodic_notification
/var/folders/vd/czx34qs52cd_f3nb04sxmghc0000gn/T//ccI0nIfk.s:433    .text.pwm_lld_disable_periodic_notification:0000000000000000 $t
/var/folders/vd/czx34qs52cd_f3nb04sxmghc0000gn/T//ccI0nIfk.s:441    .text.pwm_lld_disable_periodic_notification:0000000000000000 pwm_lld_disable_periodic_notification
/var/folders/vd/czx34qs52cd_f3nb04sxmghc0000gn/T//ccI0nIfk.s:460    .text.pwm_lld_enable_channel_notification:0000000000000000 $t
/var/folders/vd/czx34qs52cd_f3nb04sxmghc0000gn/T//ccI0nIfk.s:468    .text.pwm_lld_enable_channel_notification:0000000000000000 pwm_lld_enable_channel_notification
/var/folders/vd/czx34qs52cd_f3nb04sxmghc0000gn/T//ccI0nIfk.s:504    .text.pwm_lld_disable_channel_notification:0000000000000000 $t
/var/folders/vd/czx34qs52cd_f3nb04sxmghc0000gn/T//ccI0nIfk.s:512    .text.pwm_lld_disable_channel_notification:0000000000000000 pwm_lld_disable_channel_notification
/var/folders/vd/czx34qs52cd_f3nb04sxmghc0000gn/T//ccI0nIfk.s:535    .text.pwm_lld_serve_interrupt:0000000000000000 $t
/var/folders/vd/czx34qs52cd_f3nb04sxmghc0000gn/T//ccI0nIfk.s:543    .text.pwm_lld_serve_interrupt:0000000000000000 pwm_lld_serve_interrupt
/var/folders/vd/czx34qs52cd_f3nb04sxmghc0000gn/T//ccI0nIfk.s:654    .text.VectorB8:0000000000000000 $t
/var/folders/vd/czx34qs52cd_f3nb04sxmghc0000gn/T//ccI0nIfk.s:662    .text.VectorB8:0000000000000000 VectorB8
/var/folders/vd/czx34qs52cd_f3nb04sxmghc0000gn/T//ccI0nIfk.s:687    .text.VectorB8:0000000000000010 $d
/var/folders/vd/czx34qs52cd_f3nb04sxmghc0000gn/T//ccI0nIfk.s:697    .bss.PWMD4:0000000000000000 PWMD4
/var/folders/vd/czx34qs52cd_f3nb04sxmghc0000gn/T//ccI0nIfk.s:693    .bss.PWMD4:0000000000000000 $d

UNDEFINED SYMBOLS
pwmObjectInit
nvicEnableVector
nvicDisableVector
_port_irq_epilogue
