ARM GAS  /var/folders/vd/czx34qs52cd_f3nb04sxmghc0000gn/T//cciWLOa8.s 			page 1


   1              		.cpu cortex-m4
   2              		.eabi_attribute 20, 1
   3              		.eabi_attribute 21, 1
   4              		.eabi_attribute 23, 3
   5              		.eabi_attribute 24, 1
   6              		.eabi_attribute 25, 1
   7              		.eabi_attribute 26, 1
   8              		.eabi_attribute 30, 2
   9              		.eabi_attribute 34, 1
  10              		.eabi_attribute 18, 4
  11              		.file	"hal_pal_lld.c"
  12              		.text
  13              	.Ltext0:
  14              		.cfi_sections	.debug_frame
  15              		.section	.text._pal_lld_init,"ax",%progbits
  16              		.align	1
  17              		.p2align 4,,15
  18              		.global	_pal_lld_init
  19              		.syntax unified
  20              		.thumb
  21              		.thumb_func
  22              		.fpu softvfp
  23              		.type	_pal_lld_init, %function
  24              	_pal_lld_init:
  25              	.LFB313:
  26              		.file 1 "../os/hal/ports/STM32/LLD/GPIOv2/hal_pal_lld.c"
  27              		.loc 1 63 0
  28              		.cfi_startproc
  29              		@ args = 0, pretend = 0, frame = 0
  30              		@ frame_needed = 0, uses_anonymous_args = 0
  31              		@ link register save eliminated.
  32              		.loc 1 72 0
  33 0000 7047     		bx	lr
  34              		.cfi_endproc
  35              	.LFE313:
  36              		.size	_pal_lld_init, .-_pal_lld_init
  37 0002 00BF     		.section	.text._pal_lld_setgroupmode,"ax",%progbits
  38              		.align	1
  39              		.p2align 4,,15
  40              		.global	_pal_lld_setgroupmode
  41              		.syntax unified
  42              		.thumb
  43              		.thumb_func
  44              		.fpu softvfp
  45              		.type	_pal_lld_setgroupmode, %function
  46              	_pal_lld_setgroupmode:
  47              	.LFB314:
  48              		.loc 1 89 0
  49              		.cfi_startproc
  50              		@ args = 0, pretend = 0, frame = 0
  51              		@ frame_needed = 0, uses_anonymous_args = 0
  52              	.LVL0:
  53 0000 2DE9F04F 		push	{r4, r5, r6, r7, r8, r9, r10, fp, lr}
  54              		.cfi_def_cfa_offset 36
  55              		.cfi_offset 4, -36
  56              		.cfi_offset 5, -32
  57              		.cfi_offset 6, -28
ARM GAS  /var/folders/vd/czx34qs52cd_f3nb04sxmghc0000gn/T//cciWLOa8.s 			page 2


  58              		.cfi_offset 7, -24
  59              		.cfi_offset 8, -20
  60              		.cfi_offset 9, -16
  61              		.cfi_offset 10, -12
  62              		.cfi_offset 11, -8
  63              		.cfi_offset 14, -4
  64              		.loc 1 91 0
  65 0004 02F00309 		and	r9, r2, #3
  66              	.LVL1:
  67              		.loc 1 92 0
  68 0008 C2F3800E 		ubfx	lr, r2, #2, #1
  69              	.LVL2:
  70              		.loc 1 93 0
  71 000c C2F3C10C 		ubfx	ip, r2, #3, #2
  72              	.LVL3:
  73              		.loc 1 94 0
  74 0010 C2F34117 		ubfx	r7, r2, #5, #2
  75              	.LVL4:
  76              		.loc 1 91 0
  77 0014 C846     		mov	r8, r9
  78              		.loc 1 95 0
  79 0016 C2F3C312 		ubfx	r2, r2, #7, #4
  80              	.LVL5:
  81              		.loc 1 96 0
  82 001a 0026     		movs	r6, #0
  83              	.LBB2:
  84              		.loc 1 102 0
  85 001c 4FF0010A 		mov	r10, #1
  86 0020 16E0     		b	.L10
  87              	.LVL6:
  88              	.L5:
  89              		.loc 1 120 0
  90 0022 D0F800B0 		ldr	fp, [r0]
  91 0026 03EA0B03 		and	r3, r3, fp
  92              	.LVL7:
  93 002a 43EA0803 		orr	r3, r3, r8
  94              		.loc 1 121 0
  95 002e 072E     		cmp	r6, #7
  96              		.loc 1 120 0
  97 0030 0360     		str	r3, [r0]
  98              		.loc 1 121 0
  99 0032 44D8     		bhi	.L8
 100              		.loc 1 122 0
 101 0034 036A     		ldr	r3, [r0, #32]
 102 0036 1D40     		ands	r5, r5, r3
 103 0038 2C43     		orrs	r4, r4, r5
 104              	.LVL8:
 105 003a 0462     		str	r4, [r0, #32]
 106              	.LVL9:
 107              	.L4:
 108              	.LBE2:
 109              		.loc 1 128 0
 110 003c 4908     		lsrs	r1, r1, #1
 111              	.LVL10:
 112 003e 3CD0     		beq	.L3
 113              	.LVL11:
 114              	.L15:
ARM GAS  /var/folders/vd/czx34qs52cd_f3nb04sxmghc0000gn/T//cciWLOa8.s 			page 3


 115              		.loc 1 130 0
 116 0040 4FEA4E0E 		lsl	lr, lr, #1
 117              	.LVL12:
 118              		.loc 1 131 0
 119 0044 4FEA8C0C 		lsl	ip, ip, #2
 120              	.LVL13:
 121              		.loc 1 132 0
 122 0048 BF00     		lsls	r7, r7, #2
 123              	.LVL14:
 124              		.loc 1 133 0
 125 004a 4FEA8808 		lsl	r8, r8, #2
 126              	.LVL15:
 127              		.loc 1 134 0
 128 004e 0136     		adds	r6, r6, #1
 129              	.LVL16:
 130              	.L10:
 131              		.loc 1 98 0
 132 0050 CB07     		lsls	r3, r1, #31
 133 0052 F3D5     		bpl	.L4
 134              	.LBB3:
 135              		.loc 1 105 0
 136 0054 4368     		ldr	r3, [r0, #4]
 137              		.loc 1 102 0
 138 0056 0AFA06F4 		lsl	r4, r10, r6
 139              		.loc 1 105 0
 140 005a 23EA0403 		bic	r3, r3, r4
 141 005e 43EA0E03 		orr	r3, r3, lr
 142 0062 4360     		str	r3, [r0, #4]
 143              		.loc 1 103 0
 144 0064 0325     		movs	r5, #3
 145 0066 7300     		lsls	r3, r6, #1
 146              		.loc 1 106 0
 147 0068 8468     		ldr	r4, [r0, #8]
 148              		.loc 1 103 0
 149 006a 05FA03F3 		lsl	r3, r5, r3
 150              		.loc 1 106 0
 151 006e DB43     		mvns	r3, r3
 152 0070 1C40     		ands	r4, r4, r3
 153 0072 44EA0C04 		orr	r4, r4, ip
 154 0076 8460     		str	r4, [r0, #8]
 155              		.loc 1 107 0
 156 0078 C568     		ldr	r5, [r0, #12]
 157              		.loc 1 101 0
 158 007a 06F00704 		and	r4, r6, #7
 159 007e A400     		lsls	r4, r4, #2
 160              		.loc 1 107 0
 161 0080 1D40     		ands	r5, r5, r3
 162              		.loc 1 104 0
 163 0082 4FF00F0B 		mov	fp, #15
 164              		.loc 1 107 0
 165 0086 3D43     		orrs	r5, r5, r7
 166              		.loc 1 104 0
 167 0088 0BFA04FB 		lsl	fp, fp, r4
 168              		.loc 1 108 0
 169 008c B9F1020F 		cmp	r9, #2
 170              		.loc 1 107 0
 171 0090 C560     		str	r5, [r0, #12]
ARM GAS  /var/folders/vd/czx34qs52cd_f3nb04sxmghc0000gn/T//cciWLOa8.s 			page 4


 172              		.loc 1 101 0
 173 0092 02FA04F4 		lsl	r4, r2, r4
 174 0096 6FEA0B05 		mvn	r5, fp
 175              	.LVL17:
 176              		.loc 1 108 0
 177 009a C2D1     		bne	.L5
 178              		.loc 1 111 0
 179 009c 072E     		cmp	r6, #7
 180 009e 13D8     		bhi	.L6
 181              		.loc 1 112 0
 182 00a0 D0F820B0 		ldr	fp, [r0, #32]
 183 00a4 0BEA0505 		and	r5, fp, r5
 184 00a8 2C43     		orrs	r4, r4, r5
 185              	.LVL18:
 186 00aa 0462     		str	r4, [r0, #32]
 187              	.L7:
 188              		.loc 1 115 0
 189 00ac 0468     		ldr	r4, [r0]
 190 00ae 2340     		ands	r3, r3, r4
 191              	.LVL19:
 192 00b0 43EA0803 		orr	r3, r3, r8
 193              	.LBE3:
 194              		.loc 1 128 0
 195 00b4 4908     		lsrs	r1, r1, #1
 196              	.LVL20:
 197              	.LBB4:
 198              		.loc 1 115 0
 199 00b6 0360     		str	r3, [r0]
 200              	.LBE4:
 201              		.loc 1 128 0
 202 00b8 C2D1     		bne	.L15
 203              	.LVL21:
 204              	.L3:
 205              		.loc 1 136 0
 206 00ba BDE8F08F 		pop	{r4, r5, r6, r7, r8, r9, r10, fp, pc}
 207              	.LVL22:
 208              	.L8:
 209              	.LBB5:
 210              		.loc 1 124 0
 211 00be 436A     		ldr	r3, [r0, #36]
 212 00c0 1D40     		ands	r5, r5, r3
 213 00c2 2C43     		orrs	r4, r4, r5
 214              	.LVL23:
 215 00c4 4462     		str	r4, [r0, #36]
 216 00c6 B9E7     		b	.L4
 217              	.LVL24:
 218              	.L6:
 219              		.loc 1 114 0
 220 00c8 D0F824B0 		ldr	fp, [r0, #36]
 221 00cc 0BEA0505 		and	r5, fp, r5
 222 00d0 2C43     		orrs	r4, r4, r5
 223              	.LVL25:
 224 00d2 4462     		str	r4, [r0, #36]
 225 00d4 EAE7     		b	.L7
 226              	.LBE5:
 227              		.cfi_endproc
 228              	.LFE314:
ARM GAS  /var/folders/vd/czx34qs52cd_f3nb04sxmghc0000gn/T//cciWLOa8.s 			page 5


 229              		.size	_pal_lld_setgroupmode, .-_pal_lld_setgroupmode
 230              		.global	_pal_events
 231 00d6 00BF     		.section	.bss._pal_events,"aw",%nobits
 232              		.align	2
 233              		.type	_pal_events, %object
 234              		.size	_pal_events, 0
 235              	_pal_events:
 236              		.text
 237              	.Letext0:
 238              		.file 2 "/usr/local/Cellar/gcc-arm-none-eabi/20171218/lib/gcc/arm-none-eabi/7.2.1/include/stddef.h
 239              		.file 3 "/usr/local/Cellar/gcc-arm-none-eabi/20171218/arm-none-eabi/include/machine/_default_types
 240              		.file 4 "/usr/local/Cellar/gcc-arm-none-eabi/20171218/arm-none-eabi/include/sys/_stdint.h"
 241              		.file 5 "../os/common/ports/ARMCMx/compilers/GCC/chtypes.h"
 242              		.file 6 "../os/rt/include/chsystypes.h"
 243              		.file 7 "../os/rt/include/chschd.h"
 244              		.file 8 "../os/rt/include/chtime.h"
 245              		.file 9 "../os/common/ext/ARM/CMSIS/Core/Include/core_cm4.h"
 246              		.file 10 "../os/common/ext/ST/STM32F4xx/system_stm32f4xx.h"
 247              		.file 11 "../os/common/ext/ST/STM32F4xx/stm32f407xx.h"
 248              		.file 12 "../os/common/ports/ARMCMx/chcore.h"
 249              		.file 13 "../os/common/ports/ARMCMx/chcore_v7m.h"
 250              		.file 14 "../os/hal/ports/STM32/LLD/TIMv1/stm32_tim.h"
 251              		.file 15 "../os/rt/include/chtm.h"
 252              		.file 16 "../os/rt/include/chsem.h"
 253              		.file 17 "../os/rt/include/chmtx.h"
 254              		.file 18 "../os/rt/include/chsys.h"
 255              		.file 19 "../os/rt/include/chregistry.h"
 256              		.file 20 "../os/rt/include/chevents.h"
 257              		.file 21 "../os/common/oslib/include/chmemcore.h"
 258              		.file 22 "../os/common/oslib/include/chmempools.h"
 259              		.file 23 "../os/common/oslib/include/chfactory.h"
 260              		.file 24 "../os/hal/ports/STM32/LLD/DMAv2/stm32_dma.h"
 261              		.file 25 "../os/hal/include/hal_queues.h"
 262              		.file 26 "../os/hal/include/hal_pal.h"
 263              		.file 27 "../os/hal/ports/STM32/LLD/GPIOv2/stm32_gpio.h"
 264              		.file 28 "../os/hal/ports/STM32/LLD/GPIOv2/hal_pal_lld.h"
 265              		.file 29 "../os/hal/include/hal_pwm.h"
 266              		.file 30 "../os/hal/ports/STM32/LLD/TIMv1/hal_pwm_lld.h"
 267              		.file 31 "../os/hal/include/hal_serial.h"
 268              		.file 32 "../os/hal/ports/STM32/LLD/USARTv1/hal_serial_lld.h"
 269              		.section	.debug_info,"",%progbits
 270              	.Ldebug_info0:
 271 0000 9C130000 		.4byte	0x139c
 272 0004 0400     		.2byte	0x4
 273 0006 00000000 		.4byte	.Ldebug_abbrev0
 274 000a 04       		.byte	0x4
 275 000b 01       		.uleb128 0x1
 276 000c E0040000 		.4byte	.LASF251
 277 0010 0C       		.byte	0xc
 278 0011 BA050000 		.4byte	.LASF252
 279 0015 D0090000 		.4byte	.LASF253
 280 0019 28000000 		.4byte	.Ldebug_ranges0+0x28
 281 001d 00000000 		.4byte	0
 282 0021 00000000 		.4byte	.Ldebug_line0
 283 0025 02       		.uleb128 0x2
 284 0026 04       		.byte	0x4
 285 0027 05       		.byte	0x5
ARM GAS  /var/folders/vd/czx34qs52cd_f3nb04sxmghc0000gn/T//cciWLOa8.s 			page 6


 286 0028 696E7400 		.ascii	"int\000"
 287 002c 03       		.uleb128 0x3
 288 002d 20000000 		.4byte	.LASF4
 289 0031 02       		.byte	0x2
 290 0032 D8       		.byte	0xd8
 291 0033 3C000000 		.4byte	0x3c
 292 0037 04       		.uleb128 0x4
 293 0038 2C000000 		.4byte	0x2c
 294 003c 05       		.uleb128 0x5
 295 003d 04       		.byte	0x4
 296 003e 07       		.byte	0x7
 297 003f 9B060000 		.4byte	.LASF0
 298 0043 05       		.uleb128 0x5
 299 0044 08       		.byte	0x8
 300 0045 05       		.byte	0x5
 301 0046 FC050000 		.4byte	.LASF1
 302 004a 05       		.uleb128 0x5
 303 004b 08       		.byte	0x8
 304 004c 04       		.byte	0x4
 305 004d 23070000 		.4byte	.LASF2
 306 0051 05       		.uleb128 0x5
 307 0052 01       		.byte	0x1
 308 0053 06       		.byte	0x6
 309 0054 F4010000 		.4byte	.LASF3
 310 0058 03       		.uleb128 0x3
 311 0059 3C010000 		.4byte	.LASF5
 312 005d 03       		.byte	0x3
 313 005e 2B       		.byte	0x2b
 314 005f 63000000 		.4byte	0x63
 315 0063 05       		.uleb128 0x5
 316 0064 01       		.byte	0x1
 317 0065 08       		.byte	0x8
 318 0066 30020000 		.4byte	.LASF6
 319 006a 05       		.uleb128 0x5
 320 006b 02       		.byte	0x2
 321 006c 05       		.byte	0x5
 322 006d E2080000 		.4byte	.LASF7
 323 0071 03       		.uleb128 0x3
 324 0072 B1020000 		.4byte	.LASF8
 325 0076 03       		.byte	0x3
 326 0077 39       		.byte	0x39
 327 0078 7C000000 		.4byte	0x7c
 328 007c 05       		.uleb128 0x5
 329 007d 02       		.byte	0x2
 330 007e 07       		.byte	0x7
 331 007f 360A0000 		.4byte	.LASF9
 332 0083 03       		.uleb128 0x3
 333 0084 770A0000 		.4byte	.LASF10
 334 0088 03       		.byte	0x3
 335 0089 4D       		.byte	0x4d
 336 008a 8E000000 		.4byte	0x8e
 337 008e 05       		.uleb128 0x5
 338 008f 04       		.byte	0x4
 339 0090 05       		.byte	0x5
 340 0091 6D010000 		.4byte	.LASF11
 341 0095 03       		.uleb128 0x3
 342 0096 E9050000 		.4byte	.LASF12
ARM GAS  /var/folders/vd/czx34qs52cd_f3nb04sxmghc0000gn/T//cciWLOa8.s 			page 7


 343 009a 03       		.byte	0x3
 344 009b 4F       		.byte	0x4f
 345 009c A0000000 		.4byte	0xa0
 346 00a0 05       		.uleb128 0x5
 347 00a1 04       		.byte	0x4
 348 00a2 07       		.byte	0x7
 349 00a3 BC030000 		.4byte	.LASF13
 350 00a7 03       		.uleb128 0x3
 351 00a8 A7030000 		.4byte	.LASF14
 352 00ac 03       		.byte	0x3
 353 00ad 69       		.byte	0x69
 354 00ae B2000000 		.4byte	0xb2
 355 00b2 05       		.uleb128 0x5
 356 00b3 08       		.byte	0x8
 357 00b4 07       		.byte	0x7
 358 00b5 9C070000 		.4byte	.LASF15
 359 00b9 03       		.uleb128 0x3
 360 00ba 07020000 		.4byte	.LASF16
 361 00be 04       		.byte	0x4
 362 00bf 18       		.byte	0x18
 363 00c0 58000000 		.4byte	0x58
 364 00c4 06       		.uleb128 0x6
 365 00c5 B9000000 		.4byte	0xb9
 366 00c9 03       		.uleb128 0x3
 367 00ca BC070000 		.4byte	.LASF17
 368 00ce 04       		.byte	0x4
 369 00cf 24       		.byte	0x24
 370 00d0 71000000 		.4byte	0x71
 371 00d4 03       		.uleb128 0x3
 372 00d5 74000000 		.4byte	.LASF18
 373 00d9 04       		.byte	0x4
 374 00da 2C       		.byte	0x2c
 375 00db 83000000 		.4byte	0x83
 376 00df 04       		.uleb128 0x4
 377 00e0 D4000000 		.4byte	0xd4
 378 00e4 03       		.uleb128 0x3
 379 00e5 C7090000 		.4byte	.LASF19
 380 00e9 04       		.byte	0x4
 381 00ea 30       		.byte	0x30
 382 00eb 95000000 		.4byte	0x95
 383 00ef 04       		.uleb128 0x4
 384 00f0 E4000000 		.4byte	0xe4
 385 00f4 03       		.uleb128 0x3
 386 00f5 F9080000 		.4byte	.LASF20
 387 00f9 04       		.byte	0x4
 388 00fa 3C       		.byte	0x3c
 389 00fb A7000000 		.4byte	0xa7
 390 00ff 03       		.uleb128 0x3
 391 0100 B6060000 		.4byte	.LASF21
 392 0104 05       		.byte	0x5
 393 0105 39       		.byte	0x39
 394 0106 E4000000 		.4byte	0xe4
 395 010a 03       		.uleb128 0x3
 396 010b 86080000 		.4byte	.LASF22
 397 010f 05       		.byte	0x5
 398 0110 3C       		.byte	0x3c
 399 0111 B9000000 		.4byte	0xb9
ARM GAS  /var/folders/vd/czx34qs52cd_f3nb04sxmghc0000gn/T//cciWLOa8.s 			page 8


 400 0115 03       		.uleb128 0x3
 401 0116 8E010000 		.4byte	.LASF23
 402 011a 05       		.byte	0x5
 403 011b 3D       		.byte	0x3d
 404 011c B9000000 		.4byte	0xb9
 405 0120 03       		.uleb128 0x3
 406 0121 7D090000 		.4byte	.LASF24
 407 0125 05       		.byte	0x5
 408 0126 3E       		.byte	0x3e
 409 0127 B9000000 		.4byte	0xb9
 410 012b 03       		.uleb128 0x3
 411 012c 5A000000 		.4byte	.LASF25
 412 0130 05       		.byte	0x5
 413 0131 40       		.byte	0x40
 414 0132 E4000000 		.4byte	0xe4
 415 0136 03       		.uleb128 0x3
 416 0137 D4070000 		.4byte	.LASF26
 417 013b 05       		.byte	0x5
 418 013c 41       		.byte	0x41
 419 013d D4000000 		.4byte	0xd4
 420 0141 03       		.uleb128 0x3
 421 0142 0F020000 		.4byte	.LASF27
 422 0146 05       		.byte	0x5
 423 0147 43       		.byte	0x43
 424 0148 E4000000 		.4byte	0xe4
 425 014c 03       		.uleb128 0x3
 426 014d EB070000 		.4byte	.LASF28
 427 0151 05       		.byte	0x5
 428 0152 44       		.byte	0x44
 429 0153 E4000000 		.4byte	0xe4
 430 0157 03       		.uleb128 0x3
 431 0158 46030000 		.4byte	.LASF29
 432 015c 05       		.byte	0x5
 433 015d 45       		.byte	0x45
 434 015e D4000000 		.4byte	0xd4
 435 0162 03       		.uleb128 0x3
 436 0163 A2040000 		.4byte	.LASF30
 437 0167 05       		.byte	0x5
 438 0168 46       		.byte	0x46
 439 0169 E4000000 		.4byte	0xe4
 440 016d 03       		.uleb128 0x3
 441 016e 1A070000 		.4byte	.LASF31
 442 0172 06       		.byte	0x6
 443 0173 34       		.byte	0x34
 444 0174 78010000 		.4byte	0x178
 445 0178 07       		.uleb128 0x7
 446 0179 02040000 		.4byte	.LASF49
 447 017d 44       		.byte	0x44
 448 017e 07       		.byte	0x7
 449 017f 8E       		.byte	0x8e
 450 0180 56020000 		.4byte	0x256
 451 0184 08       		.uleb128 0x8
 452 0185 0D080000 		.4byte	.LASF32
 453 0189 07       		.byte	0x7
 454 018a 8F       		.byte	0x8f
 455 018b 8B020000 		.4byte	0x28b
 456 018f 00       		.byte	0
ARM GAS  /var/folders/vd/czx34qs52cd_f3nb04sxmghc0000gn/T//cciWLOa8.s 			page 9


 457 0190 08       		.uleb128 0x8
 458 0191 0F010000 		.4byte	.LASF33
 459 0195 07       		.byte	0x7
 460 0196 90       		.byte	0x90
 461 0197 2B010000 		.4byte	0x12b
 462 019b 08       		.byte	0x8
 463 019c 09       		.uleb128 0x9
 464 019d 63747800 		.ascii	"ctx\000"
 465 01a1 07       		.byte	0x7
 466 01a2 91       		.byte	0x91
 467 01a3 E5050000 		.4byte	0x5e5
 468 01a7 0C       		.byte	0xc
 469 01a8 08       		.uleb128 0x8
 470 01a9 BC090000 		.4byte	.LASF34
 471 01ad 07       		.byte	0x7
 472 01ae 93       		.byte	0x93
 473 01af 61020000 		.4byte	0x261
 474 01b3 10       		.byte	0x10
 475 01b4 08       		.uleb128 0x8
 476 01b5 77040000 		.4byte	.LASF35
 477 01b9 07       		.byte	0x7
 478 01ba 94       		.byte	0x94
 479 01bb 61020000 		.4byte	0x261
 480 01bf 14       		.byte	0x14
 481 01c0 08       		.uleb128 0x8
 482 01c1 B7080000 		.4byte	.LASF36
 483 01c5 07       		.byte	0x7
 484 01c6 9B       		.byte	0x9b
 485 01c7 81080000 		.4byte	0x881
 486 01cb 18       		.byte	0x18
 487 01cc 08       		.uleb128 0x8
 488 01cd 4D080000 		.4byte	.LASF37
 489 01d1 07       		.byte	0x7
 490 01d2 A4       		.byte	0xa4
 491 01d3 98080000 		.4byte	0x898
 492 01d7 1C       		.byte	0x1c
 493 01d8 08       		.uleb128 0x8
 494 01d9 CB000000 		.4byte	.LASF38
 495 01dd 07       		.byte	0x7
 496 01de A9       		.byte	0xa9
 497 01df 15010000 		.4byte	0x115
 498 01e3 20       		.byte	0x20
 499 01e4 08       		.uleb128 0x8
 500 01e5 D7020000 		.4byte	.LASF39
 501 01e9 07       		.byte	0x7
 502 01ea AD       		.byte	0xad
 503 01eb 0A010000 		.4byte	0x10a
 504 01ef 21       		.byte	0x21
 505 01f0 08       		.uleb128 0x8
 506 01f1 08080000 		.4byte	.LASF40
 507 01f5 07       		.byte	0x7
 508 01f6 B2       		.byte	0xb2
 509 01f7 20010000 		.4byte	0x120
 510 01fb 22       		.byte	0x22
 511 01fc 0A       		.uleb128 0xa
 512 01fd 7500     		.ascii	"u\000"
 513 01ff 07       		.byte	0x7
ARM GAS  /var/folders/vd/czx34qs52cd_f3nb04sxmghc0000gn/T//cciWLOa8.s 			page 10


 514 0200 0301     		.2byte	0x103
 515 0202 B7070000 		.4byte	0x7b7
 516 0206 24       		.byte	0x24
 517 0207 0B       		.uleb128 0xb
 518 0208 63090000 		.4byte	.LASF41
 519 020c 07       		.byte	0x7
 520 020d 0801     		.2byte	0x108
 521 020f 67020000 		.4byte	0x267
 522 0213 28       		.byte	0x28
 523 0214 0B       		.uleb128 0xb
 524 0215 15090000 		.4byte	.LASF42
 525 0219 07       		.byte	0x7
 526 021a 0E01     		.2byte	0x10e
 527 021c 8B020000 		.4byte	0x28b
 528 0220 2C       		.byte	0x2c
 529 0221 0B       		.uleb128 0xb
 530 0222 97010000 		.4byte	.LASF43
 531 0226 07       		.byte	0x7
 532 0227 1401     		.2byte	0x114
 533 0229 41010000 		.4byte	0x141
 534 022d 34       		.byte	0x34
 535 022e 0B       		.uleb128 0xb
 536 022f F4050000 		.4byte	.LASF44
 537 0233 07       		.byte	0x7
 538 0234 1B01     		.2byte	0x11b
 539 0236 7B080000 		.4byte	0x87b
 540 023a 38       		.byte	0x38
 541 023b 0B       		.uleb128 0xb
 542 023c 8D040000 		.4byte	.LASF45
 543 0240 07       		.byte	0x7
 544 0241 1F01     		.2byte	0x11f
 545 0243 2B010000 		.4byte	0x12b
 546 0247 3C       		.byte	0x3c
 547 0248 0B       		.uleb128 0xb
 548 0249 FB020000 		.4byte	.LASF46
 549 024d 07       		.byte	0x7
 550 024e 2601     		.2byte	0x126
 551 0250 3E030000 		.4byte	0x33e
 552 0254 40       		.byte	0x40
 553 0255 00       		.byte	0
 554 0256 03       		.uleb128 0x3
 555 0257 36070000 		.4byte	.LASF47
 556 025b 06       		.byte	0x6
 557 025c 39       		.byte	0x39
 558 025d 61020000 		.4byte	0x261
 559 0261 0C       		.uleb128 0xc
 560 0262 04       		.byte	0x4
 561 0263 6D010000 		.4byte	0x16d
 562 0267 03       		.uleb128 0x3
 563 0268 92090000 		.4byte	.LASF48
 564 026c 06       		.byte	0x6
 565 026d 3E       		.byte	0x3e
 566 026e 72020000 		.4byte	0x272
 567 0272 07       		.uleb128 0x7
 568 0273 C8040000 		.4byte	.LASF50
 569 0277 04       		.byte	0x4
 570 0278 07       		.byte	0x7
ARM GAS  /var/folders/vd/czx34qs52cd_f3nb04sxmghc0000gn/T//cciWLOa8.s 			page 11


 571 0279 7C       		.byte	0x7c
 572 027a 8B020000 		.4byte	0x28b
 573 027e 08       		.uleb128 0x8
 574 027f AF0A0000 		.4byte	.LASF51
 575 0283 07       		.byte	0x7
 576 0284 7D       		.byte	0x7d
 577 0285 61020000 		.4byte	0x261
 578 0289 00       		.byte	0
 579 028a 00       		.byte	0
 580 028b 03       		.uleb128 0x3
 581 028c A0010000 		.4byte	.LASF52
 582 0290 06       		.byte	0x6
 583 0291 45       		.byte	0x45
 584 0292 96020000 		.4byte	0x296
 585 0296 07       		.uleb128 0x7
 586 0297 DA070000 		.4byte	.LASF53
 587 029b 08       		.byte	0x8
 588 029c 07       		.byte	0x7
 589 029d 83       		.byte	0x83
 590 029e BB020000 		.4byte	0x2bb
 591 02a2 08       		.uleb128 0x8
 592 02a3 AF0A0000 		.4byte	.LASF51
 593 02a7 07       		.byte	0x7
 594 02a8 84       		.byte	0x84
 595 02a9 61020000 		.4byte	0x261
 596 02ad 00       		.byte	0
 597 02ae 08       		.uleb128 0x8
 598 02af B40A0000 		.4byte	.LASF54
 599 02b3 07       		.byte	0x7
 600 02b4 85       		.byte	0x85
 601 02b5 61020000 		.4byte	0x261
 602 02b9 04       		.byte	0x4
 603 02ba 00       		.byte	0
 604 02bb 03       		.uleb128 0x3
 605 02bc 6A040000 		.4byte	.LASF55
 606 02c0 06       		.byte	0x6
 607 02c1 4C       		.byte	0x4c
 608 02c2 C6020000 		.4byte	0x2c6
 609 02c6 0D       		.uleb128 0xd
 610 02c7 68030000 		.4byte	.LASF56
 611 02cb 1C       		.byte	0x1c
 612 02cc 07       		.byte	0x7
 613 02cd 5E01     		.2byte	0x15e
 614 02cf 22030000 		.4byte	0x322
 615 02d3 0B       		.uleb128 0xb
 616 02d4 0D080000 		.4byte	.LASF32
 617 02d8 07       		.byte	0x7
 618 02d9 5F01     		.2byte	0x15f
 619 02db 8B020000 		.4byte	0x28b
 620 02df 00       		.byte	0
 621 02e0 0B       		.uleb128 0xb
 622 02e1 0F010000 		.4byte	.LASF33
 623 02e5 07       		.byte	0x7
 624 02e6 6001     		.2byte	0x160
 625 02e8 2B010000 		.4byte	0x12b
 626 02ec 08       		.byte	0x8
 627 02ed 0A       		.uleb128 0xa
ARM GAS  /var/folders/vd/czx34qs52cd_f3nb04sxmghc0000gn/T//cciWLOa8.s 			page 12


 628 02ee 63747800 		.ascii	"ctx\000"
 629 02f2 07       		.byte	0x7
 630 02f3 6201     		.2byte	0x162
 631 02f5 E5050000 		.4byte	0x5e5
 632 02f9 0C       		.byte	0xc
 633 02fa 0B       		.uleb128 0xb
 634 02fb BC090000 		.4byte	.LASF34
 635 02ff 07       		.byte	0x7
 636 0300 6501     		.2byte	0x165
 637 0302 61020000 		.4byte	0x261
 638 0306 10       		.byte	0x10
 639 0307 0B       		.uleb128 0xb
 640 0308 77040000 		.4byte	.LASF35
 641 030c 07       		.byte	0x7
 642 030d 6601     		.2byte	0x166
 643 030f 61020000 		.4byte	0x261
 644 0313 14       		.byte	0x14
 645 0314 0B       		.uleb128 0xb
 646 0315 D5060000 		.4byte	.LASF57
 647 0319 07       		.byte	0x7
 648 031a 6901     		.2byte	0x169
 649 031c 61020000 		.4byte	0x261
 650 0320 18       		.byte	0x18
 651 0321 00       		.byte	0
 652 0322 03       		.uleb128 0x3
 653 0323 83000000 		.4byte	.LASF58
 654 0327 06       		.byte	0x6
 655 0328 51       		.byte	0x51
 656 0329 2D030000 		.4byte	0x32d
 657 032d 0C       		.uleb128 0xc
 658 032e 04       		.byte	0x4
 659 032f 33030000 		.4byte	0x333
 660 0333 0E       		.uleb128 0xe
 661 0334 3E030000 		.4byte	0x33e
 662 0338 0F       		.uleb128 0xf
 663 0339 3E030000 		.4byte	0x33e
 664 033d 00       		.byte	0
 665 033e 10       		.uleb128 0x10
 666 033f 04       		.byte	0x4
 667 0340 03       		.uleb128 0x3
 668 0341 5A040000 		.4byte	.LASF59
 669 0345 06       		.byte	0x6
 670 0346 56       		.byte	0x56
 671 0347 4B030000 		.4byte	0x34b
 672 034b 0D       		.uleb128 0xd
 673 034c 86070000 		.4byte	.LASF60
 674 0350 14       		.byte	0x14
 675 0351 07       		.byte	0x7
 676 0352 3901     		.2byte	0x139
 677 0354 9A030000 		.4byte	0x39a
 678 0358 0B       		.uleb128 0xb
 679 0359 AF0A0000 		.4byte	.LASF51
 680 035d 07       		.byte	0x7
 681 035e 3A01     		.2byte	0x13a
 682 0360 9E080000 		.4byte	0x89e
 683 0364 00       		.byte	0
 684 0365 0B       		.uleb128 0xb
ARM GAS  /var/folders/vd/czx34qs52cd_f3nb04sxmghc0000gn/T//cciWLOa8.s 			page 13


 685 0366 B40A0000 		.4byte	.LASF54
 686 036a 07       		.byte	0x7
 687 036b 3B01     		.2byte	0x13b
 688 036d 9E080000 		.4byte	0x89e
 689 0371 04       		.byte	0x4
 690 0372 0B       		.uleb128 0xb
 691 0373 FD070000 		.4byte	.LASF61
 692 0377 07       		.byte	0x7
 693 0378 3C01     		.2byte	0x13c
 694 037a 71040000 		.4byte	0x471
 695 037e 08       		.byte	0x8
 696 037f 0B       		.uleb128 0xb
 697 0380 07090000 		.4byte	.LASF62
 698 0384 07       		.byte	0x7
 699 0385 3D01     		.2byte	0x13d
 700 0387 22030000 		.4byte	0x322
 701 038b 0C       		.byte	0xc
 702 038c 0A       		.uleb128 0xa
 703 038d 70617200 		.ascii	"par\000"
 704 0391 07       		.byte	0x7
 705 0392 3F01     		.2byte	0x13f
 706 0394 3E030000 		.4byte	0x33e
 707 0398 10       		.byte	0x10
 708 0399 00       		.byte	0
 709 039a 03       		.uleb128 0x3
 710 039b 15040000 		.4byte	.LASF63
 711 039f 06       		.byte	0x6
 712 03a0 5B       		.byte	0x5b
 713 03a1 A5030000 		.4byte	0x3a5
 714 03a5 0D       		.uleb128 0xd
 715 03a6 8C000000 		.4byte	.LASF64
 716 03aa 10       		.byte	0x10
 717 03ab 07       		.byte	0x7
 718 03ac 4901     		.2byte	0x149
 719 03ae E7030000 		.4byte	0x3e7
 720 03b2 0B       		.uleb128 0xb
 721 03b3 AF0A0000 		.4byte	.LASF51
 722 03b7 07       		.byte	0x7
 723 03b8 4A01     		.2byte	0x14a
 724 03ba 9E080000 		.4byte	0x89e
 725 03be 00       		.byte	0
 726 03bf 0B       		.uleb128 0xb
 727 03c0 B40A0000 		.4byte	.LASF54
 728 03c4 07       		.byte	0x7
 729 03c5 4C01     		.2byte	0x14c
 730 03c7 9E080000 		.4byte	0x89e
 731 03cb 04       		.byte	0x4
 732 03cc 0B       		.uleb128 0xb
 733 03cd FD070000 		.4byte	.LASF61
 734 03d1 07       		.byte	0x7
 735 03d2 4E01     		.2byte	0x14e
 736 03d4 71040000 		.4byte	0x471
 737 03d8 08       		.byte	0x8
 738 03d9 0B       		.uleb128 0xb
 739 03da 45020000 		.4byte	.LASF65
 740 03de 07       		.byte	0x7
 741 03df 5601     		.2byte	0x156
ARM GAS  /var/folders/vd/czx34qs52cd_f3nb04sxmghc0000gn/T//cciWLOa8.s 			page 14


 742 03e1 66040000 		.4byte	0x466
 743 03e5 0C       		.byte	0xc
 744 03e6 00       		.byte	0
 745 03e7 03       		.uleb128 0x3
 746 03e8 65020000 		.4byte	.LASF66
 747 03ec 06       		.byte	0x6
 748 03ed 60       		.byte	0x60
 749 03ee F2030000 		.4byte	0x3f2
 750 03f2 0D       		.uleb128 0xd
 751 03f3 25090000 		.4byte	.LASF67
 752 03f7 04       		.byte	0x4
 753 03f8 07       		.byte	0x7
 754 03f9 7001     		.2byte	0x170
 755 03fb 0D040000 		.4byte	0x40d
 756 03ff 0B       		.uleb128 0xb
 757 0400 5B020000 		.4byte	.LASF68
 758 0404 07       		.byte	0x7
 759 0405 7801     		.2byte	0x178
 760 0407 87080000 		.4byte	0x887
 761 040b 00       		.byte	0
 762 040c 00       		.byte	0
 763 040d 03       		.uleb128 0x3
 764 040e 490A0000 		.4byte	.LASF69
 765 0412 06       		.byte	0x6
 766 0413 65       		.byte	0x65
 767 0414 18040000 		.4byte	0x418
 768 0418 0D       		.uleb128 0xd
 769 0419 A7090000 		.4byte	.LASF70
 770 041d 78       		.byte	0x78
 771 041e 07       		.byte	0x7
 772 041f 9001     		.2byte	0x190
 773 0421 66040000 		.4byte	0x466
 774 0425 0B       		.uleb128 0xb
 775 0426 80080000 		.4byte	.LASF71
 776 042a 07       		.byte	0x7
 777 042b 9401     		.2byte	0x194
 778 042d BB020000 		.4byte	0x2bb
 779 0431 00       		.byte	0
 780 0432 0B       		.uleb128 0xb
 781 0433 5C090000 		.4byte	.LASF72
 782 0437 07       		.byte	0x7
 783 0438 9801     		.2byte	0x198
 784 043a 9A030000 		.4byte	0x39a
 785 043e 1C       		.byte	0x1c
 786 043f 0A       		.uleb128 0xa
 787 0440 64626700 		.ascii	"dbg\000"
 788 0444 07       		.byte	0x7
 789 0445 9C01     		.2byte	0x19c
 790 0447 E7030000 		.4byte	0x3e7
 791 044b 2C       		.byte	0x2c
 792 044c 0B       		.uleb128 0xb
 793 044d 2E080000 		.4byte	.LASF73
 794 0451 07       		.byte	0x7
 795 0452 A001     		.2byte	0x1a0
 796 0454 6D010000 		.4byte	0x16d
 797 0458 30       		.byte	0x30
 798 0459 0A       		.uleb128 0xa
ARM GAS  /var/folders/vd/czx34qs52cd_f3nb04sxmghc0000gn/T//cciWLOa8.s 			page 15


 799 045a 746D00   		.ascii	"tm\000"
 800 045d 07       		.byte	0x7
 801 045e A501     		.2byte	0x1a5
 802 0460 AC070000 		.4byte	0x7ac
 803 0464 74       		.byte	0x74
 804 0465 00       		.byte	0
 805 0466 03       		.uleb128 0x3
 806 0467 3E000000 		.4byte	.LASF74
 807 046b 08       		.byte	0x8
 808 046c 8C       		.byte	0x8c
 809 046d E4000000 		.4byte	0xe4
 810 0471 03       		.uleb128 0x3
 811 0472 0A060000 		.4byte	.LASF75
 812 0476 08       		.byte	0x8
 813 0477 98       		.byte	0x98
 814 0478 E4000000 		.4byte	0xe4
 815 047c 11       		.uleb128 0x11
 816 047d 50060000 		.4byte	.LASF76
 817 0481 09       		.byte	0x9
 818 0482 F407     		.2byte	0x7f4
 819 0484 DF000000 		.4byte	0xdf
 820 0488 12       		.uleb128 0x12
 821 0489 E5030000 		.4byte	.LASF77
 822 048d 0A       		.byte	0xa
 823 048e 4C       		.byte	0x4c
 824 048f E4000000 		.4byte	0xe4
 825 0493 13       		.uleb128 0x13
 826 0494 C4000000 		.4byte	0xc4
 827 0498 A3040000 		.4byte	0x4a3
 828 049c 14       		.uleb128 0x14
 829 049d 3C000000 		.4byte	0x3c
 830 04a1 0F       		.byte	0xf
 831 04a2 00       		.byte	0
 832 04a3 06       		.uleb128 0x6
 833 04a4 93040000 		.4byte	0x493
 834 04a8 12       		.uleb128 0x12
 835 04a9 78070000 		.4byte	.LASF78
 836 04ad 0A       		.byte	0xa
 837 04ae 4E       		.byte	0x4e
 838 04af A3040000 		.4byte	0x4a3
 839 04b3 13       		.uleb128 0x13
 840 04b4 C4000000 		.4byte	0xc4
 841 04b8 C3040000 		.4byte	0x4c3
 842 04bc 14       		.uleb128 0x14
 843 04bd 3C000000 		.4byte	0x3c
 844 04c1 07       		.byte	0x7
 845 04c2 00       		.byte	0
 846 04c3 06       		.uleb128 0x6
 847 04c4 B3040000 		.4byte	0x4b3
 848 04c8 12       		.uleb128 0x12
 849 04c9 CA080000 		.4byte	.LASF79
 850 04cd 0A       		.byte	0xa
 851 04ce 4F       		.byte	0x4f
 852 04cf C3040000 		.4byte	0x4c3
 853 04d3 15       		.uleb128 0x15
 854 04d4 18       		.byte	0x18
 855 04d5 0B       		.byte	0xb
ARM GAS  /var/folders/vd/czx34qs52cd_f3nb04sxmghc0000gn/T//cciWLOa8.s 			page 16


 856 04d6 6A01     		.2byte	0x16a
 857 04d8 2A050000 		.4byte	0x52a
 858 04dc 0A       		.uleb128 0xa
 859 04dd 435200   		.ascii	"CR\000"
 860 04e0 0B       		.byte	0xb
 861 04e1 6C01     		.2byte	0x16c
 862 04e3 EF000000 		.4byte	0xef
 863 04e7 00       		.byte	0
 864 04e8 0B       		.uleb128 0xb
 865 04e9 890A0000 		.4byte	.LASF80
 866 04ed 0B       		.byte	0xb
 867 04ee 6D01     		.2byte	0x16d
 868 04f0 EF000000 		.4byte	0xef
 869 04f4 04       		.byte	0x4
 870 04f5 0A       		.uleb128 0xa
 871 04f6 50415200 		.ascii	"PAR\000"
 872 04fa 0B       		.byte	0xb
 873 04fb 6E01     		.2byte	0x16e
 874 04fd EF000000 		.4byte	0xef
 875 0501 08       		.byte	0x8
 876 0502 0B       		.uleb128 0xb
 877 0503 B2080000 		.4byte	.LASF81
 878 0507 0B       		.byte	0xb
 879 0508 6F01     		.2byte	0x16f
 880 050a EF000000 		.4byte	0xef
 881 050e 0C       		.byte	0xc
 882 050f 0B       		.uleb128 0xb
 883 0510 08000000 		.4byte	.LASF82
 884 0514 0B       		.byte	0xb
 885 0515 7001     		.2byte	0x170
 886 0517 EF000000 		.4byte	0xef
 887 051b 10       		.byte	0x10
 888 051c 0A       		.uleb128 0xa
 889 051d 46435200 		.ascii	"FCR\000"
 890 0521 0B       		.byte	0xb
 891 0522 7101     		.2byte	0x171
 892 0524 EF000000 		.4byte	0xef
 893 0528 14       		.byte	0x14
 894 0529 00       		.byte	0
 895 052a 16       		.uleb128 0x16
 896 052b EE060000 		.4byte	.LASF83
 897 052f 0B       		.byte	0xb
 898 0530 7201     		.2byte	0x172
 899 0532 D3040000 		.4byte	0x4d3
 900 0536 13       		.uleb128 0x13
 901 0537 EF000000 		.4byte	0xef
 902 053b 46050000 		.4byte	0x546
 903 053f 14       		.uleb128 0x14
 904 0540 3C000000 		.4byte	0x3c
 905 0544 01       		.byte	0x1
 906 0545 00       		.byte	0
 907 0546 04       		.uleb128 0x4
 908 0547 36050000 		.4byte	0x536
 909 054b 13       		.uleb128 0x13
 910 054c EF000000 		.4byte	0xef
 911 0550 5B050000 		.4byte	0x55b
 912 0554 14       		.uleb128 0x14
ARM GAS  /var/folders/vd/czx34qs52cd_f3nb04sxmghc0000gn/T//cciWLOa8.s 			page 17


 913 0555 3C000000 		.4byte	0x3c
 914 0559 03       		.byte	0x3
 915 055a 00       		.byte	0
 916 055b 04       		.uleb128 0x4
 917 055c 4B050000 		.4byte	0x54b
 918 0560 15       		.uleb128 0x15
 919 0561 1C       		.byte	0x1c
 920 0562 0B       		.byte	0xb
 921 0563 0603     		.2byte	0x306
 922 0565 C3050000 		.4byte	0x5c3
 923 0569 0A       		.uleb128 0xa
 924 056a 535200   		.ascii	"SR\000"
 925 056d 0B       		.byte	0xb
 926 056e 0803     		.2byte	0x308
 927 0570 EF000000 		.4byte	0xef
 928 0574 00       		.byte	0
 929 0575 0A       		.uleb128 0xa
 930 0576 445200   		.ascii	"DR\000"
 931 0579 0B       		.byte	0xb
 932 057a 0903     		.2byte	0x309
 933 057c EF000000 		.4byte	0xef
 934 0580 04       		.byte	0x4
 935 0581 0A       		.uleb128 0xa
 936 0582 42525200 		.ascii	"BRR\000"
 937 0586 0B       		.byte	0xb
 938 0587 0A03     		.2byte	0x30a
 939 0589 EF000000 		.4byte	0xef
 940 058d 08       		.byte	0x8
 941 058e 0A       		.uleb128 0xa
 942 058f 43523100 		.ascii	"CR1\000"
 943 0593 0B       		.byte	0xb
 944 0594 0B03     		.2byte	0x30b
 945 0596 EF000000 		.4byte	0xef
 946 059a 0C       		.byte	0xc
 947 059b 0A       		.uleb128 0xa
 948 059c 43523200 		.ascii	"CR2\000"
 949 05a0 0B       		.byte	0xb
 950 05a1 0C03     		.2byte	0x30c
 951 05a3 EF000000 		.4byte	0xef
 952 05a7 10       		.byte	0x10
 953 05a8 0A       		.uleb128 0xa
 954 05a9 43523300 		.ascii	"CR3\000"
 955 05ad 0B       		.byte	0xb
 956 05ae 0D03     		.2byte	0x30d
 957 05b0 EF000000 		.4byte	0xef
 958 05b4 14       		.byte	0x14
 959 05b5 0B       		.uleb128 0xb
 960 05b6 31060000 		.4byte	.LASF84
 961 05ba 0B       		.byte	0xb
 962 05bb 0E03     		.2byte	0x30e
 963 05bd EF000000 		.4byte	0xef
 964 05c1 18       		.byte	0x18
 965 05c2 00       		.byte	0
 966 05c3 16       		.uleb128 0x16
 967 05c4 ED020000 		.4byte	.LASF85
 968 05c8 0B       		.byte	0xb
 969 05c9 0F03     		.2byte	0x30f
ARM GAS  /var/folders/vd/czx34qs52cd_f3nb04sxmghc0000gn/T//cciWLOa8.s 			page 18


 970 05cb 60050000 		.4byte	0x560
 971 05cf 03       		.uleb128 0x3
 972 05d0 B7010000 		.4byte	.LASF86
 973 05d4 0C       		.byte	0xc
 974 05d5 65       		.byte	0x65
 975 05d6 3E030000 		.4byte	0x33e
 976 05da 03       		.uleb128 0x3
 977 05db E2020000 		.4byte	.LASF87
 978 05df 0C       		.byte	0xc
 979 05e0 6D       		.byte	0x6d
 980 05e1 F4000000 		.4byte	0xf4
 981 05e5 07       		.uleb128 0x7
 982 05e6 85090000 		.4byte	.LASF88
 983 05ea 04       		.byte	0x4
 984 05eb 0C       		.byte	0xc
 985 05ec 89       		.byte	0x89
 986 05ed FD050000 		.4byte	0x5fd
 987 05f1 09       		.uleb128 0x9
 988 05f2 737000   		.ascii	"sp\000"
 989 05f5 0C       		.byte	0xc
 990 05f6 8A       		.byte	0x8a
 991 05f7 79060000 		.4byte	0x679
 992 05fb 00       		.byte	0
 993 05fc 00       		.byte	0
 994 05fd 0D       		.uleb128 0xd
 995 05fe 51070000 		.4byte	.LASF89
 996 0602 24       		.byte	0x24
 997 0603 0D       		.byte	0xd
 998 0604 5901     		.2byte	0x159
 999 0606 79060000 		.4byte	0x679
 1000 060a 0A       		.uleb128 0xa
 1001 060b 723400   		.ascii	"r4\000"
 1002 060e 0D       		.byte	0xd
 1003 060f 6C01     		.2byte	0x16c
 1004 0611 CF050000 		.4byte	0x5cf
 1005 0615 00       		.byte	0
 1006 0616 0A       		.uleb128 0xa
 1007 0617 723500   		.ascii	"r5\000"
 1008 061a 0D       		.byte	0xd
 1009 061b 6D01     		.2byte	0x16d
 1010 061d CF050000 		.4byte	0x5cf
 1011 0621 04       		.byte	0x4
 1012 0622 0A       		.uleb128 0xa
 1013 0623 723600   		.ascii	"r6\000"
 1014 0626 0D       		.byte	0xd
 1015 0627 6E01     		.2byte	0x16e
 1016 0629 CF050000 		.4byte	0x5cf
 1017 062d 08       		.byte	0x8
 1018 062e 0A       		.uleb128 0xa
 1019 062f 723700   		.ascii	"r7\000"
 1020 0632 0D       		.byte	0xd
 1021 0633 6F01     		.2byte	0x16f
 1022 0635 CF050000 		.4byte	0x5cf
 1023 0639 0C       		.byte	0xc
 1024 063a 0A       		.uleb128 0xa
 1025 063b 723800   		.ascii	"r8\000"
 1026 063e 0D       		.byte	0xd
ARM GAS  /var/folders/vd/czx34qs52cd_f3nb04sxmghc0000gn/T//cciWLOa8.s 			page 19


 1027 063f 7001     		.2byte	0x170
 1028 0641 CF050000 		.4byte	0x5cf
 1029 0645 10       		.byte	0x10
 1030 0646 0A       		.uleb128 0xa
 1031 0647 723900   		.ascii	"r9\000"
 1032 064a 0D       		.byte	0xd
 1033 064b 7101     		.2byte	0x171
 1034 064d CF050000 		.4byte	0x5cf
 1035 0651 14       		.byte	0x14
 1036 0652 0A       		.uleb128 0xa
 1037 0653 72313000 		.ascii	"r10\000"
 1038 0657 0D       		.byte	0xd
 1039 0658 7201     		.2byte	0x172
 1040 065a CF050000 		.4byte	0x5cf
 1041 065e 18       		.byte	0x18
 1042 065f 0A       		.uleb128 0xa
 1043 0660 72313100 		.ascii	"r11\000"
 1044 0664 0D       		.byte	0xd
 1045 0665 7301     		.2byte	0x173
 1046 0667 CF050000 		.4byte	0x5cf
 1047 066b 1C       		.byte	0x1c
 1048 066c 0A       		.uleb128 0xa
 1049 066d 6C7200   		.ascii	"lr\000"
 1050 0670 0D       		.byte	0xd
 1051 0671 7401     		.2byte	0x174
 1052 0673 CF050000 		.4byte	0x5cf
 1053 0677 20       		.byte	0x20
 1054 0678 00       		.byte	0
 1055 0679 0C       		.uleb128 0xc
 1056 067a 04       		.byte	0x4
 1057 067b FD050000 		.4byte	0x5fd
 1058 067f 15       		.uleb128 0x15
 1059 0680 60       		.byte	0x60
 1060 0681 0E       		.byte	0xe
 1061 0682 F501     		.2byte	0x1f5
 1062 0684 8B070000 		.4byte	0x78b
 1063 0688 0A       		.uleb128 0xa
 1064 0689 43523100 		.ascii	"CR1\000"
 1065 068d 0E       		.byte	0xe
 1066 068e F601     		.2byte	0x1f6
 1067 0690 EF000000 		.4byte	0xef
 1068 0694 00       		.byte	0
 1069 0695 0A       		.uleb128 0xa
 1070 0696 43523200 		.ascii	"CR2\000"
 1071 069a 0E       		.byte	0xe
 1072 069b F701     		.2byte	0x1f7
 1073 069d EF000000 		.4byte	0xef
 1074 06a1 04       		.byte	0x4
 1075 06a2 0B       		.uleb128 0xb
 1076 06a3 39080000 		.4byte	.LASF90
 1077 06a7 0E       		.byte	0xe
 1078 06a8 F801     		.2byte	0x1f8
 1079 06aa EF000000 		.4byte	0xef
 1080 06ae 08       		.byte	0x8
 1081 06af 0B       		.uleb128 0xb
 1082 06b0 D9030000 		.4byte	.LASF91
 1083 06b4 0E       		.byte	0xe
ARM GAS  /var/folders/vd/czx34qs52cd_f3nb04sxmghc0000gn/T//cciWLOa8.s 			page 20


 1084 06b5 F901     		.2byte	0x1f9
 1085 06b7 EF000000 		.4byte	0xef
 1086 06bb 0C       		.byte	0xc
 1087 06bc 0A       		.uleb128 0xa
 1088 06bd 535200   		.ascii	"SR\000"
 1089 06c0 0E       		.byte	0xe
 1090 06c1 FA01     		.2byte	0x1fa
 1091 06c3 EF000000 		.4byte	0xef
 1092 06c7 10       		.byte	0x10
 1093 06c8 0A       		.uleb128 0xa
 1094 06c9 45475200 		.ascii	"EGR\000"
 1095 06cd 0E       		.byte	0xe
 1096 06ce FB01     		.2byte	0x1fb
 1097 06d0 EF000000 		.4byte	0xef
 1098 06d4 14       		.byte	0x14
 1099 06d5 0B       		.uleb128 0xb
 1100 06d6 84020000 		.4byte	.LASF92
 1101 06da 0E       		.byte	0xe
 1102 06db FC01     		.2byte	0x1fc
 1103 06dd EF000000 		.4byte	0xef
 1104 06e1 18       		.byte	0x18
 1105 06e2 0B       		.uleb128 0xb
 1106 06e3 8A020000 		.4byte	.LASF93
 1107 06e7 0E       		.byte	0xe
 1108 06e8 FD01     		.2byte	0x1fd
 1109 06ea EF000000 		.4byte	0xef
 1110 06ee 1C       		.byte	0x1c
 1111 06ef 0B       		.uleb128 0xb
 1112 06f0 F8070000 		.4byte	.LASF94
 1113 06f4 0E       		.byte	0xe
 1114 06f5 FE01     		.2byte	0x1fe
 1115 06f7 EF000000 		.4byte	0xef
 1116 06fb 20       		.byte	0x20
 1117 06fc 0A       		.uleb128 0xa
 1118 06fd 434E5400 		.ascii	"CNT\000"
 1119 0701 0E       		.byte	0xe
 1120 0702 FF01     		.2byte	0x1ff
 1121 0704 EF000000 		.4byte	0xef
 1122 0708 24       		.byte	0x24
 1123 0709 0A       		.uleb128 0xa
 1124 070a 50534300 		.ascii	"PSC\000"
 1125 070e 0E       		.byte	0xe
 1126 070f 0002     		.2byte	0x200
 1127 0711 EF000000 		.4byte	0xef
 1128 0715 28       		.byte	0x28
 1129 0716 0A       		.uleb128 0xa
 1130 0717 41525200 		.ascii	"ARR\000"
 1131 071b 0E       		.byte	0xe
 1132 071c 0102     		.2byte	0x201
 1133 071e EF000000 		.4byte	0xef
 1134 0722 2C       		.byte	0x2c
 1135 0723 0A       		.uleb128 0xa
 1136 0724 52435200 		.ascii	"RCR\000"
 1137 0728 0E       		.byte	0xe
 1138 0729 0202     		.2byte	0x202
 1139 072b EF000000 		.4byte	0xef
 1140 072f 30       		.byte	0x30
ARM GAS  /var/folders/vd/czx34qs52cd_f3nb04sxmghc0000gn/T//cciWLOa8.s 			page 21


 1141 0730 0A       		.uleb128 0xa
 1142 0731 43435200 		.ascii	"CCR\000"
 1143 0735 0E       		.byte	0xe
 1144 0736 0302     		.2byte	0x203
 1145 0738 5B050000 		.4byte	0x55b
 1146 073c 34       		.byte	0x34
 1147 073d 0B       		.uleb128 0xb
 1148 073e C2090000 		.4byte	.LASF95
 1149 0742 0E       		.byte	0xe
 1150 0743 0402     		.2byte	0x204
 1151 0745 EF000000 		.4byte	0xef
 1152 0749 44       		.byte	0x44
 1153 074a 0A       		.uleb128 0xa
 1154 074b 44435200 		.ascii	"DCR\000"
 1155 074f 0E       		.byte	0xe
 1156 0750 0502     		.2byte	0x205
 1157 0752 EF000000 		.4byte	0xef
 1158 0756 48       		.byte	0x48
 1159 0757 0B       		.uleb128 0xb
 1160 0758 F0000000 		.4byte	.LASF96
 1161 075c 0E       		.byte	0xe
 1162 075d 0602     		.2byte	0x206
 1163 075f EF000000 		.4byte	0xef
 1164 0763 4C       		.byte	0x4c
 1165 0764 0A       		.uleb128 0xa
 1166 0765 4F5200   		.ascii	"OR\000"
 1167 0768 0E       		.byte	0xe
 1168 0769 0702     		.2byte	0x207
 1169 076b EF000000 		.4byte	0xef
 1170 076f 50       		.byte	0x50
 1171 0770 0B       		.uleb128 0xb
 1172 0771 90020000 		.4byte	.LASF97
 1173 0775 0E       		.byte	0xe
 1174 0776 0802     		.2byte	0x208
 1175 0778 EF000000 		.4byte	0xef
 1176 077c 54       		.byte	0x54
 1177 077d 0B       		.uleb128 0xb
 1178 077e 21030000 		.4byte	.LASF98
 1179 0782 0E       		.byte	0xe
 1180 0783 0902     		.2byte	0x209
 1181 0785 46050000 		.4byte	0x546
 1182 0789 58       		.byte	0x58
 1183 078a 00       		.byte	0
 1184 078b 16       		.uleb128 0x16
 1185 078c 96040000 		.4byte	.LASF99
 1186 0790 0E       		.byte	0xe
 1187 0791 0A02     		.2byte	0x20a
 1188 0793 7F060000 		.4byte	0x67f
 1189 0797 17       		.uleb128 0x17
 1190 0798 04       		.byte	0x4
 1191 0799 0F       		.byte	0xf
 1192 079a 38       		.byte	0x38
 1193 079b AC070000 		.4byte	0x7ac
 1194 079f 08       		.uleb128 0x8
 1195 07a0 E7060000 		.4byte	.LASF100
 1196 07a4 0F       		.byte	0xf
 1197 07a5 3C       		.byte	0x3c
ARM GAS  /var/folders/vd/czx34qs52cd_f3nb04sxmghc0000gn/T//cciWLOa8.s 			page 22


 1198 07a6 FF000000 		.4byte	0xff
 1199 07aa 00       		.byte	0
 1200 07ab 00       		.byte	0
 1201 07ac 03       		.uleb128 0x3
 1202 07ad A1080000 		.4byte	.LASF101
 1203 07b1 0F       		.byte	0xf
 1204 07b2 3D       		.byte	0x3d
 1205 07b3 97070000 		.4byte	0x797
 1206 07b7 18       		.uleb128 0x18
 1207 07b8 04       		.byte	0x4
 1208 07b9 07       		.byte	0x7
 1209 07ba C6       		.byte	0xc6
 1210 07bb 19080000 		.4byte	0x819
 1211 07bf 19       		.uleb128 0x19
 1212 07c0 270A0000 		.4byte	.LASF102
 1213 07c4 07       		.byte	0x7
 1214 07c5 CD       		.byte	0xcd
 1215 07c6 36010000 		.4byte	0x136
 1216 07ca 19       		.uleb128 0x19
 1217 07cb 33010000 		.4byte	.LASF103
 1218 07cf 07       		.byte	0x7
 1219 07d0 D4       		.byte	0xd4
 1220 07d1 36010000 		.4byte	0x136
 1221 07d5 19       		.uleb128 0x19
 1222 07d6 BC020000 		.4byte	.LASF104
 1223 07da 07       		.byte	0x7
 1224 07db DB       		.byte	0xdb
 1225 07dc 3E030000 		.4byte	0x33e
 1226 07e0 19       		.uleb128 0x19
 1227 07e1 1B020000 		.4byte	.LASF105
 1228 07e5 07       		.byte	0x7
 1229 07e6 E2       		.byte	0xe2
 1230 07e7 19080000 		.4byte	0x819
 1231 07eb 19       		.uleb128 0x19
 1232 07ec 49070000 		.4byte	.LASF106
 1233 07f0 07       		.byte	0x7
 1234 07f1 E7       		.byte	0xe7
 1235 07f2 36010000 		.4byte	0x136
 1236 07f6 19       		.uleb128 0x19
 1237 07f7 37000000 		.4byte	.LASF107
 1238 07fb 07       		.byte	0x7
 1239 07fc F0       		.byte	0xf0
 1240 07fd 44080000 		.4byte	0x844
 1241 0801 19       		.uleb128 0x19
 1242 0802 61030000 		.4byte	.LASF108
 1243 0806 07       		.byte	0x7
 1244 0807 F9       		.byte	0xf9
 1245 0808 7B080000 		.4byte	0x87b
 1246 080c 1A       		.uleb128 0x1a
 1247 080d 00020000 		.4byte	.LASF109
 1248 0811 07       		.byte	0x7
 1249 0812 0101     		.2byte	0x101
 1250 0814 41010000 		.4byte	0x141
 1251 0818 00       		.byte	0
 1252 0819 0C       		.uleb128 0xc
 1253 081a 04       		.byte	0x4
 1254 081b 56020000 		.4byte	0x256
ARM GAS  /var/folders/vd/czx34qs52cd_f3nb04sxmghc0000gn/T//cciWLOa8.s 			page 23


 1255 081f 07       		.uleb128 0x7
 1256 0820 F5030000 		.4byte	.LASF110
 1257 0824 0C       		.byte	0xc
 1258 0825 10       		.byte	0x10
 1259 0826 34       		.byte	0x34
 1260 0827 44080000 		.4byte	0x844
 1261 082b 08       		.uleb128 0x8
 1262 082c 0D080000 		.4byte	.LASF32
 1263 0830 10       		.byte	0x10
 1264 0831 35       		.byte	0x35
 1265 0832 8B020000 		.4byte	0x28b
 1266 0836 00       		.byte	0
 1267 0837 09       		.uleb128 0x9
 1268 0838 636E7400 		.ascii	"cnt\000"
 1269 083c 10       		.byte	0x10
 1270 083d 37       		.byte	0x37
 1271 083e 57010000 		.4byte	0x157
 1272 0842 08       		.byte	0x8
 1273 0843 00       		.byte	0
 1274 0844 0C       		.uleb128 0xc
 1275 0845 04       		.byte	0x4
 1276 0846 1F080000 		.4byte	0x81f
 1277 084a 07       		.uleb128 0x7
 1278 084b 0C090000 		.4byte	.LASF111
 1279 084f 10       		.byte	0x10
 1280 0850 11       		.byte	0x11
 1281 0851 39       		.byte	0x39
 1282 0852 7B080000 		.4byte	0x87b
 1283 0856 08       		.uleb128 0x8
 1284 0857 0D080000 		.4byte	.LASF32
 1285 085b 11       		.byte	0x11
 1286 085c 3A       		.byte	0x3a
 1287 085d 8B020000 		.4byte	0x28b
 1288 0861 00       		.byte	0
 1289 0862 08       		.uleb128 0x8
 1290 0863 54000000 		.4byte	.LASF112
 1291 0867 11       		.byte	0x11
 1292 0868 3C       		.byte	0x3c
 1293 0869 61020000 		.4byte	0x261
 1294 086d 08       		.byte	0x8
 1295 086e 08       		.uleb128 0x8
 1296 086f AF0A0000 		.4byte	.LASF51
 1297 0873 11       		.byte	0x11
 1298 0874 3E       		.byte	0x3e
 1299 0875 DD090000 		.4byte	0x9dd
 1300 0879 0C       		.byte	0xc
 1301 087a 00       		.byte	0
 1302 087b 0C       		.uleb128 0xc
 1303 087c 04       		.byte	0x4
 1304 087d 4A080000 		.4byte	0x84a
 1305 0881 0C       		.uleb128 0xc
 1306 0882 04       		.byte	0x4
 1307 0883 93080000 		.4byte	0x893
 1308 0887 04       		.uleb128 0x4
 1309 0888 81080000 		.4byte	0x881
 1310 088c 05       		.uleb128 0x5
 1311 088d 01       		.byte	0x1
ARM GAS  /var/folders/vd/czx34qs52cd_f3nb04sxmghc0000gn/T//cciWLOa8.s 			page 24


 1312 088e 08       		.byte	0x8
 1313 088f 96020000 		.4byte	.LASF113
 1314 0893 06       		.uleb128 0x6
 1315 0894 8C080000 		.4byte	0x88c
 1316 0898 0C       		.uleb128 0xc
 1317 0899 04       		.byte	0x4
 1318 089a DA050000 		.4byte	0x5da
 1319 089e 0C       		.uleb128 0xc
 1320 089f 04       		.byte	0x4
 1321 08a0 40030000 		.4byte	0x340
 1322 08a4 1B       		.uleb128 0x1b
 1323 08a5 636800   		.ascii	"ch\000"
 1324 08a8 07       		.byte	0x7
 1325 08a9 C701     		.2byte	0x1c7
 1326 08ab 0D040000 		.4byte	0x40d
 1327 08af 13       		.uleb128 0x13
 1328 08b0 DA050000 		.4byte	0x5da
 1329 08b4 BA080000 		.4byte	0x8ba
 1330 08b8 1C       		.uleb128 0x1c
 1331 08b9 00       		.byte	0
 1332 08ba 11       		.uleb128 0x11
 1333 08bb 2B040000 		.4byte	.LASF114
 1334 08bf 12       		.byte	0x12
 1335 08c0 1701     		.2byte	0x117
 1336 08c2 AF080000 		.4byte	0x8af
 1337 08c6 17       		.uleb128 0x17
 1338 08c7 16       		.byte	0x16
 1339 08c8 13       		.byte	0x13
 1340 08c9 34       		.byte	0x34
 1341 08ca A7090000 		.4byte	0x9a7
 1342 08ce 08       		.uleb128 0x8
 1343 08cf C50A0000 		.4byte	.LASF115
 1344 08d3 13       		.byte	0x13
 1345 08d4 35       		.byte	0x35
 1346 08d5 A7090000 		.4byte	0x9a7
 1347 08d9 00       		.byte	0
 1348 08da 08       		.uleb128 0x8
 1349 08db 7E010000 		.4byte	.LASF116
 1350 08df 13       		.byte	0x13
 1351 08e0 36       		.byte	0x36
 1352 08e1 B9000000 		.4byte	0xb9
 1353 08e5 04       		.byte	0x4
 1354 08e6 08       		.uleb128 0x8
 1355 08e7 97070000 		.4byte	.LASF117
 1356 08eb 13       		.byte	0x13
 1357 08ec 37       		.byte	0x37
 1358 08ed B9000000 		.4byte	0xb9
 1359 08f1 05       		.byte	0x5
 1360 08f2 08       		.uleb128 0x8
 1361 08f3 45080000 		.4byte	.LASF118
 1362 08f7 13       		.byte	0x13
 1363 08f8 38       		.byte	0x38
 1364 08f9 C9000000 		.4byte	0xc9
 1365 08fd 06       		.byte	0x6
 1366 08fe 08       		.uleb128 0x8
 1367 08ff 19030000 		.4byte	.LASF119
 1368 0903 13       		.byte	0x13
ARM GAS  /var/folders/vd/czx34qs52cd_f3nb04sxmghc0000gn/T//cciWLOa8.s 			page 25


 1369 0904 39       		.byte	0x39
 1370 0905 B9000000 		.4byte	0xb9
 1371 0909 08       		.byte	0x8
 1372 090a 08       		.uleb128 0x8
 1373 090b 6E0A0000 		.4byte	.LASF120
 1374 090f 13       		.byte	0x13
 1375 0910 3A       		.byte	0x3a
 1376 0911 B9000000 		.4byte	0xb9
 1377 0915 09       		.byte	0x9
 1378 0916 08       		.uleb128 0x8
 1379 0917 CE030000 		.4byte	.LASF121
 1380 091b 13       		.byte	0x13
 1381 091c 3B       		.byte	0x3b
 1382 091d B9000000 		.4byte	0xb9
 1383 0921 0A       		.byte	0xa
 1384 0922 08       		.uleb128 0x8
 1385 0923 27000000 		.4byte	.LASF122
 1386 0927 13       		.byte	0x13
 1387 0928 3C       		.byte	0x3c
 1388 0929 B9000000 		.4byte	0xb9
 1389 092d 0B       		.byte	0xb
 1390 092e 08       		.uleb128 0x8
 1391 092f 00000000 		.4byte	.LASF123
 1392 0933 13       		.byte	0x13
 1393 0934 3D       		.byte	0x3d
 1394 0935 B9000000 		.4byte	0xb9
 1395 0939 0C       		.byte	0xc
 1396 093a 08       		.uleb128 0x8
 1397 093b 87060000 		.4byte	.LASF124
 1398 093f 13       		.byte	0x13
 1399 0940 3E       		.byte	0x3e
 1400 0941 B9000000 		.4byte	0xb9
 1401 0945 0D       		.byte	0xd
 1402 0946 08       		.uleb128 0x8
 1403 0947 05010000 		.4byte	.LASF125
 1404 094b 13       		.byte	0x13
 1405 094c 3F       		.byte	0x3f
 1406 094d B9000000 		.4byte	0xb9
 1407 0951 0E       		.byte	0xe
 1408 0952 08       		.uleb128 0x8
 1409 0953 C5070000 		.4byte	.LASF126
 1410 0957 13       		.byte	0x13
 1411 0958 40       		.byte	0x40
 1412 0959 B9000000 		.4byte	0xb9
 1413 095d 0F       		.byte	0xf
 1414 095e 08       		.uleb128 0x8
 1415 095f AF040000 		.4byte	.LASF127
 1416 0963 13       		.byte	0x13
 1417 0964 41       		.byte	0x41
 1418 0965 B9000000 		.4byte	0xb9
 1419 0969 10       		.byte	0x10
 1420 096a 08       		.uleb128 0x8
 1421 096b B2030000 		.4byte	.LASF128
 1422 096f 13       		.byte	0x13
 1423 0970 42       		.byte	0x42
 1424 0971 B9000000 		.4byte	0xb9
 1425 0975 11       		.byte	0x11
ARM GAS  /var/folders/vd/czx34qs52cd_f3nb04sxmghc0000gn/T//cciWLOa8.s 			page 26


 1426 0976 08       		.uleb128 0x8
 1427 0977 9E0A0000 		.4byte	.LASF129
 1428 097b 13       		.byte	0x13
 1429 097c 43       		.byte	0x43
 1430 097d B9000000 		.4byte	0xb9
 1431 0981 12       		.byte	0x12
 1432 0982 08       		.uleb128 0x8
 1433 0983 CE020000 		.4byte	.LASF130
 1434 0987 13       		.byte	0x13
 1435 0988 44       		.byte	0x44
 1436 0989 B9000000 		.4byte	0xb9
 1437 098d 13       		.byte	0x13
 1438 098e 08       		.uleb128 0x8
 1439 098f 48000000 		.4byte	.LASF131
 1440 0993 13       		.byte	0x13
 1441 0994 45       		.byte	0x45
 1442 0995 B9000000 		.4byte	0xb9
 1443 0999 14       		.byte	0x14
 1444 099a 08       		.uleb128 0x8
 1445 099b 33030000 		.4byte	.LASF132
 1446 099f 13       		.byte	0x13
 1447 09a0 46       		.byte	0x46
 1448 09a1 B9000000 		.4byte	0xb9
 1449 09a5 15       		.byte	0x15
 1450 09a6 00       		.byte	0
 1451 09a7 13       		.uleb128 0x13
 1452 09a8 8C080000 		.4byte	0x88c
 1453 09ac B7090000 		.4byte	0x9b7
 1454 09b0 14       		.uleb128 0x14
 1455 09b1 3C000000 		.4byte	0x3c
 1456 09b5 03       		.byte	0x3
 1457 09b6 00       		.byte	0
 1458 09b7 03       		.uleb128 0x3
 1459 09b8 550A0000 		.4byte	.LASF133
 1460 09bc 13       		.byte	0x13
 1461 09bd 47       		.byte	0x47
 1462 09be C6080000 		.4byte	0x8c6
 1463 09c2 06       		.uleb128 0x6
 1464 09c3 B7090000 		.4byte	0x9b7
 1465 09c7 12       		.uleb128 0x12
 1466 09c8 62000000 		.4byte	.LASF134
 1467 09cc 13       		.byte	0x13
 1468 09cd 6C       		.byte	0x6c
 1469 09ce C2090000 		.4byte	0x9c2
 1470 09d2 03       		.uleb128 0x3
 1471 09d3 75090000 		.4byte	.LASF135
 1472 09d7 11       		.byte	0x11
 1473 09d8 34       		.byte	0x34
 1474 09d9 4A080000 		.4byte	0x84a
 1475 09dd 0C       		.uleb128 0xc
 1476 09de 04       		.byte	0x4
 1477 09df D2090000 		.4byte	0x9d2
 1478 09e3 03       		.uleb128 0x3
 1479 09e4 08030000 		.4byte	.LASF136
 1480 09e8 14       		.byte	0x14
 1481 09e9 34       		.byte	0x34
 1482 09ea EE090000 		.4byte	0x9ee
ARM GAS  /var/folders/vd/czx34qs52cd_f3nb04sxmghc0000gn/T//cciWLOa8.s 			page 27


 1483 09ee 07       		.uleb128 0x7
 1484 09ef 180A0000 		.4byte	.LASF137
 1485 09f3 14       		.byte	0x14
 1486 09f4 14       		.byte	0x14
 1487 09f5 39       		.byte	0x39
 1488 09f6 370A0000 		.4byte	0xa37
 1489 09fa 08       		.uleb128 0x8
 1490 09fb AF0A0000 		.4byte	.LASF51
 1491 09ff 14       		.byte	0x14
 1492 0a00 3A       		.byte	0x3a
 1493 0a01 370A0000 		.4byte	0xa37
 1494 0a05 00       		.byte	0
 1495 0a06 08       		.uleb128 0x8
 1496 0a07 BC080000 		.4byte	.LASF138
 1497 0a0b 14       		.byte	0x14
 1498 0a0c 3D       		.byte	0x3d
 1499 0a0d 61020000 		.4byte	0x261
 1500 0a11 04       		.byte	0x4
 1501 0a12 08       		.uleb128 0x8
 1502 0a13 A80A0000 		.4byte	.LASF139
 1503 0a17 14       		.byte	0x14
 1504 0a18 3F       		.byte	0x3f
 1505 0a19 41010000 		.4byte	0x141
 1506 0a1d 08       		.byte	0x8
 1507 0a1e 08       		.uleb128 0x8
 1508 0a1f D7020000 		.4byte	.LASF39
 1509 0a23 14       		.byte	0x14
 1510 0a24 41       		.byte	0x41
 1511 0a25 4C010000 		.4byte	0x14c
 1512 0a29 0C       		.byte	0xc
 1513 0a2a 08       		.uleb128 0x8
 1514 0a2b 2F070000 		.4byte	.LASF140
 1515 0a2f 14       		.byte	0x14
 1516 0a30 43       		.byte	0x43
 1517 0a31 4C010000 		.4byte	0x14c
 1518 0a35 10       		.byte	0x10
 1519 0a36 00       		.byte	0
 1520 0a37 0C       		.uleb128 0xc
 1521 0a38 04       		.byte	0x4
 1522 0a39 E3090000 		.4byte	0x9e3
 1523 0a3d 07       		.uleb128 0x7
 1524 0a3e EC080000 		.4byte	.LASF141
 1525 0a42 04       		.byte	0x4
 1526 0a43 14       		.byte	0x14
 1527 0a44 4A       		.byte	0x4a
 1528 0a45 560A0000 		.4byte	0xa56
 1529 0a49 08       		.uleb128 0x8
 1530 0a4a AF0A0000 		.4byte	.LASF51
 1531 0a4e 14       		.byte	0x14
 1532 0a4f 4B       		.byte	0x4b
 1533 0a50 370A0000 		.4byte	0xa37
 1534 0a54 00       		.byte	0
 1535 0a55 00       		.byte	0
 1536 0a56 03       		.uleb128 0x3
 1537 0a57 36060000 		.4byte	.LASF142
 1538 0a5b 14       		.byte	0x14
 1539 0a5c 4E       		.byte	0x4e
ARM GAS  /var/folders/vd/czx34qs52cd_f3nb04sxmghc0000gn/T//cciWLOa8.s 			page 28


 1540 0a5d 3D0A0000 		.4byte	0xa3d
 1541 0a61 05       		.uleb128 0x5
 1542 0a62 01       		.byte	0x1
 1543 0a63 02       		.byte	0x2
 1544 0a64 7E020000 		.4byte	.LASF143
 1545 0a68 03       		.uleb128 0x3
 1546 0a69 01070000 		.4byte	.LASF144
 1547 0a6d 15       		.byte	0x15
 1548 0a6e 4B       		.byte	0x4b
 1549 0a6f 730A0000 		.4byte	0xa73
 1550 0a73 0C       		.uleb128 0xc
 1551 0a74 04       		.byte	0x4
 1552 0a75 790A0000 		.4byte	0xa79
 1553 0a79 1D       		.uleb128 0x1d
 1554 0a7a 3E030000 		.4byte	0x33e
 1555 0a7e 8D0A0000 		.4byte	0xa8d
 1556 0a82 0F       		.uleb128 0xf
 1557 0a83 2C000000 		.4byte	0x2c
 1558 0a87 0F       		.uleb128 0xf
 1559 0a88 3C000000 		.4byte	0x3c
 1560 0a8c 00       		.byte	0
 1561 0a8d 17       		.uleb128 0x17
 1562 0a8e 08       		.byte	0x8
 1563 0a8f 15       		.byte	0x15
 1564 0a90 55       		.byte	0x55
 1565 0a91 AE0A0000 		.4byte	0xaae
 1566 0a95 08       		.uleb128 0x8
 1567 0a96 8D030000 		.4byte	.LASF145
 1568 0a9a 15       		.byte	0x15
 1569 0a9b 59       		.byte	0x59
 1570 0a9c AE0A0000 		.4byte	0xaae
 1571 0aa0 00       		.byte	0
 1572 0aa1 08       		.uleb128 0x8
 1573 0aa2 30000000 		.4byte	.LASF146
 1574 0aa6 15       		.byte	0x15
 1575 0aa7 5D       		.byte	0x5d
 1576 0aa8 AE0A0000 		.4byte	0xaae
 1577 0aac 04       		.byte	0x4
 1578 0aad 00       		.byte	0
 1579 0aae 0C       		.uleb128 0xc
 1580 0aaf 04       		.byte	0x4
 1581 0ab0 B9000000 		.4byte	0xb9
 1582 0ab4 03       		.uleb128 0x3
 1583 0ab5 E1010000 		.4byte	.LASF147
 1584 0ab9 15       		.byte	0x15
 1585 0aba 5E       		.byte	0x5e
 1586 0abb 8D0A0000 		.4byte	0xa8d
 1587 0abf 12       		.uleb128 0x12
 1588 0ac0 930A0000 		.4byte	.LASF148
 1589 0ac4 15       		.byte	0x15
 1590 0ac5 69       		.byte	0x69
 1591 0ac6 B40A0000 		.4byte	0xab4
 1592 0aca 07       		.uleb128 0x7
 1593 0acb BC040000 		.4byte	.LASF149
 1594 0acf 04       		.byte	0x4
 1595 0ad0 16       		.byte	0x16
 1596 0ad1 3C       		.byte	0x3c
ARM GAS  /var/folders/vd/czx34qs52cd_f3nb04sxmghc0000gn/T//cciWLOa8.s 			page 29


 1597 0ad2 E30A0000 		.4byte	0xae3
 1598 0ad6 08       		.uleb128 0x8
 1599 0ad7 AF0A0000 		.4byte	.LASF51
 1600 0adb 16       		.byte	0x16
 1601 0adc 3D       		.byte	0x3d
 1602 0add E30A0000 		.4byte	0xae3
 1603 0ae1 00       		.byte	0
 1604 0ae2 00       		.byte	0
 1605 0ae3 0C       		.uleb128 0xc
 1606 0ae4 04       		.byte	0x4
 1607 0ae5 CA0A0000 		.4byte	0xaca
 1608 0ae9 17       		.uleb128 0x17
 1609 0aea 10       		.byte	0x10
 1610 0aeb 16       		.byte	0x16
 1611 0aec 44       		.byte	0x44
 1612 0aed 220B0000 		.4byte	0xb22
 1613 0af1 08       		.uleb128 0x8
 1614 0af2 AF0A0000 		.4byte	.LASF51
 1615 0af6 16       		.byte	0x16
 1616 0af7 45       		.byte	0x45
 1617 0af8 E30A0000 		.4byte	0xae3
 1618 0afc 00       		.byte	0
 1619 0afd 08       		.uleb128 0x8
 1620 0afe 50090000 		.4byte	.LASF150
 1621 0b02 16       		.byte	0x16
 1622 0b03 46       		.byte	0x46
 1623 0b04 2C000000 		.4byte	0x2c
 1624 0b08 04       		.byte	0x4
 1625 0b09 08       		.uleb128 0x8
 1626 0b0a 4A060000 		.4byte	.LASF151
 1627 0b0e 16       		.byte	0x16
 1628 0b0f 48       		.byte	0x48
 1629 0b10 3C000000 		.4byte	0x3c
 1630 0b14 08       		.byte	0x8
 1631 0b15 08       		.uleb128 0x8
 1632 0b16 6B000000 		.4byte	.LASF152
 1633 0b1a 16       		.byte	0x16
 1634 0b1b 49       		.byte	0x49
 1635 0b1c 680A0000 		.4byte	0xa68
 1636 0b20 0C       		.byte	0xc
 1637 0b21 00       		.byte	0
 1638 0b22 03       		.uleb128 0x3
 1639 0b23 61080000 		.4byte	.LASF153
 1640 0b27 16       		.byte	0x16
 1641 0b28 4B       		.byte	0x4b
 1642 0b29 E90A0000 		.4byte	0xae9
 1643 0b2d 07       		.uleb128 0x7
 1644 0b2e A9000000 		.4byte	.LASF154
 1645 0b32 10       		.byte	0x10
 1646 0b33 17       		.byte	0x17
 1647 0b34 97       		.byte	0x97
 1648 0b35 5E0B0000 		.4byte	0xb5e
 1649 0b39 08       		.uleb128 0x8
 1650 0b3a AF0A0000 		.4byte	.LASF51
 1651 0b3e 17       		.byte	0x17
 1652 0b3f 9B       		.byte	0x9b
 1653 0b40 5E0B0000 		.4byte	0xb5e
ARM GAS  /var/folders/vd/czx34qs52cd_f3nb04sxmghc0000gn/T//cciWLOa8.s 			page 30


 1654 0b44 00       		.byte	0
 1655 0b45 08       		.uleb128 0x8
 1656 0b46 08080000 		.4byte	.LASF40
 1657 0b4a 17       		.byte	0x17
 1658 0b4b 9F       		.byte	0x9f
 1659 0b4c 62010000 		.4byte	0x162
 1660 0b50 04       		.byte	0x4
 1661 0b51 08       		.uleb128 0x8
 1662 0b52 B7080000 		.4byte	.LASF36
 1663 0b56 17       		.byte	0x17
 1664 0b57 A1       		.byte	0xa1
 1665 0b58 640B0000 		.4byte	0xb64
 1666 0b5c 08       		.byte	0x8
 1667 0b5d 00       		.byte	0
 1668 0b5e 0C       		.uleb128 0xc
 1669 0b5f 04       		.byte	0x4
 1670 0b60 2D0B0000 		.4byte	0xb2d
 1671 0b64 13       		.uleb128 0x13
 1672 0b65 8C080000 		.4byte	0x88c
 1673 0b69 740B0000 		.4byte	0xb74
 1674 0b6d 14       		.uleb128 0x14
 1675 0b6e 3C000000 		.4byte	0x3c
 1676 0b72 07       		.byte	0x7
 1677 0b73 00       		.byte	0
 1678 0b74 03       		.uleb128 0x3
 1679 0b75 53030000 		.4byte	.LASF155
 1680 0b79 17       		.byte	0x17
 1681 0b7a A5       		.byte	0xa5
 1682 0b7b 2D0B0000 		.4byte	0xb2d
 1683 0b7f 07       		.uleb128 0x7
 1684 0b80 B90A0000 		.4byte	.LASF156
 1685 0b84 04       		.byte	0x4
 1686 0b85 17       		.byte	0x17
 1687 0b86 AA       		.byte	0xaa
 1688 0b87 980B0000 		.4byte	0xb98
 1689 0b8b 08       		.uleb128 0x8
 1690 0b8c AF0A0000 		.4byte	.LASF51
 1691 0b90 17       		.byte	0x17
 1692 0b91 AB       		.byte	0xab
 1693 0b92 980B0000 		.4byte	0xb98
 1694 0b96 00       		.byte	0
 1695 0b97 00       		.byte	0
 1696 0b98 0C       		.uleb128 0xc
 1697 0b99 04       		.byte	0x4
 1698 0b9a 740B0000 		.4byte	0xb74
 1699 0b9e 03       		.uleb128 0x3
 1700 0b9f 35090000 		.4byte	.LASF157
 1701 0ba3 17       		.byte	0x17
 1702 0ba4 AC       		.byte	0xac
 1703 0ba5 7F0B0000 		.4byte	0xb7f
 1704 0ba9 0D       		.uleb128 0xd
 1705 0baa 1E060000 		.4byte	.LASF158
 1706 0bae 44       		.byte	0x44
 1707 0baf 17       		.byte	0x17
 1708 0bb0 1501     		.2byte	0x115
 1709 0bb2 1F0C0000 		.4byte	0xc1f
 1710 0bb6 0A       		.uleb128 0xa
ARM GAS  /var/folders/vd/czx34qs52cd_f3nb04sxmghc0000gn/T//cciWLOa8.s 			page 31


 1711 0bb7 6D747800 		.ascii	"mtx\000"
 1712 0bbb 17       		.byte	0x17
 1713 0bbc 1A01     		.2byte	0x11a
 1714 0bbe D2090000 		.4byte	0x9d2
 1715 0bc2 00       		.byte	0
 1716 0bc3 0B       		.uleb128 0xb
 1717 0bc4 E7000000 		.4byte	.LASF159
 1718 0bc8 17       		.byte	0x17
 1719 0bc9 2101     		.2byte	0x121
 1720 0bcb 9E0B0000 		.4byte	0xb9e
 1721 0bcf 10       		.byte	0x10
 1722 0bd0 0B       		.uleb128 0xb
 1723 0bd1 CD010000 		.4byte	.LASF160
 1724 0bd5 17       		.byte	0x17
 1725 0bd6 2501     		.2byte	0x125
 1726 0bd8 220B0000 		.4byte	0xb22
 1727 0bdc 14       		.byte	0x14
 1728 0bdd 0B       		.uleb128 0xb
 1729 0bde 6F070000 		.4byte	.LASF161
 1730 0be2 17       		.byte	0x17
 1731 0be3 2A01     		.2byte	0x12a
 1732 0be5 9E0B0000 		.4byte	0xb9e
 1733 0be9 24       		.byte	0x24
 1734 0bea 0B       		.uleb128 0xb
 1735 0beb A8020000 		.4byte	.LASF162
 1736 0bef 17       		.byte	0x17
 1737 0bf0 3001     		.2byte	0x130
 1738 0bf2 9E0B0000 		.4byte	0xb9e
 1739 0bf6 28       		.byte	0x28
 1740 0bf7 0B       		.uleb128 0xb
 1741 0bf8 76030000 		.4byte	.LASF163
 1742 0bfc 17       		.byte	0x17
 1743 0bfd 3401     		.2byte	0x134
 1744 0bff 220B0000 		.4byte	0xb22
 1745 0c03 2C       		.byte	0x2c
 1746 0c04 0B       		.uleb128 0xb
 1747 0c05 25080000 		.4byte	.LASF164
 1748 0c09 17       		.byte	0x17
 1749 0c0a 3A01     		.2byte	0x13a
 1750 0c0c 9E0B0000 		.4byte	0xb9e
 1751 0c10 3C       		.byte	0x3c
 1752 0c11 0B       		.uleb128 0xb
 1753 0c12 50040000 		.4byte	.LASF165
 1754 0c16 17       		.byte	0x17
 1755 0c17 4001     		.2byte	0x140
 1756 0c19 9E0B0000 		.4byte	0xb9e
 1757 0c1d 40       		.byte	0x40
 1758 0c1e 00       		.byte	0
 1759 0c1f 16       		.uleb128 0x16
 1760 0c20 5D070000 		.4byte	.LASF166
 1761 0c24 17       		.byte	0x17
 1762 0c25 4201     		.2byte	0x142
 1763 0c27 A90B0000 		.4byte	0xba9
 1764 0c2b 11       		.uleb128 0x11
 1765 0c2c 1A080000 		.4byte	.LASF167
 1766 0c30 17       		.byte	0x17
 1767 0c31 4D01     		.2byte	0x14d
ARM GAS  /var/folders/vd/czx34qs52cd_f3nb04sxmghc0000gn/T//cciWLOa8.s 			page 32


 1768 0c33 1F0C0000 		.4byte	0xc1f
 1769 0c37 15       		.uleb128 0x15
 1770 0c38 0C       		.byte	0xc
 1771 0c39 18       		.byte	0x18
 1772 0c3a 6A01     		.2byte	0x16a
 1773 0c3c 820C0000 		.4byte	0xc82
 1774 0c40 0B       		.uleb128 0xb
 1775 0c41 01030000 		.4byte	.LASF168
 1776 0c45 18       		.byte	0x18
 1777 0c46 6B01     		.2byte	0x16b
 1778 0c48 820C0000 		.4byte	0xc82
 1779 0c4c 00       		.byte	0
 1780 0c4d 0B       		.uleb128 0xb
 1781 0c4e 8E0A0000 		.4byte	.LASF169
 1782 0c52 18       		.byte	0x18
 1783 0c53 6C01     		.2byte	0x16c
 1784 0c55 880C0000 		.4byte	0xc88
 1785 0c59 04       		.byte	0x4
 1786 0c5a 0B       		.uleb128 0xb
 1787 0c5b A1020000 		.4byte	.LASF170
 1788 0c5f 18       		.byte	0x18
 1789 0c60 6D01     		.2byte	0x16d
 1790 0c62 B9000000 		.4byte	0xb9
 1791 0c66 08       		.byte	0x8
 1792 0c67 0B       		.uleb128 0xb
 1793 0c68 91060000 		.4byte	.LASF171
 1794 0c6c 18       		.byte	0x18
 1795 0c6d 6F01     		.2byte	0x16f
 1796 0c6f B9000000 		.4byte	0xb9
 1797 0c73 09       		.byte	0x9
 1798 0c74 0B       		.uleb128 0xb
 1799 0c75 13080000 		.4byte	.LASF172
 1800 0c79 18       		.byte	0x18
 1801 0c7a 7001     		.2byte	0x170
 1802 0c7c B9000000 		.4byte	0xb9
 1803 0c80 0A       		.byte	0xa
 1804 0c81 00       		.byte	0
 1805 0c82 0C       		.uleb128 0xc
 1806 0c83 04       		.byte	0x4
 1807 0c84 2A050000 		.4byte	0x52a
 1808 0c88 0C       		.uleb128 0xc
 1809 0c89 04       		.byte	0x4
 1810 0c8a EF000000 		.4byte	0xef
 1811 0c8e 16       		.uleb128 0x16
 1812 0c8f 0D000000 		.4byte	.LASF173
 1813 0c93 18       		.byte	0x18
 1814 0c94 7101     		.2byte	0x171
 1815 0c96 370C0000 		.4byte	0xc37
 1816 0c9a 06       		.uleb128 0x6
 1817 0c9b 8E0C0000 		.4byte	0xc8e
 1818 0c9f 13       		.uleb128 0x13
 1819 0ca0 9A0C0000 		.4byte	0xc9a
 1820 0ca4 AF0C0000 		.4byte	0xcaf
 1821 0ca8 14       		.uleb128 0x14
 1822 0ca9 3C000000 		.4byte	0x3c
 1823 0cad 0F       		.byte	0xf
 1824 0cae 00       		.byte	0
ARM GAS  /var/folders/vd/czx34qs52cd_f3nb04sxmghc0000gn/T//cciWLOa8.s 			page 33


 1825 0caf 06       		.uleb128 0x6
 1826 0cb0 9F0C0000 		.4byte	0xc9f
 1827 0cb4 11       		.uleb128 0x11
 1828 0cb5 3D040000 		.4byte	.LASF174
 1829 0cb9 18       		.byte	0x18
 1830 0cba 5C02     		.2byte	0x25c
 1831 0cbc AF0C0000 		.4byte	0xcaf
 1832 0cc0 1D       		.uleb128 0x1d
 1833 0cc1 2C000000 		.4byte	0x2c
 1834 0cc5 D90C0000 		.4byte	0xcd9
 1835 0cc9 0F       		.uleb128 0xf
 1836 0cca 3E030000 		.4byte	0x33e
 1837 0cce 0F       		.uleb128 0xf
 1838 0ccf D90C0000 		.4byte	0xcd9
 1839 0cd3 0F       		.uleb128 0xf
 1840 0cd4 2C000000 		.4byte	0x2c
 1841 0cd8 00       		.byte	0
 1842 0cd9 0C       		.uleb128 0xc
 1843 0cda 04       		.byte	0x4
 1844 0cdb C4000000 		.4byte	0xc4
 1845 0cdf 0C       		.uleb128 0xc
 1846 0ce0 04       		.byte	0x4
 1847 0ce1 C00C0000 		.4byte	0xcc0
 1848 0ce5 1D       		.uleb128 0x1d
 1849 0ce6 2C000000 		.4byte	0x2c
 1850 0cea FE0C0000 		.4byte	0xcfe
 1851 0cee 0F       		.uleb128 0xf
 1852 0cef 3E030000 		.4byte	0x33e
 1853 0cf3 0F       		.uleb128 0xf
 1854 0cf4 AE0A0000 		.4byte	0xaae
 1855 0cf8 0F       		.uleb128 0xf
 1856 0cf9 2C000000 		.4byte	0x2c
 1857 0cfd 00       		.byte	0
 1858 0cfe 0C       		.uleb128 0xc
 1859 0cff 04       		.byte	0x4
 1860 0d00 E50C0000 		.4byte	0xce5
 1861 0d04 1D       		.uleb128 0x1d
 1862 0d05 36010000 		.4byte	0x136
 1863 0d09 180D0000 		.4byte	0xd18
 1864 0d0d 0F       		.uleb128 0xf
 1865 0d0e 3E030000 		.4byte	0x33e
 1866 0d12 0F       		.uleb128 0xf
 1867 0d13 B9000000 		.4byte	0xb9
 1868 0d17 00       		.byte	0
 1869 0d18 0C       		.uleb128 0xc
 1870 0d19 04       		.byte	0x4
 1871 0d1a 040D0000 		.4byte	0xd04
 1872 0d1e 1D       		.uleb128 0x1d
 1873 0d1f 36010000 		.4byte	0x136
 1874 0d23 2D0D0000 		.4byte	0xd2d
 1875 0d27 0F       		.uleb128 0xf
 1876 0d28 3E030000 		.4byte	0x33e
 1877 0d2c 00       		.byte	0
 1878 0d2d 0C       		.uleb128 0xc
 1879 0d2e 04       		.byte	0x4
 1880 0d2f 1E0D0000 		.4byte	0xd1e
 1881 0d33 1D       		.uleb128 0x1d
ARM GAS  /var/folders/vd/czx34qs52cd_f3nb04sxmghc0000gn/T//cciWLOa8.s 			page 34


 1882 0d34 36010000 		.4byte	0x136
 1883 0d38 4C0D0000 		.4byte	0xd4c
 1884 0d3c 0F       		.uleb128 0xf
 1885 0d3d 3E030000 		.4byte	0x33e
 1886 0d41 0F       		.uleb128 0xf
 1887 0d42 B9000000 		.4byte	0xb9
 1888 0d46 0F       		.uleb128 0xf
 1889 0d47 71040000 		.4byte	0x471
 1890 0d4b 00       		.byte	0
 1891 0d4c 0C       		.uleb128 0xc
 1892 0d4d 04       		.byte	0x4
 1893 0d4e 330D0000 		.4byte	0xd33
 1894 0d52 1D       		.uleb128 0x1d
 1895 0d53 36010000 		.4byte	0x136
 1896 0d57 660D0000 		.4byte	0xd66
 1897 0d5b 0F       		.uleb128 0xf
 1898 0d5c 3E030000 		.4byte	0x33e
 1899 0d60 0F       		.uleb128 0xf
 1900 0d61 71040000 		.4byte	0x471
 1901 0d65 00       		.byte	0
 1902 0d66 0C       		.uleb128 0xc
 1903 0d67 04       		.byte	0x4
 1904 0d68 520D0000 		.4byte	0xd52
 1905 0d6c 1D       		.uleb128 0x1d
 1906 0d6d 2C000000 		.4byte	0x2c
 1907 0d71 8A0D0000 		.4byte	0xd8a
 1908 0d75 0F       		.uleb128 0xf
 1909 0d76 3E030000 		.4byte	0x33e
 1910 0d7a 0F       		.uleb128 0xf
 1911 0d7b D90C0000 		.4byte	0xcd9
 1912 0d7f 0F       		.uleb128 0xf
 1913 0d80 2C000000 		.4byte	0x2c
 1914 0d84 0F       		.uleb128 0xf
 1915 0d85 71040000 		.4byte	0x471
 1916 0d89 00       		.byte	0
 1917 0d8a 0C       		.uleb128 0xc
 1918 0d8b 04       		.byte	0x4
 1919 0d8c 6C0D0000 		.4byte	0xd6c
 1920 0d90 1D       		.uleb128 0x1d
 1921 0d91 2C000000 		.4byte	0x2c
 1922 0d95 AE0D0000 		.4byte	0xdae
 1923 0d99 0F       		.uleb128 0xf
 1924 0d9a 3E030000 		.4byte	0x33e
 1925 0d9e 0F       		.uleb128 0xf
 1926 0d9f AE0A0000 		.4byte	0xaae
 1927 0da3 0F       		.uleb128 0xf
 1928 0da4 2C000000 		.4byte	0x2c
 1929 0da8 0F       		.uleb128 0xf
 1930 0da9 71040000 		.4byte	0x471
 1931 0dad 00       		.byte	0
 1932 0dae 0C       		.uleb128 0xc
 1933 0daf 04       		.byte	0x4
 1934 0db0 900D0000 		.4byte	0xd90
 1935 0db4 1D       		.uleb128 0x1d
 1936 0db5 36010000 		.4byte	0x136
 1937 0db9 CD0D0000 		.4byte	0xdcd
 1938 0dbd 0F       		.uleb128 0xf
ARM GAS  /var/folders/vd/czx34qs52cd_f3nb04sxmghc0000gn/T//cciWLOa8.s 			page 35


 1939 0dbe 3E030000 		.4byte	0x33e
 1940 0dc2 0F       		.uleb128 0xf
 1941 0dc3 3C000000 		.4byte	0x3c
 1942 0dc7 0F       		.uleb128 0xf
 1943 0dc8 3E030000 		.4byte	0x33e
 1944 0dcc 00       		.byte	0
 1945 0dcd 0C       		.uleb128 0xc
 1946 0dce 04       		.byte	0x4
 1947 0dcf B40D0000 		.4byte	0xdb4
 1948 0dd3 03       		.uleb128 0x3
 1949 0dd4 40090000 		.4byte	.LASF175
 1950 0dd8 19       		.byte	0x19
 1951 0dd9 3A       		.byte	0x3a
 1952 0dda DE0D0000 		.4byte	0xdde
 1953 0dde 07       		.uleb128 0x7
 1954 0ddf EB010000 		.4byte	.LASF176
 1955 0de3 24       		.byte	0x24
 1956 0de4 19       		.byte	0x19
 1957 0de5 4B       		.byte	0x4b
 1958 0de6 4B0E0000 		.4byte	0xe4b
 1959 0dea 08       		.uleb128 0x8
 1960 0deb 76080000 		.4byte	.LASF177
 1961 0def 19       		.byte	0x19
 1962 0df0 4C       		.byte	0x4c
 1963 0df1 8B020000 		.4byte	0x28b
 1964 0df5 00       		.byte	0
 1965 0df6 08       		.uleb128 0x8
 1966 0df7 95030000 		.4byte	.LASF178
 1967 0dfb 19       		.byte	0x19
 1968 0dfc 4D       		.byte	0x4d
 1969 0dfd 37000000 		.4byte	0x37
 1970 0e01 08       		.byte	0x8
 1971 0e02 08       		.uleb128 0x8
 1972 0e03 52010000 		.4byte	.LASF179
 1973 0e07 19       		.byte	0x19
 1974 0e08 4E       		.byte	0x4e
 1975 0e09 AE0A0000 		.4byte	0xaae
 1976 0e0d 0C       		.byte	0xc
 1977 0e0e 08       		.uleb128 0x8
 1978 0e0f 46010000 		.4byte	.LASF180
 1979 0e13 19       		.byte	0x19
 1980 0e14 4F       		.byte	0x4f
 1981 0e15 AE0A0000 		.4byte	0xaae
 1982 0e19 10       		.byte	0x10
 1983 0e1a 08       		.uleb128 0x8
 1984 0e1b 2E0A0000 		.4byte	.LASF181
 1985 0e1f 19       		.byte	0x19
 1986 0e20 51       		.byte	0x51
 1987 0e21 AE0A0000 		.4byte	0xaae
 1988 0e25 14       		.byte	0x14
 1989 0e26 08       		.uleb128 0x8
 1990 0e27 76010000 		.4byte	.LASF182
 1991 0e2b 19       		.byte	0x19
 1992 0e2c 52       		.byte	0x52
 1993 0e2d AE0A0000 		.4byte	0xaae
 1994 0e31 18       		.byte	0x18
 1995 0e32 08       		.uleb128 0x8
ARM GAS  /var/folders/vd/czx34qs52cd_f3nb04sxmghc0000gn/T//cciWLOa8.s 			page 36


 1996 0e33 5B010000 		.4byte	.LASF183
 1997 0e37 19       		.byte	0x19
 1998 0e38 53       		.byte	0x53
 1999 0e39 4B0E0000 		.4byte	0xe4b
 2000 0e3d 1C       		.byte	0x1c
 2001 0e3e 08       		.uleb128 0x8
 2002 0e3f 3E020000 		.4byte	.LASF184
 2003 0e43 19       		.byte	0x19
 2004 0e44 54       		.byte	0x54
 2005 0e45 3E030000 		.4byte	0x33e
 2006 0e49 20       		.byte	0x20
 2007 0e4a 00       		.byte	0
 2008 0e4b 03       		.uleb128 0x3
 2009 0e4c 67060000 		.4byte	.LASF185
 2010 0e50 19       		.byte	0x19
 2011 0e51 41       		.byte	0x41
 2012 0e52 560E0000 		.4byte	0xe56
 2013 0e56 0C       		.uleb128 0xc
 2014 0e57 04       		.byte	0x4
 2015 0e58 5C0E0000 		.4byte	0xe5c
 2016 0e5c 0E       		.uleb128 0xe
 2017 0e5d 670E0000 		.4byte	0xe67
 2018 0e61 0F       		.uleb128 0xf
 2019 0e62 670E0000 		.4byte	0xe67
 2020 0e66 00       		.byte	0
 2021 0e67 0C       		.uleb128 0xc
 2022 0e68 04       		.byte	0x4
 2023 0e69 D30D0000 		.4byte	0xdd3
 2024 0e6d 03       		.uleb128 0x3
 2025 0e6e 0A0A0000 		.4byte	.LASF186
 2026 0e72 19       		.byte	0x19
 2027 0e73 61       		.byte	0x61
 2028 0e74 D30D0000 		.4byte	0xdd3
 2029 0e78 03       		.uleb128 0x3
 2030 0e79 5F0A0000 		.4byte	.LASF187
 2031 0e7d 19       		.byte	0x19
 2032 0e7e 6D       		.byte	0x6d
 2033 0e7f D30D0000 		.4byte	0xdd3
 2034 0e83 1E       		.uleb128 0x1e
 2035 0e84 00       		.byte	0
 2036 0e85 1A       		.byte	0x1a
 2037 0e86 99       		.byte	0x99
 2038 0e87 03       		.uleb128 0x3
 2039 0e88 C3020000 		.4byte	.LASF188
 2040 0e8c 1A       		.byte	0x1a
 2041 0e8d AA       		.byte	0xaa
 2042 0e8e 830E0000 		.4byte	0xe83
 2043 0e92 17       		.uleb128 0x17
 2044 0e93 04       		.byte	0x4
 2045 0e94 1B       		.byte	0x1b
 2046 0e95 5B       		.byte	0x5b
 2047 0e96 B30E0000 		.4byte	0xeb3
 2048 0e9a 09       		.uleb128 0x9
 2049 0e9b 73657400 		.ascii	"set\000"
 2050 0e9f 1B       		.byte	0x1b
 2051 0ea0 5C       		.byte	0x5c
 2052 0ea1 C9000000 		.4byte	0xc9
ARM GAS  /var/folders/vd/czx34qs52cd_f3nb04sxmghc0000gn/T//cciWLOa8.s 			page 37


 2053 0ea5 00       		.byte	0
 2054 0ea6 08       		.uleb128 0x8
 2055 0ea7 7F030000 		.4byte	.LASF189
 2056 0eab 1B       		.byte	0x1b
 2057 0eac 5D       		.byte	0x5d
 2058 0ead C9000000 		.4byte	0xc9
 2059 0eb1 02       		.byte	0x2
 2060 0eb2 00       		.byte	0
 2061 0eb3 18       		.uleb128 0x18
 2062 0eb4 04       		.byte	0x4
 2063 0eb5 1B       		.byte	0x1b
 2064 0eb6 59       		.byte	0x59
 2065 0eb7 CE0E0000 		.4byte	0xece
 2066 0ebb 1F       		.uleb128 0x1f
 2067 0ebc 5700     		.ascii	"W\000"
 2068 0ebe 1B       		.byte	0x1b
 2069 0ebf 5A       		.byte	0x5a
 2070 0ec0 E4000000 		.4byte	0xe4
 2071 0ec4 1F       		.uleb128 0x1f
 2072 0ec5 4800     		.ascii	"H\000"
 2073 0ec7 1B       		.byte	0x1b
 2074 0ec8 5E       		.byte	0x5e
 2075 0ec9 920E0000 		.4byte	0xe92
 2076 0ecd 00       		.byte	0
 2077 0ece 04       		.uleb128 0x4
 2078 0ecf B30E0000 		.4byte	0xeb3
 2079 0ed3 17       		.uleb128 0x17
 2080 0ed4 28       		.byte	0x28
 2081 0ed5 1B       		.byte	0x1b
 2082 0ed6 51       		.byte	0x51
 2083 0ed7 540F0000 		.4byte	0xf54
 2084 0edb 08       		.uleb128 0x8
 2085 0edc 77060000 		.4byte	.LASF190
 2086 0ee0 1B       		.byte	0x1b
 2087 0ee1 53       		.byte	0x53
 2088 0ee2 EF000000 		.4byte	0xef
 2089 0ee6 00       		.byte	0
 2090 0ee7 08       		.uleb128 0x8
 2091 0ee8 6F080000 		.4byte	.LASF191
 2092 0eec 1B       		.byte	0x1b
 2093 0eed 54       		.byte	0x54
 2094 0eee EF000000 		.4byte	0xef
 2095 0ef2 04       		.byte	0x4
 2096 0ef3 08       		.uleb128 0x8
 2097 0ef4 D8040000 		.4byte	.LASF192
 2098 0ef8 1B       		.byte	0x1b
 2099 0ef9 55       		.byte	0x55
 2100 0efa EF000000 		.4byte	0xef
 2101 0efe 08       		.byte	0x8
 2102 0eff 08       		.uleb128 0x8
 2103 0f00 18060000 		.4byte	.LASF193
 2104 0f04 1B       		.byte	0x1b
 2105 0f05 56       		.byte	0x56
 2106 0f06 EF000000 		.4byte	0xef
 2107 0f0a 0C       		.byte	0xc
 2108 0f0b 09       		.uleb128 0x9
 2109 0f0c 49445200 		.ascii	"IDR\000"
ARM GAS  /var/folders/vd/czx34qs52cd_f3nb04sxmghc0000gn/T//cciWLOa8.s 			page 38


 2110 0f10 1B       		.byte	0x1b
 2111 0f11 57       		.byte	0x57
 2112 0f12 EF000000 		.4byte	0xef
 2113 0f16 10       		.byte	0x10
 2114 0f17 09       		.uleb128 0x9
 2115 0f18 4F445200 		.ascii	"ODR\000"
 2116 0f1c 1B       		.byte	0x1b
 2117 0f1d 58       		.byte	0x58
 2118 0f1e EF000000 		.4byte	0xef
 2119 0f22 14       		.byte	0x14
 2120 0f23 08       		.uleb128 0x8
 2121 0f24 4B090000 		.4byte	.LASF194
 2122 0f28 1B       		.byte	0x1b
 2123 0f29 5F       		.byte	0x5f
 2124 0f2a CE0E0000 		.4byte	0xece
 2125 0f2e 18       		.byte	0x18
 2126 0f2f 08       		.uleb128 0x8
 2127 0f30 CE070000 		.4byte	.LASF195
 2128 0f34 1B       		.byte	0x1b
 2129 0f35 60       		.byte	0x60
 2130 0f36 EF000000 		.4byte	0xef
 2131 0f3a 1C       		.byte	0x1c
 2132 0f3b 08       		.uleb128 0x8
 2133 0f3c 82060000 		.4byte	.LASF196
 2134 0f40 1B       		.byte	0x1b
 2135 0f41 61       		.byte	0x61
 2136 0f42 EF000000 		.4byte	0xef
 2137 0f46 20       		.byte	0x20
 2138 0f47 08       		.uleb128 0x8
 2139 0f48 03080000 		.4byte	.LASF197
 2140 0f4c 1B       		.byte	0x1b
 2141 0f4d 62       		.byte	0x62
 2142 0f4e EF000000 		.4byte	0xef
 2143 0f52 24       		.byte	0x24
 2144 0f53 00       		.byte	0
 2145 0f54 03       		.uleb128 0x3
 2146 0f55 4E020000 		.4byte	.LASF198
 2147 0f59 1B       		.byte	0x1b
 2148 0f5a 63       		.byte	0x63
 2149 0f5b D30E0000 		.4byte	0xed3
 2150 0f5f 03       		.uleb128 0x3
 2151 0f60 26030000 		.4byte	.LASF199
 2152 0f64 1C       		.byte	0x1c
 2153 0f65 C2       		.byte	0xc2
 2154 0f66 E4000000 		.4byte	0xe4
 2155 0f6a 03       		.uleb128 0x3
 2156 0f6b 14010000 		.4byte	.LASF200
 2157 0f6f 1C       		.byte	0x1c
 2158 0f70 C7       		.byte	0xc7
 2159 0f71 E4000000 		.4byte	0xe4
 2160 0f75 03       		.uleb128 0x3
 2161 0f76 83010000 		.4byte	.LASF201
 2162 0f7a 1C       		.byte	0x1c
 2163 0f7b D9       		.byte	0xd9
 2164 0f7c 800F0000 		.4byte	0xf80
 2165 0f80 0C       		.uleb128 0xc
 2166 0f81 04       		.byte	0x4
ARM GAS  /var/folders/vd/czx34qs52cd_f3nb04sxmghc0000gn/T//cciWLOa8.s 			page 39


 2167 0f82 540F0000 		.4byte	0xf54
 2168 0f86 13       		.uleb128 0x13
 2169 0f87 870E0000 		.4byte	0xe87
 2170 0f8b 960F0000 		.4byte	0xf96
 2171 0f8f 14       		.uleb128 0x14
 2172 0f90 3C000000 		.4byte	0x3c
 2173 0f94 0F       		.byte	0xf
 2174 0f95 00       		.byte	0
 2175 0f96 11       		.uleb128 0x11
 2176 0f97 0E070000 		.4byte	.LASF202
 2177 0f9b 1C       		.byte	0x1c
 2178 0f9c DA01     		.2byte	0x1da
 2179 0f9e 860F0000 		.4byte	0xf86
 2180 0fa2 20       		.uleb128 0x20
 2181 0fa3 07       		.byte	0x7
 2182 0fa4 01       		.byte	0x1
 2183 0fa5 63000000 		.4byte	0x63
 2184 0fa9 1D       		.byte	0x1d
 2185 0faa 4A       		.byte	0x4a
 2186 0fab C20F0000 		.4byte	0xfc2
 2187 0faf 21       		.uleb128 0x21
 2188 0fb0 FA000000 		.4byte	.LASF203
 2189 0fb4 00       		.byte	0
 2190 0fb5 21       		.uleb128 0x21
 2191 0fb6 B3070000 		.4byte	.LASF204
 2192 0fba 01       		.byte	0x1
 2193 0fbb 21       		.uleb128 0x21
 2194 0fbc D8080000 		.4byte	.LASF205
 2195 0fc0 02       		.byte	0x2
 2196 0fc1 00       		.byte	0
 2197 0fc2 03       		.uleb128 0x3
 2198 0fc3 B1090000 		.4byte	.LASF206
 2199 0fc7 1D       		.byte	0x1d
 2200 0fc8 4E       		.byte	0x4e
 2201 0fc9 A20F0000 		.4byte	0xfa2
 2202 0fcd 03       		.uleb128 0x3
 2203 0fce DD060000 		.4byte	.LASF207
 2204 0fd2 1D       		.byte	0x1d
 2205 0fd3 53       		.byte	0x53
 2206 0fd4 D80F0000 		.4byte	0xfd8
 2207 0fd8 0D       		.uleb128 0xd
 2208 0fd9 DD060000 		.4byte	.LASF207
 2209 0fdd 1C       		.byte	0x1c
 2210 0fde 1E       		.byte	0x1e
 2211 0fdf B201     		.2byte	0x1b2
 2212 0fe1 41100000 		.4byte	0x1041
 2213 0fe5 0B       		.uleb128 0xb
 2214 0fe6 CB000000 		.4byte	.LASF38
 2215 0fea 1E       		.byte	0x1e
 2216 0feb B601     		.2byte	0x1b6
 2217 0fed C20F0000 		.4byte	0xfc2
 2218 0ff1 00       		.byte	0
 2219 0ff2 0B       		.uleb128 0xb
 2220 0ff3 C4000000 		.4byte	.LASF208
 2221 0ff7 1E       		.byte	0x1e
 2222 0ff8 BA01     		.2byte	0x1ba
 2223 0ffa 3C110000 		.4byte	0x113c
ARM GAS  /var/folders/vd/czx34qs52cd_f3nb04sxmghc0000gn/T//cciWLOa8.s 			page 40


 2224 0ffe 04       		.byte	0x4
 2225 0fff 0B       		.uleb128 0xb
 2226 1000 3E080000 		.4byte	.LASF209
 2227 1004 1E       		.byte	0x1e
 2228 1005 BE01     		.2byte	0x1be
 2229 1007 87100000 		.4byte	0x1087
 2230 100b 08       		.byte	0x8
 2231 100c 0B       		.uleb128 0xb
 2232 100d 9F030000 		.4byte	.LASF210
 2233 1011 1E       		.byte	0x1e
 2234 1012 C201     		.2byte	0x1c2
 2235 1014 7B100000 		.4byte	0x107b
 2236 1018 0C       		.byte	0xc
 2237 1019 0B       		.uleb128 0xb
 2238 101a BE060000 		.4byte	.LASF211
 2239 101e 1E       		.byte	0x1e
 2240 101f C601     		.2byte	0x1c6
 2241 1021 6F100000 		.4byte	0x106f
 2242 1025 10       		.byte	0x10
 2243 1026 0B       		.uleb128 0xb
 2244 1027 A9040000 		.4byte	.LASF212
 2245 102b 1E       		.byte	0x1e
 2246 102c CE01     		.2byte	0x1ce
 2247 102e E4000000 		.4byte	0xe4
 2248 1032 14       		.byte	0x14
 2249 1033 0A       		.uleb128 0xa
 2250 1034 74696D00 		.ascii	"tim\000"
 2251 1038 1E       		.byte	0x1e
 2252 1039 D201     		.2byte	0x1d2
 2253 103b 42110000 		.4byte	0x1142
 2254 103f 18       		.byte	0x18
 2255 1040 00       		.byte	0
 2256 1041 03       		.uleb128 0x3
 2257 1042 C7060000 		.4byte	.LASF213
 2258 1046 1D       		.byte	0x1d
 2259 1047 5A       		.byte	0x5a
 2260 1048 4C100000 		.4byte	0x104c
 2261 104c 0C       		.uleb128 0xc
 2262 104d 04       		.byte	0x4
 2263 104e 52100000 		.4byte	0x1052
 2264 1052 0E       		.uleb128 0xe
 2265 1053 5D100000 		.4byte	0x105d
 2266 1057 0F       		.uleb128 0xf
 2267 1058 5D100000 		.4byte	0x105d
 2268 105c 00       		.byte	0
 2269 105d 0C       		.uleb128 0xc
 2270 105e 04       		.byte	0x4
 2271 105f CD0F0000 		.4byte	0xfcd
 2272 1063 16       		.uleb128 0x16
 2273 1064 3C030000 		.4byte	.LASF214
 2274 1068 1E       		.byte	0x1e
 2275 1069 5E01     		.2byte	0x15e
 2276 106b E4000000 		.4byte	0xe4
 2277 106f 16       		.uleb128 0x16
 2278 1070 C0010000 		.4byte	.LASF215
 2279 1074 1E       		.byte	0x1e
 2280 1075 6301     		.2byte	0x163
ARM GAS  /var/folders/vd/czx34qs52cd_f3nb04sxmghc0000gn/T//cciWLOa8.s 			page 41


 2281 1077 B9000000 		.4byte	0xb9
 2282 107b 16       		.uleb128 0x16
 2283 107c B8000000 		.4byte	.LASF216
 2284 1080 1E       		.byte	0x1e
 2285 1081 6801     		.2byte	0x168
 2286 1083 E4000000 		.4byte	0xe4
 2287 1087 16       		.uleb128 0x16
 2288 1088 21020000 		.4byte	.LASF217
 2289 108c 1E       		.byte	0x1e
 2290 108d 6D01     		.2byte	0x16d
 2291 108f E4000000 		.4byte	0xe4
 2292 1093 15       		.uleb128 0x15
 2293 1094 08       		.byte	0x8
 2294 1095 1E       		.byte	0x1e
 2295 1096 7201     		.2byte	0x172
 2296 1098 B7100000 		.4byte	0x10b7
 2297 109c 0B       		.uleb128 0xb
 2298 109d 02090000 		.4byte	.LASF218
 2299 10a1 1E       		.byte	0x1e
 2300 10a2 7601     		.2byte	0x176
 2301 10a4 63100000 		.4byte	0x1063
 2302 10a8 00       		.byte	0
 2303 10a9 0B       		.uleb128 0xb
 2304 10aa 64010000 		.4byte	.LASF219
 2305 10ae 1E       		.byte	0x1e
 2306 10af 7C01     		.2byte	0x17c
 2307 10b1 41100000 		.4byte	0x1041
 2308 10b5 04       		.byte	0x4
 2309 10b6 00       		.byte	0
 2310 10b7 16       		.uleb128 0x16
 2311 10b8 D6000000 		.4byte	.LASF220
 2312 10bc 1E       		.byte	0x1e
 2313 10bd 7E01     		.2byte	0x17e
 2314 10bf 93100000 		.4byte	0x1093
 2315 10c3 15       		.uleb128 0x15
 2316 10c4 34       		.byte	0x34
 2317 10c5 1E       		.byte	0x1e
 2318 10c6 8301     		.2byte	0x183
 2319 10c8 1B110000 		.4byte	0x111b
 2320 10cc 0B       		.uleb128 0xb
 2321 10cd 5D060000 		.4byte	.LASF221
 2322 10d1 1E       		.byte	0x1e
 2323 10d2 8901     		.2byte	0x189
 2324 10d4 E4000000 		.4byte	0xe4
 2325 10d8 00       		.byte	0
 2326 10d9 0B       		.uleb128 0xb
 2327 10da 3E080000 		.4byte	.LASF209
 2328 10de 1E       		.byte	0x1e
 2329 10df 8F01     		.2byte	0x18f
 2330 10e1 87100000 		.4byte	0x1087
 2331 10e5 04       		.byte	0x4
 2332 10e6 0B       		.uleb128 0xb
 2333 10e7 64010000 		.4byte	.LASF219
 2334 10eb 1E       		.byte	0x1e
 2335 10ec 9501     		.2byte	0x195
 2336 10ee 41100000 		.4byte	0x1041
 2337 10f2 08       		.byte	0x8
ARM GAS  /var/folders/vd/czx34qs52cd_f3nb04sxmghc0000gn/T//cciWLOa8.s 			page 42


 2338 10f3 0B       		.uleb128 0xb
 2339 10f4 BE060000 		.4byte	.LASF211
 2340 10f8 1E       		.byte	0x1e
 2341 10f9 9901     		.2byte	0x199
 2342 10fb 1B110000 		.4byte	0x111b
 2343 10ff 0C       		.byte	0xc
 2344 1100 0A       		.uleb128 0xa
 2345 1101 63723200 		.ascii	"cr2\000"
 2346 1105 1E       		.byte	0x1e
 2347 1106 9F01     		.2byte	0x19f
 2348 1108 E4000000 		.4byte	0xe4
 2349 110c 2C       		.byte	0x2c
 2350 110d 0B       		.uleb128 0xb
 2351 110e F5000000 		.4byte	.LASF222
 2352 1112 1E       		.byte	0x1e
 2353 1113 AC01     		.2byte	0x1ac
 2354 1115 E4000000 		.4byte	0xe4
 2355 1119 30       		.byte	0x30
 2356 111a 00       		.byte	0
 2357 111b 13       		.uleb128 0x13
 2358 111c B7100000 		.4byte	0x10b7
 2359 1120 2B110000 		.4byte	0x112b
 2360 1124 14       		.uleb128 0x14
 2361 1125 3C000000 		.4byte	0x3c
 2362 1129 03       		.byte	0x3
 2363 112a 00       		.byte	0
 2364 112b 16       		.uleb128 0x16
 2365 112c 6B090000 		.4byte	.LASF223
 2366 1130 1E       		.byte	0x1e
 2367 1131 AD01     		.2byte	0x1ad
 2368 1133 C3100000 		.4byte	0x10c3
 2369 1137 06       		.uleb128 0x6
 2370 1138 2B110000 		.4byte	0x112b
 2371 113c 0C       		.uleb128 0xc
 2372 113d 04       		.byte	0x4
 2373 113e 37110000 		.4byte	0x1137
 2374 1142 0C       		.uleb128 0xc
 2375 1143 04       		.byte	0x4
 2376 1144 8B070000 		.4byte	0x78b
 2377 1148 11       		.uleb128 0x11
 2378 1149 A1090000 		.4byte	.LASF224
 2379 114d 1E       		.byte	0x1e
 2380 114e FD01     		.2byte	0x1fd
 2381 1150 CD0F0000 		.4byte	0xfcd
 2382 1154 20       		.uleb128 0x20
 2383 1155 07       		.byte	0x7
 2384 1156 01       		.byte	0x1
 2385 1157 63000000 		.4byte	0x63
 2386 115b 1F       		.byte	0x1f
 2387 115c 58       		.byte	0x58
 2388 115d 74110000 		.4byte	0x1174
 2389 1161 21       		.uleb128 0x21
 2390 1162 74020000 		.4byte	.LASF225
 2391 1166 00       		.byte	0
 2392 1167 21       		.uleb128 0x21
 2393 1168 810A0000 		.4byte	.LASF226
 2394 116c 01       		.byte	0x1
ARM GAS  /var/folders/vd/czx34qs52cd_f3nb04sxmghc0000gn/T//cciWLOa8.s 			page 43


 2395 116d 21       		.uleb128 0x21
 2396 116e 98080000 		.4byte	.LASF227
 2397 1172 02       		.byte	0x2
 2398 1173 00       		.byte	0
 2399 1174 03       		.uleb128 0x3
 2400 1175 8E080000 		.4byte	.LASF228
 2401 1179 1F       		.byte	0x1f
 2402 117a 5C       		.byte	0x5c
 2403 117b 54110000 		.4byte	0x1154
 2404 117f 03       		.uleb128 0x3
 2405 1180 54080000 		.4byte	.LASF229
 2406 1184 1F       		.byte	0x1f
 2407 1185 61       		.byte	0x61
 2408 1186 8A110000 		.4byte	0x118a
 2409 118a 07       		.uleb128 0x7
 2410 118b 54080000 		.4byte	.LASF229
 2411 118f 7C       		.byte	0x7c
 2412 1190 1F       		.byte	0x1f
 2413 1191 7B       		.byte	0x7b
 2414 1192 01120000 		.4byte	0x1201
 2415 1196 09       		.uleb128 0x9
 2416 1197 766D7400 		.ascii	"vmt\000"
 2417 119b 1F       		.byte	0x1f
 2418 119c 7D       		.byte	0x7d
 2419 119d 97120000 		.4byte	0x1297
 2420 11a1 00       		.byte	0
 2421 11a2 08       		.uleb128 0x8
 2422 11a3 71060000 		.4byte	.LASF230
 2423 11a7 1F       		.byte	0x1f
 2424 11a8 7E       		.byte	0x7e
 2425 11a9 560A0000 		.4byte	0xa56
 2426 11ad 04       		.byte	0x4
 2427 11ae 08       		.uleb128 0x8
 2428 11af CB000000 		.4byte	.LASF38
 2429 11b3 1F       		.byte	0x1f
 2430 11b4 7E       		.byte	0x7e
 2431 11b5 74110000 		.4byte	0x1174
 2432 11b9 08       		.byte	0x8
 2433 11ba 08       		.uleb128 0x8
 2434 11bb 1E090000 		.4byte	.LASF231
 2435 11bf 1F       		.byte	0x1f
 2436 11c0 7E       		.byte	0x7e
 2437 11c1 6D0E0000 		.4byte	0xe6d
 2438 11c5 0C       		.byte	0xc
 2439 11c6 08       		.uleb128 0x8
 2440 11c7 B0010000 		.4byte	.LASF232
 2441 11cb 1F       		.byte	0x1f
 2442 11cc 7E       		.byte	0x7e
 2443 11cd 780E0000 		.4byte	0xe78
 2444 11d1 30       		.byte	0x30
 2445 11d2 09       		.uleb128 0x9
 2446 11d3 696200   		.ascii	"ib\000"
 2447 11d6 1F       		.byte	0x1f
 2448 11d7 7E       		.byte	0x7e
 2449 11d8 9D120000 		.4byte	0x129d
 2450 11dc 54       		.byte	0x54
 2451 11dd 09       		.uleb128 0x9
ARM GAS  /var/folders/vd/czx34qs52cd_f3nb04sxmghc0000gn/T//cciWLOa8.s 			page 44


 2452 11de 6F6200   		.ascii	"ob\000"
 2453 11e1 1F       		.byte	0x1f
 2454 11e2 7E       		.byte	0x7e
 2455 11e3 9D120000 		.4byte	0x129d
 2456 11e7 64       		.byte	0x64
 2457 11e8 08       		.uleb128 0x8
 2458 11e9 DB010000 		.4byte	.LASF233
 2459 11ed 1F       		.byte	0x1f
 2460 11ee 7E       		.byte	0x7e
 2461 11ef AD120000 		.4byte	0x12ad
 2462 11f3 74       		.byte	0x74
 2463 11f4 08       		.uleb128 0x8
 2464 11f5 4C030000 		.4byte	.LASF234
 2465 11f9 1F       		.byte	0x1f
 2466 11fa 7E       		.byte	0x7e
 2467 11fb B9000000 		.4byte	0xb9
 2468 11ff 78       		.byte	0x78
 2469 1200 00       		.byte	0
 2470 1201 1B       		.uleb128 0x1b
 2471 1202 53443100 		.ascii	"SD1\000"
 2472 1206 20       		.byte	0x20
 2473 1207 4401     		.2byte	0x144
 2474 1209 7F110000 		.4byte	0x117f
 2475 120d 07       		.uleb128 0x7
 2476 120e 7D040000 		.4byte	.LASF235
 2477 1212 28       		.byte	0x28
 2478 1213 1F       		.byte	0x1f
 2479 1214 70       		.byte	0x70
 2480 1215 92120000 		.4byte	0x1292
 2481 1219 08       		.uleb128 0x8
 2482 121a FA090000 		.4byte	.LASF236
 2483 121e 1F       		.byte	0x1f
 2484 121f 71       		.byte	0x71
 2485 1220 2C000000 		.4byte	0x2c
 2486 1224 00       		.byte	0
 2487 1225 08       		.uleb128 0x8
 2488 1226 A3000000 		.4byte	.LASF237
 2489 122a 1F       		.byte	0x1f
 2490 122b 71       		.byte	0x71
 2491 122c DF0C0000 		.4byte	0xcdf
 2492 1230 04       		.byte	0x4
 2493 1231 08       		.uleb128 0x8
 2494 1232 7D060000 		.4byte	.LASF238
 2495 1236 1F       		.byte	0x1f
 2496 1237 71       		.byte	0x71
 2497 1238 FE0C0000 		.4byte	0xcfe
 2498 123c 08       		.byte	0x8
 2499 123d 09       		.uleb128 0x9
 2500 123e 70757400 		.ascii	"put\000"
 2501 1242 1F       		.byte	0x1f
 2502 1243 71       		.byte	0x71
 2503 1244 180D0000 		.4byte	0xd18
 2504 1248 0C       		.byte	0xc
 2505 1249 09       		.uleb128 0x9
 2506 124a 67657400 		.ascii	"get\000"
 2507 124e 1F       		.byte	0x1f
 2508 124f 71       		.byte	0x71
ARM GAS  /var/folders/vd/czx34qs52cd_f3nb04sxmghc0000gn/T//cciWLOa8.s 			page 45


 2509 1250 2D0D0000 		.4byte	0xd2d
 2510 1254 10       		.byte	0x10
 2511 1255 08       		.uleb128 0x8
 2512 1256 D1000000 		.4byte	.LASF239
 2513 125a 1F       		.byte	0x1f
 2514 125b 71       		.byte	0x71
 2515 125c 4C0D0000 		.4byte	0xd4c
 2516 1260 14       		.byte	0x14
 2517 1261 08       		.uleb128 0x8
 2518 1262 DD020000 		.4byte	.LASF240
 2519 1266 1F       		.byte	0x1f
 2520 1267 71       		.byte	0x71
 2521 1268 660D0000 		.4byte	0xd66
 2522 126c 18       		.byte	0x18
 2523 126d 08       		.uleb128 0x8
 2524 126e 7C000000 		.4byte	.LASF241
 2525 1272 1F       		.byte	0x1f
 2526 1273 71       		.byte	0x71
 2527 1274 8A0D0000 		.4byte	0xd8a
 2528 1278 1C       		.byte	0x1c
 2529 1279 08       		.uleb128 0x8
 2530 127a 4C010000 		.4byte	.LASF242
 2531 127e 1F       		.byte	0x1f
 2532 127f 71       		.byte	0x71
 2533 1280 AE0D0000 		.4byte	0xdae
 2534 1284 20       		.byte	0x20
 2535 1285 09       		.uleb128 0x9
 2536 1286 63746C00 		.ascii	"ctl\000"
 2537 128a 1F       		.byte	0x1f
 2538 128b 71       		.byte	0x71
 2539 128c CD0D0000 		.4byte	0xdcd
 2540 1290 24       		.byte	0x24
 2541 1291 00       		.byte	0
 2542 1292 06       		.uleb128 0x6
 2543 1293 0D120000 		.4byte	0x120d
 2544 1297 0C       		.uleb128 0xc
 2545 1298 04       		.byte	0x4
 2546 1299 92120000 		.4byte	0x1292
 2547 129d 13       		.uleb128 0x13
 2548 129e B9000000 		.4byte	0xb9
 2549 12a2 AD120000 		.4byte	0x12ad
 2550 12a6 14       		.uleb128 0x14
 2551 12a7 3C000000 		.4byte	0x3c
 2552 12ab 0F       		.byte	0xf
 2553 12ac 00       		.byte	0
 2554 12ad 0C       		.uleb128 0xc
 2555 12ae 04       		.byte	0x4
 2556 12af C3050000 		.4byte	0x5c3
 2557 12b3 22       		.uleb128 0x22
 2558 12b4 960F0000 		.4byte	0xf96
 2559 12b8 01       		.byte	0x1
 2560 12b9 28       		.byte	0x28
 2561 12ba 05       		.uleb128 0x5
 2562 12bb 03       		.byte	0x3
 2563 12bc 00000000 		.4byte	_pal_events
 2564 12c0 23       		.uleb128 0x23
 2565 12c1 1D010000 		.4byte	.LASF254
ARM GAS  /var/folders/vd/czx34qs52cd_f3nb04sxmghc0000gn/T//cciWLOa8.s 			page 46


 2566 12c5 01       		.byte	0x1
 2567 12c6 57       		.byte	0x57
 2568 12c7 00000000 		.4byte	.LFB314
 2569 12cb D6000000 		.4byte	.LFE314-.LFB314
 2570 12cf 01       		.uleb128 0x1
 2571 12d0 9C       		.byte	0x9c
 2572 12d1 8E130000 		.4byte	0x138e
 2573 12d5 24       		.uleb128 0x24
 2574 12d6 C5080000 		.4byte	.LASF243
 2575 12da 01       		.byte	0x1
 2576 12db 57       		.byte	0x57
 2577 12dc 750F0000 		.4byte	0xf75
 2578 12e0 01       		.uleb128 0x1
 2579 12e1 50       		.byte	0x50
 2580 12e2 25       		.uleb128 0x25
 2581 12e3 45060000 		.4byte	.LASF244
 2582 12e7 01       		.byte	0x1
 2583 12e8 58       		.byte	0x58
 2584 12e9 5F0F0000 		.4byte	0xf5f
 2585 12ed 00000000 		.4byte	.LLST0
 2586 12f1 25       		.uleb128 0x25
 2587 12f2 02090000 		.4byte	.LASF218
 2588 12f6 01       		.byte	0x1
 2589 12f7 59       		.byte	0x59
 2590 12f8 6A0F0000 		.4byte	0xf6a
 2591 12fc 43000000 		.4byte	.LLST1
 2592 1300 26       		.uleb128 0x26
 2593 1301 9B020000 		.4byte	.LASF245
 2594 1305 01       		.byte	0x1
 2595 1306 5B       		.byte	0x5b
 2596 1307 E4000000 		.4byte	0xe4
 2597 130b 64000000 		.4byte	.LLST2
 2598 130f 27       		.uleb128 0x27
 2599 1310 DE030000 		.4byte	.LASF246
 2600 1314 01       		.byte	0x1
 2601 1315 5C       		.byte	0x5c
 2602 1316 E4000000 		.4byte	0xe4
 2603 131a 01       		.uleb128 0x1
 2604 131b 5E       		.byte	0x5e
 2605 131c 27       		.uleb128 0x27
 2606 131d 85030000 		.4byte	.LASF247
 2607 1321 01       		.byte	0x1
 2608 1322 5D       		.byte	0x5d
 2609 1323 E4000000 		.4byte	0xe4
 2610 1327 01       		.uleb128 0x1
 2611 1328 5C       		.byte	0x5c
 2612 1329 27       		.uleb128 0x27
 2613 132a 2A020000 		.4byte	.LASF248
 2614 132e 01       		.byte	0x1
 2615 132f 5E       		.byte	0x5e
 2616 1330 E4000000 		.4byte	0xe4
 2617 1334 01       		.uleb128 0x1
 2618 1335 57       		.byte	0x57
 2619 1336 27       		.uleb128 0x27
 2620 1337 D6010000 		.4byte	.LASF249
 2621 133b 01       		.byte	0x1
 2622 133c 5F       		.byte	0x5f
ARM GAS  /var/folders/vd/czx34qs52cd_f3nb04sxmghc0000gn/T//cciWLOa8.s 			page 47


 2623 133d E4000000 		.4byte	0xe4
 2624 1341 01       		.uleb128 0x1
 2625 1342 52       		.byte	0x52
 2626 1343 28       		.uleb128 0x28
 2627 1344 62697400 		.ascii	"bit\000"
 2628 1348 01       		.byte	0x1
 2629 1349 60       		.byte	0x60
 2630 134a E4000000 		.4byte	0xe4
 2631 134e 82000000 		.4byte	.LLST3
 2632 1352 29       		.uleb128 0x29
 2633 1353 00000000 		.4byte	.Ldebug_ranges0+0
 2634 1357 26       		.uleb128 0x26
 2635 1358 0C040000 		.4byte	.LASF250
 2636 135c 01       		.byte	0x1
 2637 135d 63       		.byte	0x63
 2638 135e E4000000 		.4byte	0xe4
 2639 1362 A1000000 		.4byte	.LLST4
 2640 1366 28       		.uleb128 0x28
 2641 1367 6D3100   		.ascii	"m1\000"
 2642 136a 01       		.byte	0x1
 2643 136b 63       		.byte	0x63
 2644 136c E4000000 		.4byte	0xe4
 2645 1370 25010000 		.4byte	.LLST5
 2646 1374 28       		.uleb128 0x28
 2647 1375 6D3200   		.ascii	"m2\000"
 2648 1378 01       		.byte	0x1
 2649 1379 63       		.byte	0x63
 2650 137a E4000000 		.4byte	0xe4
 2651 137e 5A010000 		.4byte	.LLST6
 2652 1382 2A       		.uleb128 0x2a
 2653 1383 6D3400   		.ascii	"m4\000"
 2654 1386 01       		.byte	0x1
 2655 1387 63       		.byte	0x63
 2656 1388 E4000000 		.4byte	0xe4
 2657 138c 00       		.byte	0
 2658 138d 00       		.byte	0
 2659 138e 2B       		.uleb128 0x2b
 2660 138f A8060000 		.4byte	.LASF255
 2661 1393 01       		.byte	0x1
 2662 1394 3F       		.byte	0x3f
 2663 1395 00000000 		.4byte	.LFB313
 2664 1399 02000000 		.4byte	.LFE313-.LFB313
 2665 139d 01       		.uleb128 0x1
 2666 139e 9C       		.byte	0x9c
 2667 139f 00       		.byte	0
 2668              		.section	.debug_abbrev,"",%progbits
 2669              	.Ldebug_abbrev0:
 2670 0000 01       		.uleb128 0x1
 2671 0001 11       		.uleb128 0x11
 2672 0002 01       		.byte	0x1
 2673 0003 25       		.uleb128 0x25
 2674 0004 0E       		.uleb128 0xe
 2675 0005 13       		.uleb128 0x13
 2676 0006 0B       		.uleb128 0xb
 2677 0007 03       		.uleb128 0x3
 2678 0008 0E       		.uleb128 0xe
 2679 0009 1B       		.uleb128 0x1b
ARM GAS  /var/folders/vd/czx34qs52cd_f3nb04sxmghc0000gn/T//cciWLOa8.s 			page 48


 2680 000a 0E       		.uleb128 0xe
 2681 000b 55       		.uleb128 0x55
 2682 000c 17       		.uleb128 0x17
 2683 000d 11       		.uleb128 0x11
 2684 000e 01       		.uleb128 0x1
 2685 000f 10       		.uleb128 0x10
 2686 0010 17       		.uleb128 0x17
 2687 0011 00       		.byte	0
 2688 0012 00       		.byte	0
 2689 0013 02       		.uleb128 0x2
 2690 0014 24       		.uleb128 0x24
 2691 0015 00       		.byte	0
 2692 0016 0B       		.uleb128 0xb
 2693 0017 0B       		.uleb128 0xb
 2694 0018 3E       		.uleb128 0x3e
 2695 0019 0B       		.uleb128 0xb
 2696 001a 03       		.uleb128 0x3
 2697 001b 08       		.uleb128 0x8
 2698 001c 00       		.byte	0
 2699 001d 00       		.byte	0
 2700 001e 03       		.uleb128 0x3
 2701 001f 16       		.uleb128 0x16
 2702 0020 00       		.byte	0
 2703 0021 03       		.uleb128 0x3
 2704 0022 0E       		.uleb128 0xe
 2705 0023 3A       		.uleb128 0x3a
 2706 0024 0B       		.uleb128 0xb
 2707 0025 3B       		.uleb128 0x3b
 2708 0026 0B       		.uleb128 0xb
 2709 0027 49       		.uleb128 0x49
 2710 0028 13       		.uleb128 0x13
 2711 0029 00       		.byte	0
 2712 002a 00       		.byte	0
 2713 002b 04       		.uleb128 0x4
 2714 002c 35       		.uleb128 0x35
 2715 002d 00       		.byte	0
 2716 002e 49       		.uleb128 0x49
 2717 002f 13       		.uleb128 0x13
 2718 0030 00       		.byte	0
 2719 0031 00       		.byte	0
 2720 0032 05       		.uleb128 0x5
 2721 0033 24       		.uleb128 0x24
 2722 0034 00       		.byte	0
 2723 0035 0B       		.uleb128 0xb
 2724 0036 0B       		.uleb128 0xb
 2725 0037 3E       		.uleb128 0x3e
 2726 0038 0B       		.uleb128 0xb
 2727 0039 03       		.uleb128 0x3
 2728 003a 0E       		.uleb128 0xe
 2729 003b 00       		.byte	0
 2730 003c 00       		.byte	0
 2731 003d 06       		.uleb128 0x6
 2732 003e 26       		.uleb128 0x26
 2733 003f 00       		.byte	0
 2734 0040 49       		.uleb128 0x49
 2735 0041 13       		.uleb128 0x13
 2736 0042 00       		.byte	0
ARM GAS  /var/folders/vd/czx34qs52cd_f3nb04sxmghc0000gn/T//cciWLOa8.s 			page 49


 2737 0043 00       		.byte	0
 2738 0044 07       		.uleb128 0x7
 2739 0045 13       		.uleb128 0x13
 2740 0046 01       		.byte	0x1
 2741 0047 03       		.uleb128 0x3
 2742 0048 0E       		.uleb128 0xe
 2743 0049 0B       		.uleb128 0xb
 2744 004a 0B       		.uleb128 0xb
 2745 004b 3A       		.uleb128 0x3a
 2746 004c 0B       		.uleb128 0xb
 2747 004d 3B       		.uleb128 0x3b
 2748 004e 0B       		.uleb128 0xb
 2749 004f 01       		.uleb128 0x1
 2750 0050 13       		.uleb128 0x13
 2751 0051 00       		.byte	0
 2752 0052 00       		.byte	0
 2753 0053 08       		.uleb128 0x8
 2754 0054 0D       		.uleb128 0xd
 2755 0055 00       		.byte	0
 2756 0056 03       		.uleb128 0x3
 2757 0057 0E       		.uleb128 0xe
 2758 0058 3A       		.uleb128 0x3a
 2759 0059 0B       		.uleb128 0xb
 2760 005a 3B       		.uleb128 0x3b
 2761 005b 0B       		.uleb128 0xb
 2762 005c 49       		.uleb128 0x49
 2763 005d 13       		.uleb128 0x13
 2764 005e 38       		.uleb128 0x38
 2765 005f 0B       		.uleb128 0xb
 2766 0060 00       		.byte	0
 2767 0061 00       		.byte	0
 2768 0062 09       		.uleb128 0x9
 2769 0063 0D       		.uleb128 0xd
 2770 0064 00       		.byte	0
 2771 0065 03       		.uleb128 0x3
 2772 0066 08       		.uleb128 0x8
 2773 0067 3A       		.uleb128 0x3a
 2774 0068 0B       		.uleb128 0xb
 2775 0069 3B       		.uleb128 0x3b
 2776 006a 0B       		.uleb128 0xb
 2777 006b 49       		.uleb128 0x49
 2778 006c 13       		.uleb128 0x13
 2779 006d 38       		.uleb128 0x38
 2780 006e 0B       		.uleb128 0xb
 2781 006f 00       		.byte	0
 2782 0070 00       		.byte	0
 2783 0071 0A       		.uleb128 0xa
 2784 0072 0D       		.uleb128 0xd
 2785 0073 00       		.byte	0
 2786 0074 03       		.uleb128 0x3
 2787 0075 08       		.uleb128 0x8
 2788 0076 3A       		.uleb128 0x3a
 2789 0077 0B       		.uleb128 0xb
 2790 0078 3B       		.uleb128 0x3b
 2791 0079 05       		.uleb128 0x5
 2792 007a 49       		.uleb128 0x49
 2793 007b 13       		.uleb128 0x13
ARM GAS  /var/folders/vd/czx34qs52cd_f3nb04sxmghc0000gn/T//cciWLOa8.s 			page 50


 2794 007c 38       		.uleb128 0x38
 2795 007d 0B       		.uleb128 0xb
 2796 007e 00       		.byte	0
 2797 007f 00       		.byte	0
 2798 0080 0B       		.uleb128 0xb
 2799 0081 0D       		.uleb128 0xd
 2800 0082 00       		.byte	0
 2801 0083 03       		.uleb128 0x3
 2802 0084 0E       		.uleb128 0xe
 2803 0085 3A       		.uleb128 0x3a
 2804 0086 0B       		.uleb128 0xb
 2805 0087 3B       		.uleb128 0x3b
 2806 0088 05       		.uleb128 0x5
 2807 0089 49       		.uleb128 0x49
 2808 008a 13       		.uleb128 0x13
 2809 008b 38       		.uleb128 0x38
 2810 008c 0B       		.uleb128 0xb
 2811 008d 00       		.byte	0
 2812 008e 00       		.byte	0
 2813 008f 0C       		.uleb128 0xc
 2814 0090 0F       		.uleb128 0xf
 2815 0091 00       		.byte	0
 2816 0092 0B       		.uleb128 0xb
 2817 0093 0B       		.uleb128 0xb
 2818 0094 49       		.uleb128 0x49
 2819 0095 13       		.uleb128 0x13
 2820 0096 00       		.byte	0
 2821 0097 00       		.byte	0
 2822 0098 0D       		.uleb128 0xd
 2823 0099 13       		.uleb128 0x13
 2824 009a 01       		.byte	0x1
 2825 009b 03       		.uleb128 0x3
 2826 009c 0E       		.uleb128 0xe
 2827 009d 0B       		.uleb128 0xb
 2828 009e 0B       		.uleb128 0xb
 2829 009f 3A       		.uleb128 0x3a
 2830 00a0 0B       		.uleb128 0xb
 2831 00a1 3B       		.uleb128 0x3b
 2832 00a2 05       		.uleb128 0x5
 2833 00a3 01       		.uleb128 0x1
 2834 00a4 13       		.uleb128 0x13
 2835 00a5 00       		.byte	0
 2836 00a6 00       		.byte	0
 2837 00a7 0E       		.uleb128 0xe
 2838 00a8 15       		.uleb128 0x15
 2839 00a9 01       		.byte	0x1
 2840 00aa 27       		.uleb128 0x27
 2841 00ab 19       		.uleb128 0x19
 2842 00ac 01       		.uleb128 0x1
 2843 00ad 13       		.uleb128 0x13
 2844 00ae 00       		.byte	0
 2845 00af 00       		.byte	0
 2846 00b0 0F       		.uleb128 0xf
 2847 00b1 05       		.uleb128 0x5
 2848 00b2 00       		.byte	0
 2849 00b3 49       		.uleb128 0x49
 2850 00b4 13       		.uleb128 0x13
ARM GAS  /var/folders/vd/czx34qs52cd_f3nb04sxmghc0000gn/T//cciWLOa8.s 			page 51


 2851 00b5 00       		.byte	0
 2852 00b6 00       		.byte	0
 2853 00b7 10       		.uleb128 0x10
 2854 00b8 0F       		.uleb128 0xf
 2855 00b9 00       		.byte	0
 2856 00ba 0B       		.uleb128 0xb
 2857 00bb 0B       		.uleb128 0xb
 2858 00bc 00       		.byte	0
 2859 00bd 00       		.byte	0
 2860 00be 11       		.uleb128 0x11
 2861 00bf 34       		.uleb128 0x34
 2862 00c0 00       		.byte	0
 2863 00c1 03       		.uleb128 0x3
 2864 00c2 0E       		.uleb128 0xe
 2865 00c3 3A       		.uleb128 0x3a
 2866 00c4 0B       		.uleb128 0xb
 2867 00c5 3B       		.uleb128 0x3b
 2868 00c6 05       		.uleb128 0x5
 2869 00c7 49       		.uleb128 0x49
 2870 00c8 13       		.uleb128 0x13
 2871 00c9 3F       		.uleb128 0x3f
 2872 00ca 19       		.uleb128 0x19
 2873 00cb 3C       		.uleb128 0x3c
 2874 00cc 19       		.uleb128 0x19
 2875 00cd 00       		.byte	0
 2876 00ce 00       		.byte	0
 2877 00cf 12       		.uleb128 0x12
 2878 00d0 34       		.uleb128 0x34
 2879 00d1 00       		.byte	0
 2880 00d2 03       		.uleb128 0x3
 2881 00d3 0E       		.uleb128 0xe
 2882 00d4 3A       		.uleb128 0x3a
 2883 00d5 0B       		.uleb128 0xb
 2884 00d6 3B       		.uleb128 0x3b
 2885 00d7 0B       		.uleb128 0xb
 2886 00d8 49       		.uleb128 0x49
 2887 00d9 13       		.uleb128 0x13
 2888 00da 3F       		.uleb128 0x3f
 2889 00db 19       		.uleb128 0x19
 2890 00dc 3C       		.uleb128 0x3c
 2891 00dd 19       		.uleb128 0x19
 2892 00de 00       		.byte	0
 2893 00df 00       		.byte	0
 2894 00e0 13       		.uleb128 0x13
 2895 00e1 01       		.uleb128 0x1
 2896 00e2 01       		.byte	0x1
 2897 00e3 49       		.uleb128 0x49
 2898 00e4 13       		.uleb128 0x13
 2899 00e5 01       		.uleb128 0x1
 2900 00e6 13       		.uleb128 0x13
 2901 00e7 00       		.byte	0
 2902 00e8 00       		.byte	0
 2903 00e9 14       		.uleb128 0x14
 2904 00ea 21       		.uleb128 0x21
 2905 00eb 00       		.byte	0
 2906 00ec 49       		.uleb128 0x49
 2907 00ed 13       		.uleb128 0x13
ARM GAS  /var/folders/vd/czx34qs52cd_f3nb04sxmghc0000gn/T//cciWLOa8.s 			page 52


 2908 00ee 2F       		.uleb128 0x2f
 2909 00ef 0B       		.uleb128 0xb
 2910 00f0 00       		.byte	0
 2911 00f1 00       		.byte	0
 2912 00f2 15       		.uleb128 0x15
 2913 00f3 13       		.uleb128 0x13
 2914 00f4 01       		.byte	0x1
 2915 00f5 0B       		.uleb128 0xb
 2916 00f6 0B       		.uleb128 0xb
 2917 00f7 3A       		.uleb128 0x3a
 2918 00f8 0B       		.uleb128 0xb
 2919 00f9 3B       		.uleb128 0x3b
 2920 00fa 05       		.uleb128 0x5
 2921 00fb 01       		.uleb128 0x1
 2922 00fc 13       		.uleb128 0x13
 2923 00fd 00       		.byte	0
 2924 00fe 00       		.byte	0
 2925 00ff 16       		.uleb128 0x16
 2926 0100 16       		.uleb128 0x16
 2927 0101 00       		.byte	0
 2928 0102 03       		.uleb128 0x3
 2929 0103 0E       		.uleb128 0xe
 2930 0104 3A       		.uleb128 0x3a
 2931 0105 0B       		.uleb128 0xb
 2932 0106 3B       		.uleb128 0x3b
 2933 0107 05       		.uleb128 0x5
 2934 0108 49       		.uleb128 0x49
 2935 0109 13       		.uleb128 0x13
 2936 010a 00       		.byte	0
 2937 010b 00       		.byte	0
 2938 010c 17       		.uleb128 0x17
 2939 010d 13       		.uleb128 0x13
 2940 010e 01       		.byte	0x1
 2941 010f 0B       		.uleb128 0xb
 2942 0110 0B       		.uleb128 0xb
 2943 0111 3A       		.uleb128 0x3a
 2944 0112 0B       		.uleb128 0xb
 2945 0113 3B       		.uleb128 0x3b
 2946 0114 0B       		.uleb128 0xb
 2947 0115 01       		.uleb128 0x1
 2948 0116 13       		.uleb128 0x13
 2949 0117 00       		.byte	0
 2950 0118 00       		.byte	0
 2951 0119 18       		.uleb128 0x18
 2952 011a 17       		.uleb128 0x17
 2953 011b 01       		.byte	0x1
 2954 011c 0B       		.uleb128 0xb
 2955 011d 0B       		.uleb128 0xb
 2956 011e 3A       		.uleb128 0x3a
 2957 011f 0B       		.uleb128 0xb
 2958 0120 3B       		.uleb128 0x3b
 2959 0121 0B       		.uleb128 0xb
 2960 0122 01       		.uleb128 0x1
 2961 0123 13       		.uleb128 0x13
 2962 0124 00       		.byte	0
 2963 0125 00       		.byte	0
 2964 0126 19       		.uleb128 0x19
ARM GAS  /var/folders/vd/czx34qs52cd_f3nb04sxmghc0000gn/T//cciWLOa8.s 			page 53


 2965 0127 0D       		.uleb128 0xd
 2966 0128 00       		.byte	0
 2967 0129 03       		.uleb128 0x3
 2968 012a 0E       		.uleb128 0xe
 2969 012b 3A       		.uleb128 0x3a
 2970 012c 0B       		.uleb128 0xb
 2971 012d 3B       		.uleb128 0x3b
 2972 012e 0B       		.uleb128 0xb
 2973 012f 49       		.uleb128 0x49
 2974 0130 13       		.uleb128 0x13
 2975 0131 00       		.byte	0
 2976 0132 00       		.byte	0
 2977 0133 1A       		.uleb128 0x1a
 2978 0134 0D       		.uleb128 0xd
 2979 0135 00       		.byte	0
 2980 0136 03       		.uleb128 0x3
 2981 0137 0E       		.uleb128 0xe
 2982 0138 3A       		.uleb128 0x3a
 2983 0139 0B       		.uleb128 0xb
 2984 013a 3B       		.uleb128 0x3b
 2985 013b 05       		.uleb128 0x5
 2986 013c 49       		.uleb128 0x49
 2987 013d 13       		.uleb128 0x13
 2988 013e 00       		.byte	0
 2989 013f 00       		.byte	0
 2990 0140 1B       		.uleb128 0x1b
 2991 0141 34       		.uleb128 0x34
 2992 0142 00       		.byte	0
 2993 0143 03       		.uleb128 0x3
 2994 0144 08       		.uleb128 0x8
 2995 0145 3A       		.uleb128 0x3a
 2996 0146 0B       		.uleb128 0xb
 2997 0147 3B       		.uleb128 0x3b
 2998 0148 05       		.uleb128 0x5
 2999 0149 49       		.uleb128 0x49
 3000 014a 13       		.uleb128 0x13
 3001 014b 3F       		.uleb128 0x3f
 3002 014c 19       		.uleb128 0x19
 3003 014d 3C       		.uleb128 0x3c
 3004 014e 19       		.uleb128 0x19
 3005 014f 00       		.byte	0
 3006 0150 00       		.byte	0
 3007 0151 1C       		.uleb128 0x1c
 3008 0152 21       		.uleb128 0x21
 3009 0153 00       		.byte	0
 3010 0154 00       		.byte	0
 3011 0155 00       		.byte	0
 3012 0156 1D       		.uleb128 0x1d
 3013 0157 15       		.uleb128 0x15
 3014 0158 01       		.byte	0x1
 3015 0159 27       		.uleb128 0x27
 3016 015a 19       		.uleb128 0x19
 3017 015b 49       		.uleb128 0x49
 3018 015c 13       		.uleb128 0x13
 3019 015d 01       		.uleb128 0x1
 3020 015e 13       		.uleb128 0x13
 3021 015f 00       		.byte	0
ARM GAS  /var/folders/vd/czx34qs52cd_f3nb04sxmghc0000gn/T//cciWLOa8.s 			page 54


 3022 0160 00       		.byte	0
 3023 0161 1E       		.uleb128 0x1e
 3024 0162 13       		.uleb128 0x13
 3025 0163 00       		.byte	0
 3026 0164 0B       		.uleb128 0xb
 3027 0165 0B       		.uleb128 0xb
 3028 0166 3A       		.uleb128 0x3a
 3029 0167 0B       		.uleb128 0xb
 3030 0168 3B       		.uleb128 0x3b
 3031 0169 0B       		.uleb128 0xb
 3032 016a 00       		.byte	0
 3033 016b 00       		.byte	0
 3034 016c 1F       		.uleb128 0x1f
 3035 016d 0D       		.uleb128 0xd
 3036 016e 00       		.byte	0
 3037 016f 03       		.uleb128 0x3
 3038 0170 08       		.uleb128 0x8
 3039 0171 3A       		.uleb128 0x3a
 3040 0172 0B       		.uleb128 0xb
 3041 0173 3B       		.uleb128 0x3b
 3042 0174 0B       		.uleb128 0xb
 3043 0175 49       		.uleb128 0x49
 3044 0176 13       		.uleb128 0x13
 3045 0177 00       		.byte	0
 3046 0178 00       		.byte	0
 3047 0179 20       		.uleb128 0x20
 3048 017a 04       		.uleb128 0x4
 3049 017b 01       		.byte	0x1
 3050 017c 3E       		.uleb128 0x3e
 3051 017d 0B       		.uleb128 0xb
 3052 017e 0B       		.uleb128 0xb
 3053 017f 0B       		.uleb128 0xb
 3054 0180 49       		.uleb128 0x49
 3055 0181 13       		.uleb128 0x13
 3056 0182 3A       		.uleb128 0x3a
 3057 0183 0B       		.uleb128 0xb
 3058 0184 3B       		.uleb128 0x3b
 3059 0185 0B       		.uleb128 0xb
 3060 0186 01       		.uleb128 0x1
 3061 0187 13       		.uleb128 0x13
 3062 0188 00       		.byte	0
 3063 0189 00       		.byte	0
 3064 018a 21       		.uleb128 0x21
 3065 018b 28       		.uleb128 0x28
 3066 018c 00       		.byte	0
 3067 018d 03       		.uleb128 0x3
 3068 018e 0E       		.uleb128 0xe
 3069 018f 1C       		.uleb128 0x1c
 3070 0190 0B       		.uleb128 0xb
 3071 0191 00       		.byte	0
 3072 0192 00       		.byte	0
 3073 0193 22       		.uleb128 0x22
 3074 0194 34       		.uleb128 0x34
 3075 0195 00       		.byte	0
 3076 0196 47       		.uleb128 0x47
 3077 0197 13       		.uleb128 0x13
 3078 0198 3A       		.uleb128 0x3a
ARM GAS  /var/folders/vd/czx34qs52cd_f3nb04sxmghc0000gn/T//cciWLOa8.s 			page 55


 3079 0199 0B       		.uleb128 0xb
 3080 019a 3B       		.uleb128 0x3b
 3081 019b 0B       		.uleb128 0xb
 3082 019c 02       		.uleb128 0x2
 3083 019d 18       		.uleb128 0x18
 3084 019e 00       		.byte	0
 3085 019f 00       		.byte	0
 3086 01a0 23       		.uleb128 0x23
 3087 01a1 2E       		.uleb128 0x2e
 3088 01a2 01       		.byte	0x1
 3089 01a3 3F       		.uleb128 0x3f
 3090 01a4 19       		.uleb128 0x19
 3091 01a5 03       		.uleb128 0x3
 3092 01a6 0E       		.uleb128 0xe
 3093 01a7 3A       		.uleb128 0x3a
 3094 01a8 0B       		.uleb128 0xb
 3095 01a9 3B       		.uleb128 0x3b
 3096 01aa 0B       		.uleb128 0xb
 3097 01ab 27       		.uleb128 0x27
 3098 01ac 19       		.uleb128 0x19
 3099 01ad 11       		.uleb128 0x11
 3100 01ae 01       		.uleb128 0x1
 3101 01af 12       		.uleb128 0x12
 3102 01b0 06       		.uleb128 0x6
 3103 01b1 40       		.uleb128 0x40
 3104 01b2 18       		.uleb128 0x18
 3105 01b3 9742     		.uleb128 0x2117
 3106 01b5 19       		.uleb128 0x19
 3107 01b6 01       		.uleb128 0x1
 3108 01b7 13       		.uleb128 0x13
 3109 01b8 00       		.byte	0
 3110 01b9 00       		.byte	0
 3111 01ba 24       		.uleb128 0x24
 3112 01bb 05       		.uleb128 0x5
 3113 01bc 00       		.byte	0
 3114 01bd 03       		.uleb128 0x3
 3115 01be 0E       		.uleb128 0xe
 3116 01bf 3A       		.uleb128 0x3a
 3117 01c0 0B       		.uleb128 0xb
 3118 01c1 3B       		.uleb128 0x3b
 3119 01c2 0B       		.uleb128 0xb
 3120 01c3 49       		.uleb128 0x49
 3121 01c4 13       		.uleb128 0x13
 3122 01c5 02       		.uleb128 0x2
 3123 01c6 18       		.uleb128 0x18
 3124 01c7 00       		.byte	0
 3125 01c8 00       		.byte	0
 3126 01c9 25       		.uleb128 0x25
 3127 01ca 05       		.uleb128 0x5
 3128 01cb 00       		.byte	0
 3129 01cc 03       		.uleb128 0x3
 3130 01cd 0E       		.uleb128 0xe
 3131 01ce 3A       		.uleb128 0x3a
 3132 01cf 0B       		.uleb128 0xb
 3133 01d0 3B       		.uleb128 0x3b
 3134 01d1 0B       		.uleb128 0xb
 3135 01d2 49       		.uleb128 0x49
ARM GAS  /var/folders/vd/czx34qs52cd_f3nb04sxmghc0000gn/T//cciWLOa8.s 			page 56


 3136 01d3 13       		.uleb128 0x13
 3137 01d4 02       		.uleb128 0x2
 3138 01d5 17       		.uleb128 0x17
 3139 01d6 00       		.byte	0
 3140 01d7 00       		.byte	0
 3141 01d8 26       		.uleb128 0x26
 3142 01d9 34       		.uleb128 0x34
 3143 01da 00       		.byte	0
 3144 01db 03       		.uleb128 0x3
 3145 01dc 0E       		.uleb128 0xe
 3146 01dd 3A       		.uleb128 0x3a
 3147 01de 0B       		.uleb128 0xb
 3148 01df 3B       		.uleb128 0x3b
 3149 01e0 0B       		.uleb128 0xb
 3150 01e1 49       		.uleb128 0x49
 3151 01e2 13       		.uleb128 0x13
 3152 01e3 02       		.uleb128 0x2
 3153 01e4 17       		.uleb128 0x17
 3154 01e5 00       		.byte	0
 3155 01e6 00       		.byte	0
 3156 01e7 27       		.uleb128 0x27
 3157 01e8 34       		.uleb128 0x34
 3158 01e9 00       		.byte	0
 3159 01ea 03       		.uleb128 0x3
 3160 01eb 0E       		.uleb128 0xe
 3161 01ec 3A       		.uleb128 0x3a
 3162 01ed 0B       		.uleb128 0xb
 3163 01ee 3B       		.uleb128 0x3b
 3164 01ef 0B       		.uleb128 0xb
 3165 01f0 49       		.uleb128 0x49
 3166 01f1 13       		.uleb128 0x13
 3167 01f2 02       		.uleb128 0x2
 3168 01f3 18       		.uleb128 0x18
 3169 01f4 00       		.byte	0
 3170 01f5 00       		.byte	0
 3171 01f6 28       		.uleb128 0x28
 3172 01f7 34       		.uleb128 0x34
 3173 01f8 00       		.byte	0
 3174 01f9 03       		.uleb128 0x3
 3175 01fa 08       		.uleb128 0x8
 3176 01fb 3A       		.uleb128 0x3a
 3177 01fc 0B       		.uleb128 0xb
 3178 01fd 3B       		.uleb128 0x3b
 3179 01fe 0B       		.uleb128 0xb
 3180 01ff 49       		.uleb128 0x49
 3181 0200 13       		.uleb128 0x13
 3182 0201 02       		.uleb128 0x2
 3183 0202 17       		.uleb128 0x17
 3184 0203 00       		.byte	0
 3185 0204 00       		.byte	0
 3186 0205 29       		.uleb128 0x29
 3187 0206 0B       		.uleb128 0xb
 3188 0207 01       		.byte	0x1
 3189 0208 55       		.uleb128 0x55
 3190 0209 17       		.uleb128 0x17
 3191 020a 00       		.byte	0
 3192 020b 00       		.byte	0
ARM GAS  /var/folders/vd/czx34qs52cd_f3nb04sxmghc0000gn/T//cciWLOa8.s 			page 57


 3193 020c 2A       		.uleb128 0x2a
 3194 020d 34       		.uleb128 0x34
 3195 020e 00       		.byte	0
 3196 020f 03       		.uleb128 0x3
 3197 0210 08       		.uleb128 0x8
 3198 0211 3A       		.uleb128 0x3a
 3199 0212 0B       		.uleb128 0xb
 3200 0213 3B       		.uleb128 0x3b
 3201 0214 0B       		.uleb128 0xb
 3202 0215 49       		.uleb128 0x49
 3203 0216 13       		.uleb128 0x13
 3204 0217 00       		.byte	0
 3205 0218 00       		.byte	0
 3206 0219 2B       		.uleb128 0x2b
 3207 021a 2E       		.uleb128 0x2e
 3208 021b 00       		.byte	0
 3209 021c 3F       		.uleb128 0x3f
 3210 021d 19       		.uleb128 0x19
 3211 021e 03       		.uleb128 0x3
 3212 021f 0E       		.uleb128 0xe
 3213 0220 3A       		.uleb128 0x3a
 3214 0221 0B       		.uleb128 0xb
 3215 0222 3B       		.uleb128 0x3b
 3216 0223 0B       		.uleb128 0xb
 3217 0224 27       		.uleb128 0x27
 3218 0225 19       		.uleb128 0x19
 3219 0226 11       		.uleb128 0x11
 3220 0227 01       		.uleb128 0x1
 3221 0228 12       		.uleb128 0x12
 3222 0229 06       		.uleb128 0x6
 3223 022a 40       		.uleb128 0x40
 3224 022b 18       		.uleb128 0x18
 3225 022c 9742     		.uleb128 0x2117
 3226 022e 19       		.uleb128 0x19
 3227 022f 00       		.byte	0
 3228 0230 00       		.byte	0
 3229 0231 00       		.byte	0
 3230              		.section	.debug_loc,"",%progbits
 3231              	.Ldebug_loc0:
 3232              	.LLST0:
 3233 0000 00000000 		.4byte	.LVL0
 3234 0004 3C000000 		.4byte	.LVL9
 3235 0008 0100     		.2byte	0x1
 3236 000a 51       		.byte	0x51
 3237 000b 3C000000 		.4byte	.LVL9
 3238 000f 3E000000 		.4byte	.LVL10
 3239 0013 0500     		.2byte	0x5
 3240 0015 71       		.byte	0x71
 3241 0016 00       		.sleb128 0
 3242 0017 31       		.byte	0x31
 3243 0018 25       		.byte	0x25
 3244 0019 9F       		.byte	0x9f
 3245 001a 3E000000 		.4byte	.LVL10
 3246 001e 40000000 		.4byte	.LVL11
 3247 0022 0100     		.2byte	0x1
 3248 0024 51       		.byte	0x51
 3249 0025 50000000 		.4byte	.LVL16
ARM GAS  /var/folders/vd/czx34qs52cd_f3nb04sxmghc0000gn/T//cciWLOa8.s 			page 58


 3250 0029 B6000000 		.4byte	.LVL20
 3251 002d 0100     		.2byte	0x1
 3252 002f 51       		.byte	0x51
 3253 0030 BE000000 		.4byte	.LVL22
 3254 0034 D6000000 		.4byte	.LFE314
 3255 0038 0100     		.2byte	0x1
 3256 003a 51       		.byte	0x51
 3257 003b 00000000 		.4byte	0
 3258 003f 00000000 		.4byte	0
 3259              	.LLST1:
 3260 0043 00000000 		.4byte	.LVL0
 3261 0047 1A000000 		.4byte	.LVL5
 3262 004b 0100     		.2byte	0x1
 3263 004d 52       		.byte	0x52
 3264 004e 1A000000 		.4byte	.LVL5
 3265 0052 D6000000 		.4byte	.LFE314
 3266 0056 0400     		.2byte	0x4
 3267 0058 F3       		.byte	0xf3
 3268 0059 01       		.uleb128 0x1
 3269 005a 52       		.byte	0x52
 3270 005b 9F       		.byte	0x9f
 3271 005c 00000000 		.4byte	0
 3272 0060 00000000 		.4byte	0
 3273              	.LLST2:
 3274 0064 08000000 		.4byte	.LVL1
 3275 0068 22000000 		.4byte	.LVL6
 3276 006c 0100     		.2byte	0x1
 3277 006e 59       		.byte	0x59
 3278 006f 22000000 		.4byte	.LVL6
 3279 0073 D6000000 		.4byte	.LFE314
 3280 0077 0100     		.2byte	0x1
 3281 0079 58       		.byte	0x58
 3282 007a 00000000 		.4byte	0
 3283 007e 00000000 		.4byte	0
 3284              	.LLST3:
 3285 0082 1A000000 		.4byte	.LVL5
 3286 0086 22000000 		.4byte	.LVL6
 3287 008a 0200     		.2byte	0x2
 3288 008c 30       		.byte	0x30
 3289 008d 9F       		.byte	0x9f
 3290 008e 22000000 		.4byte	.LVL6
 3291 0092 D6000000 		.4byte	.LFE314
 3292 0096 0100     		.2byte	0x1
 3293 0098 56       		.byte	0x56
 3294 0099 00000000 		.4byte	0
 3295 009d 00000000 		.4byte	0
 3296              	.LLST4:
 3297 00a1 22000000 		.4byte	.LVL6
 3298 00a5 3A000000 		.4byte	.LVL8
 3299 00a9 0100     		.2byte	0x1
 3300 00ab 54       		.byte	0x54
 3301 00ac 3A000000 		.4byte	.LVL8
 3302 00b0 3C000000 		.4byte	.LVL9
 3303 00b4 0A00     		.2byte	0xa
 3304 00b6 72       		.byte	0x72
 3305 00b7 00       		.sleb128 0
 3306 00b8 76       		.byte	0x76
ARM GAS  /var/folders/vd/czx34qs52cd_f3nb04sxmghc0000gn/T//cciWLOa8.s 			page 59


 3307 00b9 00       		.sleb128 0
 3308 00ba 37       		.byte	0x37
 3309 00bb 1A       		.byte	0x1a
 3310 00bc 32       		.byte	0x32
 3311 00bd 24       		.byte	0x24
 3312 00be 24       		.byte	0x24
 3313 00bf 9F       		.byte	0x9f
 3314 00c0 9A000000 		.4byte	.LVL17
 3315 00c4 AA000000 		.4byte	.LVL18
 3316 00c8 0100     		.2byte	0x1
 3317 00ca 54       		.byte	0x54
 3318 00cb AA000000 		.4byte	.LVL18
 3319 00cf BA000000 		.4byte	.LVL21
 3320 00d3 0A00     		.2byte	0xa
 3321 00d5 72       		.byte	0x72
 3322 00d6 00       		.sleb128 0
 3323 00d7 76       		.byte	0x76
 3324 00d8 00       		.sleb128 0
 3325 00d9 37       		.byte	0x37
 3326 00da 1A       		.byte	0x1a
 3327 00db 32       		.byte	0x32
 3328 00dc 24       		.byte	0x24
 3329 00dd 24       		.byte	0x24
 3330 00de 9F       		.byte	0x9f
 3331 00df BE000000 		.4byte	.LVL22
 3332 00e3 C4000000 		.4byte	.LVL23
 3333 00e7 0100     		.2byte	0x1
 3334 00e9 54       		.byte	0x54
 3335 00ea C4000000 		.4byte	.LVL23
 3336 00ee C8000000 		.4byte	.LVL24
 3337 00f2 0A00     		.2byte	0xa
 3338 00f4 72       		.byte	0x72
 3339 00f5 00       		.sleb128 0
 3340 00f6 76       		.byte	0x76
 3341 00f7 00       		.sleb128 0
 3342 00f8 37       		.byte	0x37
 3343 00f9 1A       		.byte	0x1a
 3344 00fa 32       		.byte	0x32
 3345 00fb 24       		.byte	0x24
 3346 00fc 24       		.byte	0x24
 3347 00fd 9F       		.byte	0x9f
 3348 00fe C8000000 		.4byte	.LVL24
 3349 0102 D2000000 		.4byte	.LVL25
 3350 0106 0100     		.2byte	0x1
 3351 0108 54       		.byte	0x54
 3352 0109 D2000000 		.4byte	.LVL25
 3353 010d D6000000 		.4byte	.LFE314
 3354 0111 0A00     		.2byte	0xa
 3355 0113 72       		.byte	0x72
 3356 0114 00       		.sleb128 0
 3357 0115 76       		.byte	0x76
 3358 0116 00       		.sleb128 0
 3359 0117 37       		.byte	0x37
 3360 0118 1A       		.byte	0x1a
 3361 0119 32       		.byte	0x32
 3362 011a 24       		.byte	0x24
 3363 011b 24       		.byte	0x24
ARM GAS  /var/folders/vd/czx34qs52cd_f3nb04sxmghc0000gn/T//cciWLOa8.s 			page 60


 3364 011c 9F       		.byte	0x9f
 3365 011d 00000000 		.4byte	0
 3366 0121 00000000 		.4byte	0
 3367              	.LLST5:
 3368 0125 22000000 		.4byte	.LVL6
 3369 0129 3C000000 		.4byte	.LVL9
 3370 012d 0500     		.2byte	0x5
 3371 012f 31       		.byte	0x31
 3372 0130 76       		.byte	0x76
 3373 0131 00       		.sleb128 0
 3374 0132 24       		.byte	0x24
 3375 0133 9F       		.byte	0x9f
 3376 0134 9A000000 		.4byte	.LVL17
 3377 0138 BA000000 		.4byte	.LVL21
 3378 013c 0500     		.2byte	0x5
 3379 013e 31       		.byte	0x31
 3380 013f 76       		.byte	0x76
 3381 0140 00       		.sleb128 0
 3382 0141 24       		.byte	0x24
 3383 0142 9F       		.byte	0x9f
 3384 0143 BE000000 		.4byte	.LVL22
 3385 0147 D6000000 		.4byte	.LFE314
 3386 014b 0500     		.2byte	0x5
 3387 014d 31       		.byte	0x31
 3388 014e 76       		.byte	0x76
 3389 014f 00       		.sleb128 0
 3390 0150 24       		.byte	0x24
 3391 0151 9F       		.byte	0x9f
 3392 0152 00000000 		.4byte	0
 3393 0156 00000000 		.4byte	0
 3394              	.LLST6:
 3395 015a 22000000 		.4byte	.LVL6
 3396 015e 2A000000 		.4byte	.LVL7
 3397 0162 0400     		.2byte	0x4
 3398 0164 73       		.byte	0x73
 3399 0165 00       		.sleb128 0
 3400 0166 20       		.byte	0x20
 3401 0167 9F       		.byte	0x9f
 3402 0168 2A000000 		.4byte	.LVL7
 3403 016c 3C000000 		.4byte	.LVL9
 3404 0170 0700     		.2byte	0x7
 3405 0172 33       		.byte	0x33
 3406 0173 76       		.byte	0x76
 3407 0174 00       		.sleb128 0
 3408 0175 31       		.byte	0x31
 3409 0176 24       		.byte	0x24
 3410 0177 24       		.byte	0x24
 3411 0178 9F       		.byte	0x9f
 3412 0179 9A000000 		.4byte	.LVL17
 3413 017d B0000000 		.4byte	.LVL19
 3414 0181 0400     		.2byte	0x4
 3415 0183 73       		.byte	0x73
 3416 0184 00       		.sleb128 0
 3417 0185 20       		.byte	0x20
 3418 0186 9F       		.byte	0x9f
 3419 0187 B0000000 		.4byte	.LVL19
 3420 018b BA000000 		.4byte	.LVL21
ARM GAS  /var/folders/vd/czx34qs52cd_f3nb04sxmghc0000gn/T//cciWLOa8.s 			page 61


 3421 018f 0700     		.2byte	0x7
 3422 0191 33       		.byte	0x33
 3423 0192 76       		.byte	0x76
 3424 0193 00       		.sleb128 0
 3425 0194 31       		.byte	0x31
 3426 0195 24       		.byte	0x24
 3427 0196 24       		.byte	0x24
 3428 0197 9F       		.byte	0x9f
 3429 0198 BE000000 		.4byte	.LVL22
 3430 019c C8000000 		.4byte	.LVL24
 3431 01a0 0700     		.2byte	0x7
 3432 01a2 33       		.byte	0x33
 3433 01a3 76       		.byte	0x76
 3434 01a4 00       		.sleb128 0
 3435 01a5 31       		.byte	0x31
 3436 01a6 24       		.byte	0x24
 3437 01a7 24       		.byte	0x24
 3438 01a8 9F       		.byte	0x9f
 3439 01a9 C8000000 		.4byte	.LVL24
 3440 01ad D6000000 		.4byte	.LFE314
 3441 01b1 0400     		.2byte	0x4
 3442 01b3 73       		.byte	0x73
 3443 01b4 00       		.sleb128 0
 3444 01b5 20       		.byte	0x20
 3445 01b6 9F       		.byte	0x9f
 3446 01b7 00000000 		.4byte	0
 3447 01bb 00000000 		.4byte	0
 3448              		.section	.debug_aranges,"",%progbits
 3449 0000 24000000 		.4byte	0x24
 3450 0004 0200     		.2byte	0x2
 3451 0006 00000000 		.4byte	.Ldebug_info0
 3452 000a 04       		.byte	0x4
 3453 000b 00       		.byte	0
 3454 000c 0000     		.2byte	0
 3455 000e 0000     		.2byte	0
 3456 0010 00000000 		.4byte	.LFB313
 3457 0014 02000000 		.4byte	.LFE313-.LFB313
 3458 0018 00000000 		.4byte	.LFB314
 3459 001c D6000000 		.4byte	.LFE314-.LFB314
 3460 0020 00000000 		.4byte	0
 3461 0024 00000000 		.4byte	0
 3462              		.section	.debug_ranges,"",%progbits
 3463              	.Ldebug_ranges0:
 3464 0000 1C000000 		.4byte	.LBB2
 3465 0004 3C000000 		.4byte	.LBE2
 3466 0008 54000000 		.4byte	.LBB3
 3467 000c B4000000 		.4byte	.LBE3
 3468 0010 B6000000 		.4byte	.LBB4
 3469 0014 B8000000 		.4byte	.LBE4
 3470 0018 BE000000 		.4byte	.LBB5
 3471 001c D6000000 		.4byte	.LBE5
 3472 0020 00000000 		.4byte	0
 3473 0024 00000000 		.4byte	0
 3474 0028 00000000 		.4byte	.LFB313
 3475 002c 02000000 		.4byte	.LFE313
 3476 0030 00000000 		.4byte	.LFB314
 3477 0034 D6000000 		.4byte	.LFE314
ARM GAS  /var/folders/vd/czx34qs52cd_f3nb04sxmghc0000gn/T//cciWLOa8.s 			page 62


 3478 0038 00000000 		.4byte	0
 3479 003c 00000000 		.4byte	0
 3480              		.section	.debug_line,"",%progbits
 3481              	.Ldebug_line0:
 3482 0000 80040000 		.section	.debug_str,"MS",%progbits,1
 3482      02001804 
 3482      00000201 
 3482      FB0E0D00 
 3482      01010101 
 3483              	.LASF123:
 3484 0000 6F66665F 		.ascii	"off_ctx\000"
 3484      63747800 
 3485              	.LASF82:
 3486 0008 4D314152 		.ascii	"M1AR\000"
 3486      00
 3487              	.LASF173:
 3488 000d 73746D33 		.ascii	"stm32_dma_stream_t\000"
 3488      325F646D 
 3488      615F7374 
 3488      7265616D 
 3488      5F7400
 3489              	.LASF4:
 3490 0020 73697A65 		.ascii	"size_t\000"
 3490      5F7400
 3491              	.LASF122:
 3492 0027 6F66665F 		.ascii	"off_prio\000"
 3492      7072696F 
 3492      00
 3493              	.LASF146:
 3494 0030 656E646D 		.ascii	"endmem\000"
 3494      656D00
 3495              	.LASF107:
 3496 0037 77747365 		.ascii	"wtsemp\000"
 3496      6D7000
 3497              	.LASF74:
 3498 003e 73797374 		.ascii	"systime_t\000"
 3498      696D655F 
 3498      7400
 3499              	.LASF131:
 3500 0048 6F66665F 		.ascii	"off_preempt\000"
 3500      70726565 
 3500      6D707400 
 3501              	.LASF112:
 3502 0054 6F776E65 		.ascii	"owner\000"
 3502      7200
 3503              	.LASF25:
 3504 005a 74707269 		.ascii	"tprio_t\000"
 3504      6F5F7400 
 3505              	.LASF134:
 3506 0062 63685F64 		.ascii	"ch_debug\000"
 3506      65627567 
 3506      00
 3507              	.LASF152:
 3508 006b 70726F76 		.ascii	"provider\000"
 3508      69646572 
 3508      00
 3509              	.LASF18:
ARM GAS  /var/folders/vd/czx34qs52cd_f3nb04sxmghc0000gn/T//cciWLOa8.s 			page 63


 3510 0074 696E7433 		.ascii	"int32_t\000"
 3510      325F7400 
 3511              	.LASF241:
 3512 007c 77726974 		.ascii	"writet\000"
 3512      657400
 3513              	.LASF58:
 3514 0083 76746675 		.ascii	"vtfunc_t\000"
 3514      6E635F74 
 3514      00
 3515              	.LASF64:
 3516 008c 63685F76 		.ascii	"ch_virtual_timers_list\000"
 3516      69727475 
 3516      616C5F74 
 3516      696D6572 
 3516      735F6C69 
 3517              	.LASF237:
 3518 00a3 77726974 		.ascii	"write\000"
 3518      6500
 3519              	.LASF154:
 3520 00a9 63685F64 		.ascii	"ch_dyn_element\000"
 3520      796E5F65 
 3520      6C656D65 
 3520      6E7400
 3521              	.LASF216:
 3522 00b8 70776D63 		.ascii	"pwmchnmsk_t\000"
 3522      686E6D73 
 3522      6B5F7400 
 3523              	.LASF208:
 3524 00c4 636F6E66 		.ascii	"config\000"
 3524      696700
 3525              	.LASF38:
 3526 00cb 73746174 		.ascii	"state\000"
 3526      6500
 3527              	.LASF239:
 3528 00d1 70757474 		.ascii	"putt\000"
 3528      00
 3529              	.LASF220:
 3530 00d6 50574D43 		.ascii	"PWMChannelConfig\000"
 3530      68616E6E 
 3530      656C436F 
 3530      6E666967 
 3530      00
 3531              	.LASF159:
 3532 00e7 6F626A5F 		.ascii	"obj_list\000"
 3532      6C697374 
 3532      00
 3533              	.LASF96:
 3534 00f0 444D4152 		.ascii	"DMAR\000"
 3534      00
 3535              	.LASF222:
 3536 00f5 64696572 		.ascii	"dier\000"
 3536      00
 3537              	.LASF203:
 3538 00fa 50574D5F 		.ascii	"PWM_UNINIT\000"
 3538      554E494E 
 3538      495400
 3539              	.LASF125:
ARM GAS  /var/folders/vd/czx34qs52cd_f3nb04sxmghc0000gn/T//cciWLOa8.s 			page 64


 3540 0105 6F66665F 		.ascii	"off_older\000"
 3540      6F6C6465 
 3540      7200
 3541              	.LASF33:
 3542 010f 7072696F 		.ascii	"prio\000"
 3542      00
 3543              	.LASF200:
 3544 0114 696F6D6F 		.ascii	"iomode_t\000"
 3544      64655F74 
 3544      00
 3545              	.LASF254:
 3546 011d 5F70616C 		.ascii	"_pal_lld_setgroupmode\000"
 3546      5F6C6C64 
 3546      5F736574 
 3546      67726F75 
 3546      706D6F64 
 3547              	.LASF103:
 3548 0133 65786974 		.ascii	"exitcode\000"
 3548      636F6465 
 3548      00
 3549              	.LASF5:
 3550 013c 5F5F7569 		.ascii	"__uint8_t\000"
 3550      6E74385F 
 3550      7400
 3551              	.LASF180:
 3552 0146 715F746F 		.ascii	"q_top\000"
 3552      7000
 3553              	.LASF242:
 3554 014c 72656164 		.ascii	"readt\000"
 3554      7400
 3555              	.LASF179:
 3556 0152 715F6275 		.ascii	"q_buffer\000"
 3556      66666572 
 3556      00
 3557              	.LASF183:
 3558 015b 715F6E6F 		.ascii	"q_notify\000"
 3558      74696679 
 3558      00
 3559              	.LASF219:
 3560 0164 63616C6C 		.ascii	"callback\000"
 3560      6261636B 
 3560      00
 3561              	.LASF11:
 3562 016d 6C6F6E67 		.ascii	"long int\000"
 3562      20696E74 
 3562      00
 3563              	.LASF182:
 3564 0176 715F7264 		.ascii	"q_rdptr\000"
 3564      70747200 
 3565              	.LASF116:
 3566 017e 7A65726F 		.ascii	"zero\000"
 3566      00
 3567              	.LASF201:
 3568 0183 696F706F 		.ascii	"ioportid_t\000"
 3568      72746964 
 3568      5F7400
 3569              	.LASF23:
ARM GAS  /var/folders/vd/czx34qs52cd_f3nb04sxmghc0000gn/T//cciWLOa8.s 			page 65


 3570 018e 74737461 		.ascii	"tstate_t\000"
 3570      74655F74 
 3570      00
 3571              	.LASF43:
 3572 0197 6570656E 		.ascii	"epending\000"
 3572      64696E67 
 3572      00
 3573              	.LASF52:
 3574 01a0 74687265 		.ascii	"threads_queue_t\000"
 3574      6164735F 
 3574      71756575 
 3574      655F7400 
 3575              	.LASF232:
 3576 01b0 6F717565 		.ascii	"oqueue\000"
 3576      756500
 3577              	.LASF86:
 3578 01b7 72656761 		.ascii	"regarm_t\000"
 3578      726D5F74 
 3578      00
 3579              	.LASF215:
 3580 01c0 70776D63 		.ascii	"pwmchannel_t\000"
 3580      68616E6E 
 3580      656C5F74 
 3580      00
 3581              	.LASF160:
 3582 01cd 6F626A5F 		.ascii	"obj_pool\000"
 3582      706F6F6C 
 3582      00
 3583              	.LASF249:
 3584 01d6 616C7472 		.ascii	"altr\000"
 3584      00
 3585              	.LASF233:
 3586 01db 75736172 		.ascii	"usart\000"
 3586      7400
 3587              	.LASF147:
 3588 01e1 6D656D63 		.ascii	"memcore_t\000"
 3588      6F72655F 
 3588      7400
 3589              	.LASF176:
 3590 01eb 696F5F71 		.ascii	"io_queue\000"
 3590      75657565 
 3590      00
 3591              	.LASF3:
 3592 01f4 7369676E 		.ascii	"signed char\000"
 3592      65642063 
 3592      68617200 
 3593              	.LASF109:
 3594 0200 65776D61 		.ascii	"ewmask\000"
 3594      736B00
 3595              	.LASF16:
 3596 0207 75696E74 		.ascii	"uint8_t\000"
 3596      385F7400 
 3597              	.LASF27:
 3598 020f 6576656E 		.ascii	"eventmask_t\000"
 3598      746D6173 
 3598      6B5F7400 
 3599              	.LASF105:
ARM GAS  /var/folders/vd/czx34qs52cd_f3nb04sxmghc0000gn/T//cciWLOa8.s 			page 66


 3600 021b 77747472 		.ascii	"wttrp\000"
 3600      7000
 3601              	.LASF217:
 3602 0221 70776D63 		.ascii	"pwmcnt_t\000"
 3602      6E745F74 
 3602      00
 3603              	.LASF248:
 3604 022a 70757064 		.ascii	"pupdr\000"
 3604      7200
 3605              	.LASF6:
 3606 0230 756E7369 		.ascii	"unsigned char\000"
 3606      676E6564 
 3606      20636861 
 3606      7200
 3607              	.LASF184:
 3608 023e 715F6C69 		.ascii	"q_link\000"
 3608      6E6B00
 3609              	.LASF65:
 3610 0245 6C617374 		.ascii	"lasttime\000"
 3610      74696D65 
 3610      00
 3611              	.LASF198:
 3612 024e 73746D33 		.ascii	"stm32_gpio_t\000"
 3612      325F6770 
 3612      696F5F74 
 3612      00
 3613              	.LASF68:
 3614 025b 70616E69 		.ascii	"panic_msg\000"
 3614      635F6D73 
 3614      6700
 3615              	.LASF66:
 3616 0265 73797374 		.ascii	"system_debug_t\000"
 3616      656D5F64 
 3616      65627567 
 3616      5F7400
 3617              	.LASF225:
 3618 0274 53445F55 		.ascii	"SD_UNINIT\000"
 3618      4E494E49 
 3618      5400
 3619              	.LASF143:
 3620 027e 5F426F6F 		.ascii	"_Bool\000"
 3620      6C00
 3621              	.LASF92:
 3622 0284 43434D52 		.ascii	"CCMR1\000"
 3622      3100
 3623              	.LASF93:
 3624 028a 43434D52 		.ascii	"CCMR2\000"
 3624      3200
 3625              	.LASF97:
 3626 0290 43434D52 		.ascii	"CCMR3\000"
 3626      3300
 3627              	.LASF113:
 3628 0296 63686172 		.ascii	"char\000"
 3628      00
 3629              	.LASF245:
 3630 029b 6D6F6465 		.ascii	"moder\000"
 3630      7200
ARM GAS  /var/folders/vd/czx34qs52cd_f3nb04sxmghc0000gn/T//cciWLOa8.s 			page 67


 3631              	.LASF170:
 3632 02a1 69736869 		.ascii	"ishift\000"
 3632      667400
 3633              	.LASF162:
 3634 02a8 73656D5F 		.ascii	"sem_list\000"
 3634      6C697374 
 3634      00
 3635              	.LASF8:
 3636 02b1 5F5F7569 		.ascii	"__uint16_t\000"
 3636      6E743136 
 3636      5F7400
 3637              	.LASF104:
 3638 02bc 77746F62 		.ascii	"wtobjp\000"
 3638      6A7000
 3639              	.LASF188:
 3640 02c3 70616C65 		.ascii	"palevent_t\000"
 3640      76656E74 
 3640      5F7400
 3641              	.LASF130:
 3642 02ce 6F66665F 		.ascii	"off_refs\000"
 3642      72656673 
 3642      00
 3643              	.LASF39:
 3644 02d7 666C6167 		.ascii	"flags\000"
 3644      7300
 3645              	.LASF240:
 3646 02dd 67657474 		.ascii	"gett\000"
 3646      00
 3647              	.LASF87:
 3648 02e2 73746B61 		.ascii	"stkalign_t\000"
 3648      6C69676E 
 3648      5F7400
 3649              	.LASF85:
 3650 02ed 55534152 		.ascii	"USART_TypeDef\000"
 3650      545F5479 
 3650      70654465 
 3650      6600
 3651              	.LASF46:
 3652 02fb 6D706F6F 		.ascii	"mpool\000"
 3652      6C00
 3653              	.LASF168:
 3654 0301 73747265 		.ascii	"stream\000"
 3654      616D00
 3655              	.LASF136:
 3656 0308 6576656E 		.ascii	"event_listener_t\000"
 3656      745F6C69 
 3656      7374656E 
 3656      65725F74 
 3656      00
 3657              	.LASF119:
 3658 0319 70747273 		.ascii	"ptrsize\000"
 3658      697A6500 
 3659              	.LASF98:
 3660 0321 43435852 		.ascii	"CCXR\000"
 3660      00
 3661              	.LASF199:
 3662 0326 696F706F 		.ascii	"ioportmask_t\000"
ARM GAS  /var/folders/vd/czx34qs52cd_f3nb04sxmghc0000gn/T//cciWLOa8.s 			page 68


 3662      72746D61 
 3662      736B5F74 
 3662      00
 3663              	.LASF132:
 3664 0333 6F66665F 		.ascii	"off_time\000"
 3664      74696D65 
 3664      00
 3665              	.LASF214:
 3666 033c 70776D6D 		.ascii	"pwmmode_t\000"
 3666      6F64655F 
 3666      7400
 3667              	.LASF29:
 3668 0346 636E745F 		.ascii	"cnt_t\000"
 3668      7400
 3669              	.LASF234:
 3670 034c 72786D61 		.ascii	"rxmask\000"
 3670      736B00
 3671              	.LASF155:
 3672 0353 64796E5F 		.ascii	"dyn_element_t\000"
 3672      656C656D 
 3672      656E745F 
 3672      7400
 3673              	.LASF108:
 3674 0361 77746D74 		.ascii	"wtmtxp\000"
 3674      787000
 3675              	.LASF56:
 3676 0368 63685F72 		.ascii	"ch_ready_list\000"
 3676      65616479 
 3676      5F6C6973 
 3676      7400
 3677              	.LASF163:
 3678 0376 73656D5F 		.ascii	"sem_pool\000"
 3678      706F6F6C 
 3678      00
 3679              	.LASF189:
 3680 037f 636C6561 		.ascii	"clear\000"
 3680      7200
 3681              	.LASF247:
 3682 0385 6F737065 		.ascii	"ospeedr\000"
 3682      65647200 
 3683              	.LASF145:
 3684 038d 6E657874 		.ascii	"nextmem\000"
 3684      6D656D00 
 3685              	.LASF178:
 3686 0395 715F636F 		.ascii	"q_counter\000"
 3686      756E7465 
 3686      7200
 3687              	.LASF210:
 3688 039f 656E6162 		.ascii	"enabled\000"
 3688      6C656400 
 3689              	.LASF14:
 3690 03a7 5F5F7569 		.ascii	"__uint64_t\000"
 3690      6E743634 
 3690      5F7400
 3691              	.LASF128:
 3692 03b2 6F66665F 		.ascii	"off_state\000"
 3692      73746174 
ARM GAS  /var/folders/vd/czx34qs52cd_f3nb04sxmghc0000gn/T//cciWLOa8.s 			page 69


 3692      6500
 3693              	.LASF13:
 3694 03bc 6C6F6E67 		.ascii	"long unsigned int\000"
 3694      20756E73 
 3694      69676E65 
 3694      6420696E 
 3694      7400
 3695              	.LASF121:
 3696 03ce 74687265 		.ascii	"threadsize\000"
 3696      61647369 
 3696      7A6500
 3697              	.LASF91:
 3698 03d9 44494552 		.ascii	"DIER\000"
 3698      00
 3699              	.LASF246:
 3700 03de 6F747970 		.ascii	"otyper\000"
 3700      657200
 3701              	.LASF77:
 3702 03e5 53797374 		.ascii	"SystemCoreClock\000"
 3702      656D436F 
 3702      7265436C 
 3702      6F636B00 
 3703              	.LASF110:
 3704 03f5 63685F73 		.ascii	"ch_semaphore\000"
 3704      656D6170 
 3704      686F7265 
 3704      00
 3705              	.LASF49:
 3706 0402 63685F74 		.ascii	"ch_thread\000"
 3706      68726561 
 3706      6400
 3707              	.LASF250:
 3708 040c 616C7472 		.ascii	"altrmask\000"
 3708      6D61736B 
 3708      00
 3709              	.LASF63:
 3710 0415 76697274 		.ascii	"virtual_timers_list_t\000"
 3710      75616C5F 
 3710      74696D65 
 3710      72735F6C 
 3710      6973745F 
 3711              	.LASF114:
 3712 042b 63685F69 		.ascii	"ch_idle_thread_wa\000"
 3712      646C655F 
 3712      74687265 
 3712      61645F77 
 3712      6100
 3713              	.LASF174:
 3714 043d 5F73746D 		.ascii	"_stm32_dma_streams\000"
 3714      33325F64 
 3714      6D615F73 
 3714      74726561 
 3714      6D7300
 3715              	.LASF165:
 3716 0450 6669666F 		.ascii	"fifo_list\000"
 3716      5F6C6973 
 3716      7400
ARM GAS  /var/folders/vd/czx34qs52cd_f3nb04sxmghc0000gn/T//cciWLOa8.s 			page 70


 3717              	.LASF59:
 3718 045a 76697274 		.ascii	"virtual_timer_t\000"
 3718      75616C5F 
 3718      74696D65 
 3718      725F7400 
 3719              	.LASF55:
 3720 046a 72656164 		.ascii	"ready_list_t\000"
 3720      795F6C69 
 3720      73745F74 
 3720      00
 3721              	.LASF35:
 3722 0477 6F6C6465 		.ascii	"older\000"
 3722      7200
 3723              	.LASF235:
 3724 047d 53657269 		.ascii	"SerialDriverVMT\000"
 3724      616C4472 
 3724      69766572 
 3724      564D5400 
 3725              	.LASF45:
 3726 048d 7265616C 		.ascii	"realprio\000"
 3726      7072696F 
 3726      00
 3727              	.LASF99:
 3728 0496 73746D33 		.ascii	"stm32_tim_t\000"
 3728      325F7469 
 3728      6D5F7400 
 3729              	.LASF30:
 3730 04a2 75636E74 		.ascii	"ucnt_t\000"
 3730      5F7400
 3731              	.LASF212:
 3732 04a9 636C6F63 		.ascii	"clock\000"
 3732      6B00
 3733              	.LASF127:
 3734 04af 6F66665F 		.ascii	"off_stklimit\000"
 3734      73746B6C 
 3734      696D6974 
 3734      00
 3735              	.LASF149:
 3736 04bc 706F6F6C 		.ascii	"pool_header\000"
 3736      5F686561 
 3736      64657200 
 3737              	.LASF50:
 3738 04c8 63685F74 		.ascii	"ch_threads_list\000"
 3738      68726561 
 3738      64735F6C 
 3738      69737400 
 3739              	.LASF192:
 3740 04d8 4F535045 		.ascii	"OSPEEDR\000"
 3740      45445200 
 3741              	.LASF251:
 3742 04e0 474E5520 		.ascii	"GNU C11 7.2.1 20170904 (release) [ARM/embedded-7-br"
 3742      43313120 
 3742      372E322E 
 3742      31203230 
 3742      31373039 
 3743 0513 616E6368 		.ascii	"anch revision 255204] -mcpu=cortex-m4 -mno-thumb-in"
 3743      20726576 
ARM GAS  /var/folders/vd/czx34qs52cd_f3nb04sxmghc0000gn/T//cciWLOa8.s 			page 71


 3743      6973696F 
 3743      6E203235 
 3743      35323034 
 3744 0546 74657277 		.ascii	"terwork -mthumb -ggdb -O2 -fomit-frame-pointer -fal"
 3744      6F726B20 
 3744      2D6D7468 
 3744      756D6220 
 3744      2D676764 
 3745 0579 69676E2D 		.ascii	"ign-functions=16 -ffunction-sections -fdata-section"
 3745      66756E63 
 3745      74696F6E 
 3745      733D3136 
 3745      202D6666 
 3746 05ac 73202D66 		.ascii	"s -fno-common\000"
 3746      6E6F2D63 
 3746      6F6D6D6F 
 3746      6E00
 3747              	.LASF252:
 3748 05ba 2E2E2F6F 		.ascii	"../os/hal/ports/STM32/LLD/GPIOv2/hal_pal_lld.c\000"
 3748      732F6861 
 3748      6C2F706F 
 3748      7274732F 
 3748      53544D33 
 3749              	.LASF12:
 3750 05e9 5F5F7569 		.ascii	"__uint32_t\000"
 3750      6E743332 
 3750      5F7400
 3751              	.LASF44:
 3752 05f4 6D74786C 		.ascii	"mtxlist\000"
 3752      69737400 
 3753              	.LASF1:
 3754 05fc 6C6F6E67 		.ascii	"long long int\000"
 3754      206C6F6E 
 3754      6720696E 
 3754      7400
 3755              	.LASF75:
 3756 060a 73797369 		.ascii	"sysinterval_t\000"
 3756      6E746572 
 3756      76616C5F 
 3756      7400
 3757              	.LASF193:
 3758 0618 50555044 		.ascii	"PUPDR\000"
 3758      5200
 3759              	.LASF158:
 3760 061e 63685F6F 		.ascii	"ch_objects_factory\000"
 3760      626A6563 
 3760      74735F66 
 3760      6163746F 
 3760      727900
 3761              	.LASF84:
 3762 0631 47545052 		.ascii	"GTPR\000"
 3762      00
 3763              	.LASF142:
 3764 0636 6576656E 		.ascii	"event_source_t\000"
 3764      745F736F 
 3764      75726365 
 3764      5F7400
ARM GAS  /var/folders/vd/czx34qs52cd_f3nb04sxmghc0000gn/T//cciWLOa8.s 			page 72


 3765              	.LASF244:
 3766 0645 6D61736B 		.ascii	"mask\000"
 3766      00
 3767              	.LASF151:
 3768 064a 616C6967 		.ascii	"align\000"
 3768      6E00
 3769              	.LASF76:
 3770 0650 49544D5F 		.ascii	"ITM_RxBuffer\000"
 3770      52784275 
 3770      66666572 
 3770      00
 3771              	.LASF221:
 3772 065d 66726571 		.ascii	"frequency\000"
 3772      75656E63 
 3772      7900
 3773              	.LASF185:
 3774 0667 716E6F74 		.ascii	"qnotify_t\000"
 3774      6966795F 
 3774      7400
 3775              	.LASF230:
 3776 0671 6576656E 		.ascii	"event\000"
 3776      7400
 3777              	.LASF190:
 3778 0677 4D4F4445 		.ascii	"MODER\000"
 3778      5200
 3779              	.LASF238:
 3780 067d 72656164 		.ascii	"read\000"
 3780      00
 3781              	.LASF196:
 3782 0682 4146524C 		.ascii	"AFRL\000"
 3782      00
 3783              	.LASF124:
 3784 0687 6F66665F 		.ascii	"off_newer\000"
 3784      6E657765 
 3784      7200
 3785              	.LASF171:
 3786 0691 73656C66 		.ascii	"selfindex\000"
 3786      696E6465 
 3786      7800
 3787              	.LASF0:
 3788 069b 756E7369 		.ascii	"unsigned int\000"
 3788      676E6564 
 3788      20696E74 
 3788      00
 3789              	.LASF255:
 3790 06a8 5F70616C 		.ascii	"_pal_lld_init\000"
 3790      5F6C6C64 
 3790      5F696E69 
 3790      7400
 3791              	.LASF21:
 3792 06b6 7274636E 		.ascii	"rtcnt_t\000"
 3792      745F7400 
 3793              	.LASF211:
 3794 06be 6368616E 		.ascii	"channels\000"
 3794      6E656C73 
 3794      00
 3795              	.LASF213:
ARM GAS  /var/folders/vd/czx34qs52cd_f3nb04sxmghc0000gn/T//cciWLOa8.s 			page 73


 3796 06c7 70776D63 		.ascii	"pwmcallback_t\000"
 3796      616C6C62 
 3796      61636B5F 
 3796      7400
 3797              	.LASF57:
 3798 06d5 63757272 		.ascii	"current\000"
 3798      656E7400 
 3799              	.LASF207:
 3800 06dd 50574D44 		.ascii	"PWMDriver\000"
 3800      72697665 
 3800      7200
 3801              	.LASF100:
 3802 06e7 6F666673 		.ascii	"offset\000"
 3802      657400
 3803              	.LASF83:
 3804 06ee 444D415F 		.ascii	"DMA_Stream_TypeDef\000"
 3804      53747265 
 3804      616D5F54 
 3804      79706544 
 3804      656600
 3805              	.LASF144:
 3806 0701 6D656D67 		.ascii	"memgetfunc_t\000"
 3806      65746675 
 3806      6E635F74 
 3806      00
 3807              	.LASF202:
 3808 070e 5F70616C 		.ascii	"_pal_events\000"
 3808      5F657665 
 3808      6E747300 
 3809              	.LASF31:
 3810 071a 74687265 		.ascii	"thread_t\000"
 3810      61645F74 
 3810      00
 3811              	.LASF2:
 3812 0723 6C6F6E67 		.ascii	"long double\000"
 3812      20646F75 
 3812      626C6500 
 3813              	.LASF140:
 3814 072f 77666C61 		.ascii	"wflags\000"
 3814      677300
 3815              	.LASF47:
 3816 0736 74687265 		.ascii	"thread_reference_t\000"
 3816      61645F72 
 3816      65666572 
 3816      656E6365 
 3816      5F7400
 3817              	.LASF106:
 3818 0749 73656E74 		.ascii	"sentmsg\000"
 3818      6D736700 
 3819              	.LASF89:
 3820 0751 706F7274 		.ascii	"port_intctx\000"
 3820      5F696E74 
 3820      63747800 
 3821              	.LASF166:
 3822 075d 6F626A65 		.ascii	"objects_factory_t\000"
 3822      6374735F 
 3822      66616374 
ARM GAS  /var/folders/vd/czx34qs52cd_f3nb04sxmghc0000gn/T//cciWLOa8.s 			page 74


 3822      6F72795F 
 3822      7400
 3823              	.LASF161:
 3824 076f 6275665F 		.ascii	"buf_list\000"
 3824      6C697374 
 3824      00
 3825              	.LASF78:
 3826 0778 41484250 		.ascii	"AHBPrescTable\000"
 3826      72657363 
 3826      5461626C 
 3826      6500
 3827              	.LASF60:
 3828 0786 63685F76 		.ascii	"ch_virtual_timer\000"
 3828      69727475 
 3828      616C5F74 
 3828      696D6572 
 3828      00
 3829              	.LASF117:
 3830 0797 73697A65 		.ascii	"size\000"
 3830      00
 3831              	.LASF15:
 3832 079c 6C6F6E67 		.ascii	"long long unsigned int\000"
 3832      206C6F6E 
 3832      6720756E 
 3832      7369676E 
 3832      65642069 
 3833              	.LASF204:
 3834 07b3 50574D5F 		.ascii	"PWM_STOP\000"
 3834      53544F50 
 3834      00
 3835              	.LASF17:
 3836 07bc 75696E74 		.ascii	"uint16_t\000"
 3836      31365F74 
 3836      00
 3837              	.LASF126:
 3838 07c5 6F66665F 		.ascii	"off_name\000"
 3838      6E616D65 
 3838      00
 3839              	.LASF195:
 3840 07ce 4C4F434B 		.ascii	"LOCKR\000"
 3840      5200
 3841              	.LASF26:
 3842 07d4 6D73675F 		.ascii	"msg_t\000"
 3842      7400
 3843              	.LASF53:
 3844 07da 63685F74 		.ascii	"ch_threads_queue\000"
 3844      68726561 
 3844      64735F71 
 3844      75657565 
 3844      00
 3845              	.LASF28:
 3846 07eb 6576656E 		.ascii	"eventflags_t\000"
 3846      74666C61 
 3846      67735F74 
 3846      00
 3847              	.LASF94:
 3848 07f8 43434552 		.ascii	"CCER\000"
ARM GAS  /var/folders/vd/czx34qs52cd_f3nb04sxmghc0000gn/T//cciWLOa8.s 			page 75


 3848      00
 3849              	.LASF61:
 3850 07fd 64656C74 		.ascii	"delta\000"
 3850      6100
 3851              	.LASF197:
 3852 0803 41465248 		.ascii	"AFRH\000"
 3852      00
 3853              	.LASF40:
 3854 0808 72656673 		.ascii	"refs\000"
 3854      00
 3855              	.LASF32:
 3856 080d 71756575 		.ascii	"queue\000"
 3856      6500
 3857              	.LASF172:
 3858 0813 76656374 		.ascii	"vector\000"
 3858      6F7200
 3859              	.LASF167:
 3860 081a 63685F66 		.ascii	"ch_factory\000"
 3860      6163746F 
 3860      727900
 3861              	.LASF164:
 3862 0825 6D62785F 		.ascii	"mbx_list\000"
 3862      6C697374 
 3862      00
 3863              	.LASF73:
 3864 082e 6D61696E 		.ascii	"mainthread\000"
 3864      74687265 
 3864      616400
 3865              	.LASF90:
 3866 0839 534D4352 		.ascii	"SMCR\000"
 3866      00
 3867              	.LASF209:
 3868 083e 70657269 		.ascii	"period\000"
 3868      6F6400
 3869              	.LASF118:
 3870 0845 76657273 		.ascii	"version\000"
 3870      696F6E00 
 3871              	.LASF37:
 3872 084d 77616261 		.ascii	"wabase\000"
 3872      736500
 3873              	.LASF229:
 3874 0854 53657269 		.ascii	"SerialDriver\000"
 3874      616C4472 
 3874      69766572 
 3874      00
 3875              	.LASF153:
 3876 0861 6D656D6F 		.ascii	"memory_pool_t\000"
 3876      72795F70 
 3876      6F6F6C5F 
 3876      7400
 3877              	.LASF191:
 3878 086f 4F545950 		.ascii	"OTYPER\000"
 3878      455200
 3879              	.LASF177:
 3880 0876 715F7761 		.ascii	"q_waiting\000"
 3880      6974696E 
 3880      6700
ARM GAS  /var/folders/vd/czx34qs52cd_f3nb04sxmghc0000gn/T//cciWLOa8.s 			page 76


 3881              	.LASF71:
 3882 0880 726C6973 		.ascii	"rlist\000"
 3882      7400
 3883              	.LASF22:
 3884 0886 746D6F64 		.ascii	"tmode_t\000"
 3884      655F7400 
 3885              	.LASF228:
 3886 088e 73647374 		.ascii	"sdstate_t\000"
 3886      6174655F 
 3886      7400
 3887              	.LASF227:
 3888 0898 53445F52 		.ascii	"SD_READY\000"
 3888      45414459 
 3888      00
 3889              	.LASF101:
 3890 08a1 746D5F63 		.ascii	"tm_calibration_t\000"
 3890      616C6962 
 3890      72617469 
 3890      6F6E5F74 
 3890      00
 3891              	.LASF81:
 3892 08b2 4D304152 		.ascii	"M0AR\000"
 3892      00
 3893              	.LASF36:
 3894 08b7 6E616D65 		.ascii	"name\000"
 3894      00
 3895              	.LASF138:
 3896 08bc 6C697374 		.ascii	"listener\000"
 3896      656E6572 
 3896      00
 3897              	.LASF243:
 3898 08c5 706F7274 		.ascii	"port\000"
 3898      00
 3899              	.LASF79:
 3900 08ca 41504250 		.ascii	"APBPrescTable\000"
 3900      72657363 
 3900      5461626C 
 3900      6500
 3901              	.LASF205:
 3902 08d8 50574D5F 		.ascii	"PWM_READY\000"
 3902      52454144 
 3902      5900
 3903              	.LASF7:
 3904 08e2 73686F72 		.ascii	"short int\000"
 3904      7420696E 
 3904      7400
 3905              	.LASF141:
 3906 08ec 6576656E 		.ascii	"event_source\000"
 3906      745F736F 
 3906      75726365 
 3906      00
 3907              	.LASF20:
 3908 08f9 75696E74 		.ascii	"uint64_t\000"
 3908      36345F74 
 3908      00
 3909              	.LASF218:
 3910 0902 6D6F6465 		.ascii	"mode\000"
ARM GAS  /var/folders/vd/czx34qs52cd_f3nb04sxmghc0000gn/T//cciWLOa8.s 			page 77


 3910      00
 3911              	.LASF62:
 3912 0907 66756E63 		.ascii	"func\000"
 3912      00
 3913              	.LASF111:
 3914 090c 63685F6D 		.ascii	"ch_mutex\000"
 3914      75746578 
 3914      00
 3915              	.LASF42:
 3916 0915 6D736771 		.ascii	"msgqueue\000"
 3916      75657565 
 3916      00
 3917              	.LASF231:
 3918 091e 69717565 		.ascii	"iqueue\000"
 3918      756500
 3919              	.LASF67:
 3920 0925 63685F73 		.ascii	"ch_system_debug\000"
 3920      79737465 
 3920      6D5F6465 
 3920      62756700 
 3921              	.LASF157:
 3922 0935 64796E5F 		.ascii	"dyn_list_t\000"
 3922      6C697374 
 3922      5F7400
 3923              	.LASF175:
 3924 0940 696F5F71 		.ascii	"io_queue_t\000"
 3924      75657565 
 3924      5F7400
 3925              	.LASF194:
 3926 094b 42535252 		.ascii	"BSRR\000"
 3926      00
 3927              	.LASF150:
 3928 0950 6F626A65 		.ascii	"object_size\000"
 3928      63745F73 
 3928      697A6500 
 3929              	.LASF72:
 3930 095c 76746C69 		.ascii	"vtlist\000"
 3930      737400
 3931              	.LASF41:
 3932 0963 77616974 		.ascii	"waiting\000"
 3932      696E6700 
 3933              	.LASF223:
 3934 096b 50574D43 		.ascii	"PWMConfig\000"
 3934      6F6E6669 
 3934      6700
 3935              	.LASF135:
 3936 0975 6D757465 		.ascii	"mutex_t\000"
 3936      785F7400 
 3937              	.LASF24:
 3938 097d 74726566 		.ascii	"trefs_t\000"
 3938      735F7400 
 3939              	.LASF88:
 3940 0985 706F7274 		.ascii	"port_context\000"
 3940      5F636F6E 
 3940      74657874 
 3940      00
 3941              	.LASF48:
ARM GAS  /var/folders/vd/czx34qs52cd_f3nb04sxmghc0000gn/T//cciWLOa8.s 			page 78


 3942 0992 74687265 		.ascii	"threads_list_t\000"
 3942      6164735F 
 3942      6C697374 
 3942      5F7400
 3943              	.LASF224:
 3944 09a1 50574D44 		.ascii	"PWMD4\000"
 3944      3400
 3945              	.LASF70:
 3946 09a7 63685F73 		.ascii	"ch_system\000"
 3946      79737465 
 3946      6D00
 3947              	.LASF206:
 3948 09b1 70776D73 		.ascii	"pwmstate_t\000"
 3948      74617465 
 3948      5F7400
 3949              	.LASF34:
 3950 09bc 6E657765 		.ascii	"newer\000"
 3950      7200
 3951              	.LASF95:
 3952 09c2 42445452 		.ascii	"BDTR\000"
 3952      00
 3953              	.LASF19:
 3954 09c7 75696E74 		.ascii	"uint32_t\000"
 3954      33325F74 
 3954      00
 3955              	.LASF253:
 3956 09d0 2F557365 		.ascii	"/Users/lantian/Projects/stm32f407vet6/dev\000"
 3956      72732F6C 
 3956      616E7469 
 3956      616E2F50 
 3956      726F6A65 
 3957              	.LASF236:
 3958 09fa 696E7374 		.ascii	"instance_offset\000"
 3958      616E6365 
 3958      5F6F6666 
 3958      73657400 
 3959              	.LASF186:
 3960 0a0a 696E7075 		.ascii	"input_queue_t\000"
 3960      745F7175 
 3960      6575655F 
 3960      7400
 3961              	.LASF137:
 3962 0a18 6576656E 		.ascii	"event_listener\000"
 3962      745F6C69 
 3962      7374656E 
 3962      657200
 3963              	.LASF102:
 3964 0a27 7264796D 		.ascii	"rdymsg\000"
 3964      736700
 3965              	.LASF181:
 3966 0a2e 715F7772 		.ascii	"q_wrptr\000"
 3966      70747200 
 3967              	.LASF9:
 3968 0a36 73686F72 		.ascii	"short unsigned int\000"
 3968      7420756E 
 3968      7369676E 
 3968      65642069 
ARM GAS  /var/folders/vd/czx34qs52cd_f3nb04sxmghc0000gn/T//cciWLOa8.s 			page 79


 3968      6E7400
 3969              	.LASF69:
 3970 0a49 63685F73 		.ascii	"ch_system_t\000"
 3970      79737465 
 3970      6D5F7400 
 3971              	.LASF133:
 3972 0a55 63686465 		.ascii	"chdebug_t\000"
 3972      6275675F 
 3972      7400
 3973              	.LASF187:
 3974 0a5f 6F757470 		.ascii	"output_queue_t\000"
 3974      75745F71 
 3974      75657565 
 3974      5F7400
 3975              	.LASF120:
 3976 0a6e 74696D65 		.ascii	"timesize\000"
 3976      73697A65 
 3976      00
 3977              	.LASF10:
 3978 0a77 5F5F696E 		.ascii	"__int32_t\000"
 3978      7433325F 
 3978      7400
 3979              	.LASF226:
 3980 0a81 53445F53 		.ascii	"SD_STOP\000"
 3980      544F5000 
 3981              	.LASF80:
 3982 0a89 4E445452 		.ascii	"NDTR\000"
 3982      00
 3983              	.LASF169:
 3984 0a8e 69666372 		.ascii	"ifcr\000"
 3984      00
 3985              	.LASF148:
 3986 0a93 63685F6D 		.ascii	"ch_memcore\000"
 3986      656D636F 
 3986      726500
 3987              	.LASF129:
 3988 0a9e 6F66665F 		.ascii	"off_flags\000"
 3988      666C6167 
 3988      7300
 3989              	.LASF139:
 3990 0aa8 6576656E 		.ascii	"events\000"
 3990      747300
 3991              	.LASF51:
 3992 0aaf 6E657874 		.ascii	"next\000"
 3992      00
 3993              	.LASF54:
 3994 0ab4 70726576 		.ascii	"prev\000"
 3994      00
 3995              	.LASF156:
 3996 0ab9 63685F64 		.ascii	"ch_dyn_list\000"
 3996      796E5F6C 
 3996      69737400 
 3997              	.LASF115:
 3998 0ac5 6964656E 		.ascii	"identifier\000"
 3998      74696669 
 3998      657200
 3999              		.ident	"GCC: (GNU Tools for Arm Embedded Processors 7-2017-q4-major) 7.2.1 20170904 (release) [ARM
ARM GAS  /var/folders/vd/czx34qs52cd_f3nb04sxmghc0000gn/T//cciWLOa8.s 			page 80


ARM GAS  /var/folders/vd/czx34qs52cd_f3nb04sxmghc0000gn/T//cciWLOa8.s 			page 81


DEFINED SYMBOLS
                            *ABS*:0000000000000000 hal_pal_lld.c
/var/folders/vd/czx34qs52cd_f3nb04sxmghc0000gn/T//cciWLOa8.s:16     .text._pal_lld_init:0000000000000000 $t
/var/folders/vd/czx34qs52cd_f3nb04sxmghc0000gn/T//cciWLOa8.s:24     .text._pal_lld_init:0000000000000000 _pal_lld_init
/var/folders/vd/czx34qs52cd_f3nb04sxmghc0000gn/T//cciWLOa8.s:38     .text._pal_lld_setgroupmode:0000000000000000 $t
/var/folders/vd/czx34qs52cd_f3nb04sxmghc0000gn/T//cciWLOa8.s:46     .text._pal_lld_setgroupmode:0000000000000000 _pal_lld_setgroupmode
/var/folders/vd/czx34qs52cd_f3nb04sxmghc0000gn/T//cciWLOa8.s:235    .bss._pal_events:0000000000000000 _pal_events

NO UNDEFINED SYMBOLS
