ARM GAS  /var/folders/vd/czx34qs52cd_f3nb04sxmghc0000gn/T//cccDwg4y.s 			page 1


   1              		.cpu cortex-m4
   2              		.eabi_attribute 20, 1
   3              		.eabi_attribute 21, 1
   4              		.eabi_attribute 23, 3
   5              		.eabi_attribute 24, 1
   6              		.eabi_attribute 25, 1
   7              		.eabi_attribute 26, 1
   8              		.eabi_attribute 30, 2
   9              		.eabi_attribute 34, 1
  10              		.eabi_attribute 18, 4
  11              		.file	"hal_queues.c"
  12              		.text
  13              	.Ltext0:
  14              		.cfi_sections	.debug_frame
  15              		.section	.text.iq_read,"ax",%progbits
  16              		.align	1
  17              		.p2align 4,,15
  18              		.syntax unified
  19              		.thumb
  20              		.thumb_func
  21              		.fpu softvfp
  22              		.type	iq_read, %function
  23              	iq_read:
  24              	.LFB313:
  25              		.file 1 "../os/hal/src/hal_queues.c"
  26              		.loc 1 60 0
  27              		.cfi_startproc
  28              		@ args = 0, pretend = 0, frame = 0
  29              		@ frame_needed = 0, uses_anonymous_args = 0
  30              	.LVL0:
  31 0000 F8B5     		push	{r3, r4, r5, r6, r7, lr}
  32              		.cfi_def_cfa_offset 24
  33              		.cfi_offset 3, -24
  34              		.cfi_offset 4, -20
  35              		.cfi_offset 5, -16
  36              		.cfi_offset 6, -12
  37              		.cfi_offset 7, -8
  38              		.cfi_offset 14, -4
  39              		.loc 1 60 0
  40 0002 1546     		mov	r5, r2
  41              		.loc 1 66 0
  42 0004 8268     		ldr	r2, [r0, #8]
  43              	.LVL1:
  44              		.loc 1 72 0
  45 0006 0669     		ldr	r6, [r0, #16]
  46              		.loc 1 66 0
  47 0008 AA42     		cmp	r2, r5
  48              		.loc 1 60 0
  49 000a 0B46     		mov	r3, r1
  50              		.loc 1 72 0
  51 000c 8169     		ldr	r1, [r0, #24]
  52              	.LVL2:
  53              		.loc 1 67 0
  54 000e 38BF     		it	cc
  55 0010 8568     		ldrcc	r5, [r0, #8]
  56              	.LVL3:
  57              		.loc 1 72 0
ARM GAS  /var/folders/vd/czx34qs52cd_f3nb04sxmghc0000gn/T//cccDwg4y.s 			page 2


  58 0012 761A     		subs	r6, r6, r1
  59              	.LVL4:
  60              		.loc 1 74 0
  61 0014 B542     		cmp	r5, r6
  62              		.loc 1 60 0
  63 0016 0446     		mov	r4, r0
  64              		.loc 1 74 0
  65 0018 1DD3     		bcc	.L8
  66              		.loc 1 78 0
  67 001a 0AD8     		bhi	.L9
  68              		.loc 1 86 0
  69 001c 1846     		mov	r0, r3
  70              	.LVL5:
  71 001e 2A46     		mov	r2, r5
  72 0020 FFF7FEFF 		bl	memcpy
  73              	.LVL6:
  74              		.loc 1 87 0
  75 0024 E368     		ldr	r3, [r4, #12]
  76 0026 A361     		str	r3, [r4, #24]
  77              		.loc 1 90 0
  78 0028 A368     		ldr	r3, [r4, #8]
  79 002a 5B1B     		subs	r3, r3, r5
  80 002c A360     		str	r3, [r4, #8]
  81              		.loc 1 92 0
  82 002e 2846     		mov	r0, r5
  83 0030 F8BD     		pop	{r3, r4, r5, r6, r7, pc}
  84              	.LVL7:
  85              	.L9:
  86              		.loc 1 79 0
  87 0032 3246     		mov	r2, r6
  88 0034 1846     		mov	r0, r3
  89              	.LVL8:
  90 0036 FFF7FEFF 		bl	memcpy
  91              	.LVL9:
  92              		.loc 1 81 0
  93 003a AF1B     		subs	r7, r5, r6
  94              	.LVL10:
  95              		.loc 1 82 0
  96 003c 3A46     		mov	r2, r7
  97 003e 3044     		add	r0, r0, r6
  98              	.LVL11:
  99 0040 E168     		ldr	r1, [r4, #12]
 100 0042 FFF7FEFF 		bl	memcpy
 101              	.LVL12:
 102              		.loc 1 90 0
 103 0046 A368     		ldr	r3, [r4, #8]
 104              		.loc 1 83 0
 105 0048 E268     		ldr	r2, [r4, #12]
 106              		.loc 1 90 0
 107 004a 5B1B     		subs	r3, r3, r5
 108              		.loc 1 83 0
 109 004c 3A44     		add	r2, r2, r7
 110 004e A261     		str	r2, [r4, #24]
 111              		.loc 1 90 0
 112 0050 A360     		str	r3, [r4, #8]
 113              		.loc 1 92 0
 114 0052 2846     		mov	r0, r5
ARM GAS  /var/folders/vd/czx34qs52cd_f3nb04sxmghc0000gn/T//cccDwg4y.s 			page 3


 115 0054 F8BD     		pop	{r3, r4, r5, r6, r7, pc}
 116              	.LVL13:
 117              	.L8:
 118              		.loc 1 75 0
 119 0056 1846     		mov	r0, r3
 120              	.LVL14:
 121 0058 2A46     		mov	r2, r5
 122 005a FFF7FEFF 		bl	memcpy
 123              	.LVL15:
 124              		.loc 1 76 0
 125 005e A369     		ldr	r3, [r4, #24]
 126 0060 2B44     		add	r3, r3, r5
 127 0062 A361     		str	r3, [r4, #24]
 128              		.loc 1 90 0
 129 0064 A368     		ldr	r3, [r4, #8]
 130 0066 5B1B     		subs	r3, r3, r5
 131 0068 A360     		str	r3, [r4, #8]
 132              		.loc 1 92 0
 133 006a 2846     		mov	r0, r5
 134 006c F8BD     		pop	{r3, r4, r5, r6, r7, pc}
 135              		.cfi_endproc
 136              	.LFE313:
 137              		.size	iq_read, .-iq_read
 138 006e 00BF     		.section	.text.oq_write,"ax",%progbits
 139              		.align	1
 140              		.p2align 4,,15
 141              		.syntax unified
 142              		.thumb
 143              		.thumb_func
 144              		.fpu softvfp
 145              		.type	oq_write, %function
 146              	oq_write:
 147              	.LFB314:
 148              		.loc 1 108 0
 149              		.cfi_startproc
 150              		@ args = 0, pretend = 0, frame = 0
 151              		@ frame_needed = 0, uses_anonymous_args = 0
 152              	.LVL16:
 153              		.loc 1 114 0
 154 0000 8368     		ldr	r3, [r0, #8]
 155 0002 9342     		cmp	r3, r2
 156              		.loc 1 108 0
 157 0004 2DE9F041 		push	{r4, r5, r6, r7, r8, lr}
 158              		.cfi_def_cfa_offset 24
 159              		.cfi_offset 4, -24
 160              		.cfi_offset 5, -20
 161              		.cfi_offset 6, -16
 162              		.cfi_offset 7, -12
 163              		.cfi_offset 8, -8
 164              		.cfi_offset 14, -4
 165              		.loc 1 115 0
 166 0008 38BF     		it	cc
 167 000a 8568     		ldrcc	r5, [r0, #8]
 168              	.LVL17:
 169              		.loc 1 108 0
 170 000c 0446     		mov	r4, r0
 171              		.loc 1 120 0
ARM GAS  /var/folders/vd/czx34qs52cd_f3nb04sxmghc0000gn/T//cccDwg4y.s 			page 4


 172 000e D0E90460 		ldrd	r6, r0, [r0, #16]
 173              	.LVL18:
 174 0012 28BF     		it	cs
 175 0014 1546     		movcs	r5, r2
 176              	.LVL19:
 177 0016 361A     		subs	r6, r6, r0
 178              	.LVL20:
 179              		.loc 1 122 0
 180 0018 B542     		cmp	r5, r6
 181              		.loc 1 108 0
 182 001a 0F46     		mov	r7, r1
 183              		.loc 1 122 0
 184 001c 19D3     		bcc	.L17
 185              		.loc 1 126 0
 186 001e 0AD8     		bhi	.L18
 187              		.loc 1 134 0
 188 0020 2A46     		mov	r2, r5
 189 0022 FFF7FEFF 		bl	memcpy
 190              	.LVL21:
 191              		.loc 1 135 0
 192 0026 E368     		ldr	r3, [r4, #12]
 193 0028 6361     		str	r3, [r4, #20]
 194              	.LVL22:
 195              	.L13:
 196              		.loc 1 138 0
 197 002a A368     		ldr	r3, [r4, #8]
 198 002c 5B1B     		subs	r3, r3, r5
 199 002e A360     		str	r3, [r4, #8]
 200              		.loc 1 140 0
 201 0030 2846     		mov	r0, r5
 202 0032 BDE8F081 		pop	{r4, r5, r6, r7, r8, pc}
 203              	.LVL23:
 204              	.L18:
 205              		.loc 1 127 0
 206 0036 3246     		mov	r2, r6
 207              		.loc 1 129 0
 208 0038 A5EB0608 		sub	r8, r5, r6
 209              		.loc 1 127 0
 210 003c FFF7FEFF 		bl	memcpy
 211              	.LVL24:
 212              		.loc 1 130 0
 213 0040 4246     		mov	r2, r8
 214 0042 B919     		adds	r1, r7, r6
 215              	.LVL25:
 216 0044 E068     		ldr	r0, [r4, #12]
 217 0046 FFF7FEFF 		bl	memcpy
 218              	.LVL26:
 219              		.loc 1 131 0
 220 004a E268     		ldr	r2, [r4, #12]
 221 004c 4244     		add	r2, r2, r8
 222 004e 6261     		str	r2, [r4, #20]
 223 0050 EBE7     		b	.L13
 224              	.LVL27:
 225              	.L17:
 226              		.loc 1 123 0
 227 0052 2A46     		mov	r2, r5
 228 0054 FFF7FEFF 		bl	memcpy
ARM GAS  /var/folders/vd/czx34qs52cd_f3nb04sxmghc0000gn/T//cccDwg4y.s 			page 5


 229              	.LVL28:
 230              		.loc 1 124 0
 231 0058 6369     		ldr	r3, [r4, #20]
 232 005a 2B44     		add	r3, r3, r5
 233 005c 6361     		str	r3, [r4, #20]
 234 005e E4E7     		b	.L13
 235              		.cfi_endproc
 236              	.LFE314:
 237              		.size	oq_write, .-oq_write
 238              		.section	.text.iqObjectInit,"ax",%progbits
 239              		.align	1
 240              		.p2align 4,,15
 241              		.global	iqObjectInit
 242              		.syntax unified
 243              		.thumb
 244              		.thumb_func
 245              		.fpu softvfp
 246              		.type	iqObjectInit, %function
 247              	iqObjectInit:
 248              	.LFB315:
 249              		.loc 1 178 0
 250              		.cfi_startproc
 251              		@ args = 4, pretend = 0, frame = 0
 252              		@ frame_needed = 0, uses_anonymous_args = 0
 253              		@ link register save eliminated.
 254              	.LVL29:
 255 0000 30B4     		push	{r4, r5}
 256              		.cfi_def_cfa_offset 8
 257              		.cfi_offset 4, -8
 258              		.cfi_offset 5, -4
 259              		.loc 1 178 0
 260 0002 029C     		ldr	r4, [sp, #8]
 261              		.loc 1 187 0
 262 0004 0462     		str	r4, [r0, #32]
 263              		.loc 1 181 0
 264 0006 0025     		movs	r5, #0
 265              		.loc 1 185 0
 266 0008 0A44     		add	r2, r2, r1
 267              	.LVL30:
 268              		.loc 1 181 0
 269 000a 8560     		str	r5, [r0, #8]
 270              		.loc 1 185 0
 271 000c 0261     		str	r2, [r0, #16]
 272              	.LBB155:
 273              	.LBB156:
 274              	.LBB157:
 275              	.LBB158:
 276              		.file 2 "../os/rt/include/chschd.h"
 277              		.loc 2 540 0
 278 000e C0E90000 		strd	r0, r0, [r0]
 279              	.LVL31:
 280              	.LBE158:
 281              	.LBE157:
 282              	.LBE156:
 283              	.LBE155:
 284              		.loc 1 182 0
 285 0012 C160     		str	r1, [r0, #12]
ARM GAS  /var/folders/vd/czx34qs52cd_f3nb04sxmghc0000gn/T//cccDwg4y.s 			page 6


 286              		.loc 1 184 0
 287 0014 C0E90511 		strd	r1, r1, [r0, #20]
 288              		.loc 1 186 0
 289 0018 C361     		str	r3, [r0, #28]
 290              		.loc 1 188 0
 291 001a 30BC     		pop	{r4, r5}
 292              		.cfi_restore 5
 293              		.cfi_restore 4
 294              		.cfi_def_cfa_offset 0
 295              	.LVL32:
 296 001c 7047     		bx	lr
 297              		.cfi_endproc
 298              	.LFE315:
 299              		.size	iqObjectInit, .-iqObjectInit
 300 001e 00BF     		.section	.text.iqResetI,"ax",%progbits
 301              		.align	1
 302              		.p2align 4,,15
 303              		.global	iqResetI
 304              		.syntax unified
 305              		.thumb
 306              		.thumb_func
 307              		.fpu softvfp
 308              		.type	iqResetI, %function
 309              	iqResetI:
 310              	.LFB316:
 311              		.loc 1 201 0
 312              		.cfi_startproc
 313              		@ args = 0, pretend = 0, frame = 0
 314              		@ frame_needed = 0, uses_anonymous_args = 0
 315              		@ link register save eliminated.
 316              	.LVL33:
 317              		.loc 1 205 0
 318 0000 C268     		ldr	r2, [r0, #12]
 319              		.loc 1 207 0
 320 0002 0021     		movs	r1, #0
 321 0004 8160     		str	r1, [r0, #8]
 322              	.LVL34:
 323              		.loc 1 206 0
 324 0006 C0E90522 		strd	r2, r2, [r0, #20]
 325              	.LBB159:
 326              	.LBB160:
 327              		.file 3 "../os/hal/osal/rt/osal.h"
 328              		.loc 3 857 0
 329 000a 6FF00101 		mvn	r1, #1
 330 000e FFF7FEBF 		b	chThdDequeueAllI
 331              	.LVL35:
 332              	.LBE160:
 333              	.LBE159:
 334              		.cfi_endproc
 335              	.LFE316:
 336              		.size	iqResetI, .-iqResetI
 337 0012 00BF     		.section	.text.iqPutI,"ax",%progbits
 338              		.align	1
 339              		.p2align 4,,15
 340              		.global	iqPutI
 341              		.syntax unified
 342              		.thumb
ARM GAS  /var/folders/vd/czx34qs52cd_f3nb04sxmghc0000gn/T//cccDwg4y.s 			page 7


 343              		.thumb_func
 344              		.fpu softvfp
 345              		.type	iqPutI, %function
 346              	iqPutI:
 347              	.LFB317:
 348              		.loc 1 224 0
 349              		.cfi_startproc
 350              		@ args = 0, pretend = 0, frame = 0
 351              		@ frame_needed = 0, uses_anonymous_args = 0
 352              	.LVL36:
 353              		.loc 1 229 0
 354 0000 D0E90532 		ldrd	r3, r2, [r0, #20]
 355 0004 9342     		cmp	r3, r2
 356 0006 11D0     		beq	.L31
 357              	.L23:
 358              		.loc 1 230 0
 359 0008 8268     		ldr	r2, [r0, #8]
 360              		.loc 1 224 0
 361 000a 10B5     		push	{r4, lr}
 362              		.cfi_def_cfa_offset 8
 363              		.cfi_offset 4, -8
 364              		.cfi_offset 14, -4
 365              		.loc 1 230 0
 366 000c 0132     		adds	r2, r2, #1
 367              		.loc 1 231 0
 368 000e 5C1C     		adds	r4, r3, #1
 369              		.loc 1 230 0
 370 0010 8260     		str	r2, [r0, #8]
 371              		.loc 1 231 0
 372 0012 4461     		str	r4, [r0, #20]
 373 0014 1970     		strb	r1, [r3]
 374              		.loc 1 232 0
 375 0016 D0E90432 		ldrd	r3, r2, [r0, #16]
 376 001a 9A42     		cmp	r2, r3
 377 001c 01D3     		bcc	.L26
 378              		.loc 1 233 0
 379 001e C368     		ldr	r3, [r0, #12]
 380 0020 4361     		str	r3, [r0, #20]
 381              	.L26:
 382              	.LVL37:
 383              	.LBB161:
 384              	.LBB162:
 385              		.loc 3 844 0
 386 0022 0021     		movs	r1, #0
 387              	.LVL38:
 388 0024 FFF7FEFF 		bl	chThdDequeueNextI
 389              	.LVL39:
 390              	.LBE162:
 391              	.LBE161:
 392              		.loc 1 238 0
 393 0028 0020     		movs	r0, #0
 394              		.loc 1 242 0
 395 002a 10BD     		pop	{r4, pc}
 396              	.LVL40:
 397              	.L31:
 398              		.cfi_def_cfa_offset 0
 399              		.cfi_restore 4
ARM GAS  /var/folders/vd/czx34qs52cd_f3nb04sxmghc0000gn/T//cccDwg4y.s 			page 8


 400              		.cfi_restore 14
 401              		.loc 1 229 0 discriminator 1
 402 002c 8268     		ldr	r2, [r0, #8]
 403 002e 002A     		cmp	r2, #0
 404 0030 EAD0     		beq	.L23
 405              		.loc 1 241 0
 406 0032 4FF0FF30 		mov	r0, #-1
 407              	.LVL41:
 408              		.loc 1 242 0
 409 0036 7047     		bx	lr
 410              		.cfi_endproc
 411              	.LFE317:
 412              		.size	iqPutI, .-iqPutI
 413              		.section	.text.iqGetI,"ax",%progbits
 414              		.align	1
 415              		.p2align 4,,15
 416              		.global	iqGetI
 417              		.syntax unified
 418              		.thumb
 419              		.thumb_func
 420              		.fpu softvfp
 421              		.type	iqGetI, %function
 422              	iqGetI:
 423              	.LFB318:
 424              		.loc 1 258 0
 425              		.cfi_startproc
 426              		@ args = 0, pretend = 0, frame = 0
 427              		@ frame_needed = 0, uses_anonymous_args = 0
 428              	.LVL42:
 429 0000 38B5     		push	{r3, r4, r5, lr}
 430              		.cfi_def_cfa_offset 16
 431              		.cfi_offset 3, -16
 432              		.cfi_offset 4, -12
 433              		.cfi_offset 5, -8
 434              		.cfi_offset 14, -4
 435              		.loc 1 263 0
 436 0002 8368     		ldr	r3, [r0, #8]
 437 0004 8BB1     		cbz	r3, .L36
 438              	.LBB163:
 439              		.loc 1 268 0
 440 0006 8169     		ldr	r1, [r0, #24]
 441              		.loc 1 267 0
 442 0008 8368     		ldr	r3, [r0, #8]
 443              		.loc 1 269 0
 444 000a 0569     		ldr	r5, [r0, #16]
 445              		.loc 1 268 0
 446 000c 4A1C     		adds	r2, r1, #1
 447              		.loc 1 267 0
 448 000e 013B     		subs	r3, r3, #1
 449              		.loc 1 269 0
 450 0010 AA42     		cmp	r2, r5
 451              		.loc 1 267 0
 452 0012 8360     		str	r3, [r0, #8]
 453              		.loc 1 268 0
 454 0014 8261     		str	r2, [r0, #24]
 455              		.loc 1 270 0
 456 0016 28BF     		it	cs
ARM GAS  /var/folders/vd/czx34qs52cd_f3nb04sxmghc0000gn/T//cccDwg4y.s 			page 9


 457 0018 C368     		ldrcs	r3, [r0, #12]
 458              		.loc 1 268 0
 459 001a 0C78     		ldrb	r4, [r1]	@ zero_extendqisi2
 460              	.LVL43:
 461              		.loc 1 270 0
 462 001c 28BF     		it	cs
 463 001e 8361     		strcs	r3, [r0, #24]
 464              		.loc 1 274 0
 465 0020 C369     		ldr	r3, [r0, #28]
 466 0022 03B1     		cbz	r3, .L35
 467              		.loc 1 275 0
 468 0024 9847     		blx	r3
 469              	.LVL44:
 470              	.L35:
 471              		.loc 1 278 0
 472 0026 2046     		mov	r0, r4
 473              	.LBE163:
 474              		.loc 1 282 0
 475 0028 38BD     		pop	{r3, r4, r5, pc}
 476              	.LVL45:
 477              	.L36:
 478              		.loc 1 281 0
 479 002a 4FF0FF30 		mov	r0, #-1
 480              	.LVL46:
 481              		.loc 1 282 0
 482 002e 38BD     		pop	{r3, r4, r5, pc}
 483              		.cfi_endproc
 484              	.LFE318:
 485              		.size	iqGetI, .-iqGetI
 486              		.section	.text.iqGetTimeout,"ax",%progbits
 487              		.align	1
 488              		.p2align 4,,15
 489              		.global	iqGetTimeout
 490              		.syntax unified
 491              		.thumb
 492              		.thumb_func
 493              		.fpu softvfp
 494              		.type	iqGetTimeout, %function
 495              	iqGetTimeout:
 496              	.LFB319:
 497              		.loc 1 304 0
 498              		.cfi_startproc
 499              		@ args = 0, pretend = 0, frame = 0
 500              		@ frame_needed = 0, uses_anonymous_args = 0
 501              	.LVL47:
 502 0000 70B5     		push	{r4, r5, r6, lr}
 503              		.cfi_def_cfa_offset 16
 504              		.cfi_offset 4, -16
 505              		.cfi_offset 5, -12
 506              		.cfi_offset 6, -8
 507              		.cfi_offset 14, -4
 508              	.LBB164:
 509              	.LBB165:
 510              	.LBB166:
 511              	.LBB167:
 512              	.LBB168:
 513              		.file 4 "../os/common/ext/ARM/CMSIS/Core/Include/cmsis_gcc.h"
ARM GAS  /var/folders/vd/czx34qs52cd_f3nb04sxmghc0000gn/T//cccDwg4y.s 			page 10


 514              		.loc 4 490 0
 515 0002 2023     		movs	r3, #32
 516              	.LBE168:
 517              	.LBE167:
 518              	.LBE166:
 519              	.LBE165:
 520              	.LBE164:
 521              		.loc 1 304 0
 522 0004 0446     		mov	r4, r0
 523 0006 0E46     		mov	r6, r1
 524              	.LBB173:
 525              	.LBB172:
 526              	.LBB171:
 527              	.LBB170:
 528              	.LBB169:
 529              		.loc 4 490 0
 530              		.syntax unified
 531              	@ 490 "../os/common/ext/ARM/CMSIS/Core/Include/cmsis_gcc.h" 1
 532 0008 83F31188 		MSR basepri, r3
 533              	@ 0 "" 2
 534              	.LVL48:
 535              		.thumb
 536              		.syntax unified
 537 000c 03E0     		b	.L42
 538              	.LVL49:
 539              	.L44:
 540              	.LBE169:
 541              	.LBE170:
 542              	.LBE171:
 543              	.LBE172:
 544              	.LBE173:
 545              	.LBB174:
 546              	.LBB175:
 547              	.LBB176:
 548              		.loc 3 831 0
 549 000e FFF7FEFF 		bl	chThdEnqueueTimeoutS
 550              	.LVL50:
 551              	.LBE176:
 552              	.LBE175:
 553              		.loc 1 312 0
 554 0012 0028     		cmp	r0, #0
 555 0014 1ADB     		blt	.L52
 556              	.L42:
 557              	.LVL51:
 558              	.LBE174:
 559              		.loc 1 310 0
 560 0016 A568     		ldr	r5, [r4, #8]
 561              	.LBB185:
 562              	.LBB178:
 563              	.LBB177:
 564              		.loc 3 831 0
 565 0018 3146     		mov	r1, r6
 566 001a 2046     		mov	r0, r4
 567              	.LBE177:
 568              	.LBE178:
 569              	.LBE185:
 570              		.loc 1 310 0
ARM GAS  /var/folders/vd/czx34qs52cd_f3nb04sxmghc0000gn/T//cccDwg4y.s 			page 11


 571 001c 002D     		cmp	r5, #0
 572 001e F6D0     		beq	.L44
 573              	.LVL52:
 574              		.loc 1 320 0
 575 0020 A169     		ldr	r1, [r4, #24]
 576              	.LVL53:
 577              		.loc 1 319 0
 578 0022 A368     		ldr	r3, [r4, #8]
 579              		.loc 1 321 0
 580 0024 2069     		ldr	r0, [r4, #16]
 581              	.LVL54:
 582              		.loc 1 320 0
 583 0026 4A1C     		adds	r2, r1, #1
 584              		.loc 1 319 0
 585 0028 013B     		subs	r3, r3, #1
 586              		.loc 1 321 0
 587 002a 8242     		cmp	r2, r0
 588              		.loc 1 319 0
 589 002c A360     		str	r3, [r4, #8]
 590              		.loc 1 320 0
 591 002e A261     		str	r2, [r4, #24]
 592              		.loc 1 322 0
 593 0030 28BF     		it	cs
 594 0032 E368     		ldrcs	r3, [r4, #12]
 595              		.loc 1 320 0
 596 0034 0D78     		ldrb	r5, [r1]	@ zero_extendqisi2
 597              	.LVL55:
 598              		.loc 1 322 0
 599 0036 28BF     		it	cs
 600 0038 A361     		strcs	r3, [r4, #24]
 601              		.loc 1 326 0
 602 003a E369     		ldr	r3, [r4, #28]
 603 003c 0BB1     		cbz	r3, .L46
 604              		.loc 1 327 0
 605 003e 2046     		mov	r0, r4
 606 0040 9847     		blx	r3
 607              	.LVL56:
 608              	.L46:
 609              	.LBB186:
 610              	.LBB187:
 611              	.LBB188:
 612              	.LBB189:
 613              	.LBB190:
 614              	.LBB191:
 615              		.loc 4 490 0
 616 0042 0023     		movs	r3, #0
 617              		.syntax unified
 618              	@ 490 "../os/common/ext/ARM/CMSIS/Core/Include/cmsis_gcc.h" 1
 619 0044 83F31188 		MSR basepri, r3
 620              	@ 0 "" 2
 621              	.LVL57:
 622              		.thumb
 623              		.syntax unified
 624              	.LBE191:
 625              	.LBE190:
 626              	.LBE189:
 627              	.LBE188:
ARM GAS  /var/folders/vd/czx34qs52cd_f3nb04sxmghc0000gn/T//cccDwg4y.s 			page 12


 628              	.LBE187:
 629              	.LBE186:
 630              		.loc 1 332 0
 631 0048 2846     		mov	r0, r5
 632              		.loc 1 333 0
 633 004a 70BD     		pop	{r4, r5, r6, pc}
 634              	.LVL58:
 635              	.L52:
 636              	.LBB192:
 637              	.LBB179:
 638              	.LBB180:
 639              	.LBB181:
 640              	.LBB182:
 641              	.LBB183:
 642              	.LBB184:
 643              		.loc 4 490 0
 644              		.syntax unified
 645              	@ 490 "../os/common/ext/ARM/CMSIS/Core/Include/cmsis_gcc.h" 1
 646 004c 85F31188 		MSR basepri, r5
 647              	@ 0 "" 2
 648              	.LVL59:
 649              		.thumb
 650              		.syntax unified
 651              	.LBE184:
 652              	.LBE183:
 653              	.LBE182:
 654              	.LBE181:
 655              	.LBE180:
 656              	.LBE179:
 657              	.LBE192:
 658              		.loc 1 333 0
 659 0050 70BD     		pop	{r4, r5, r6, pc}
 660              		.cfi_endproc
 661              	.LFE319:
 662              		.size	iqGetTimeout, .-iqGetTimeout
 663 0052 00BF     		.section	.text.iqReadI,"ax",%progbits
 664              		.align	1
 665              		.p2align 4,,15
 666              		.global	iqReadI
 667              		.syntax unified
 668              		.thumb
 669              		.thumb_func
 670              		.fpu softvfp
 671              		.type	iqReadI, %function
 672              	iqReadI:
 673              	.LFB320:
 674              		.loc 1 348 0
 675              		.cfi_startproc
 676              		@ args = 0, pretend = 0, frame = 0
 677              		@ frame_needed = 0, uses_anonymous_args = 0
 678              	.LVL60:
 679 0000 70B5     		push	{r4, r5, r6, lr}
 680              		.cfi_def_cfa_offset 16
 681              		.cfi_offset 4, -16
 682              		.cfi_offset 5, -12
 683              		.cfi_offset 6, -8
 684              		.cfi_offset 14, -4
ARM GAS  /var/folders/vd/czx34qs52cd_f3nb04sxmghc0000gn/T//cccDwg4y.s 			page 13


 685              		.loc 1 348 0
 686 0002 0546     		mov	r5, r0
 687              		.loc 1 349 0
 688 0004 C669     		ldr	r6, [r0, #28]
 689              	.LVL61:
 690              		.loc 1 354 0
 691 0006 FFF7FEFF 		bl	iq_read
 692              	.LVL62:
 693              		.loc 1 358 0
 694 000a 0446     		mov	r4, r0
 695 000c 10B1     		cbz	r0, .L53
 696              		.loc 1 358 0 is_stmt 0 discriminator 1
 697 000e 0EB1     		cbz	r6, .L53
 698              		.loc 1 359 0 is_stmt 1
 699 0010 2846     		mov	r0, r5
 700              	.LVL63:
 701 0012 B047     		blx	r6
 702              	.LVL64:
 703              	.L53:
 704              		.loc 1 363 0
 705 0014 2046     		mov	r0, r4
 706 0016 70BD     		pop	{r4, r5, r6, pc}
 707              		.cfi_endproc
 708              	.LFE320:
 709              		.size	iqReadI, .-iqReadI
 710              		.section	.text.iqReadTimeout,"ax",%progbits
 711              		.align	1
 712              		.p2align 4,,15
 713              		.global	iqReadTimeout
 714              		.syntax unified
 715              		.thumb
 716              		.thumb_func
 717              		.fpu softvfp
 718              		.type	iqReadTimeout, %function
 719              	iqReadTimeout:
 720              	.LFB321:
 721              		.loc 1 390 0
 722              		.cfi_startproc
 723              		@ args = 0, pretend = 0, frame = 8
 724              		@ frame_needed = 0, uses_anonymous_args = 0
 725              	.LVL65:
 726 0000 2DE9F04F 		push	{r4, r5, r6, r7, r8, r9, r10, fp, lr}
 727              		.cfi_def_cfa_offset 36
 728              		.cfi_offset 4, -36
 729              		.cfi_offset 5, -32
 730              		.cfi_offset 6, -28
 731              		.cfi_offset 7, -24
 732              		.cfi_offset 8, -20
 733              		.cfi_offset 9, -16
 734              		.cfi_offset 10, -12
 735              		.cfi_offset 11, -8
 736              		.cfi_offset 14, -4
 737 0004 83B0     		sub	sp, sp, #12
 738              		.cfi_def_cfa_offset 48
 739              		.loc 1 390 0
 740 0006 1746     		mov	r7, r2
 741 0008 0193     		str	r3, [sp, #4]
ARM GAS  /var/folders/vd/czx34qs52cd_f3nb04sxmghc0000gn/T//cccDwg4y.s 			page 14


 742              		.loc 1 391 0
 743 000a D0F81C80 		ldr	r8, [r0, #28]
 744              	.LVL66:
 745              	.LBB193:
 746              	.LBB194:
 747              	.LBB195:
 748              	.LBB196:
 749              	.LBB197:
 750              		.loc 4 490 0
 751 000e 4FF02009 		mov	r9, #32
 752              		.syntax unified
 753              	@ 490 "../os/common/ext/ARM/CMSIS/Core/Include/cmsis_gcc.h" 1
 754 0012 89F31188 		MSR basepri, r9
 755              	@ 0 "" 2
 756              	.LVL67:
 757              		.thumb
 758              		.syntax unified
 759              	.LBE197:
 760              	.LBE196:
 761              	.LBE195:
 762              	.LBE194:
 763              	.LBE193:
 764              		.loc 1 398 0
 765 0016 32B3     		cbz	r2, .L68
 766              		.loc 1 392 0
 767 0018 0024     		movs	r4, #0
 768 001a 0646     		mov	r6, r0
 769 001c 0D46     		mov	r5, r1
 770              	.LBB198:
 771              	.LBB199:
 772              	.LBB200:
 773              	.LBB201:
 774              	.LBB202:
 775              	.LBB203:
 776              	.LBB204:
 777              		.loc 4 490 0
 778 001e A246     		mov	r10, r4
 779 0020 0CE0     		b	.L67
 780              	.LVL68:
 781              	.L64:
 782              	.LBE204:
 783              	.LBE203:
 784              	.LBE202:
 785              	.LBE201:
 786              	.LBE200:
 787              	.LBE199:
 788              		.loc 1 414 0
 789 0022 3046     		mov	r0, r6
 790              	.LVL69:
 791              		.loc 1 413 0
 792 0024 B8F1000F 		cmp	r8, #0
 793 0028 00D0     		beq	.L66
 794              	.LVL70:
 795              		.loc 1 414 0
 796 002a C047     		blx	r8
 797              	.LVL71:
 798              	.L66:
ARM GAS  /var/folders/vd/czx34qs52cd_f3nb04sxmghc0000gn/T//cccDwg4y.s 			page 15


 799              	.LBB210:
 800              	.LBB209:
 801              	.LBB208:
 802              	.LBB207:
 803              	.LBB206:
 804              	.LBB205:
 805              		.loc 4 490 0
 806              		.syntax unified
 807              	@ 490 "../os/common/ext/ARM/CMSIS/Core/Include/cmsis_gcc.h" 1
 808 002c 8AF31188 		MSR basepri, r10
 809              	@ 0 "" 2
 810              	.LVL72:
 811              		.thumb
 812              		.syntax unified
 813              	.LBE205:
 814              	.LBE206:
 815              	.LBE207:
 816              	.LBE208:
 817              	.LBE209:
 818              	.LBE210:
 819              		.loc 1 420 0
 820 0030 5C44     		add	r4, r4, fp
 821              	.LVL73:
 822              		.loc 1 421 0
 823 0032 5D44     		add	r5, r5, fp
 824              	.LVL74:
 825              	.LBB211:
 826              	.LBB212:
 827              	.LBB213:
 828              	.LBB214:
 829              	.LBB215:
 830              		.loc 4 490 0
 831              		.syntax unified
 832              	@ 490 "../os/common/ext/ARM/CMSIS/Core/Include/cmsis_gcc.h" 1
 833 0034 89F31188 		MSR basepri, r9
 834              	@ 0 "" 2
 835              	.LVL75:
 836              		.thumb
 837              		.syntax unified
 838              	.L65:
 839              	.LBE215:
 840              	.LBE214:
 841              	.LBE213:
 842              	.LBE212:
 843              	.LBE211:
 844              	.LBE198:
 845              		.loc 1 398 0
 846 0038 A742     		cmp	r7, r4
 847 003a 0DD9     		bls	.L63
 848              	.LVL76:
 849              	.L67:
 850              	.LBB219:
 851              		.loc 1 401 0
 852 003c 3A46     		mov	r2, r7
 853 003e 2946     		mov	r1, r5
 854 0040 3046     		mov	r0, r6
 855 0042 FFF7FEFF 		bl	iq_read
ARM GAS  /var/folders/vd/czx34qs52cd_f3nb04sxmghc0000gn/T//cccDwg4y.s 			page 16


 856              	.LVL77:
 857              		.loc 1 402 0
 858 0046 8346     		mov	fp, r0
 859 0048 0028     		cmp	r0, #0
 860 004a EAD1     		bne	.L64
 861              	.LVL78:
 862              	.LBB216:
 863              	.LBB217:
 864              	.LBB218:
 865              		.loc 3 831 0
 866 004c 0199     		ldr	r1, [sp, #4]
 867 004e 3046     		mov	r0, r6
 868              	.LVL79:
 869 0050 FFF7FEFF 		bl	chThdEnqueueTimeoutS
 870              	.LVL80:
 871              	.LBE218:
 872              	.LBE217:
 873              		.loc 1 406 0
 874 0054 0028     		cmp	r0, #0
 875 0056 EFD0     		beq	.L65
 876              	.LVL81:
 877              	.L63:
 878              	.LBE216:
 879              	.LBE219:
 880              	.LBB220:
 881              	.LBB221:
 882              	.LBB222:
 883              	.LBB223:
 884              	.LBB224:
 885              	.LBB225:
 886              		.loc 4 490 0
 887 0058 0023     		movs	r3, #0
 888              		.syntax unified
 889              	@ 490 "../os/common/ext/ARM/CMSIS/Core/Include/cmsis_gcc.h" 1
 890 005a 83F31188 		MSR basepri, r3
 891              	@ 0 "" 2
 892              	.LVL82:
 893              		.thumb
 894              		.syntax unified
 895              	.LBE225:
 896              	.LBE224:
 897              	.LBE223:
 898              	.LBE222:
 899              	.LBE221:
 900              	.LBE220:
 901              		.loc 1 429 0
 902 005e 2046     		mov	r0, r4
 903 0060 03B0     		add	sp, sp, #12
 904              		.cfi_remember_state
 905              		.cfi_def_cfa_offset 36
 906              		@ sp needed
 907 0062 BDE8F08F 		pop	{r4, r5, r6, r7, r8, r9, r10, fp, pc}
 908              	.LVL83:
 909              	.L68:
 910              		.cfi_restore_state
 911              		.loc 1 392 0
 912 0066 1446     		mov	r4, r2
ARM GAS  /var/folders/vd/czx34qs52cd_f3nb04sxmghc0000gn/T//cccDwg4y.s 			page 17


 913 0068 F6E7     		b	.L63
 914              		.cfi_endproc
 915              	.LFE321:
 916              		.size	iqReadTimeout, .-iqReadTimeout
 917 006a 00BF     		.section	.text.oqObjectInit,"ax",%progbits
 918              		.align	1
 919              		.p2align 4,,15
 920              		.global	oqObjectInit
 921              		.syntax unified
 922              		.thumb
 923              		.thumb_func
 924              		.fpu softvfp
 925              		.type	oqObjectInit, %function
 926              	oqObjectInit:
 927              	.LFB322:
 928              		.loc 1 447 0
 929              		.cfi_startproc
 930              		@ args = 4, pretend = 0, frame = 0
 931              		@ frame_needed = 0, uses_anonymous_args = 0
 932              		@ link register save eliminated.
 933              	.LVL84:
 934 0000 30B4     		push	{r4, r5}
 935              		.cfi_def_cfa_offset 8
 936              		.cfi_offset 4, -8
 937              		.cfi_offset 5, -4
 938              		.loc 1 447 0
 939 0002 029C     		ldr	r4, [sp, #8]
 940              		.loc 1 450 0
 941 0004 8260     		str	r2, [r0, #8]
 942              		.loc 1 454 0
 943 0006 8D18     		adds	r5, r1, r2
 944              		.loc 1 451 0
 945 0008 C0E90315 		strd	r1, r5, [r0, #12]
 946              		.loc 1 456 0
 947 000c C0E90734 		strd	r3, r4, [r0, #28]
 948              	.LBB226:
 949              	.LBB227:
 950              	.LBB228:
 951              	.LBB229:
 952              		.loc 2 540 0
 953 0010 C0E90000 		strd	r0, r0, [r0]
 954              	.LVL85:
 955              	.LBE229:
 956              	.LBE228:
 957              	.LBE227:
 958              	.LBE226:
 959              		.loc 1 453 0
 960 0014 C0E90511 		strd	r1, r1, [r0, #20]
 961              		.loc 1 457 0
 962 0018 30BC     		pop	{r4, r5}
 963              		.cfi_restore 5
 964              		.cfi_restore 4
 965              		.cfi_def_cfa_offset 0
 966              	.LVL86:
 967 001a 7047     		bx	lr
 968              		.cfi_endproc
 969              	.LFE322:
ARM GAS  /var/folders/vd/czx34qs52cd_f3nb04sxmghc0000gn/T//cccDwg4y.s 			page 18


 970              		.size	oqObjectInit, .-oqObjectInit
 971              		.section	.text.oqResetI,"ax",%progbits
 972              		.align	1
 973              		.p2align 4,,15
 974              		.global	oqResetI
 975              		.syntax unified
 976              		.thumb
 977              		.thumb_func
 978              		.fpu softvfp
 979              		.type	oqResetI, %function
 980              	oqResetI:
 981              	.LFB323:
 982              		.loc 1 470 0
 983              		.cfi_startproc
 984              		@ args = 0, pretend = 0, frame = 0
 985              		@ frame_needed = 0, uses_anonymous_args = 0
 986              		@ link register save eliminated.
 987              	.LVL87:
 988 0000 10B4     		push	{r4}
 989              		.cfi_def_cfa_offset 4
 990              		.cfi_offset 4, -4
 991              		.loc 1 476 0
 992 0002 D0E90342 		ldrd	r4, r2, [r0, #12]
 993 0006 121B     		subs	r2, r2, r4
 994              		.loc 1 474 0
 995 0008 8461     		str	r4, [r0, #24]
 996              		.loc 1 475 0
 997 000a 4461     		str	r4, [r0, #20]
 998              	.LBB230:
 999              	.LBB231:
 1000              		.loc 3 857 0
 1001 000c 6FF00101 		mvn	r1, #1
 1002              	.LBE231:
 1003              	.LBE230:
 1004              		.loc 1 476 0
 1005 0010 8260     		str	r2, [r0, #8]
 1006              	.LVL88:
 1007              		.loc 1 478 0
 1008 0012 10BC     		pop	{r4}
 1009              		.cfi_restore 4
 1010              		.cfi_def_cfa_offset 0
 1011              	.LBB233:
 1012              	.LBB232:
 1013              		.loc 3 857 0
 1014 0014 FFF7FEBF 		b	chThdDequeueAllI
 1015              	.LVL89:
 1016              	.LBE232:
 1017              	.LBE233:
 1018              		.cfi_endproc
 1019              	.LFE323:
 1020              		.size	oqResetI, .-oqResetI
 1021              		.section	.text.oqPutI,"ax",%progbits
 1022              		.align	1
 1023              		.p2align 4,,15
 1024              		.global	oqPutI
 1025              		.syntax unified
 1026              		.thumb
ARM GAS  /var/folders/vd/czx34qs52cd_f3nb04sxmghc0000gn/T//cccDwg4y.s 			page 19


 1027              		.thumb_func
 1028              		.fpu softvfp
 1029              		.type	oqPutI, %function
 1030              	oqPutI:
 1031              	.LFB324:
 1032              		.loc 1 494 0
 1033              		.cfi_startproc
 1034              		@ args = 0, pretend = 0, frame = 0
 1035              		@ frame_needed = 0, uses_anonymous_args = 0
 1036              	.LVL90:
 1037              		.loc 1 499 0
 1038 0000 8368     		ldr	r3, [r0, #8]
 1039 0002 A3B1     		cbz	r3, .L81
 1040              		.loc 1 502 0
 1041 0004 4269     		ldr	r2, [r0, #20]
 1042              		.loc 1 501 0
 1043 0006 8368     		ldr	r3, [r0, #8]
 1044              		.loc 1 494 0
 1045 0008 10B5     		push	{r4, lr}
 1046              		.cfi_def_cfa_offset 8
 1047              		.cfi_offset 4, -8
 1048              		.cfi_offset 14, -4
 1049              		.loc 1 501 0
 1050 000a 013B     		subs	r3, r3, #1
 1051              		.loc 1 502 0
 1052 000c 541C     		adds	r4, r2, #1
 1053 000e 4461     		str	r4, [r0, #20]
 1054              		.loc 1 501 0
 1055 0010 8360     		str	r3, [r0, #8]
 1056              		.loc 1 502 0
 1057 0012 1170     		strb	r1, [r2]
 1058              		.loc 1 503 0
 1059 0014 D0E90432 		ldrd	r3, r2, [r0, #16]
 1060 0018 9A42     		cmp	r2, r3
 1061              		.loc 1 504 0
 1062 001a 24BF     		itt	cs
 1063 001c C368     		ldrcs	r3, [r0, #12]
 1064 001e 4361     		strcs	r3, [r0, #20]
 1065              		.loc 1 508 0
 1066 0020 C369     		ldr	r3, [r0, #28]
 1067 0022 13B1     		cbz	r3, .L82
 1068              		.loc 1 509 0
 1069 0024 9847     		blx	r3
 1070              	.LVL91:
 1071              		.loc 1 512 0
 1072 0026 0020     		movs	r0, #0
 1073              		.loc 1 516 0
 1074 0028 10BD     		pop	{r4, pc}
 1075              	.LVL92:
 1076              	.L82:
 1077              		.loc 1 512 0
 1078 002a 1846     		mov	r0, r3
 1079              	.LVL93:
 1080              		.loc 1 516 0
 1081 002c 10BD     		pop	{r4, pc}
 1082              	.LVL94:
 1083              	.L81:
ARM GAS  /var/folders/vd/czx34qs52cd_f3nb04sxmghc0000gn/T//cccDwg4y.s 			page 20


 1084              		.cfi_def_cfa_offset 0
 1085              		.cfi_restore 4
 1086              		.cfi_restore 14
 1087              		.loc 1 515 0
 1088 002e 4FF0FF30 		mov	r0, #-1
 1089              	.LVL95:
 1090              		.loc 1 516 0
 1091 0032 7047     		bx	lr
 1092              		.cfi_endproc
 1093              	.LFE324:
 1094              		.size	oqPutI, .-oqPutI
 1095              		.section	.text.oqPutTimeout,"ax",%progbits
 1096              		.align	1
 1097              		.p2align 4,,15
 1098              		.global	oqPutTimeout
 1099              		.syntax unified
 1100              		.thumb
 1101              		.thumb_func
 1102              		.fpu softvfp
 1103              		.type	oqPutTimeout, %function
 1104              	oqPutTimeout:
 1105              	.LFB325:
 1106              		.loc 1 540 0
 1107              		.cfi_startproc
 1108              		@ args = 0, pretend = 0, frame = 0
 1109              		@ frame_needed = 0, uses_anonymous_args = 0
 1110              	.LVL96:
 1111 0000 F8B5     		push	{r3, r4, r5, r6, r7, lr}
 1112              		.cfi_def_cfa_offset 24
 1113              		.cfi_offset 3, -24
 1114              		.cfi_offset 4, -20
 1115              		.cfi_offset 5, -16
 1116              		.cfi_offset 6, -12
 1117              		.cfi_offset 7, -8
 1118              		.cfi_offset 14, -4
 1119              		.loc 1 540 0
 1120 0002 0446     		mov	r4, r0
 1121 0004 0F46     		mov	r7, r1
 1122 0006 1646     		mov	r6, r2
 1123              	.LBB234:
 1124              	.LBB235:
 1125              	.LBB236:
 1126              	.LBB237:
 1127              	.LBB238:
 1128              		.loc 4 490 0
 1129 0008 2023     		movs	r3, #32
 1130              		.syntax unified
 1131              	@ 490 "../os/common/ext/ARM/CMSIS/Core/Include/cmsis_gcc.h" 1
 1132 000a 83F31188 		MSR basepri, r3
 1133              	@ 0 "" 2
 1134              	.LVL97:
 1135              		.thumb
 1136              		.syntax unified
 1137 000e 03E0     		b	.L88
 1138              	.LVL98:
 1139              	.L90:
 1140              	.LBE238:
ARM GAS  /var/folders/vd/czx34qs52cd_f3nb04sxmghc0000gn/T//cccDwg4y.s 			page 21


 1141              	.LBE237:
 1142              	.LBE236:
 1143              	.LBE235:
 1144              	.LBE234:
 1145              	.LBB239:
 1146              	.LBB240:
 1147              	.LBB241:
 1148              		.loc 3 831 0
 1149 0010 FFF7FEFF 		bl	chThdEnqueueTimeoutS
 1150              	.LVL99:
 1151              	.LBE241:
 1152              	.LBE240:
 1153              		.loc 1 547 0
 1154 0014 0028     		cmp	r0, #0
 1155 0016 18DB     		blt	.L98
 1156              	.L88:
 1157              	.LVL100:
 1158              	.LBE239:
 1159              		.loc 1 545 0
 1160 0018 A568     		ldr	r5, [r4, #8]
 1161              	.LBB250:
 1162              	.LBB243:
 1163              	.LBB242:
 1164              		.loc 3 831 0
 1165 001a 3146     		mov	r1, r6
 1166 001c 2046     		mov	r0, r4
 1167              	.LBE242:
 1168              	.LBE243:
 1169              	.LBE250:
 1170              		.loc 1 545 0
 1171 001e 002D     		cmp	r5, #0
 1172 0020 F6D0     		beq	.L90
 1173              	.LVL101:
 1174              		.loc 1 555 0
 1175 0022 6269     		ldr	r2, [r4, #20]
 1176              		.loc 1 554 0
 1177 0024 A368     		ldr	r3, [r4, #8]
 1178              		.loc 1 555 0
 1179 0026 511C     		adds	r1, r2, #1
 1180              	.LVL102:
 1181              		.loc 1 554 0
 1182 0028 013B     		subs	r3, r3, #1
 1183              		.loc 1 555 0
 1184 002a 6161     		str	r1, [r4, #20]
 1185              		.loc 1 554 0
 1186 002c A360     		str	r3, [r4, #8]
 1187              		.loc 1 555 0
 1188 002e 1770     		strb	r7, [r2]
 1189              		.loc 1 556 0
 1190 0030 D4E90432 		ldrd	r3, r2, [r4, #16]
 1191 0034 9A42     		cmp	r2, r3
 1192              		.loc 1 557 0
 1193 0036 24BF     		itt	cs
 1194 0038 E368     		ldrcs	r3, [r4, #12]
 1195 003a 6361     		strcs	r3, [r4, #20]
 1196              		.loc 1 561 0
 1197 003c E369     		ldr	r3, [r4, #28]
ARM GAS  /var/folders/vd/czx34qs52cd_f3nb04sxmghc0000gn/T//cccDwg4y.s 			page 22


 1198 003e 03B1     		cbz	r3, .L92
 1199              		.loc 1 562 0
 1200 0040 9847     		blx	r3
 1201              	.LVL103:
 1202              	.L92:
 1203              	.LBB251:
 1204              	.LBB252:
 1205              	.LBB253:
 1206              	.LBB254:
 1207              	.LBB255:
 1208              	.LBB256:
 1209              		.loc 4 490 0
 1210 0042 0020     		movs	r0, #0
 1211              		.syntax unified
 1212              	@ 490 "../os/common/ext/ARM/CMSIS/Core/Include/cmsis_gcc.h" 1
 1213 0044 80F31188 		MSR basepri, r0
 1214              	@ 0 "" 2
 1215              	.LVL104:
 1216              		.thumb
 1217              		.syntax unified
 1218              	.LBE256:
 1219              	.LBE255:
 1220              	.LBE254:
 1221              	.LBE253:
 1222              	.LBE252:
 1223              	.LBE251:
 1224              		.loc 1 568 0
 1225 0048 F8BD     		pop	{r3, r4, r5, r6, r7, pc}
 1226              	.LVL105:
 1227              	.L98:
 1228              	.LBB257:
 1229              	.LBB244:
 1230              	.LBB245:
 1231              	.LBB246:
 1232              	.LBB247:
 1233              	.LBB248:
 1234              	.LBB249:
 1235              		.loc 4 490 0
 1236              		.syntax unified
 1237              	@ 490 "../os/common/ext/ARM/CMSIS/Core/Include/cmsis_gcc.h" 1
 1238 004a 85F31188 		MSR basepri, r5
 1239              	@ 0 "" 2
 1240              	.LVL106:
 1241              		.thumb
 1242              		.syntax unified
 1243              	.LBE249:
 1244              	.LBE248:
 1245              	.LBE247:
 1246              	.LBE246:
 1247              	.LBE245:
 1248              	.LBE244:
 1249              	.LBE257:
 1250              		.loc 1 568 0
 1251 004e F8BD     		pop	{r3, r4, r5, r6, r7, pc}
 1252              		.cfi_endproc
 1253              	.LFE325:
 1254              		.size	oqPutTimeout, .-oqPutTimeout
ARM GAS  /var/folders/vd/czx34qs52cd_f3nb04sxmghc0000gn/T//cccDwg4y.s 			page 23


 1255              		.section	.text.oqGetI,"ax",%progbits
 1256              		.align	1
 1257              		.p2align 4,,15
 1258              		.global	oqGetI
 1259              		.syntax unified
 1260              		.thumb
 1261              		.thumb_func
 1262              		.fpu softvfp
 1263              		.type	oqGetI, %function
 1264              	oqGetI:
 1265              	.LFB326:
 1266              		.loc 1 581 0
 1267              		.cfi_startproc
 1268              		@ args = 0, pretend = 0, frame = 0
 1269              		@ frame_needed = 0, uses_anonymous_args = 0
 1270              	.LVL107:
 1271 0000 38B5     		push	{r3, r4, r5, lr}
 1272              		.cfi_def_cfa_offset 16
 1273              		.cfi_offset 3, -16
 1274              		.cfi_offset 4, -12
 1275              		.cfi_offset 5, -8
 1276              		.cfi_offset 14, -4
 1277              		.loc 1 586 0
 1278 0002 D0E90523 		ldrd	r2, r3, [r0, #20]
 1279 0006 9A42     		cmp	r2, r3
 1280 0008 0FD0     		beq	.L106
 1281              	.L100:
 1282              	.LBB258:
 1283              		.loc 1 589 0
 1284 000a 8268     		ldr	r2, [r0, #8]
 1285              		.loc 1 591 0
 1286 000c 0569     		ldr	r5, [r0, #16]
 1287              		.loc 1 590 0
 1288 000e 591C     		adds	r1, r3, #1
 1289              		.loc 1 589 0
 1290 0010 0132     		adds	r2, r2, #1
 1291 0012 8260     		str	r2, [r0, #8]
 1292              		.loc 1 590 0
 1293 0014 8161     		str	r1, [r0, #24]
 1294              		.loc 1 591 0
 1295 0016 A942     		cmp	r1, r5
 1296              		.loc 1 590 0
 1297 0018 1C78     		ldrb	r4, [r3]	@ zero_extendqisi2
 1298              	.LVL108:
 1299              		.loc 1 591 0
 1300 001a 01D3     		bcc	.L103
 1301              		.loc 1 592 0
 1302 001c C368     		ldr	r3, [r0, #12]
 1303 001e 8361     		str	r3, [r0, #24]
 1304              	.L103:
 1305              	.LVL109:
 1306              	.LBB259:
 1307              	.LBB260:
 1308              		.loc 3 844 0
 1309 0020 0021     		movs	r1, #0
 1310 0022 FFF7FEFF 		bl	chThdDequeueNextI
 1311              	.LVL110:
ARM GAS  /var/folders/vd/czx34qs52cd_f3nb04sxmghc0000gn/T//cccDwg4y.s 			page 24


 1312              	.LBE260:
 1313              	.LBE259:
 1314              		.loc 1 597 0
 1315 0026 2046     		mov	r0, r4
 1316              	.LBE258:
 1317              		.loc 1 601 0
 1318 0028 38BD     		pop	{r3, r4, r5, pc}
 1319              	.LVL111:
 1320              	.L106:
 1321              		.loc 1 586 0 discriminator 1
 1322 002a 8268     		ldr	r2, [r0, #8]
 1323 002c 002A     		cmp	r2, #0
 1324 002e ECD0     		beq	.L100
 1325              		.loc 1 600 0
 1326 0030 4FF0FF30 		mov	r0, #-1
 1327              	.LVL112:
 1328              		.loc 1 601 0
 1329 0034 38BD     		pop	{r3, r4, r5, pc}
 1330              		.cfi_endproc
 1331              	.LFE326:
 1332              		.size	oqGetI, .-oqGetI
 1333 0036 00BF     		.section	.text.oqWriteI,"ax",%progbits
 1334              		.align	1
 1335              		.p2align 4,,15
 1336              		.global	oqWriteI
 1337              		.syntax unified
 1338              		.thumb
 1339              		.thumb_func
 1340              		.fpu softvfp
 1341              		.type	oqWriteI, %function
 1342              	oqWriteI:
 1343              	.LFB327:
 1344              		.loc 1 617 0
 1345              		.cfi_startproc
 1346              		@ args = 0, pretend = 0, frame = 0
 1347              		@ frame_needed = 0, uses_anonymous_args = 0
 1348              	.LVL113:
 1349 0000 70B5     		push	{r4, r5, r6, lr}
 1350              		.cfi_def_cfa_offset 16
 1351              		.cfi_offset 4, -16
 1352              		.cfi_offset 5, -12
 1353              		.cfi_offset 6, -8
 1354              		.cfi_offset 14, -4
 1355              		.loc 1 617 0
 1356 0002 0546     		mov	r5, r0
 1357              		.loc 1 618 0
 1358 0004 C669     		ldr	r6, [r0, #28]
 1359              	.LVL114:
 1360              		.loc 1 623 0
 1361 0006 FFF7FEFF 		bl	oq_write
 1362              	.LVL115:
 1363              		.loc 1 627 0
 1364 000a 0446     		mov	r4, r0
 1365 000c 10B1     		cbz	r0, .L107
 1366              		.loc 1 627 0 is_stmt 0 discriminator 1
 1367 000e 0EB1     		cbz	r6, .L107
 1368              		.loc 1 628 0 is_stmt 1
ARM GAS  /var/folders/vd/czx34qs52cd_f3nb04sxmghc0000gn/T//cccDwg4y.s 			page 25


 1369 0010 2846     		mov	r0, r5
 1370              	.LVL116:
 1371 0012 B047     		blx	r6
 1372              	.LVL117:
 1373              	.L107:
 1374              		.loc 1 632 0
 1375 0014 2046     		mov	r0, r4
 1376 0016 70BD     		pop	{r4, r5, r6, pc}
 1377              		.cfi_endproc
 1378              	.LFE327:
 1379              		.size	oqWriteI, .-oqWriteI
 1380              		.section	.text.oqWriteTimeout,"ax",%progbits
 1381              		.align	1
 1382              		.p2align 4,,15
 1383              		.global	oqWriteTimeout
 1384              		.syntax unified
 1385              		.thumb
 1386              		.thumb_func
 1387              		.fpu softvfp
 1388              		.type	oqWriteTimeout, %function
 1389              	oqWriteTimeout:
 1390              	.LFB328:
 1391              		.loc 1 659 0
 1392              		.cfi_startproc
 1393              		@ args = 0, pretend = 0, frame = 8
 1394              		@ frame_needed = 0, uses_anonymous_args = 0
 1395              	.LVL118:
 1396 0000 2DE9F04F 		push	{r4, r5, r6, r7, r8, r9, r10, fp, lr}
 1397              		.cfi_def_cfa_offset 36
 1398              		.cfi_offset 4, -36
 1399              		.cfi_offset 5, -32
 1400              		.cfi_offset 6, -28
 1401              		.cfi_offset 7, -24
 1402              		.cfi_offset 8, -20
 1403              		.cfi_offset 9, -16
 1404              		.cfi_offset 10, -12
 1405              		.cfi_offset 11, -8
 1406              		.cfi_offset 14, -4
 1407 0004 83B0     		sub	sp, sp, #12
 1408              		.cfi_def_cfa_offset 48
 1409              		.loc 1 659 0
 1410 0006 1746     		mov	r7, r2
 1411 0008 0193     		str	r3, [sp, #4]
 1412              		.loc 1 660 0
 1413 000a D0F81C80 		ldr	r8, [r0, #28]
 1414              	.LVL119:
 1415              	.LBB261:
 1416              	.LBB262:
 1417              	.LBB263:
 1418              	.LBB264:
 1419              	.LBB265:
 1420              		.loc 4 490 0
 1421 000e 4FF02009 		mov	r9, #32
 1422              		.syntax unified
 1423              	@ 490 "../os/common/ext/ARM/CMSIS/Core/Include/cmsis_gcc.h" 1
 1424 0012 89F31188 		MSR basepri, r9
 1425              	@ 0 "" 2
ARM GAS  /var/folders/vd/czx34qs52cd_f3nb04sxmghc0000gn/T//cccDwg4y.s 			page 26


 1426              	.LVL120:
 1427              		.thumb
 1428              		.syntax unified
 1429              	.LBE265:
 1430              	.LBE264:
 1431              	.LBE263:
 1432              	.LBE262:
 1433              	.LBE261:
 1434              		.loc 1 667 0
 1435 0016 32B3     		cbz	r2, .L122
 1436              		.loc 1 661 0
 1437 0018 0024     		movs	r4, #0
 1438 001a 0646     		mov	r6, r0
 1439 001c 0D46     		mov	r5, r1
 1440              	.LBB266:
 1441              	.LBB267:
 1442              	.LBB268:
 1443              	.LBB269:
 1444              	.LBB270:
 1445              	.LBB271:
 1446              	.LBB272:
 1447              		.loc 4 490 0
 1448 001e A246     		mov	r10, r4
 1449 0020 0CE0     		b	.L121
 1450              	.LVL121:
 1451              	.L118:
 1452              	.LBE272:
 1453              	.LBE271:
 1454              	.LBE270:
 1455              	.LBE269:
 1456              	.LBE268:
 1457              	.LBE267:
 1458              		.loc 1 683 0
 1459 0022 3046     		mov	r0, r6
 1460              	.LVL122:
 1461              		.loc 1 682 0
 1462 0024 B8F1000F 		cmp	r8, #0
 1463 0028 00D0     		beq	.L120
 1464              	.LVL123:
 1465              		.loc 1 683 0
 1466 002a C047     		blx	r8
 1467              	.LVL124:
 1468              	.L120:
 1469              	.LBB278:
 1470              	.LBB277:
 1471              	.LBB276:
 1472              	.LBB275:
 1473              	.LBB274:
 1474              	.LBB273:
 1475              		.loc 4 490 0
 1476              		.syntax unified
 1477              	@ 490 "../os/common/ext/ARM/CMSIS/Core/Include/cmsis_gcc.h" 1
 1478 002c 8AF31188 		MSR basepri, r10
 1479              	@ 0 "" 2
 1480              	.LVL125:
 1481              		.thumb
 1482              		.syntax unified
ARM GAS  /var/folders/vd/czx34qs52cd_f3nb04sxmghc0000gn/T//cccDwg4y.s 			page 27


 1483              	.LBE273:
 1484              	.LBE274:
 1485              	.LBE275:
 1486              	.LBE276:
 1487              	.LBE277:
 1488              	.LBE278:
 1489              		.loc 1 689 0
 1490 0030 5C44     		add	r4, r4, fp
 1491              	.LVL126:
 1492              		.loc 1 690 0
 1493 0032 5D44     		add	r5, r5, fp
 1494              	.LVL127:
 1495              	.LBB279:
 1496              	.LBB280:
 1497              	.LBB281:
 1498              	.LBB282:
 1499              	.LBB283:
 1500              		.loc 4 490 0
 1501              		.syntax unified
 1502              	@ 490 "../os/common/ext/ARM/CMSIS/Core/Include/cmsis_gcc.h" 1
 1503 0034 89F31188 		MSR basepri, r9
 1504              	@ 0 "" 2
 1505              	.LVL128:
 1506              		.thumb
 1507              		.syntax unified
 1508              	.L119:
 1509              	.LBE283:
 1510              	.LBE282:
 1511              	.LBE281:
 1512              	.LBE280:
 1513              	.LBE279:
 1514              	.LBE266:
 1515              		.loc 1 667 0
 1516 0038 A742     		cmp	r7, r4
 1517 003a 0DD9     		bls	.L117
 1518              	.LVL129:
 1519              	.L121:
 1520              	.LBB287:
 1521              		.loc 1 670 0
 1522 003c 3A46     		mov	r2, r7
 1523 003e 2946     		mov	r1, r5
 1524 0040 3046     		mov	r0, r6
 1525 0042 FFF7FEFF 		bl	oq_write
 1526              	.LVL130:
 1527              		.loc 1 671 0
 1528 0046 8346     		mov	fp, r0
 1529 0048 0028     		cmp	r0, #0
 1530 004a EAD1     		bne	.L118
 1531              	.LVL131:
 1532              	.LBB284:
 1533              	.LBB285:
 1534              	.LBB286:
 1535              		.loc 3 831 0
 1536 004c 0199     		ldr	r1, [sp, #4]
 1537 004e 3046     		mov	r0, r6
 1538              	.LVL132:
 1539 0050 FFF7FEFF 		bl	chThdEnqueueTimeoutS
ARM GAS  /var/folders/vd/czx34qs52cd_f3nb04sxmghc0000gn/T//cccDwg4y.s 			page 28


 1540              	.LVL133:
 1541              	.LBE286:
 1542              	.LBE285:
 1543              		.loc 1 675 0
 1544 0054 0028     		cmp	r0, #0
 1545 0056 EFD0     		beq	.L119
 1546              	.LVL134:
 1547              	.L117:
 1548              	.LBE284:
 1549              	.LBE287:
 1550              	.LBB288:
 1551              	.LBB289:
 1552              	.LBB290:
 1553              	.LBB291:
 1554              	.LBB292:
 1555              	.LBB293:
 1556              		.loc 4 490 0
 1557 0058 0023     		movs	r3, #0
 1558              		.syntax unified
 1559              	@ 490 "../os/common/ext/ARM/CMSIS/Core/Include/cmsis_gcc.h" 1
 1560 005a 83F31188 		MSR basepri, r3
 1561              	@ 0 "" 2
 1562              	.LVL135:
 1563              		.thumb
 1564              		.syntax unified
 1565              	.LBE293:
 1566              	.LBE292:
 1567              	.LBE291:
 1568              	.LBE290:
 1569              	.LBE289:
 1570              	.LBE288:
 1571              		.loc 1 698 0
 1572 005e 2046     		mov	r0, r4
 1573 0060 03B0     		add	sp, sp, #12
 1574              		.cfi_remember_state
 1575              		.cfi_def_cfa_offset 36
 1576              		@ sp needed
 1577 0062 BDE8F08F 		pop	{r4, r5, r6, r7, r8, r9, r10, fp, pc}
 1578              	.LVL136:
 1579              	.L122:
 1580              		.cfi_restore_state
 1581              		.loc 1 661 0
 1582 0066 1446     		mov	r4, r2
 1583 0068 F6E7     		b	.L117
 1584              		.cfi_endproc
 1585              	.LFE328:
 1586              		.size	oqWriteTimeout, .-oqWriteTimeout
 1587 006a 00BF     		.text
 1588              	.Letext0:
 1589              		.file 5 "/usr/local/Cellar/gcc-arm-none-eabi/20171218/lib/gcc/arm-none-eabi/7.2.1/include/stddef.h
 1590              		.file 6 "/usr/local/Cellar/gcc-arm-none-eabi/20171218/arm-none-eabi/include/machine/_default_types
 1591              		.file 7 "/usr/local/Cellar/gcc-arm-none-eabi/20171218/arm-none-eabi/include/sys/lock.h"
 1592              		.file 8 "/usr/local/Cellar/gcc-arm-none-eabi/20171218/arm-none-eabi/include/sys/_types.h"
 1593              		.file 9 "/usr/local/Cellar/gcc-arm-none-eabi/20171218/arm-none-eabi/include/sys/reent.h"
 1594              		.file 10 "/usr/local/Cellar/gcc-arm-none-eabi/20171218/arm-none-eabi/include/sys/_stdint.h"
 1595              		.file 11 "../os/common/ports/ARMCMx/compilers/GCC/chtypes.h"
 1596              		.file 12 "../os/rt/include/chsystypes.h"
ARM GAS  /var/folders/vd/czx34qs52cd_f3nb04sxmghc0000gn/T//cccDwg4y.s 			page 29


 1597              		.file 13 "../os/rt/include/chtime.h"
 1598              		.file 14 "../os/common/ext/ARM/CMSIS/Core/Include/core_cm4.h"
 1599              		.file 15 "../os/common/ext/ST/STM32F4xx/system_stm32f4xx.h"
 1600              		.file 16 "../os/common/ext/ST/STM32F4xx/stm32f407xx.h"
 1601              		.file 17 "../os/common/ports/ARMCMx/chcore.h"
 1602              		.file 18 "../os/common/ports/ARMCMx/chcore_v7m.h"
 1603              		.file 19 "../os/hal/ports/STM32/LLD/TIMv1/stm32_tim.h"
 1604              		.file 20 "../os/rt/include/chtm.h"
 1605              		.file 21 "../os/rt/include/chsem.h"
 1606              		.file 22 "../os/rt/include/chmtx.h"
 1607              		.file 23 "../os/rt/include/chsys.h"
 1608              		.file 24 "../os/rt/include/chregistry.h"
 1609              		.file 25 "../os/rt/include/chevents.h"
 1610              		.file 26 "../os/common/oslib/include/chmemcore.h"
 1611              		.file 27 "../os/common/oslib/include/chmempools.h"
 1612              		.file 28 "../os/common/oslib/include/chfactory.h"
 1613              		.file 29 "../os/hal/ports/STM32/LLD/DMAv2/stm32_dma.h"
 1614              		.file 30 "../os/hal/include/hal_queues.h"
 1615              		.file 31 "../os/hal/include/hal_pal.h"
 1616              		.file 32 "../os/hal/ports/STM32/LLD/GPIOv2/hal_pal_lld.h"
 1617              		.file 33 "../os/hal/include/hal_pwm.h"
 1618              		.file 34 "../os/hal/ports/STM32/LLD/TIMv1/hal_pwm_lld.h"
 1619              		.file 35 "../os/hal/include/hal_serial.h"
 1620              		.file 36 "../os/hal/ports/STM32/LLD/USARTv1/hal_serial_lld.h"
 1621              		.file 37 "../os/rt/include/chthreads.h"
 1622              		.file 38 "<built-in>"