ARM GAS  /var/folders/vd/czx34qs52cd_f3nb04sxmghc0000gn/T//cc0YHMts.s 			page 1


   1              		.cpu cortex-m4
   2              		.eabi_attribute 20, 1
   3              		.eabi_attribute 21, 1
   4              		.eabi_attribute 23, 3
   5              		.eabi_attribute 24, 1
   6              		.eabi_attribute 25, 1
   7              		.eabi_attribute 26, 1
   8              		.eabi_attribute 30, 2
   9              		.eabi_attribute 34, 1
  10              		.eabi_attribute 18, 4
  11              		.file	"hal_st_lld.c"
  12              		.text
  13              	.Ltext0:
  14              		.cfi_sections	.debug_frame
  15              		.section	.text.VectorB0,"ax",%progbits
  16              		.align	1
  17              		.p2align 4,,15
  18              		.global	VectorB0
  19              		.syntax unified
  20              		.thumb
  21              		.thumb_func
  22              		.fpu softvfp
  23              		.type	VectorB0, %function
  24              	VectorB0:
  25              	.LFB313:
  26              		.file 1 "../os/hal/ports/STM32/LLD/TIMv1/hal_st_lld.c"
  27              		.loc 1 253 0
  28              		.cfi_startproc
  29              		@ args = 0, pretend = 0, frame = 0
  30              		@ frame_needed = 0, uses_anonymous_args = 0
  31              		.loc 1 260 0
  32 0000 4FF08043 		mov	r3, #1073741824
  33 0004 1A69     		ldr	r2, [r3, #16]
  34 0006 9207     		lsls	r2, r2, #30
  35 0008 01D4     		bmi	.L11
  36              		.loc 1 268 0
  37 000a FFF7FEBF 		b	_port_irq_epilogue
  38              	.LVL0:
  39              	.L11:
  40              		.loc 1 253 0
  41 000e 10B5     		push	{r4, lr}
  42              		.cfi_def_cfa_offset 8
  43              		.cfi_offset 4, -8
  44              		.cfi_offset 14, -4
  45              		.loc 1 261 0
  46 0010 0024     		movs	r4, #0
  47 0012 1C61     		str	r4, [r3, #16]
  48              	.LVL1:
  49              	.LBB52:
  50              	.LBB53:
  51              	.LBB54:
  52              	.LBB55:
  53              	.LBB56:
  54              	.LBB57:
  55              		.file 2 "../os/common/ext/ARM/CMSIS/Core/Include/cmsis_gcc.h"
  56              		.loc 2 490 0
  57 0014 2023     		movs	r3, #32
ARM GAS  /var/folders/vd/czx34qs52cd_f3nb04sxmghc0000gn/T//cc0YHMts.s 			page 2


  58              		.syntax unified
  59              	@ 490 "../os/common/ext/ARM/CMSIS/Core/Include/cmsis_gcc.h" 1
  60 0016 83F31188 		MSR basepri, r3
  61              	@ 0 "" 2
  62              	.LVL2:
  63              		.thumb
  64              		.syntax unified
  65              	.LBE57:
  66              	.LBE56:
  67              	.LBE55:
  68              	.LBE54:
  69              	.LBE53:
  70              	.LBE52:
  71              	.LBB58:
  72              	.LBB59:
  73              		.file 3 "../os/hal/osal/rt/osal.h"
  74              		.loc 3 603 0
  75 001a FFF7FEFF 		bl	chSysTimerHandlerI
  76              	.LVL3:
  77              	.LBE59:
  78              	.LBE58:
  79              	.LBB60:
  80              	.LBB61:
  81              	.LBB62:
  82              	.LBB63:
  83              	.LBB64:
  84              	.LBB65:
  85              		.loc 2 490 0
  86              		.syntax unified
  87              	@ 490 "../os/common/ext/ARM/CMSIS/Core/Include/cmsis_gcc.h" 1
  88 001e 84F31188 		MSR basepri, r4
  89              	@ 0 "" 2
  90              	.LVL4:
  91              		.thumb
  92              		.syntax unified
  93              	.LBE65:
  94              	.LBE64:
  95              	.LBE63:
  96              	.LBE62:
  97              	.LBE61:
  98              	.LBE60:
  99              		.loc 1 269 0
 100 0022 BDE81040 		pop	{r4, lr}
 101              		.cfi_restore 14
 102              		.cfi_restore 4
 103              		.cfi_def_cfa_offset 0
 104              		.loc 1 268 0
 105 0026 FFF7FEBF 		b	_port_irq_epilogue
 106              	.LVL5:
 107              		.cfi_endproc
 108              	.LFE313:
 109              		.size	VectorB0, .-VectorB0
 110 002a 00BF     		.section	.text.st_lld_init,"ax",%progbits
 111              		.align	1
 112              		.p2align 4,,15
 113              		.global	st_lld_init
 114              		.syntax unified
ARM GAS  /var/folders/vd/czx34qs52cd_f3nb04sxmghc0000gn/T//cc0YHMts.s 			page 3


 115              		.thumb
 116              		.thumb_func
 117              		.fpu softvfp
 118              		.type	st_lld_init, %function
 119              	st_lld_init:
 120              	.LFB314:
 121              		.loc 1 281 0
 122              		.cfi_startproc
 123              		@ args = 0, pretend = 0, frame = 0
 124              		@ frame_needed = 0, uses_anonymous_args = 0
 125              		@ link register save eliminated.
 126              		.loc 1 287 0
 127 0000 114B     		ldr	r3, .L14
 128              		.loc 1 290 0
 129 0002 1248     		ldr	r0, .L14+4
 130              		.loc 1 287 0
 131 0004 1A6C     		ldr	r2, [r3, #64]
 132 0006 42F00102 		orr	r2, r2, #1
 133              		.loc 1 281 0
 134 000a 70B4     		push	{r4, r5, r6}
 135              		.cfi_def_cfa_offset 12
 136              		.cfi_offset 4, -12
 137              		.cfi_offset 5, -8
 138              		.cfi_offset 6, -4
 139              		.loc 1 287 0
 140 000c 1A64     		str	r2, [r3, #64]
 141 000e 1A6E     		ldr	r2, [r3, #96]
 142 0010 42F00102 		orr	r2, r2, #1
 143 0014 1A66     		str	r2, [r3, #96]
 144              		.loc 1 290 0
 145 0016 8168     		ldr	r1, [r0, #8]
 146              		.loc 1 293 0
 147 0018 4FF08043 		mov	r3, #1073741824
 148              		.loc 1 295 0
 149 001c 0022     		movs	r2, #0
 150              		.loc 1 299 0
 151 001e 0124     		movs	r4, #1
 152              		.loc 1 290 0
 153 0020 41F00101 		orr	r1, r1, #1
 154              		.loc 1 293 0
 155 0024 42F2CF06 		movw	r6, #8399
 156              		.loc 1 294 0
 157 0028 4FF0FF35 		mov	r5, #-1
 158              		.loc 1 290 0
 159 002c 8160     		str	r1, [r0, #8]
 160              		.loc 1 293 0
 161 002e 9E62     		str	r6, [r3, #40]
 162              		.loc 1 303 0
 163 0030 0821     		movs	r1, #8
 164              		.loc 1 294 0
 165 0032 DD62     		str	r5, [r3, #44]
 166              		.loc 1 303 0
 167 0034 1C20     		movs	r0, #28
 168              		.loc 1 295 0
 169 0036 9A61     		str	r2, [r3, #24]
 170              		.loc 1 296 0
 171 0038 5A63     		str	r2, [r3, #52]
ARM GAS  /var/folders/vd/czx34qs52cd_f3nb04sxmghc0000gn/T//cc0YHMts.s 			page 4


 172              		.loc 1 297 0
 173 003a DA60     		str	r2, [r3, #12]
 174              		.loc 1 298 0
 175 003c 5A60     		str	r2, [r3, #4]
 176              		.loc 1 299 0
 177 003e 5C61     		str	r4, [r3, #20]
 178              		.loc 1 300 0
 179 0040 1C60     		str	r4, [r3]
 180              		.loc 1 318 0
 181 0042 70BC     		pop	{r4, r5, r6}
 182              		.cfi_restore 6
 183              		.cfi_restore 5
 184              		.cfi_restore 4
 185              		.cfi_def_cfa_offset 0
 186              		.loc 1 303 0
 187 0044 FFF7FEBF 		b	nvicEnableVector
 188              	.LVL6:
 189              	.L15:
 190              		.align	2
 191              	.L14:
 192 0048 00380240 		.word	1073887232
 193 004c 002004E0 		.word	-536600576
 194              		.cfi_endproc
 195              	.LFE314:
 196              		.size	st_lld_init, .-st_lld_init
 197              		.text
 198              	.Letext0:
 199              		.file 4 "/usr/local/Cellar/gcc-arm-none-eabi/20171218/lib/gcc/arm-none-eabi/7.2.1/include/stddef.h
 200              		.file 5 "/usr/local/Cellar/gcc-arm-none-eabi/20171218/arm-none-eabi/include/machine/_default_types
 201              		.file 6 "/usr/local/Cellar/gcc-arm-none-eabi/20171218/arm-none-eabi/include/sys/_stdint.h"
 202              		.file 7 "../os/common/ports/ARMCMx/compilers/GCC/chtypes.h"
 203              		.file 8 "../os/rt/include/chsystypes.h"
 204              		.file 9 "../os/rt/include/chschd.h"
 205              		.file 10 "../os/rt/include/chtime.h"
 206              		.file 11 "../os/common/ext/ARM/CMSIS/Core/Include/core_cm4.h"
 207              		.file 12 "../os/common/ext/ST/STM32F4xx/system_stm32f4xx.h"
 208              		.file 13 "../os/common/ext/ST/STM32F4xx/stm32f407xx.h"
 209              		.file 14 "../os/common/ports/ARMCMx/chcore.h"
 210              		.file 15 "../os/common/ports/ARMCMx/chcore_v7m.h"
 211              		.file 16 "../os/hal/ports/STM32/LLD/TIMv1/stm32_tim.h"
 212              		.file 17 "../os/rt/include/chtm.h"
 213              		.file 18 "../os/rt/include/chsem.h"
 214              		.file 19 "../os/rt/include/chmtx.h"
 215              		.file 20 "../os/rt/include/chsys.h"
 216              		.file 21 "../os/rt/include/chregistry.h"
 217              		.file 22 "../os/rt/include/chevents.h"
 218              		.file 23 "../os/common/oslib/include/chmemcore.h"
 219              		.file 24 "../os/common/oslib/include/chmempools.h"
 220              		.file 25 "../os/common/oslib/include/chfactory.h"
 221              		.file 26 "../os/hal/ports/STM32/LLD/DMAv2/stm32_dma.h"
 222              		.file 27 "../os/hal/include/hal_queues.h"
 223              		.file 28 "../os/hal/include/hal_pal.h"
 224              		.file 29 "../os/hal/ports/STM32/LLD/GPIOv2/hal_pal_lld.h"
 225              		.file 30 "../os/hal/include/hal_pwm.h"
 226              		.file 31 "../os/hal/ports/STM32/LLD/TIMv1/hal_pwm_lld.h"
 227              		.file 32 "../os/hal/include/hal_serial.h"
 228              		.file 33 "../os/hal/ports/STM32/LLD/USARTv1/hal_serial_lld.h"
ARM GAS  /var/folders/vd/czx34qs52cd_f3nb04sxmghc0000gn/T//cc0YHMts.s 			page 5


 229              		.file 34 "../os/hal/ports/common/ARMCMx/nvic.h"