ARM GAS  /var/folders/vd/czx34qs52cd_f3nb04sxmghc0000gn/T//ccI0nIfk.s 			page 1


   1              		.cpu cortex-m4
   2              		.eabi_attribute 20, 1
   3              		.eabi_attribute 21, 1
   4              		.eabi_attribute 23, 3
   5              		.eabi_attribute 24, 1
   6              		.eabi_attribute 25, 1
   7              		.eabi_attribute 26, 1
   8              		.eabi_attribute 30, 2
   9              		.eabi_attribute 34, 1
  10              		.eabi_attribute 18, 4
  11              		.file	"hal_pwm_lld.c"
  12              		.text
  13              	.Ltext0:
  14              		.cfi_sections	.debug_frame
  15              		.section	.text.pwm_lld_init,"ax",%progbits
  16              		.align	1
  17              		.p2align 4,,15
  18              		.global	pwm_lld_init
  19              		.syntax unified
  20              		.thumb
  21              		.thumb_func
  22              		.fpu softvfp
  23              		.type	pwm_lld_init, %function
  24              	pwm_lld_init:
  25              	.LFB314:
  26              		.file 1 "../os/hal/ports/STM32/LLD/TIMv1/hal_pwm_lld.c"
  27              		.loc 1 307 0
  28              		.cfi_startproc
  29              		@ args = 0, pretend = 0, frame = 0
  30              		@ frame_needed = 0, uses_anonymous_args = 0
  31 0000 10B5     		push	{r4, lr}
  32              		.cfi_def_cfa_offset 8
  33              		.cfi_offset 4, -8
  34              		.cfi_offset 14, -4
  35              		.loc 1 332 0
  36 0002 044C     		ldr	r4, .L4
  37 0004 2046     		mov	r0, r4
  38 0006 FFF7FEFF 		bl	pwmObjectInit
  39              	.LVL0:
  40              		.loc 1 333 0
  41 000a 0422     		movs	r2, #4
  42              		.loc 1 334 0
  43 000c 024B     		ldr	r3, .L4+4
  44              		.loc 1 333 0
  45 000e 2274     		strb	r2, [r4, #16]
  46              		.loc 1 334 0
  47 0010 A361     		str	r3, [r4, #24]
  48              		.loc 1 357 0
  49 0012 10BD     		pop	{r4, pc}
  50              	.L5:
  51              		.align	2
  52              	.L4:
  53 0014 00000000 		.word	.LANCHOR0
  54 0018 00080040 		.word	1073743872
  55              		.cfi_endproc
  56              	.LFE314:
  57              		.size	pwm_lld_init, .-pwm_lld_init
ARM GAS  /var/folders/vd/czx34qs52cd_f3nb04sxmghc0000gn/T//ccI0nIfk.s 			page 2


  58              		.section	.text.pwm_lld_start,"ax",%progbits
  59              		.align	1
  60              		.p2align 4,,15
  61              		.global	pwm_lld_start
  62              		.syntax unified
  63              		.thumb
  64              		.thumb_func
  65              		.fpu softvfp
  66              		.type	pwm_lld_start, %function
  67              	pwm_lld_start:
  68              	.LFB315:
  69              		.loc 1 368 0
  70              		.cfi_startproc
  71              		@ args = 0, pretend = 0, frame = 0
  72              		@ frame_needed = 0, uses_anonymous_args = 0
  73              	.LVL1:
  74              		.loc 1 372 0
  75 0000 0378     		ldrb	r3, [r0]	@ zero_extendqisi2
  76 0002 012B     		cmp	r3, #1
  77              		.loc 1 368 0
  78 0004 70B5     		push	{r4, r5, r6, lr}
  79              		.cfi_def_cfa_offset 16
  80              		.cfi_offset 4, -16
  81              		.cfi_offset 5, -12
  82              		.cfi_offset 6, -8
  83              		.cfi_offset 14, -4
  84              		.loc 1 368 0
  85 0006 0446     		mov	r4, r0
  86              		.loc 1 372 0
  87 0008 4BD0     		beq	.L34
  88              		.loc 1 494 0
  89 000a 8369     		ldr	r3, [r0, #24]
  90 000c 0022     		movs	r2, #0
  91 000e 1A60     		str	r2, [r3]
  92              		.loc 1 495 0
  93 0010 5A63     		str	r2, [r3, #52]
  94              		.loc 1 496 0
  95 0012 9A63     		str	r2, [r3, #56]
  96              		.loc 1 497 0
  97 0014 DA63     		str	r2, [r3, #60]
  98              		.loc 1 498 0
  99 0016 1A64     		str	r2, [r3, #64]
 100              		.loc 1 505 0
 101 0018 5A62     		str	r2, [r3, #36]
 102              	.LVL2:
 103              	.L9:
 104              		.loc 1 514 0
 105 001a D4E90115 		ldrd	r1, r5, [r4, #4]
 106              		.loc 1 519 0
 107 001e CA68     		ldr	r2, [r1, #12]
 108              		.loc 1 509 0
 109 0020 6069     		ldr	r0, [r4, #20]
 110 0022 0E68     		ldr	r6, [r1]
 111 0024 B0FBF6F0 		udiv	r0, r0, r6
 112              		.loc 1 519 0
 113 0028 02F00F02 		and	r2, r2, #15
 114              		.loc 1 514 0
ARM GAS  /var/folders/vd/czx34qs52cd_f3nb04sxmghc0000gn/T//ccI0nIfk.s 			page 3


 115 002c 6C1E     		subs	r4, r5, #1
 116              	.LVL3:
 117              		.loc 1 509 0
 118 002e 0138     		subs	r0, r0, #1
 119              	.LVL4:
 120              		.loc 1 515 0
 121 0030 CD6A     		ldr	r5, [r1, #44]
 122              		.loc 1 513 0
 123 0032 9862     		str	r0, [r3, #40]
 124              		.loc 1 519 0
 125 0034 012A     		cmp	r2, #1
 126              		.loc 1 514 0
 127 0036 DC62     		str	r4, [r3, #44]
 128              		.loc 1 515 0
 129 0038 5D60     		str	r5, [r3, #4]
 130              	.LVL5:
 131              		.loc 1 519 0
 132 003a 03D0     		beq	.L10
 133              		.loc 1 518 0
 134 003c 022A     		cmp	r2, #2
 135 003e 0CBF     		ite	eq
 136 0040 0322     		moveq	r2, #3
 137 0042 0022     		movne	r2, #0
 138              	.L10:
 139              	.LVL6:
 140              		.loc 1 529 0
 141 0044 4869     		ldr	r0, [r1, #20]
 142              	.LVL7:
 143 0046 00F00F00 		and	r0, r0, #15
 144 004a 0128     		cmp	r0, #1
 145 004c 26D0     		beq	.L14
 146 004e 0228     		cmp	r0, #2
 147 0050 22D0     		beq	.L35
 148              	.L13:
 149              		.loc 1 539 0
 150 0052 C869     		ldr	r0, [r1, #28]
 151 0054 00F00F00 		and	r0, r0, #15
 152 0058 0128     		cmp	r0, #1
 153 005a 1AD0     		beq	.L17
 154 005c 0228     		cmp	r0, #2
 155 005e 16D0     		beq	.L36
 156              	.L16:
 157              		.loc 1 549 0
 158 0060 486A     		ldr	r0, [r1, #36]
 159 0062 00F00F00 		and	r0, r0, #15
 160 0066 0128     		cmp	r0, #1
 161 0068 03D0     		beq	.L20
 162 006a 0228     		cmp	r0, #2
 163 006c 03D1     		bne	.L19
 164              		.loc 1 551 0
 165 006e 42F40052 		orr	r2, r2, #8192
 166              	.LVL8:
 167              	.L20:
 168              		.loc 1 554 0
 169 0072 42F48052 		orr	r2, r2, #4096
 170              	.LVL9:
 171              	.L19:
ARM GAS  /var/folders/vd/czx34qs52cd_f3nb04sxmghc0000gn/T//ccI0nIfk.s 			page 4


 172              		.loc 1 605 0
 173 0076 096B     		ldr	r1, [r1, #48]
 174              		.loc 1 602 0
 175 0078 1A62     		str	r2, [r3, #32]
 176              		.loc 1 603 0
 177 007a 0124     		movs	r4, #1
 178              		.loc 1 605 0
 179 007c 21F0FF02 		bic	r2, r1, #255
 180              	.LVL10:
 181              		.loc 1 604 0
 182 0080 0020     		movs	r0, #0
 183              		.loc 1 615 0
 184 0082 8521     		movs	r1, #133
 185              		.loc 1 603 0
 186 0084 5C61     		str	r4, [r3, #20]
 187              	.LVL11:
 188              		.loc 1 604 0
 189 0086 1861     		str	r0, [r3, #16]
 190              		.loc 1 605 0
 191 0088 DA60     		str	r2, [r3, #12]
 192              		.loc 1 615 0
 193 008a 1960     		str	r1, [r3]
 194              		.loc 1 617 0
 195 008c 70BD     		pop	{r4, r5, r6, pc}
 196              	.LVL12:
 197              	.L36:
 198              		.loc 1 541 0
 199 008e 42F40072 		orr	r2, r2, #512
 200              	.LVL13:
 201              	.L17:
 202              		.loc 1 544 0
 203 0092 42F48072 		orr	r2, r2, #256
 204              	.LVL14:
 205 0096 E3E7     		b	.L16
 206              	.L35:
 207              		.loc 1 531 0
 208 0098 42F02002 		orr	r2, r2, #32
 209              	.LVL15:
 210              	.L14:
 211              		.loc 1 534 0
 212 009c 42F01002 		orr	r2, r2, #16
 213              	.LVL16:
 214 00a0 D7E7     		b	.L13
 215              	.LVL17:
 216              	.L34:
 217              		.loc 1 421 0
 218 00a2 0F4B     		ldr	r3, .L38
 219 00a4 9842     		cmp	r0, r3
 220 00a6 05D0     		beq	.L37
 221              	.LVL18:
 222              	.L8:
 223              		.loc 1 483 0
 224 00a8 A369     		ldr	r3, [r4, #24]
 225 00aa 46F66802 		movw	r2, #26728
 226 00ae 9A61     		str	r2, [r3, #24]
 227              		.loc 1 485 0
 228 00b0 DA61     		str	r2, [r3, #28]
ARM GAS  /var/folders/vd/czx34qs52cd_f3nb04sxmghc0000gn/T//ccI0nIfk.s 			page 5


 229 00b2 B2E7     		b	.L9
 230              	.LVL19:
 231              	.L37:
 232              		.loc 1 422 0
 233 00b4 0B4B     		ldr	r3, .L38+4
 234 00b6 1A6C     		ldr	r2, [r3, #64]
 235 00b8 42F00402 		orr	r2, r2, #4
 236 00bc 1A64     		str	r2, [r3, #64]
 237 00be 1A6E     		ldr	r2, [r3, #96]
 238 00c0 42F00402 		orr	r2, r2, #4
 239 00c4 1A66     		str	r2, [r3, #96]
 240              		.loc 1 423 0
 241 00c6 1A6A     		ldr	r2, [r3, #32]
 242 00c8 0020     		movs	r0, #0
 243              	.LVL20:
 244 00ca 42F00402 		orr	r2, r2, #4
 245 00ce 1A62     		str	r2, [r3, #32]
 246              		.loc 1 425 0
 247 00d0 0721     		movs	r1, #7
 248              		.loc 1 423 0
 249 00d2 1862     		str	r0, [r3, #32]
 250              		.loc 1 425 0
 251 00d4 1E20     		movs	r0, #30
 252 00d6 FFF7FEFF 		bl	nvicEnableVector
 253              	.LVL21:
 254              		.loc 1 430 0
 255 00da 034B     		ldr	r3, .L38+8
 256 00dc 6361     		str	r3, [r4, #20]
 257 00de E3E7     		b	.L8
 258              	.L39:
 259              		.align	2
 260              	.L38:
 261 00e0 00000000 		.word	.LANCHOR0
 262 00e4 00380240 		.word	1073887232
 263 00e8 00BD0105 		.word	84000000
 264              		.cfi_endproc
 265              	.LFE315:
 266              		.size	pwm_lld_start, .-pwm_lld_start
 267              		.section	.text.pwm_lld_stop,"ax",%progbits
 268              		.align	1
 269              		.p2align 4,,15
 270              		.global	pwm_lld_stop
 271              		.syntax unified
 272              		.thumb
 273              		.thumb_func
 274              		.fpu softvfp
 275              		.type	pwm_lld_stop, %function
 276              	pwm_lld_stop:
 277              	.LFB316:
 278              		.loc 1 626 0
 279              		.cfi_startproc
 280              		@ args = 0, pretend = 0, frame = 0
 281              		@ frame_needed = 0, uses_anonymous_args = 0
 282              	.LVL22:
 283 0000 08B5     		push	{r3, lr}
 284              		.cfi_def_cfa_offset 8
 285              		.cfi_offset 3, -8
ARM GAS  /var/folders/vd/czx34qs52cd_f3nb04sxmghc0000gn/T//ccI0nIfk.s 			page 6


 286              		.cfi_offset 14, -4
 287              		.loc 1 629 0
 288 0002 0378     		ldrb	r3, [r0]	@ zero_extendqisi2
 289 0004 022B     		cmp	r3, #2
 290 0006 00D0     		beq	.L45
 291              	.L40:
 292              		.loc 1 702 0
 293 0008 08BD     		pop	{r3, pc}
 294              	.L45:
 295              		.loc 1 666 0
 296 000a 0849     		ldr	r1, .L46
 297              		.loc 1 630 0
 298 000c 8369     		ldr	r3, [r0, #24]
 299 000e 0022     		movs	r2, #0
 300              		.loc 1 666 0
 301 0010 8842     		cmp	r0, r1
 302              		.loc 1 630 0
 303 0012 1A60     		str	r2, [r3]
 304              		.loc 1 631 0
 305 0014 DA60     		str	r2, [r3, #12]
 306              		.loc 1 632 0
 307 0016 1A61     		str	r2, [r3, #16]
 308              		.loc 1 666 0
 309 0018 F6D1     		bne	.L40
 310              		.loc 1 668 0
 311 001a 1E20     		movs	r0, #30
 312              	.LVL23:
 313 001c FFF7FEFF 		bl	nvicDisableVector
 314              	.LVL24:
 315              		.loc 1 670 0
 316 0020 034A     		ldr	r2, .L46+4
 317 0022 136C     		ldr	r3, [r2, #64]
 318 0024 23F00403 		bic	r3, r3, #4
 319 0028 1364     		str	r3, [r2, #64]
 320              		.loc 1 702 0
 321 002a 08BD     		pop	{r3, pc}
 322              	.L47:
 323              		.align	2
 324              	.L46:
 325 002c 00000000 		.word	.LANCHOR0
 326 0030 00380240 		.word	1073887232
 327              		.cfi_endproc
 328              	.LFE316:
 329              		.size	pwm_lld_stop, .-pwm_lld_stop
 330              		.section	.text.pwm_lld_enable_channel,"ax",%progbits
 331              		.align	1
 332              		.p2align 4,,15
 333              		.global	pwm_lld_enable_channel
 334              		.syntax unified
 335              		.thumb
 336              		.thumb_func
 337              		.fpu softvfp
 338              		.type	pwm_lld_enable_channel, %function
 339              	pwm_lld_enable_channel:
 340              	.LFB317:
 341              		.loc 1 719 0
 342              		.cfi_startproc
ARM GAS  /var/folders/vd/czx34qs52cd_f3nb04sxmghc0000gn/T//ccI0nIfk.s 			page 7


 343              		@ args = 0, pretend = 0, frame = 0
 344              		@ frame_needed = 0, uses_anonymous_args = 0
 345              		@ link register save eliminated.
 346              	.LVL25:
 347              		.loc 1 723 0
 348 0000 8369     		ldr	r3, [r0, #24]
 349 0002 0C31     		adds	r1, r1, #12
 350              	.LVL26:
 351 0004 03EB8103 		add	r3, r3, r1, lsl #2
 352 0008 5A60     		str	r2, [r3, #4]
 353              		.loc 1 730 0
 354 000a 7047     		bx	lr
 355              		.cfi_endproc
 356              	.LFE317:
 357              		.size	pwm_lld_enable_channel, .-pwm_lld_enable_channel
 358              		.section	.text.pwm_lld_disable_channel,"ax",%progbits
 359              		.align	1
 360              		.p2align 4,,15
 361              		.global	pwm_lld_disable_channel
 362              		.syntax unified
 363              		.thumb
 364              		.thumb_func
 365              		.fpu softvfp
 366              		.type	pwm_lld_disable_channel, %function
 367              	pwm_lld_disable_channel:
 368              	.LFB318:
 369              		.loc 1 744 0
 370              		.cfi_startproc
 371              		@ args = 0, pretend = 0, frame = 0
 372              		@ frame_needed = 0, uses_anonymous_args = 0
 373              		@ link register save eliminated.
 374              	.LVL27:
 375              		.loc 1 747 0
 376 0000 8369     		ldr	r3, [r0, #24]
 377 0002 01F10C02 		add	r2, r1, #12
 378 0006 03EB8202 		add	r2, r3, r2, lsl #2
 379 000a 0020     		movs	r0, #0
 380              	.LVL28:
 381 000c 5060     		str	r0, [r2, #4]
 382              		.loc 1 748 0
 383 000e DA68     		ldr	r2, [r3, #12]
 384 0010 0220     		movs	r0, #2
 385 0012 00FA01F1 		lsl	r1, r0, r1
 386              	.LVL29:
 387 0016 22EA0101 		bic	r1, r2, r1
 388 001a D960     		str	r1, [r3, #12]
 389              		.loc 1 757 0
 390 001c 7047     		bx	lr
 391              		.cfi_endproc
 392              	.LFE318:
 393              		.size	pwm_lld_disable_channel, .-pwm_lld_disable_channel
 394 001e 00BF     		.section	.text.pwm_lld_enable_periodic_notification,"ax",%progbits
 395              		.align	1
 396              		.p2align 4,,15
 397              		.global	pwm_lld_enable_periodic_notification
 398              		.syntax unified
 399              		.thumb
ARM GAS  /var/folders/vd/czx34qs52cd_f3nb04sxmghc0000gn/T//ccI0nIfk.s 			page 8


 400              		.thumb_func
 401              		.fpu softvfp
 402              		.type	pwm_lld_enable_periodic_notification, %function
 403              	pwm_lld_enable_periodic_notification:
 404              	.LFB319:
 405              		.loc 1 768 0
 406              		.cfi_startproc
 407              		@ args = 0, pretend = 0, frame = 0
 408              		@ frame_needed = 0, uses_anonymous_args = 0
 409              		@ link register save eliminated.
 410              	.LVL30:
 411              		.loc 1 769 0
 412 0000 8269     		ldr	r2, [r0, #24]
 413 0002 D368     		ldr	r3, [r2, #12]
 414              	.LVL31:
 415              		.loc 1 773 0
 416 0004 D907     		lsls	r1, r3, #31
 417 0006 05D4     		bmi	.L50
 418              		.loc 1 775 0
 419 0008 43F00103 		orr	r3, r3, #1
 420              	.LVL32:
 421              		.loc 1 774 0
 422 000c 6FF00101 		mvn	r1, #1
 423 0010 1161     		str	r1, [r2, #16]
 424              		.loc 1 775 0
 425 0012 D360     		str	r3, [r2, #12]
 426              	.L50:
 427              		.loc 1 777 0
 428 0014 7047     		bx	lr
 429              		.cfi_endproc
 430              	.LFE319:
 431              		.size	pwm_lld_enable_periodic_notification, .-pwm_lld_enable_periodic_notification
 432 0016 00BF     		.section	.text.pwm_lld_disable_periodic_notification,"ax",%progbits
 433              		.align	1
 434              		.p2align 4,,15
 435              		.global	pwm_lld_disable_periodic_notification
 436              		.syntax unified
 437              		.thumb
 438              		.thumb_func
 439              		.fpu softvfp
 440              		.type	pwm_lld_disable_periodic_notification, %function
 441              	pwm_lld_disable_periodic_notification:
 442              	.LFB320:
 443              		.loc 1 788 0
 444              		.cfi_startproc
 445              		@ args = 0, pretend = 0, frame = 0
 446              		@ frame_needed = 0, uses_anonymous_args = 0
 447              		@ link register save eliminated.
 448              	.LVL33:
 449              		.loc 1 790 0
 450 0000 8269     		ldr	r2, [r0, #24]
 451 0002 D368     		ldr	r3, [r2, #12]
 452 0004 23F00103 		bic	r3, r3, #1
 453 0008 D360     		str	r3, [r2, #12]
 454              		.loc 1 791 0
 455 000a 7047     		bx	lr
 456              		.cfi_endproc
ARM GAS  /var/folders/vd/czx34qs52cd_f3nb04sxmghc0000gn/T//ccI0nIfk.s 			page 9


 457              	.LFE320:
 458              		.size	pwm_lld_disable_periodic_notification, .-pwm_lld_disable_periodic_notification
 459              		.section	.text.pwm_lld_enable_channel_notification,"ax",%progbits
 460              		.align	1
 461              		.p2align 4,,15
 462              		.global	pwm_lld_enable_channel_notification
 463              		.syntax unified
 464              		.thumb
 465              		.thumb_func
 466              		.fpu softvfp
 467              		.type	pwm_lld_enable_channel_notification, %function
 468              	pwm_lld_enable_channel_notification:
 469              	.LFB321:
 470              		.loc 1 805 0
 471              		.cfi_startproc
 472              		@ args = 0, pretend = 0, frame = 0
 473              		@ frame_needed = 0, uses_anonymous_args = 0
 474              		@ link register save eliminated.
 475              	.LVL34:
 476              		.loc 1 806 0
 477 0000 8069     		ldr	r0, [r0, #24]
 478              	.LVL35:
 479              		.loc 1 815 0
 480 0002 0223     		movs	r3, #2
 481              		.loc 1 806 0
 482 0004 C268     		ldr	r2, [r0, #12]
 483              	.LVL36:
 484              		.loc 1 815 0
 485 0006 03FA01F1 		lsl	r1, r3, r1
 486              	.LVL37:
 487 000a 1142     		tst	r1, r2
 488 000c 03D1     		bne	.L53
 489              		.loc 1 817 0
 490 000e 0A43     		orrs	r2, r2, r1
 491              	.LVL38:
 492              		.loc 1 816 0
 493 0010 C943     		mvns	r1, r1
 494 0012 0161     		str	r1, [r0, #16]
 495              		.loc 1 817 0
 496 0014 C260     		str	r2, [r0, #12]
 497              	.L53:
 498              		.loc 1 819 0
 499 0016 7047     		bx	lr
 500              		.cfi_endproc
 501              	.LFE321:
 502              		.size	pwm_lld_enable_channel_notification, .-pwm_lld_enable_channel_notification
 503              		.section	.text.pwm_lld_disable_channel_notification,"ax",%progbits
 504              		.align	1
 505              		.p2align 4,,15
 506              		.global	pwm_lld_disable_channel_notification
 507              		.syntax unified
 508              		.thumb
 509              		.thumb_func
 510              		.fpu softvfp
 511              		.type	pwm_lld_disable_channel_notification, %function
 512              	pwm_lld_disable_channel_notification:
 513              	.LFB322:
ARM GAS  /var/folders/vd/czx34qs52cd_f3nb04sxmghc0000gn/T//ccI0nIfk.s 			page 10


 514              		.loc 1 833 0
 515              		.cfi_startproc
 516              		@ args = 0, pretend = 0, frame = 0
 517              		@ frame_needed = 0, uses_anonymous_args = 0
 518              		@ link register save eliminated.
 519              	.LVL39:
 520              		.loc 1 835 0
 521 0000 8069     		ldr	r0, [r0, #24]
 522              	.LVL40:
 523 0002 0222     		movs	r2, #2
 524 0004 C368     		ldr	r3, [r0, #12]
 525 0006 02FA01F1 		lsl	r1, r2, r1
 526              	.LVL41:
 527 000a 23EA0103 		bic	r3, r3, r1
 528 000e C360     		str	r3, [r0, #12]
 529              		.loc 1 836 0
 530 0010 7047     		bx	lr
 531              		.cfi_endproc
 532              	.LFE322:
 533              		.size	pwm_lld_disable_channel_notification, .-pwm_lld_disable_channel_notification
 534 0012 00BF     		.section	.text.pwm_lld_serve_interrupt,"ax",%progbits
 535              		.align	1
 536              		.p2align 4,,15
 537              		.global	pwm_lld_serve_interrupt
 538              		.syntax unified
 539              		.thumb
 540              		.thumb_func
 541              		.fpu softvfp
 542              		.type	pwm_lld_serve_interrupt, %function
 543              	pwm_lld_serve_interrupt:
 544              	.LFB323:
 545              		.loc 1 848 0
 546              		.cfi_startproc
 547              		@ args = 0, pretend = 0, frame = 0
 548              		@ frame_needed = 0, uses_anonymous_args = 0
 549              	.LVL42:
 550              		.loc 1 851 0
 551 0000 8369     		ldr	r3, [r0, #24]
 552              		.loc 1 848 0
 553 0002 70B5     		push	{r4, r5, r6, lr}
 554              		.cfi_def_cfa_offset 16
 555              		.cfi_offset 4, -16
 556              		.cfi_offset 5, -12
 557              		.cfi_offset 6, -8
 558              		.cfi_offset 14, -4
 559              		.loc 1 851 0
 560 0004 1A69     		ldr	r2, [r3, #16]
 561              	.LVL43:
 562              		.loc 1 852 0
 563 0006 DC68     		ldr	r4, [r3, #12]
 564 0008 1440     		ands	r4, r4, r2
 565              	.LVL44:
 566 000a E2B2     		uxtb	r2, r4
 567              		.loc 1 853 0
 568 000c D243     		mvns	r2, r2
 569              		.loc 1 854 0
 570 000e A607     		lsls	r6, r4, #30
ARM GAS  /var/folders/vd/czx34qs52cd_f3nb04sxmghc0000gn/T//ccI0nIfk.s 			page 11


 571              		.loc 1 848 0
 572 0010 0546     		mov	r5, r0
 573              		.loc 1 853 0
 574 0012 1A61     		str	r2, [r3, #16]
 575              		.loc 1 854 0
 576 0014 03D5     		bpl	.L57
 577              		.loc 1 855 0 discriminator 1
 578 0016 4368     		ldr	r3, [r0, #4]
 579 0018 1B69     		ldr	r3, [r3, #16]
 580              		.loc 1 854 0 discriminator 1
 581 001a 03B1     		cbz	r3, .L57
 582              		.loc 1 856 0
 583 001c 9847     		blx	r3
 584              	.LVL45:
 585              	.L57:
 586              		.loc 1 857 0
 587 001e 6007     		lsls	r0, r4, #29
 588 0020 04D5     		bpl	.L58
 589              		.loc 1 858 0 discriminator 1
 590 0022 6B68     		ldr	r3, [r5, #4]
 591 0024 9B69     		ldr	r3, [r3, #24]
 592              		.loc 1 857 0 discriminator 1
 593 0026 0BB1     		cbz	r3, .L58
 594              		.loc 1 859 0
 595 0028 2846     		mov	r0, r5
 596 002a 9847     		blx	r3
 597              	.LVL46:
 598              	.L58:
 599              		.loc 1 860 0
 600 002c 2107     		lsls	r1, r4, #28
 601 002e 04D5     		bpl	.L59
 602              		.loc 1 861 0 discriminator 1
 603 0030 6B68     		ldr	r3, [r5, #4]
 604 0032 1B6A     		ldr	r3, [r3, #32]
 605              		.loc 1 860 0 discriminator 1
 606 0034 0BB1     		cbz	r3, .L59
 607              		.loc 1 862 0
 608 0036 2846     		mov	r0, r5
 609 0038 9847     		blx	r3
 610              	.LVL47:
 611              	.L59:
 612              		.loc 1 863 0
 613 003a E206     		lsls	r2, r4, #27
 614 003c 04D5     		bpl	.L60
 615              		.loc 1 864 0 discriminator 1
 616 003e 6B68     		ldr	r3, [r5, #4]
 617 0040 9B6A     		ldr	r3, [r3, #40]
 618              		.loc 1 863 0 discriminator 1
 619 0042 0BB1     		cbz	r3, .L60
 620              		.loc 1 865 0
 621 0044 2846     		mov	r0, r5
 622 0046 9847     		blx	r3
 623              	.LVL48:
 624              	.L60:
 625              		.loc 1 866 0
 626 0048 E307     		lsls	r3, r4, #31
 627 004a 06D5     		bpl	.L56
ARM GAS  /var/folders/vd/czx34qs52cd_f3nb04sxmghc0000gn/T//ccI0nIfk.s 			page 12


 628              		.loc 1 866 0 is_stmt 0 discriminator 1
 629 004c 6B68     		ldr	r3, [r5, #4]
 630 004e 9B68     		ldr	r3, [r3, #8]
 631 0050 1BB1     		cbz	r3, .L56
 632              		.loc 1 867 0 is_stmt 1
 633 0052 2846     		mov	r0, r5
 634              		.loc 1 868 0
 635 0054 BDE87040 		pop	{r4, r5, r6, lr}
 636              		.cfi_remember_state
 637              		.cfi_restore 14
 638              		.cfi_restore 6
 639              		.cfi_restore 5
 640              		.cfi_restore 4
 641              		.cfi_def_cfa_offset 0
 642              	.LVL49:
 643              		.loc 1 867 0
 644 0058 1847     		bx	r3	@ indirect register sibling call
 645              	.LVL50:
 646              	.L56:
 647              		.cfi_restore_state
 648              		.loc 1 868 0
 649 005a 70BD     		pop	{r4, r5, r6, pc}
 650              		.cfi_endproc
 651              	.LFE323:
 652              		.size	pwm_lld_serve_interrupt, .-pwm_lld_serve_interrupt
 653              		.section	.text.VectorB8,"ax",%progbits
 654              		.align	1
 655              		.p2align 4,,15
 656              		.global	VectorB8
 657              		.syntax unified
 658              		.thumb
 659              		.thumb_func
 660              		.fpu softvfp
 661              		.type	VectorB8, %function
 662              	VectorB8:
 663              	.LFB313:
 664              		.loc 1 201 0
 665              		.cfi_startproc
 666              		@ args = 0, pretend = 0, frame = 0
 667              		@ frame_needed = 0, uses_anonymous_args = 0
 668 0000 08B5     		push	{r3, lr}
 669              		.cfi_def_cfa_offset 8
 670              		.cfi_offset 3, -8
 671              		.cfi_offset 14, -4
 672              		.loc 1 205 0
 673 0002 0348     		ldr	r0, .L95
 674 0004 FFF7FEFF 		bl	pwm_lld_serve_interrupt
 675              	.LVL51:
 676              		.loc 1 208 0
 677 0008 BDE80840 		pop	{r3, lr}
 678              		.cfi_restore 14
 679              		.cfi_restore 3
 680              		.cfi_def_cfa_offset 0
 681              		.loc 1 207 0
 682 000c FFF7FEBF 		b	_port_irq_epilogue
 683              	.LVL52:
 684              	.L96:
ARM GAS  /var/folders/vd/czx34qs52cd_f3nb04sxmghc0000gn/T//ccI0nIfk.s 			page 13


 685              		.align	2
 686              	.L95:
 687 0010 00000000 		.word	.LANCHOR0
 688              		.cfi_endproc
 689              	.LFE313:
 690              		.size	VectorB8, .-VectorB8
 691              		.global	PWMD4
 692              		.section	.bss.PWMD4,"aw",%nobits
 693              		.align	2
 694              		.set	.LANCHOR0,. + 0
 695              		.type	PWMD4, %object
 696              		.size	PWMD4, 28
 697              	PWMD4:
 698 0000 00000000 		.space	28
 698      00000000 
 698      00000000 
 698      00000000 
 698      00000000 
 699              		.text
 700              	.Letext0:
 701              		.file 2 "/usr/local/Cellar/gcc-arm-none-eabi/20171218/lib/gcc/arm-none-eabi/7.2.1/include/stddef.h
 702              		.file 3 "/usr/local/Cellar/gcc-arm-none-eabi/20171218/arm-none-eabi/include/machine/_default_types
 703              		.file 4 "/usr/local/Cellar/gcc-arm-none-eabi/20171218/arm-none-eabi/include/sys/_stdint.h"
 704              		.file 5 "../os/common/ports/ARMCMx/compilers/GCC/chtypes.h"
 705              		.file 6 "../os/rt/include/chsystypes.h"
 706              		.file 7 "../os/rt/include/chschd.h"
 707              		.file 8 "../os/rt/include/chtime.h"
 708              		.file 9 "../os/common/ext/ARM/CMSIS/Core/Include/core_cm4.h"
 709              		.file 10 "../os/common/ext/ST/STM32F4xx/system_stm32f4xx.h"
 710              		.file 11 "../os/common/ext/ST/STM32F4xx/stm32f407xx.h"
 711              		.file 12 "../os/common/ports/ARMCMx/chcore.h"
 712              		.file 13 "../os/common/ports/ARMCMx/chcore_v7m.h"
 713              		.file 14 "../os/hal/ports/STM32/LLD/TIMv1/stm32_tim.h"
 714              		.file 15 "../os/rt/include/chtm.h"
 715              		.file 16 "../os/rt/include/chsem.h"
 716              		.file 17 "../os/rt/include/chmtx.h"
 717              		.file 18 "../os/rt/include/chsys.h"
 718              		.file 19 "../os/rt/include/chregistry.h"
 719              		.file 20 "../os/rt/include/chevents.h"
 720              		.file 21 "../os/common/oslib/include/chmemcore.h"
 721              		.file 22 "../os/common/oslib/include/chmempools.h"
 722              		.file 23 "../os/common/oslib/include/chfactory.h"
 723              		.file 24 "../os/hal/ports/STM32/LLD/DMAv2/stm32_dma.h"
 724              		.file 25 "../os/hal/include/hal_queues.h"
 725              		.file 26 "../os/hal/include/hal_pal.h"
 726              		.file 27 "../os/hal/ports/STM32/LLD/GPIOv2/hal_pal_lld.h"
 727              		.file 28 "../os/hal/include/hal_pwm.h"
 728              		.file 29 "../os/hal/ports/STM32/LLD/TIMv1/hal_pwm_lld.h"
 729              		.file 30 "../os/hal/include/hal_serial.h"
 730              		.file 31 "../os/hal/ports/STM32/LLD/USARTv1/hal_serial_lld.h"
 731              		.file 32 "../os/hal/ports/common/ARMCMx/nvic.h"