ARM GAS  /var/folders/vd/czx34qs52cd_f3nb04sxmghc0000gn/T//ccTWN9rn.s 			page 1


   1              		.cpu cortex-m4
   2              		.eabi_attribute 20, 1
   3              		.eabi_attribute 21, 1
   4              		.eabi_attribute 23, 3
   5              		.eabi_attribute 24, 1
   6              		.eabi_attribute 25, 1
   7              		.eabi_attribute 26, 1
   8              		.eabi_attribute 30, 2
   9              		.eabi_attribute 34, 1
  10              		.eabi_attribute 18, 4
  11              		.file	"hal_serial_lld.c"
  12              		.text
  13              	.Ltext0:
  14              		.cfi_sections	.debug_frame
  15              		.section	.text.notify1,"ax",%progbits
  16              		.align	1
  17              		.p2align 4,,15
  18              		.syntax unified
  19              		.thumb
  20              		.thumb_func
  21              		.fpu softvfp
  22              		.type	notify1, %function
  23              	notify1:
  24              	.LFB317:
  25              		.file 1 "../os/hal/ports/STM32/LLD/USARTv1/hal_serial_lld.c"
  26              		.loc 1 227 0
  27              		.cfi_startproc
  28              		@ args = 0, pretend = 0, frame = 0
  29              		@ frame_needed = 0, uses_anonymous_args = 0
  30              		@ link register save eliminated.
  31              	.LVL0:
  32              		.loc 1 230 0
  33 0000 024A     		ldr	r2, .L3
  34 0002 D368     		ldr	r3, [r2, #12]
  35 0004 43F08003 		orr	r3, r3, #128
  36 0008 D360     		str	r3, [r2, #12]
  37              		.loc 1 231 0
  38 000a 7047     		bx	lr
  39              	.L4:
  40              		.align	2
  41              	.L3:
  42 000c 00100140 		.word	1073811456
  43              		.cfi_endproc
  44              	.LFE317:
  45              		.size	notify1, .-notify1
  46              		.section	.text.VectorD4,"ax",%progbits
  47              		.align	1
  48              		.p2align 4,,15
  49              		.global	VectorD4
  50              		.syntax unified
  51              		.thumb
  52              		.thumb_func
  53              		.fpu softvfp
  54              		.type	VectorD4, %function
  55              	VectorD4:
  56              	.LFB318:
  57              		.loc 1 303 0
ARM GAS  /var/folders/vd/czx34qs52cd_f3nb04sxmghc0000gn/T//ccTWN9rn.s 			page 2


  58              		.cfi_startproc
  59              		@ args = 0, pretend = 0, frame = 0
  60              		@ frame_needed = 0, uses_anonymous_args = 0
  61              	.LVL1:
  62 0000 2DE9F843 		push	{r3, r4, r5, r6, r7, r8, r9, lr}
  63              		.cfi_def_cfa_offset 32
  64              		.cfi_offset 3, -32
  65              		.cfi_offset 4, -28
  66              		.cfi_offset 5, -24
  67              		.cfi_offset 6, -20
  68              		.cfi_offset 7, -16
  69              		.cfi_offset 8, -12
  70              		.cfi_offset 9, -8
  71              		.cfi_offset 14, -4
  72              	.LBB224:
  73              	.LBB225:
  74              		.loc 1 173 0
  75 0004 464E     		ldr	r6, .L62
  76 0006 756F     		ldr	r5, [r6, #116]
  77              	.LVL2:
  78              		.loc 1 174 0
  79 0008 D5F80C80 		ldr	r8, [r5, #12]
  80              	.LVL3:
  81              		.loc 1 175 0
  82 000c 2B68     		ldr	r3, [r5]
  83              		.loc 1 178 0
  84 000e DA05     		lsls	r2, r3, #23
  85              		.loc 1 175 0
  86 0010 9CB2     		uxth	r4, r3
  87              	.LVL4:
  88              		.loc 1 178 0
  89 0012 50D4     		bmi	.L57
  90              	.L6:
  91              	.LVL5:
  92              	.LBB226:
  93              	.LBB227:
  94              	.LBB228:
  95              	.LBB229:
  96              	.LBB230:
  97              	.LBB231:
  98              		.file 2 "../os/common/ext/ARM/CMSIS/Core/Include/cmsis_gcc.h"
  99              		.loc 2 490 0
 100 0014 2023     		movs	r3, #32
 101              		.syntax unified
 102              	@ 490 "../os/common/ext/ARM/CMSIS/Core/Include/cmsis_gcc.h" 1
 103 0016 83F31188 		MSR basepri, r3
 104              	@ 0 "" 2
 105              	.LVL6:
 106              		.thumb
 107              		.syntax unified
 108              	.LBE231:
 109              	.LBE230:
 110              	.LBE229:
 111              	.LBE228:
 112              	.LBE227:
 113              	.LBE226:
 114              		.loc 1 187 0
ARM GAS  /var/folders/vd/czx34qs52cd_f3nb04sxmghc0000gn/T//ccTWN9rn.s 			page 3


 115 001a 14F02F0F 		tst	r4, #47
 116 001e 2FD0     		beq	.L7
 117              	.LBB232:
 118              	.LBB233:
 119              	.LBB234:
 120              	.LBB235:
 121              	.LBB236:
 122              		.file 3 "../os/hal/osal/rt/osal.h"
 123              		.loc 3 895 0
 124 0020 404F     		ldr	r7, .L62+4
 125              	.LBE236:
 126              	.LBE235:
 127              	.LBE234:
 128              	.LBE233:
 129              		.loc 1 196 0
 130 0022 A7F10409 		sub	r9, r7, #4
 131 0026 07E0     		b	.L14
 132              	.L8:
 133              		.loc 1 195 0
 134 0028 A006     		lsls	r0, r4, #26
 135              		.loc 1 194 0
 136 002a 6B68     		ldr	r3, [r5, #4]
 137              	.LVL7:
 138              		.loc 1 195 0
 139 002c 1DD4     		bmi	.L58
 140              	.LVL8:
 141              	.L13:
 142              		.loc 1 197 0
 143 002e 2C68     		ldr	r4, [r5]
 144              	.LVL9:
 145 0030 A4B2     		uxth	r4, r4
 146              	.LVL10:
 147              	.LBE232:
 148              		.loc 1 187 0
 149 0032 14F02F0F 		tst	r4, #47
 150 0036 23D0     		beq	.L7
 151              	.L14:
 152              	.LBB241:
 153              		.loc 1 192 0
 154 0038 2307     		lsls	r3, r4, #28
 155 003a F5D0     		beq	.L8
 156              	.LVL11:
 157              	.LBB240:
 158              	.LBB239:
 159              		.loc 1 157 0
 160 003c 14F0080F 		tst	r4, #8
 161 0040 0CBF     		ite	eq
 162 0042 0021     		moveq	r1, #0
 163 0044 8021     		movne	r1, #128
 164              	.LVL12:
 165              		.loc 1 158 0
 166 0046 E007     		lsls	r0, r4, #31
 167              		.loc 1 159 0
 168 0048 48BF     		it	mi
 169 004a 41F02001 		orrmi	r1, r1, #32
 170              	.LVL13:
 171              		.loc 1 160 0
ARM GAS  /var/folders/vd/czx34qs52cd_f3nb04sxmghc0000gn/T//ccTWN9rn.s 			page 4


 172 004e A207     		lsls	r2, r4, #30
 173              		.loc 1 161 0
 174 0050 48BF     		it	mi
 175 0052 41F04001 		orrmi	r1, r1, #64
 176              	.LVL14:
 177              		.loc 1 162 0
 178 0056 6307     		lsls	r3, r4, #29
 179              		.loc 1 163 0
 180 0058 48BF     		it	mi
 181 005a 41F48071 		orrmi	r1, r1, #256
 182              	.LVL15:
 183              	.LBB238:
 184              	.LBB237:
 185              		.loc 3 895 0
 186 005e 3846     		mov	r0, r7
 187 0060 FFF7FEFF 		bl	chEvtBroadcastFlagsI
 188              	.LVL16:
 189              	.LBE237:
 190              	.LBE238:
 191              	.LBE239:
 192              	.LBE240:
 193              		.loc 1 195 0
 194 0064 A006     		lsls	r0, r4, #26
 195              		.loc 1 194 0
 196 0066 6B68     		ldr	r3, [r5, #4]
 197              	.LVL17:
 198              		.loc 1 195 0
 199 0068 E1D5     		bpl	.L13
 200              	.LVL18:
 201              	.L58:
 202              		.loc 1 194 0
 203 006a 96F87810 		ldrb	r1, [r6, #120]	@ zero_extendqisi2
 204              		.loc 1 196 0
 205 006e 4846     		mov	r0, r9
 206 0070 1940     		ands	r1, r1, r3
 207 0072 FFF7FEFF 		bl	sdIncomingDataI
 208              	.LVL19:
 209              		.loc 1 197 0
 210 0076 2C68     		ldr	r4, [r5]
 211              	.LVL20:
 212 0078 A4B2     		uxth	r4, r4
 213              	.LVL21:
 214              	.LBE241:
 215              		.loc 1 187 0
 216 007a 14F02F0F 		tst	r4, #47
 217 007e DBD1     		bne	.L14
 218              	.L7:
 219              	.LVL22:
 220              	.LBB242:
 221              	.LBB243:
 222              	.LBB244:
 223              	.LBB245:
 224              	.LBB246:
 225              	.LBB247:
 226              		.loc 2 490 0
 227 0080 0023     		movs	r3, #0
 228              		.syntax unified
ARM GAS  /var/folders/vd/czx34qs52cd_f3nb04sxmghc0000gn/T//ccTWN9rn.s 			page 5


 229              	@ 490 "../os/common/ext/ARM/CMSIS/Core/Include/cmsis_gcc.h" 1
 230 0082 83F31188 		MSR basepri, r3
 231              	@ 0 "" 2
 232              	.LVL23:
 233              		.thumb
 234              		.syntax unified
 235              	.LBE247:
 236              	.LBE246:
 237              	.LBE245:
 238              	.LBE244:
 239              	.LBE243:
 240              	.LBE242:
 241              		.loc 1 202 0
 242 0086 18F0800F 		tst	r8, #128
 243 008a 01D0     		beq	.L15
 244 008c 2206     		lsls	r2, r4, #24
 245 008e 21D4     		bmi	.L59
 246              	.L15:
 247              		.loc 1 216 0
 248 0090 18F0400F 		tst	r8, #64
 249 0094 0BD0     		beq	.L18
 250 0096 6306     		lsls	r3, r4, #25
 251 0098 09D5     		bpl	.L18
 252              	.LVL24:
 253              	.LBB248:
 254              	.LBB249:
 255              	.LBB250:
 256              	.LBB251:
 257              	.LBB252:
 258              	.LBB253:
 259              		.loc 2 490 0
 260 009a 2023     		movs	r3, #32
 261              		.syntax unified
 262              	@ 490 "../os/common/ext/ARM/CMSIS/Core/Include/cmsis_gcc.h" 1
 263 009c 83F31188 		MSR basepri, r3
 264              	@ 0 "" 2
 265              	.LVL25:
 266              		.thumb
 267              		.syntax unified
 268              	.LBE253:
 269              	.LBE252:
 270              	.LBE251:
 271              	.LBE250:
 272              	.LBE249:
 273              	.LBE248:
 274              		.loc 1 218 0
 275 00a0 D6E91123 		ldrd	r2, r3, [r6, #68]
 276 00a4 9A42     		cmp	r2, r3
 277 00a6 22D0     		beq	.L60
 278              	.L19:
 279              	.LVL26:
 280              	.LBB254:
 281              	.LBB255:
 282              	.LBB256:
 283              	.LBB257:
 284              	.LBB258:
 285              	.LBB259:
ARM GAS  /var/folders/vd/czx34qs52cd_f3nb04sxmghc0000gn/T//ccTWN9rn.s 			page 6


 286              		.loc 2 490 0
 287 00a8 0023     		movs	r3, #0
 288              		.syntax unified
 289              	@ 490 "../os/common/ext/ARM/CMSIS/Core/Include/cmsis_gcc.h" 1
 290 00aa 83F31188 		MSR basepri, r3
 291              	@ 0 "" 2
 292              	.LVL27:
 293              		.thumb
 294              		.syntax unified
 295              	.L18:
 296              	.LBE259:
 297              	.LBE258:
 298              	.LBE257:
 299              	.LBE256:
 300              	.LBE255:
 301              	.LBE254:
 302              	.LBE225:
 303              	.LBE224:
 304              		.loc 1 310 0
 305 00ae BDE8F843 		pop	{r3, r4, r5, r6, r7, r8, r9, lr}
 306              		.cfi_remember_state
 307              		.cfi_restore 14
 308              		.cfi_restore 9
 309              		.cfi_restore 8
 310              		.cfi_restore 7
 311              		.cfi_restore 6
 312              		.cfi_restore 5
 313              		.cfi_restore 4
 314              		.cfi_restore 3
 315              		.cfi_def_cfa_offset 0
 316              	.LVL28:
 317              		.loc 1 309 0
 318 00b2 FFF7FEBF 		b	_port_irq_epilogue
 319              	.LVL29:
 320              	.L57:
 321              		.cfi_restore_state
 322              	.LBB293:
 323              	.LBB292:
 324              	.LBB260:
 325              	.LBB261:
 326              	.LBB262:
 327              	.LBB263:
 328              	.LBB264:
 329              	.LBB265:
 330              		.loc 2 490 0
 331 00b6 2023     		movs	r3, #32
 332              		.syntax unified
 333              	@ 490 "../os/common/ext/ARM/CMSIS/Core/Include/cmsis_gcc.h" 1
 334 00b8 83F31188 		MSR basepri, r3
 335              	@ 0 "" 2
 336              	.LVL30:
 337              		.thumb
 338              		.syntax unified
 339              	.LBE265:
 340              	.LBE264:
 341              	.LBE263:
 342              	.LBE262:
ARM GAS  /var/folders/vd/czx34qs52cd_f3nb04sxmghc0000gn/T//ccTWN9rn.s 			page 7


 343              	.LBE261:
 344              	.LBE260:
 345              	.LBB266:
 346              	.LBB267:
 347              		.loc 3 895 0
 348 00bc 4FF40071 		mov	r1, #512
 349 00c0 301D     		adds	r0, r6, #4
 350 00c2 FFF7FEFF 		bl	chEvtBroadcastFlagsI
 351              	.LVL31:
 352              	.LBE267:
 353              	.LBE266:
 354              		.loc 1 181 0
 355 00c6 6FF48073 		mvn	r3, #256
 356 00ca 2B60     		str	r3, [r5]
 357              	.LVL32:
 358              	.LBB268:
 359              	.LBB269:
 360              	.LBB270:
 361              	.LBB271:
 362              	.LBB272:
 363              	.LBB273:
 364              		.loc 2 490 0
 365 00cc 0023     		movs	r3, #0
 366              		.syntax unified
 367              	@ 490 "../os/common/ext/ARM/CMSIS/Core/Include/cmsis_gcc.h" 1
 368 00ce 83F31188 		MSR basepri, r3
 369              	@ 0 "" 2
 370              	.LVL33:
 371              		.thumb
 372              		.syntax unified
 373 00d2 9FE7     		b	.L6
 374              	.L59:
 375              	.LVL34:
 376              	.LBE273:
 377              	.LBE272:
 378              	.LBE271:
 379              	.LBE270:
 380              	.LBE269:
 381              	.LBE268:
 382              	.LBB274:
 383              	.LBB275:
 384              	.LBB276:
 385              	.LBB277:
 386              	.LBB278:
 387              	.LBB279:
 388              	.LBB280:
 389 00d4 2023     		movs	r3, #32
 390              		.syntax unified
 391              	@ 490 "../os/common/ext/ARM/CMSIS/Core/Include/cmsis_gcc.h" 1
 392 00d6 83F31188 		MSR basepri, r3
 393              	@ 0 "" 2
 394              	.LVL35:
 395              		.thumb
 396              		.syntax unified
 397              	.LBE280:
 398              	.LBE279:
 399              	.LBE278:
ARM GAS  /var/folders/vd/czx34qs52cd_f3nb04sxmghc0000gn/T//ccTWN9rn.s 			page 8


 400              	.LBE277:
 401              	.LBE276:
 402              	.LBE275:
 403              		.loc 1 205 0
 404 00da 1348     		ldr	r0, .L62+8
 405 00dc FFF7FEFF 		bl	oqGetI
 406              	.LVL36:
 407              		.loc 1 206 0
 408 00e0 0028     		cmp	r0, #0
 409 00e2 11DB     		blt	.L61
 410              		.loc 1 211 0
 411 00e4 6860     		str	r0, [r5, #4]
 412              	.LVL37:
 413              	.L17:
 414              	.LBB281:
 415              	.LBB282:
 416              	.LBB283:
 417              	.LBB284:
 418              	.LBB285:
 419              	.LBB286:
 420              		.loc 2 490 0
 421 00e6 0023     		movs	r3, #0
 422              		.syntax unified
 423              	@ 490 "../os/common/ext/ARM/CMSIS/Core/Include/cmsis_gcc.h" 1
 424 00e8 83F31188 		MSR basepri, r3
 425              	@ 0 "" 2
 426              	.LVL38:
 427              		.thumb
 428              		.syntax unified
 429 00ec D0E7     		b	.L15
 430              	.L60:
 431              	.LBE286:
 432              	.LBE285:
 433              	.LBE284:
 434              	.LBE283:
 435              	.LBE282:
 436              	.LBE281:
 437              	.LBE274:
 438              		.loc 1 218 0
 439 00ee B36B     		ldr	r3, [r6, #56]
 440 00f0 002B     		cmp	r3, #0
 441 00f2 D9D0     		beq	.L19
 442              	.LVL39:
 443              	.LBB289:
 444              	.LBB290:
 445              		.loc 3 895 0
 446 00f4 1021     		movs	r1, #16
 447 00f6 0B48     		ldr	r0, .L62+4
 448 00f8 FFF7FEFF 		bl	chEvtBroadcastFlagsI
 449              	.LVL40:
 450              	.LBE290:
 451              	.LBE289:
 452              		.loc 1 220 0
 453 00fc 4FF6BF73 		movw	r3, #65471
 454 0100 08EA0303 		and	r3, r8, r3
 455 0104 EB60     		str	r3, [r5, #12]
 456 0106 CFE7     		b	.L19
ARM GAS  /var/folders/vd/czx34qs52cd_f3nb04sxmghc0000gn/T//ccTWN9rn.s 			page 9


 457              	.LVL41:
 458              	.L61:
 459              	.LBB291:
 460              	.LBB287:
 461              	.LBB288:
 462              		.loc 3 895 0
 463 0108 0821     		movs	r1, #8
 464 010a 0648     		ldr	r0, .L62+4
 465              	.LVL42:
 466 010c FFF7FEFF 		bl	chEvtBroadcastFlagsI
 467              	.LVL43:
 468              	.LBE288:
 469              	.LBE287:
 470              		.loc 1 208 0
 471 0110 4FF63F73 		movw	r3, #65343
 472 0114 08EA0303 		and	r3, r8, r3
 473 0118 43F04003 		orr	r3, r3, #64
 474 011c EB60     		str	r3, [r5, #12]
 475 011e E2E7     		b	.L17
 476              	.L63:
 477              		.align	2
 478              	.L62:
 479 0120 00000000 		.word	.LANCHOR0
 480 0124 04000000 		.word	.LANCHOR0+4
 481 0128 30000000 		.word	.LANCHOR0+48
 482              	.LBE291:
 483              	.LBE292:
 484              	.LBE293:
 485              		.cfi_endproc
 486              	.LFE318:
 487              		.size	VectorD4, .-VectorD4
 488              		.section	.text.sd_lld_init,"ax",%progbits
 489              		.align	1
 490              		.p2align 4,,15
 491              		.global	sd_lld_init
 492              		.syntax unified
 493              		.thumb
 494              		.thumb_func
 495              		.fpu softvfp
 496              		.type	sd_lld_init, %function
 497              	sd_lld_init:
 498              	.LFB319:
 499              		.loc 1 455 0
 500              		.cfi_startproc
 501              		@ args = 0, pretend = 0, frame = 0
 502              		@ frame_needed = 0, uses_anonymous_args = 0
 503 0000 10B5     		push	{r4, lr}
 504              		.cfi_def_cfa_offset 8
 505              		.cfi_offset 4, -8
 506              		.cfi_offset 14, -4
 507              		.loc 1 458 0
 508 0002 044C     		ldr	r4, .L66
 509 0004 044A     		ldr	r2, .L66+4
 510 0006 2046     		mov	r0, r4
 511 0008 0021     		movs	r1, #0
 512 000a FFF7FEFF 		bl	sdObjectInit
 513              	.LVL44:
ARM GAS  /var/folders/vd/czx34qs52cd_f3nb04sxmghc0000gn/T//ccTWN9rn.s 			page 10


 514              		.loc 1 459 0
 515 000e 034B     		ldr	r3, .L66+8
 516 0010 6367     		str	r3, [r4, #116]
 517              		.loc 1 496 0
 518 0012 10BD     		pop	{r4, pc}
 519              	.L67:
 520              		.align	2
 521              	.L66:
 522 0014 00000000 		.word	.LANCHOR0
 523 0018 00000000 		.word	notify1
 524 001c 00100140 		.word	1073811456
 525              		.cfi_endproc
 526              	.LFE319:
 527              		.size	sd_lld_init, .-sd_lld_init
 528              		.section	.text.sd_lld_start,"ax",%progbits
 529              		.align	1
 530              		.p2align 4,,15
 531              		.global	sd_lld_start
 532              		.syntax unified
 533              		.thumb
 534              		.thumb_func
 535              		.fpu softvfp
 536              		.type	sd_lld_start, %function
 537              	sd_lld_start:
 538              	.LFB320:
 539              		.loc 1 508 0
 540              		.cfi_startproc
 541              		@ args = 0, pretend = 0, frame = 0
 542              		@ frame_needed = 0, uses_anonymous_args = 0
 543              	.LVL45:
 544 0000 70B5     		push	{r4, r5, r6, lr}
 545              		.cfi_def_cfa_offset 16
 546              		.cfi_offset 4, -16
 547              		.cfi_offset 5, -12
 548              		.cfi_offset 6, -8
 549              		.cfi_offset 14, -4
 550              		.loc 1 513 0
 551 0002 037A     		ldrb	r3, [r0, #8]	@ zero_extendqisi2
 552              		.loc 1 511 0
 553 0004 224C     		ldr	r4, .L79
 554 0006 0029     		cmp	r1, #0
 555 0008 18BF     		it	ne
 556 000a 0C46     		movne	r4, r1
 557              	.LVL46:
 558              		.loc 1 513 0
 559 000c 012B     		cmp	r3, #1
 560              		.loc 1 508 0
 561 000e 0546     		mov	r5, r0
 562              		.loc 1 513 0
 563 0010 2DD0     		beq	.L78
 564              	.LVL47:
 565              	.L70:
 566              	.LBB296:
 567              	.LBB297:
 568              		.loc 1 102 0
 569 0012 6B6F     		ldr	r3, [r5, #116]
 570              	.LVL48:
ARM GAS  /var/folders/vd/czx34qs52cd_f3nb04sxmghc0000gn/T//ccTWN9rn.s 			page 11


 571              		.loc 1 106 0
 572 0014 1F4A     		ldr	r2, .L79+4
 573 0016 2168     		ldr	r1, [r4]
 574 0018 9342     		cmp	r3, r2
 575 001a 08D0     		beq	.L71
 576 001c 02F58062 		add	r2, r2, #1024
 577 0020 9342     		cmp	r3, r2
 578 0022 04D0     		beq	.L71
 579              		.loc 1 112 0
 580 0024 1C4A     		ldr	r2, .L79+8
 581 0026 B2FBF1F2 		udiv	r2, r2, r1
 582 002a 9A60     		str	r2, [r3, #8]
 583 002c 03E0     		b	.L73
 584              	.L71:
 585              		.loc 1 110 0
 586 002e 1B4A     		ldr	r2, .L79+12
 587 0030 B2FBF1F2 		udiv	r2, r2, r1
 588 0034 9A60     		str	r2, [r3, #8]
 589              	.L73:
 590              		.loc 1 117 0
 591 0036 A288     		ldrh	r2, [r4, #4]
 592              		.loc 1 115 0
 593 0038 E688     		ldrh	r6, [r4, #6]
 594              		.loc 1 116 0
 595 003a 2089     		ldrh	r0, [r4, #8]
 596              		.loc 1 118 0
 597 003c 42F40451 		orr	r1, r2, #8448
 598 0040 41F02C01 		orr	r1, r1, #44
 599              		.loc 1 115 0
 600 0044 46F04006 		orr	r6, r6, #64
 601              		.loc 1 116 0
 602 0048 40F00100 		orr	r0, r0, #1
 603              		.loc 1 120 0
 604 004c 0024     		movs	r4, #0
 605              	.LVL49:
 606              		.loc 1 126 0
 607 004e 02F4A052 		and	r2, r2, #5120
 608              		.loc 1 115 0
 609 0052 1E61     		str	r6, [r3, #16]
 610              		.loc 1 126 0
 611 0054 B2F5806F 		cmp	r2, #1024
 612              		.loc 1 116 0
 613 0058 5861     		str	r0, [r3, #20]
 614              		.loc 1 117 0
 615 005a D960     		str	r1, [r3, #12]
 616              		.loc 1 120 0
 617 005c 1C60     		str	r4, [r3]
 618              		.loc 1 121 0
 619 005e 1968     		ldr	r1, [r3]
 620              		.loc 1 122 0
 621 0060 5B68     		ldr	r3, [r3, #4]
 622              	.LVL50:
 623              		.loc 1 127 0
 624 0062 0CBF     		ite	eq
 625 0064 7F23     		moveq	r3, #127
 626              		.loc 1 130 0
 627 0066 FF23     		movne	r3, #255
ARM GAS  /var/folders/vd/czx34qs52cd_f3nb04sxmghc0000gn/T//ccTWN9rn.s 			page 12


 628 0068 85F87830 		strb	r3, [r5, #120]
 629              	.LVL51:
 630              	.LBE297:
 631              	.LBE296:
 632              		.loc 1 564 0
 633 006c 70BD     		pop	{r4, r5, r6, pc}
 634              	.LVL52:
 635              	.L78:
 636              		.loc 1 515 0
 637 006e 0C4B     		ldr	r3, .L79+16
 638 0070 9842     		cmp	r0, r3
 639 0072 CED1     		bne	.L70
 640              		.loc 1 516 0
 641 0074 0B4B     		ldr	r3, .L79+20
 642 0076 5A6C     		ldr	r2, [r3, #68]
 643 0078 42F01002 		orr	r2, r2, #16
 644 007c 5A64     		str	r2, [r3, #68]
 645 007e 5A6E     		ldr	r2, [r3, #100]
 646 0080 42F01002 		orr	r2, r2, #16
 647 0084 5A66     		str	r2, [r3, #100]
 648              		.loc 1 517 0
 649 0086 0C21     		movs	r1, #12
 650 0088 2520     		movs	r0, #37
 651              	.LVL53:
 652 008a FFF7FEFF 		bl	nvicEnableVector
 653              	.LVL54:
 654 008e C0E7     		b	.L70
 655              	.L80:
 656              		.align	2
 657              	.L79:
 658 0090 00000000 		.word	.LANCHOR1
 659 0094 00100140 		.word	1073811456
 660 0098 80DE8002 		.word	42000000
 661 009c 00BD0105 		.word	84000000
 662 00a0 00000000 		.word	.LANCHOR0
 663 00a4 00380240 		.word	1073887232
 664              		.cfi_endproc
 665              	.LFE320:
 666              		.size	sd_lld_start, .-sd_lld_start
 667              		.section	.text.sd_lld_stop,"ax",%progbits
 668              		.align	1
 669              		.p2align 4,,15
 670              		.global	sd_lld_stop
 671              		.syntax unified
 672              		.thumb
 673              		.thumb_func
 674              		.fpu softvfp
 675              		.type	sd_lld_stop, %function
 676              	sd_lld_stop:
 677              	.LFB321:
 678              		.loc 1 575 0
 679              		.cfi_startproc
 680              		@ args = 0, pretend = 0, frame = 0
 681              		@ frame_needed = 0, uses_anonymous_args = 0
 682              		@ link register save eliminated.
 683              	.LVL55:
 684              		.loc 1 577 0
ARM GAS  /var/folders/vd/czx34qs52cd_f3nb04sxmghc0000gn/T//ccTWN9rn.s 			page 13


 685 0000 037A     		ldrb	r3, [r0, #8]	@ zero_extendqisi2
 686 0002 022B     		cmp	r3, #2
 687 0004 00D0     		beq	.L85
 688              	.L81:
 689              		.loc 1 636 0
 690 0006 7047     		bx	lr
 691              	.L85:
 692              		.loc 1 580 0
 693 0008 0749     		ldr	r1, .L86
 694              		.loc 1 578 0
 695 000a 436F     		ldr	r3, [r0, #116]
 696              	.LVL56:
 697              	.LBB298:
 698              	.LBB299:
 699              		.loc 1 142 0
 700 000c 0022     		movs	r2, #0
 701              	.LBE299:
 702              	.LBE298:
 703              		.loc 1 580 0
 704 000e 8842     		cmp	r0, r1
 705              	.LBB301:
 706              	.LBB300:
 707              		.loc 1 142 0
 708 0010 DA60     		str	r2, [r3, #12]
 709              		.loc 1 143 0
 710 0012 1A61     		str	r2, [r3, #16]
 711              		.loc 1 144 0
 712 0014 5A61     		str	r2, [r3, #20]
 713              	.LVL57:
 714              	.LBE300:
 715              	.LBE301:
 716              		.loc 1 580 0
 717 0016 F6D1     		bne	.L81
 718              		.loc 1 581 0
 719 0018 044A     		ldr	r2, .L86+4
 720 001a 536C     		ldr	r3, [r2, #68]
 721 001c 23F01003 		bic	r3, r3, #16
 722 0020 5364     		str	r3, [r2, #68]
 723              		.loc 1 582 0
 724 0022 2520     		movs	r0, #37
 725              	.LVL58:
 726 0024 FFF7FEBF 		b	nvicDisableVector
 727              	.LVL59:
 728              	.L87:
 729              		.align	2
 730              	.L86:
 731 0028 00000000 		.word	.LANCHOR0
 732 002c 00380240 		.word	1073887232
 733              		.cfi_endproc
 734              	.LFE321:
 735              		.size	sd_lld_stop, .-sd_lld_stop
 736              		.global	SD1
 737              		.section	.bss.SD1,"aw",%nobits
 738              		.align	2
 739              		.set	.LANCHOR0,. + 0
 740              		.type	SD1, %object
 741              		.size	SD1, 124
ARM GAS  /var/folders/vd/czx34qs52cd_f3nb04sxmghc0000gn/T//ccTWN9rn.s 			page 14


 742              	SD1:
 743 0000 00000000 		.space	124
 743      00000000 
 743      00000000 
 743      00000000 
 743      00000000 
 744              		.section	.rodata.default_config,"a",%progbits
 745              		.align	2
 746              		.set	.LANCHOR1,. + 0
 747              		.type	default_config, %object
 748              		.size	default_config, 12
 749              	default_config:
 750 0000 80250000 		.word	9600
 751 0004 0000     		.short	0
 752 0006 0000     		.short	0
 753 0008 0000     		.short	0
 754 000a 0000     		.space	2
 755              		.text
 756              	.Letext0:
 757              		.file 4 "/usr/local/Cellar/gcc-arm-none-eabi/20171218/lib/gcc/arm-none-eabi/7.2.1/include/stddef.h
 758              		.file 5 "/usr/local/Cellar/gcc-arm-none-eabi/20171218/arm-none-eabi/include/machine/_default_types
 759              		.file 6 "/usr/local/Cellar/gcc-arm-none-eabi/20171218/arm-none-eabi/include/sys/_stdint.h"
 760              		.file 7 "../os/common/ports/ARMCMx/compilers/GCC/chtypes.h"
 761              		.file 8 "../os/rt/include/chsystypes.h"
 762              		.file 9 "../os/rt/include/chschd.h"
 763              		.file 10 "../os/rt/include/chtime.h"
 764              		.file 11 "../os/common/ext/ARM/CMSIS/Core/Include/core_cm4.h"
 765              		.file 12 "../os/common/ext/ST/STM32F4xx/system_stm32f4xx.h"
 766              		.file 13 "../os/common/ext/ST/STM32F4xx/stm32f407xx.h"
 767              		.file 14 "../os/common/ports/ARMCMx/chcore.h"
 768              		.file 15 "../os/common/ports/ARMCMx/chcore_v7m.h"
 769              		.file 16 "../os/hal/ports/STM32/LLD/TIMv1/stm32_tim.h"
 770              		.file 17 "../os/rt/include/chtm.h"
 771              		.file 18 "../os/rt/include/chsem.h"
 772              		.file 19 "../os/rt/include/chmtx.h"
 773              		.file 20 "../os/rt/include/chsys.h"
 774              		.file 21 "../os/rt/include/chregistry.h"
 775              		.file 22 "../os/rt/include/chevents.h"
 776              		.file 23 "../os/common/oslib/include/chmemcore.h"
 777              		.file 24 "../os/common/oslib/include/chmempools.h"
 778              		.file 25 "../os/common/oslib/include/chfactory.h"
 779              		.file 26 "../os/hal/ports/STM32/LLD/DMAv2/stm32_dma.h"
 780              		.file 27 "../os/hal/include/hal_queues.h"
 781              		.file 28 "../os/hal/include/hal_pal.h"
 782              		.file 29 "../os/hal/ports/STM32/LLD/GPIOv2/hal_pal_lld.h"
 783              		.file 30 "../os/hal/include/hal_pwm.h"
 784              		.file 31 "../os/hal/ports/STM32/LLD/TIMv1/hal_pwm_lld.h"
 785              		.file 32 "../os/hal/include/hal_serial.h"
 786              		.file 33 "../os/hal/ports/STM32/LLD/USARTv1/hal_serial_lld.h"
 787              		.file 34 "../os/hal/ports/common/ARMCMx/nvic.h"