ARM GAS  /var/folders/vd/czx34qs52cd_f3nb04sxmghc0000gn/T//ccRXSGGx.s 			page 1


   1              		.cpu cortex-m4
   2              		.eabi_attribute 20, 1
   3              		.eabi_attribute 21, 1
   4              		.eabi_attribute 23, 3
   5              		.eabi_attribute 24, 1
   6              		.eabi_attribute 25, 1
   7              		.eabi_attribute 26, 1
   8              		.eabi_attribute 30, 2
   9              		.eabi_attribute 34, 1
  10              		.eabi_attribute 18, 4
  11              		.file	"hal_pal.c"
  12              		.text
  13              	.Ltext0:
  14              		.cfi_sections	.debug_frame
  15              		.section	.text.palReadBus,"ax",%progbits
  16              		.align	1
  17              		.p2align 4,,15
  18              		.global	palReadBus
  19              		.syntax unified
  20              		.thumb
  21              		.thumb_func
  22              		.fpu softvfp
  23              		.type	palReadBus, %function
  24              	palReadBus:
  25              	.LFB313:
  26              		.file 1 "../os/hal/src/hal_pal.c"
  27              		.loc 1 65 0
  28              		.cfi_startproc
  29              		@ args = 0, pretend = 0, frame = 0
  30              		@ frame_needed = 0, uses_anonymous_args = 0
  31              		@ link register save eliminated.
  32              	.LVL0:
  33              		.loc 1 69 0
  34 0000 0368     		ldr	r3, [r0]
  35 0002 8268     		ldr	r2, [r0, #8]
  36 0004 1B69     		ldr	r3, [r3, #16]
  37 0006 4068     		ldr	r0, [r0, #4]
  38              	.LVL1:
  39 0008 D340     		lsrs	r3, r3, r2
  40              		.loc 1 70 0
  41 000a 1840     		ands	r0, r0, r3
  42 000c 7047     		bx	lr
  43              		.cfi_endproc
  44              	.LFE313:
  45              		.size	palReadBus, .-palReadBus
  46 000e 00BF     		.section	.text.palWriteBus,"ax",%progbits
  47              		.align	1
  48              		.p2align 4,,15
  49              		.global	palWriteBus
  50              		.syntax unified
  51              		.thumb
  52              		.thumb_func
  53              		.fpu softvfp
  54              		.type	palWriteBus, %function
  55              	palWriteBus:
  56              	.LFB314:
  57              		.loc 1 90 0
ARM GAS  /var/folders/vd/czx34qs52cd_f3nb04sxmghc0000gn/T//ccRXSGGx.s 			page 2


  58              		.cfi_startproc
  59              		@ args = 0, pretend = 0, frame = 0
  60              		@ frame_needed = 0, uses_anonymous_args = 0
  61              		@ link register save eliminated.
  62              	.LVL2:
  63 0000 10B4     		push	{r4}
  64              		.cfi_def_cfa_offset 4
  65              		.cfi_offset 4, -4
  66              		.loc 1 94 0
  67 0002 D0E90142 		ldrd	r4, r2, [r0, #4]
  68 0006 24EA0103 		bic	r3, r4, r1
  69 000a 2140     		ands	r1, r1, r4
  70              	.LVL3:
  71 000c 02F11004 		add	r4, r2, #16
  72 0010 A340     		lsls	r3, r3, r4
  73 0012 0068     		ldr	r0, [r0]
  74              	.LVL4:
  75              		.loc 1 95 0
  76 0014 10BC     		pop	{r4}
  77              		.cfi_restore 4
  78              		.cfi_def_cfa_offset 0
  79              		.loc 1 94 0
  80 0016 9140     		lsls	r1, r1, r2
  81 0018 1943     		orrs	r1, r1, r3
  82 001a 8161     		str	r1, [r0, #24]
  83              		.loc 1 95 0
  84 001c 7047     		bx	lr
  85              		.cfi_endproc
  86              	.LFE314:
  87              		.size	palWriteBus, .-palWriteBus
  88 001e 00BF     		.section	.text.palSetBusMode,"ax",%progbits
  89              		.align	1
  90              		.p2align 4,,15
  91              		.global	palSetBusMode
  92              		.syntax unified
  93              		.thumb
  94              		.thumb_func
  95              		.fpu softvfp
  96              		.type	palSetBusMode, %function
  97              	palSetBusMode:
  98              	.LFB315:
  99              		.loc 1 113 0
 100              		.cfi_startproc
 101              		@ args = 0, pretend = 0, frame = 0
 102              		@ frame_needed = 0, uses_anonymous_args = 0
 103              		@ link register save eliminated.
 104              	.LVL5:
 105              		.loc 1 117 0
 106 0000 0A46     		mov	r2, r1
 107 0002 D0E90113 		ldrd	r1, r3, [r0, #4]
 108              	.LVL6:
 109 0006 0068     		ldr	r0, [r0]
 110              	.LVL7:
 111 0008 9940     		lsls	r1, r1, r3
 112 000a FFF7FEBF 		b	_pal_lld_setgroupmode
 113              	.LVL8:
 114              		.cfi_endproc
ARM GAS  /var/folders/vd/czx34qs52cd_f3nb04sxmghc0000gn/T//ccRXSGGx.s 			page 3


 115              	.LFE315:
 116              		.size	palSetBusMode, .-palSetBusMode
 117 000e 00BF     		.text
 118              	.Letext0:
 119              		.file 2 "/usr/local/Cellar/gcc-arm-none-eabi/20171218/lib/gcc/arm-none-eabi/7.2.1/include/stddef.h
 120              		.file 3 "/usr/local/Cellar/gcc-arm-none-eabi/20171218/arm-none-eabi/include/machine/_default_types
 121              		.file 4 "/usr/local/Cellar/gcc-arm-none-eabi/20171218/arm-none-eabi/include/sys/_stdint.h"
 122              		.file 5 "/usr/local/Cellar/gcc-arm-none-eabi/20171218/arm-none-eabi/include/stdint.h"
 123              		.file 6 "../os/common/ports/ARMCMx/compilers/GCC/chtypes.h"
 124              		.file 7 "../os/rt/include/chsystypes.h"
 125              		.file 8 "../os/rt/include/chschd.h"
 126              		.file 9 "../os/rt/include/chtime.h"
 127              		.file 10 "../os/common/ext/ARM/CMSIS/Core/Include/core_cm4.h"
 128              		.file 11 "../os/common/ext/ST/STM32F4xx/system_stm32f4xx.h"
 129              		.file 12 "../os/common/ext/ST/STM32F4xx/stm32f407xx.h"
 130              		.file 13 "../os/common/ports/ARMCMx/chcore.h"
 131              		.file 14 "../os/common/ports/ARMCMx/chcore_v7m.h"
 132              		.file 15 "../os/hal/ports/STM32/LLD/TIMv1/stm32_tim.h"
 133              		.file 16 "../os/rt/include/chtm.h"
 134              		.file 17 "../os/rt/include/chsem.h"
 135              		.file 18 "../os/rt/include/chmtx.h"
 136              		.file 19 "../os/rt/include/chsys.h"
 137              		.file 20 "../os/rt/include/chregistry.h"
 138              		.file 21 "../os/rt/include/chevents.h"
 139              		.file 22 "../os/common/oslib/include/chmemcore.h"
 140              		.file 23 "../os/common/oslib/include/chmempools.h"
 141              		.file 24 "../os/common/oslib/include/chfactory.h"
 142              		.file 25 "../os/hal/ports/STM32/LLD/DMAv2/stm32_dma.h"
 143              		.file 26 "../os/hal/include/hal_queues.h"
 144              		.file 27 "../os/hal/include/hal_pal.h"
 145              		.file 28 "../os/hal/ports/STM32/LLD/GPIOv2/stm32_gpio.h"
 146              		.file 29 "../os/hal/ports/STM32/LLD/GPIOv2/hal_pal_lld.h"
 147              		.file 30 "../os/hal/include/hal_pwm.h"
 148              		.file 31 "../os/hal/ports/STM32/LLD/TIMv1/hal_pwm_lld.h"
 149              		.file 32 "../os/hal/include/hal_serial.h"
 150              		.file 33 "../os/hal/ports/STM32/LLD/USARTv1/hal_serial_lld.h"
 151              		.section	.debug_info,"",%progbits
 152              	.Ldebug_info0:
 153 0000 06140000 		.4byte	0x1406
 154 0004 0400     		.2byte	0x4
 155 0006 00000000 		.4byte	.Ldebug_abbrev0
 156 000a 04       		.byte	0x4
 157 000b 01       		.uleb128 0x1
 158 000c E5040000 		.4byte	.LASF251
 159 0010 0C       		.byte	0xc
 160 0011 3D040000 		.4byte	.LASF252
 161 0015 BC090000 		.4byte	.LASF253
 162 0019 00000000 		.4byte	.Ldebug_ranges0+0
 163 001d 00000000 		.4byte	0
 164 0021 00000000 		.4byte	.Ldebug_line0
 165 0025 02       		.uleb128 0x2
 166 0026 04       		.byte	0x4
 167 0027 05       		.byte	0x5
 168 0028 696E7400 		.ascii	"int\000"
 169 002c 03       		.uleb128 0x3
 170 002d 20000000 		.4byte	.LASF4
 171 0031 02       		.byte	0x2
ARM GAS  /var/folders/vd/czx34qs52cd_f3nb04sxmghc0000gn/T//ccRXSGGx.s 			page 4


 172 0032 D8       		.byte	0xd8
 173 0033 3C000000 		.4byte	0x3c
 174 0037 04       		.uleb128 0x4
 175 0038 2C000000 		.4byte	0x2c
 176 003c 05       		.uleb128 0x5
 177 003d 04       		.byte	0x4
 178 003e 07       		.byte	0x7
 179 003f 71060000 		.4byte	.LASF0
 180 0043 05       		.uleb128 0x5
 181 0044 08       		.byte	0x8
 182 0045 05       		.byte	0x5
 183 0046 D2050000 		.4byte	.LASF1
 184 004a 05       		.uleb128 0x5
 185 004b 08       		.byte	0x8
 186 004c 04       		.byte	0x4
 187 004d F0060000 		.4byte	.LASF2
 188 0051 05       		.uleb128 0x5
 189 0052 01       		.byte	0x1
 190 0053 06       		.byte	0x6
 191 0054 F8010000 		.4byte	.LASF3
 192 0058 03       		.uleb128 0x3
 193 0059 45010000 		.4byte	.LASF5
 194 005d 03       		.byte	0x3
 195 005e 2B       		.byte	0x2b
 196 005f 63000000 		.4byte	0x63
 197 0063 05       		.uleb128 0x5
 198 0064 01       		.byte	0x1
 199 0065 08       		.byte	0x8
 200 0066 35020000 		.4byte	.LASF6
 201 006a 05       		.uleb128 0x5
 202 006b 02       		.byte	0x2
 203 006c 05       		.byte	0x5
 204 006d C3080000 		.4byte	.LASF7
 205 0071 03       		.uleb128 0x3
 206 0072 B0020000 		.4byte	.LASF8
 207 0076 03       		.byte	0x3
 208 0077 39       		.byte	0x39
 209 0078 7C000000 		.4byte	0x7c
 210 007c 05       		.uleb128 0x5
 211 007d 02       		.byte	0x2
 212 007e 07       		.byte	0x7
 213 007f 220A0000 		.4byte	.LASF9
 214 0083 03       		.uleb128 0x3
 215 0084 630A0000 		.4byte	.LASF10
 216 0088 03       		.byte	0x3
 217 0089 4D       		.byte	0x4d
 218 008a 8E000000 		.4byte	0x8e
 219 008e 05       		.uleb128 0x5
 220 008f 04       		.byte	0x4
 221 0090 05       		.byte	0x5
 222 0091 76010000 		.4byte	.LASF11
 223 0095 03       		.uleb128 0x3
 224 0096 BF050000 		.4byte	.LASF12
 225 009a 03       		.byte	0x3
 226 009b 4F       		.byte	0x4f
 227 009c A0000000 		.4byte	0xa0
 228 00a0 05       		.uleb128 0x5
ARM GAS  /var/folders/vd/czx34qs52cd_f3nb04sxmghc0000gn/T//ccRXSGGx.s 			page 5


 229 00a1 04       		.byte	0x4
 230 00a2 07       		.byte	0x7
 231 00a3 B9030000 		.4byte	.LASF13
 232 00a7 03       		.uleb128 0x3
 233 00a8 A4030000 		.4byte	.LASF14
 234 00ac 03       		.byte	0x3
 235 00ad 69       		.byte	0x69
 236 00ae B2000000 		.4byte	0xb2
 237 00b2 05       		.uleb128 0x5
 238 00b3 08       		.byte	0x8
 239 00b4 07       		.byte	0x7
 240 00b5 75070000 		.4byte	.LASF15
 241 00b9 03       		.uleb128 0x3
 242 00ba 0B020000 		.4byte	.LASF16
 243 00be 04       		.byte	0x4
 244 00bf 18       		.byte	0x18
 245 00c0 58000000 		.4byte	0x58
 246 00c4 06       		.uleb128 0x6
 247 00c5 B9000000 		.4byte	0xb9
 248 00c9 03       		.uleb128 0x3
 249 00ca 95070000 		.4byte	.LASF17
 250 00ce 04       		.byte	0x4
 251 00cf 24       		.byte	0x24
 252 00d0 71000000 		.4byte	0x71
 253 00d4 03       		.uleb128 0x3
 254 00d5 74000000 		.4byte	.LASF18
 255 00d9 04       		.byte	0x4
 256 00da 2C       		.byte	0x2c
 257 00db 83000000 		.4byte	0x83
 258 00df 04       		.uleb128 0x4
 259 00e0 D4000000 		.4byte	0xd4
 260 00e4 03       		.uleb128 0x3
 261 00e5 B3090000 		.4byte	.LASF19
 262 00e9 04       		.byte	0x4
 263 00ea 30       		.byte	0x30
 264 00eb 95000000 		.4byte	0x95
 265 00ef 04       		.uleb128 0x4
 266 00f0 E4000000 		.4byte	0xe4
 267 00f4 03       		.uleb128 0x3
 268 00f5 DA080000 		.4byte	.LASF20
 269 00f9 04       		.byte	0x4
 270 00fa 3C       		.byte	0x3c
 271 00fb A7000000 		.4byte	0xa7
 272 00ff 03       		.uleb128 0x3
 273 0100 AC080000 		.4byte	.LASF21
 274 0104 05       		.byte	0x5
 275 0105 34       		.byte	0x34
 276 0106 3C000000 		.4byte	0x3c
 277 010a 03       		.uleb128 0x3
 278 010b 7E060000 		.4byte	.LASF22
 279 010f 06       		.byte	0x6
 280 0110 39       		.byte	0x39
 281 0111 E4000000 		.4byte	0xe4
 282 0115 03       		.uleb128 0x3
 283 0116 5F080000 		.4byte	.LASF23
 284 011a 06       		.byte	0x6
 285 011b 3C       		.byte	0x3c
ARM GAS  /var/folders/vd/czx34qs52cd_f3nb04sxmghc0000gn/T//ccRXSGGx.s 			page 6


 286 011c B9000000 		.4byte	0xb9
 287 0120 03       		.uleb128 0x3
 288 0121 97010000 		.4byte	.LASF24
 289 0125 06       		.byte	0x6
 290 0126 3D       		.byte	0x3d
 291 0127 B9000000 		.4byte	0xb9
 292 012b 03       		.uleb128 0x3
 293 012c 69090000 		.4byte	.LASF25
 294 0130 06       		.byte	0x6
 295 0131 3E       		.byte	0x3e
 296 0132 B9000000 		.4byte	0xb9
 297 0136 03       		.uleb128 0x3
 298 0137 5A000000 		.4byte	.LASF26
 299 013b 06       		.byte	0x6
 300 013c 40       		.byte	0x40
 301 013d E4000000 		.4byte	0xe4
 302 0141 03       		.uleb128 0x3
 303 0142 AD070000 		.4byte	.LASF27
 304 0146 06       		.byte	0x6
 305 0147 41       		.byte	0x41
 306 0148 D4000000 		.4byte	0xd4
 307 014c 03       		.uleb128 0x3
 308 014d 1A020000 		.4byte	.LASF28
 309 0151 06       		.byte	0x6
 310 0152 43       		.byte	0x43
 311 0153 E4000000 		.4byte	0xe4
 312 0157 03       		.uleb128 0x3
 313 0158 C4070000 		.4byte	.LASF29
 314 015c 06       		.byte	0x6
 315 015d 44       		.byte	0x44
 316 015e E4000000 		.4byte	0xe4
 317 0162 03       		.uleb128 0x3
 318 0163 45030000 		.4byte	.LASF30
 319 0167 06       		.byte	0x6
 320 0168 45       		.byte	0x45
 321 0169 D4000000 		.4byte	0xd4
 322 016d 03       		.uleb128 0x3
 323 016e A7040000 		.4byte	.LASF31
 324 0172 06       		.byte	0x6
 325 0173 46       		.byte	0x46
 326 0174 E4000000 		.4byte	0xe4
 327 0178 03       		.uleb128 0x3
 328 0179 E7060000 		.4byte	.LASF32
 329 017d 07       		.byte	0x7
 330 017e 34       		.byte	0x34
 331 017f 83010000 		.4byte	0x183
 332 0183 07       		.uleb128 0x7
 333 0184 F8030000 		.4byte	.LASF50
 334 0188 44       		.byte	0x44
 335 0189 08       		.byte	0x8
 336 018a 8E       		.byte	0x8e
 337 018b 61020000 		.4byte	0x261
 338 018f 08       		.uleb128 0x8
 339 0190 E6070000 		.4byte	.LASF33
 340 0194 08       		.byte	0x8
 341 0195 8F       		.byte	0x8f
 342 0196 96020000 		.4byte	0x296
ARM GAS  /var/folders/vd/czx34qs52cd_f3nb04sxmghc0000gn/T//ccRXSGGx.s 			page 7


 343 019a 00       		.byte	0
 344 019b 08       		.uleb128 0x8
 345 019c 18010000 		.4byte	.LASF34
 346 01a0 08       		.byte	0x8
 347 01a1 90       		.byte	0x90
 348 01a2 36010000 		.4byte	0x136
 349 01a6 08       		.byte	0x8
 350 01a7 09       		.uleb128 0x9
 351 01a8 63747800 		.ascii	"ctx\000"
 352 01ac 08       		.byte	0x8
 353 01ad 91       		.byte	0x91
 354 01ae F0050000 		.4byte	0x5f0
 355 01b2 0C       		.byte	0xc
 356 01b3 08       		.uleb128 0x8
 357 01b4 A8090000 		.4byte	.LASF35
 358 01b8 08       		.byte	0x8
 359 01b9 93       		.byte	0x93
 360 01ba 6C020000 		.4byte	0x26c
 361 01be 10       		.byte	0x10
 362 01bf 08       		.uleb128 0x8
 363 01c0 7C040000 		.4byte	.LASF36
 364 01c4 08       		.byte	0x8
 365 01c5 94       		.byte	0x94
 366 01c6 6C020000 		.4byte	0x26c
 367 01ca 14       		.byte	0x14
 368 01cb 08       		.uleb128 0x8
 369 01cc 90080000 		.4byte	.LASF37
 370 01d0 08       		.byte	0x8
 371 01d1 9B       		.byte	0x9b
 372 01d2 8C080000 		.4byte	0x88c
 373 01d6 18       		.byte	0x18
 374 01d7 08       		.uleb128 0x8
 375 01d8 26080000 		.4byte	.LASF38
 376 01dc 08       		.byte	0x8
 377 01dd A4       		.byte	0xa4
 378 01de A3080000 		.4byte	0x8a3
 379 01e2 1C       		.byte	0x1c
 380 01e3 08       		.uleb128 0x8
 381 01e4 D4000000 		.4byte	.LASF39
 382 01e8 08       		.byte	0x8
 383 01e9 A9       		.byte	0xa9
 384 01ea 20010000 		.4byte	0x120
 385 01ee 20       		.byte	0x20
 386 01ef 08       		.uleb128 0x8
 387 01f0 D6020000 		.4byte	.LASF40
 388 01f4 08       		.byte	0x8
 389 01f5 AD       		.byte	0xad
 390 01f6 15010000 		.4byte	0x115
 391 01fa 21       		.byte	0x21
 392 01fb 08       		.uleb128 0x8
 393 01fc E1070000 		.4byte	.LASF41
 394 0200 08       		.byte	0x8
 395 0201 B2       		.byte	0xb2
 396 0202 2B010000 		.4byte	0x12b
 397 0206 22       		.byte	0x22
 398 0207 0A       		.uleb128 0xa
 399 0208 7500     		.ascii	"u\000"
ARM GAS  /var/folders/vd/czx34qs52cd_f3nb04sxmghc0000gn/T//ccRXSGGx.s 			page 8


 400 020a 08       		.byte	0x8
 401 020b 0301     		.2byte	0x103
 402 020d C2070000 		.4byte	0x7c2
 403 0211 24       		.byte	0x24
 404 0212 0B       		.uleb128 0xb
 405 0213 4F090000 		.4byte	.LASF42
 406 0217 08       		.byte	0x8
 407 0218 0801     		.2byte	0x108
 408 021a 72020000 		.4byte	0x272
 409 021e 28       		.byte	0x28
 410 021f 0B       		.uleb128 0xb
 411 0220 F6080000 		.4byte	.LASF43
 412 0224 08       		.byte	0x8
 413 0225 0E01     		.2byte	0x10e
 414 0227 96020000 		.4byte	0x296
 415 022b 2C       		.byte	0x2c
 416 022c 0B       		.uleb128 0xb
 417 022d A0010000 		.4byte	.LASF44
 418 0231 08       		.byte	0x8
 419 0232 1401     		.2byte	0x114
 420 0234 4C010000 		.4byte	0x14c
 421 0238 34       		.byte	0x34
 422 0239 0B       		.uleb128 0xb
 423 023a CA050000 		.4byte	.LASF45
 424 023e 08       		.byte	0x8
 425 023f 1B01     		.2byte	0x11b
 426 0241 86080000 		.4byte	0x886
 427 0245 38       		.byte	0x38
 428 0246 0B       		.uleb128 0xb
 429 0247 92040000 		.4byte	.LASF46
 430 024b 08       		.byte	0x8
 431 024c 1F01     		.2byte	0x11f
 432 024e 36010000 		.4byte	0x136
 433 0252 3C       		.byte	0x3c
 434 0253 0B       		.uleb128 0xb
 435 0254 FA020000 		.4byte	.LASF47
 436 0258 08       		.byte	0x8
 437 0259 2601     		.2byte	0x126
 438 025b 49030000 		.4byte	0x349
 439 025f 40       		.byte	0x40
 440 0260 00       		.byte	0
 441 0261 03       		.uleb128 0x3
 442 0262 03070000 		.4byte	.LASF48
 443 0266 07       		.byte	0x7
 444 0267 39       		.byte	0x39
 445 0268 6C020000 		.4byte	0x26c
 446 026c 0C       		.uleb128 0xc
 447 026d 04       		.byte	0x4
 448 026e 78010000 		.4byte	0x178
 449 0272 03       		.uleb128 0x3
 450 0273 7E090000 		.4byte	.LASF49
 451 0277 07       		.byte	0x7
 452 0278 3E       		.byte	0x3e
 453 0279 7D020000 		.4byte	0x27d
 454 027d 07       		.uleb128 0x7
 455 027e CD040000 		.4byte	.LASF51
 456 0282 04       		.byte	0x4
ARM GAS  /var/folders/vd/czx34qs52cd_f3nb04sxmghc0000gn/T//ccRXSGGx.s 			page 9


 457 0283 08       		.byte	0x8
 458 0284 7C       		.byte	0x7c
 459 0285 96020000 		.4byte	0x296
 460 0289 08       		.uleb128 0x8
 461 028a 9B0A0000 		.4byte	.LASF52
 462 028e 08       		.byte	0x8
 463 028f 7D       		.byte	0x7d
 464 0290 6C020000 		.4byte	0x26c
 465 0294 00       		.byte	0
 466 0295 00       		.byte	0
 467 0296 03       		.uleb128 0x3
 468 0297 A9010000 		.4byte	.LASF53
 469 029b 07       		.byte	0x7
 470 029c 45       		.byte	0x45
 471 029d A1020000 		.4byte	0x2a1
 472 02a1 07       		.uleb128 0x7
 473 02a2 B3070000 		.4byte	.LASF54
 474 02a6 08       		.byte	0x8
 475 02a7 08       		.byte	0x8
 476 02a8 83       		.byte	0x83
 477 02a9 C6020000 		.4byte	0x2c6
 478 02ad 08       		.uleb128 0x8
 479 02ae 9B0A0000 		.4byte	.LASF52
 480 02b2 08       		.byte	0x8
 481 02b3 84       		.byte	0x84
 482 02b4 6C020000 		.4byte	0x26c
 483 02b8 00       		.byte	0
 484 02b9 08       		.uleb128 0x8
 485 02ba A00A0000 		.4byte	.LASF55
 486 02be 08       		.byte	0x8
 487 02bf 85       		.byte	0x85
 488 02c0 6C020000 		.4byte	0x26c
 489 02c4 04       		.byte	0x4
 490 02c5 00       		.byte	0
 491 02c6 03       		.uleb128 0x3
 492 02c7 6F040000 		.4byte	.LASF56
 493 02cb 07       		.byte	0x7
 494 02cc 4C       		.byte	0x4c
 495 02cd D1020000 		.4byte	0x2d1
 496 02d1 0D       		.uleb128 0xd
 497 02d2 6D030000 		.4byte	.LASF57
 498 02d6 1C       		.byte	0x1c
 499 02d7 08       		.byte	0x8
 500 02d8 5E01     		.2byte	0x15e
 501 02da 2D030000 		.4byte	0x32d
 502 02de 0B       		.uleb128 0xb
 503 02df E6070000 		.4byte	.LASF33
 504 02e3 08       		.byte	0x8
 505 02e4 5F01     		.2byte	0x15f
 506 02e6 96020000 		.4byte	0x296
 507 02ea 00       		.byte	0
 508 02eb 0B       		.uleb128 0xb
 509 02ec 18010000 		.4byte	.LASF34
 510 02f0 08       		.byte	0x8
 511 02f1 6001     		.2byte	0x160
 512 02f3 36010000 		.4byte	0x136
 513 02f7 08       		.byte	0x8
ARM GAS  /var/folders/vd/czx34qs52cd_f3nb04sxmghc0000gn/T//ccRXSGGx.s 			page 10


 514 02f8 0A       		.uleb128 0xa
 515 02f9 63747800 		.ascii	"ctx\000"
 516 02fd 08       		.byte	0x8
 517 02fe 6201     		.2byte	0x162
 518 0300 F0050000 		.4byte	0x5f0
 519 0304 0C       		.byte	0xc
 520 0305 0B       		.uleb128 0xb
 521 0306 A8090000 		.4byte	.LASF35
 522 030a 08       		.byte	0x8
 523 030b 6501     		.2byte	0x165
 524 030d 6C020000 		.4byte	0x26c
 525 0311 10       		.byte	0x10
 526 0312 0B       		.uleb128 0xb
 527 0313 7C040000 		.4byte	.LASF36
 528 0317 08       		.byte	0x8
 529 0318 6601     		.2byte	0x166
 530 031a 6C020000 		.4byte	0x26c
 531 031e 14       		.byte	0x14
 532 031f 0B       		.uleb128 0xb
 533 0320 A2060000 		.4byte	.LASF58
 534 0324 08       		.byte	0x8
 535 0325 6901     		.2byte	0x169
 536 0327 6C020000 		.4byte	0x26c
 537 032b 18       		.byte	0x18
 538 032c 00       		.byte	0
 539 032d 03       		.uleb128 0x3
 540 032e 83000000 		.4byte	.LASF59
 541 0332 07       		.byte	0x7
 542 0333 51       		.byte	0x51
 543 0334 38030000 		.4byte	0x338
 544 0338 0C       		.uleb128 0xc
 545 0339 04       		.byte	0x4
 546 033a 3E030000 		.4byte	0x33e
 547 033e 0E       		.uleb128 0xe
 548 033f 49030000 		.4byte	0x349
 549 0343 0F       		.uleb128 0xf
 550 0344 49030000 		.4byte	0x349
 551 0348 00       		.byte	0
 552 0349 10       		.uleb128 0x10
 553 034a 04       		.byte	0x4
 554 034b 03       		.uleb128 0x3
 555 034c 5F040000 		.4byte	.LASF60
 556 0350 07       		.byte	0x7
 557 0351 56       		.byte	0x56
 558 0352 56030000 		.4byte	0x356
 559 0356 0D       		.uleb128 0xd
 560 0357 5F070000 		.4byte	.LASF61
 561 035b 14       		.byte	0x14
 562 035c 08       		.byte	0x8
 563 035d 3901     		.2byte	0x139
 564 035f A5030000 		.4byte	0x3a5
 565 0363 0B       		.uleb128 0xb
 566 0364 9B0A0000 		.4byte	.LASF52
 567 0368 08       		.byte	0x8
 568 0369 3A01     		.2byte	0x13a
 569 036b A9080000 		.4byte	0x8a9
 570 036f 00       		.byte	0
ARM GAS  /var/folders/vd/czx34qs52cd_f3nb04sxmghc0000gn/T//ccRXSGGx.s 			page 11


 571 0370 0B       		.uleb128 0xb
 572 0371 A00A0000 		.4byte	.LASF55
 573 0375 08       		.byte	0x8
 574 0376 3B01     		.2byte	0x13b
 575 0378 A9080000 		.4byte	0x8a9
 576 037c 04       		.byte	0x4
 577 037d 0B       		.uleb128 0xb
 578 037e D6070000 		.4byte	.LASF62
 579 0382 08       		.byte	0x8
 580 0383 3C01     		.2byte	0x13c
 581 0385 7C040000 		.4byte	0x47c
 582 0389 08       		.byte	0x8
 583 038a 0B       		.uleb128 0xb
 584 038b E8080000 		.4byte	.LASF63
 585 038f 08       		.byte	0x8
 586 0390 3D01     		.2byte	0x13d
 587 0392 2D030000 		.4byte	0x32d
 588 0396 0C       		.byte	0xc
 589 0397 0A       		.uleb128 0xa
 590 0398 70617200 		.ascii	"par\000"
 591 039c 08       		.byte	0x8
 592 039d 3F01     		.2byte	0x13f
 593 039f 49030000 		.4byte	0x349
 594 03a3 10       		.byte	0x10
 595 03a4 00       		.byte	0
 596 03a5 03       		.uleb128 0x3
 597 03a6 02040000 		.4byte	.LASF64
 598 03aa 07       		.byte	0x7
 599 03ab 5B       		.byte	0x5b
 600 03ac B0030000 		.4byte	0x3b0
 601 03b0 0D       		.uleb128 0xd
 602 03b1 8C000000 		.4byte	.LASF65
 603 03b5 10       		.byte	0x10
 604 03b6 08       		.byte	0x8
 605 03b7 4901     		.2byte	0x149
 606 03b9 F2030000 		.4byte	0x3f2
 607 03bd 0B       		.uleb128 0xb
 608 03be 9B0A0000 		.4byte	.LASF52
 609 03c2 08       		.byte	0x8
 610 03c3 4A01     		.2byte	0x14a
 611 03c5 A9080000 		.4byte	0x8a9
 612 03c9 00       		.byte	0
 613 03ca 0B       		.uleb128 0xb
 614 03cb A00A0000 		.4byte	.LASF55
 615 03cf 08       		.byte	0x8
 616 03d0 4C01     		.2byte	0x14c
 617 03d2 A9080000 		.4byte	0x8a9
 618 03d6 04       		.byte	0x4
 619 03d7 0B       		.uleb128 0xb
 620 03d8 D6070000 		.4byte	.LASF62
 621 03dc 08       		.byte	0x8
 622 03dd 4E01     		.2byte	0x14e
 623 03df 7C040000 		.4byte	0x47c
 624 03e3 08       		.byte	0x8
 625 03e4 0B       		.uleb128 0xb
 626 03e5 4A020000 		.4byte	.LASF66
 627 03e9 08       		.byte	0x8
ARM GAS  /var/folders/vd/czx34qs52cd_f3nb04sxmghc0000gn/T//ccRXSGGx.s 			page 12


 628 03ea 5601     		.2byte	0x156
 629 03ec 71040000 		.4byte	0x471
 630 03f0 0C       		.byte	0xc
 631 03f1 00       		.byte	0
 632 03f2 03       		.uleb128 0x3
 633 03f3 6A020000 		.4byte	.LASF67
 634 03f7 07       		.byte	0x7
 635 03f8 60       		.byte	0x60
 636 03f9 FD030000 		.4byte	0x3fd
 637 03fd 0D       		.uleb128 0xd
 638 03fe 11090000 		.4byte	.LASF68
 639 0402 04       		.byte	0x4
 640 0403 08       		.byte	0x8
 641 0404 7001     		.2byte	0x170
 642 0406 18040000 		.4byte	0x418
 643 040a 0B       		.uleb128 0xb
 644 040b 60020000 		.4byte	.LASF69
 645 040f 08       		.byte	0x8
 646 0410 7801     		.2byte	0x178
 647 0412 92080000 		.4byte	0x892
 648 0416 00       		.byte	0
 649 0417 00       		.byte	0
 650 0418 03       		.uleb128 0x3
 651 0419 350A0000 		.4byte	.LASF70
 652 041d 07       		.byte	0x7
 653 041e 65       		.byte	0x65
 654 041f 23040000 		.4byte	0x423
 655 0423 0D       		.uleb128 0xd
 656 0424 93090000 		.4byte	.LASF71
 657 0428 78       		.byte	0x78
 658 0429 08       		.byte	0x8
 659 042a 9001     		.2byte	0x190
 660 042c 71040000 		.4byte	0x471
 661 0430 0B       		.uleb128 0xb
 662 0431 59080000 		.4byte	.LASF72
 663 0435 08       		.byte	0x8
 664 0436 9401     		.2byte	0x194
 665 0438 C6020000 		.4byte	0x2c6
 666 043c 00       		.byte	0
 667 043d 0B       		.uleb128 0xb
 668 043e 48090000 		.4byte	.LASF73
 669 0442 08       		.byte	0x8
 670 0443 9801     		.2byte	0x198
 671 0445 A5030000 		.4byte	0x3a5
 672 0449 1C       		.byte	0x1c
 673 044a 0A       		.uleb128 0xa
 674 044b 64626700 		.ascii	"dbg\000"
 675 044f 08       		.byte	0x8
 676 0450 9C01     		.2byte	0x19c
 677 0452 F2030000 		.4byte	0x3f2
 678 0456 2C       		.byte	0x2c
 679 0457 0B       		.uleb128 0xb
 680 0458 07080000 		.4byte	.LASF74
 681 045c 08       		.byte	0x8
 682 045d A001     		.2byte	0x1a0
 683 045f 78010000 		.4byte	0x178
 684 0463 30       		.byte	0x30
ARM GAS  /var/folders/vd/czx34qs52cd_f3nb04sxmghc0000gn/T//ccRXSGGx.s 			page 13


 685 0464 0A       		.uleb128 0xa
 686 0465 746D00   		.ascii	"tm\000"
 687 0468 08       		.byte	0x8
 688 0469 A501     		.2byte	0x1a5
 689 046b B7070000 		.4byte	0x7b7
 690 046f 74       		.byte	0x74
 691 0470 00       		.byte	0
 692 0471 03       		.uleb128 0x3
 693 0472 3E000000 		.4byte	.LASF75
 694 0476 09       		.byte	0x9
 695 0477 8C       		.byte	0x8c
 696 0478 E4000000 		.4byte	0xe4
 697 047c 03       		.uleb128 0x3
 698 047d E0050000 		.4byte	.LASF76
 699 0481 09       		.byte	0x9
 700 0482 98       		.byte	0x98
 701 0483 E4000000 		.4byte	0xe4
 702 0487 11       		.uleb128 0x11
 703 0488 26060000 		.4byte	.LASF77
 704 048c 0A       		.byte	0xa
 705 048d F407     		.2byte	0x7f4
 706 048f DF000000 		.4byte	0xdf
 707 0493 12       		.uleb128 0x12
 708 0494 DB030000 		.4byte	.LASF78
 709 0498 0B       		.byte	0xb
 710 0499 4C       		.byte	0x4c
 711 049a E4000000 		.4byte	0xe4
 712 049e 13       		.uleb128 0x13
 713 049f C4000000 		.4byte	0xc4
 714 04a3 AE040000 		.4byte	0x4ae
 715 04a7 14       		.uleb128 0x14
 716 04a8 3C000000 		.4byte	0x3c
 717 04ac 0F       		.byte	0xf
 718 04ad 00       		.byte	0
 719 04ae 06       		.uleb128 0x6
 720 04af 9E040000 		.4byte	0x49e
 721 04b3 12       		.uleb128 0x12
 722 04b4 51070000 		.4byte	.LASF79
 723 04b8 0B       		.byte	0xb
 724 04b9 4E       		.byte	0x4e
 725 04ba AE040000 		.4byte	0x4ae
 726 04be 13       		.uleb128 0x13
 727 04bf C4000000 		.4byte	0xc4
 728 04c3 CE040000 		.4byte	0x4ce
 729 04c7 14       		.uleb128 0x14
 730 04c8 3C000000 		.4byte	0x3c
 731 04cc 07       		.byte	0x7
 732 04cd 00       		.byte	0
 733 04ce 06       		.uleb128 0x6
 734 04cf BE040000 		.4byte	0x4be
 735 04d3 12       		.uleb128 0x12
 736 04d4 9E080000 		.4byte	.LASF80
 737 04d8 0B       		.byte	0xb
 738 04d9 4F       		.byte	0x4f
 739 04da CE040000 		.4byte	0x4ce
 740 04de 15       		.uleb128 0x15
 741 04df 18       		.byte	0x18
ARM GAS  /var/folders/vd/czx34qs52cd_f3nb04sxmghc0000gn/T//ccRXSGGx.s 			page 14


 742 04e0 0C       		.byte	0xc
 743 04e1 6A01     		.2byte	0x16a
 744 04e3 35050000 		.4byte	0x535
 745 04e7 0A       		.uleb128 0xa
 746 04e8 435200   		.ascii	"CR\000"
 747 04eb 0C       		.byte	0xc
 748 04ec 6C01     		.2byte	0x16c
 749 04ee EF000000 		.4byte	0xef
 750 04f2 00       		.byte	0
 751 04f3 0B       		.uleb128 0xb
 752 04f4 750A0000 		.4byte	.LASF81
 753 04f8 0C       		.byte	0xc
 754 04f9 6D01     		.2byte	0x16d
 755 04fb EF000000 		.4byte	0xef
 756 04ff 04       		.byte	0x4
 757 0500 0A       		.uleb128 0xa
 758 0501 50415200 		.ascii	"PAR\000"
 759 0505 0C       		.byte	0xc
 760 0506 6E01     		.2byte	0x16e
 761 0508 EF000000 		.4byte	0xef
 762 050c 08       		.byte	0x8
 763 050d 0B       		.uleb128 0xb
 764 050e 8B080000 		.4byte	.LASF82
 765 0512 0C       		.byte	0xc
 766 0513 6F01     		.2byte	0x16f
 767 0515 EF000000 		.4byte	0xef
 768 0519 0C       		.byte	0xc
 769 051a 0B       		.uleb128 0xb
 770 051b 08000000 		.4byte	.LASF83
 771 051f 0C       		.byte	0xc
 772 0520 7001     		.2byte	0x170
 773 0522 EF000000 		.4byte	0xef
 774 0526 10       		.byte	0x10
 775 0527 0A       		.uleb128 0xa
 776 0528 46435200 		.ascii	"FCR\000"
 777 052c 0C       		.byte	0xc
 778 052d 7101     		.2byte	0x171
 779 052f EF000000 		.4byte	0xef
 780 0533 14       		.byte	0x14
 781 0534 00       		.byte	0
 782 0535 16       		.uleb128 0x16
 783 0536 BB060000 		.4byte	.LASF84
 784 053a 0C       		.byte	0xc
 785 053b 7201     		.2byte	0x172
 786 053d DE040000 		.4byte	0x4de
 787 0541 13       		.uleb128 0x13
 788 0542 EF000000 		.4byte	0xef
 789 0546 51050000 		.4byte	0x551
 790 054a 14       		.uleb128 0x14
 791 054b 3C000000 		.4byte	0x3c
 792 054f 01       		.byte	0x1
 793 0550 00       		.byte	0
 794 0551 04       		.uleb128 0x4
 795 0552 41050000 		.4byte	0x541
 796 0556 13       		.uleb128 0x13
 797 0557 EF000000 		.4byte	0xef
 798 055b 66050000 		.4byte	0x566
ARM GAS  /var/folders/vd/czx34qs52cd_f3nb04sxmghc0000gn/T//ccRXSGGx.s 			page 15


 799 055f 14       		.uleb128 0x14
 800 0560 3C000000 		.4byte	0x3c
 801 0564 03       		.byte	0x3
 802 0565 00       		.byte	0
 803 0566 04       		.uleb128 0x4
 804 0567 56050000 		.4byte	0x556
 805 056b 15       		.uleb128 0x15
 806 056c 1C       		.byte	0x1c
 807 056d 0C       		.byte	0xc
 808 056e 0603     		.2byte	0x306
 809 0570 CE050000 		.4byte	0x5ce
 810 0574 0A       		.uleb128 0xa
 811 0575 535200   		.ascii	"SR\000"
 812 0578 0C       		.byte	0xc
 813 0579 0803     		.2byte	0x308
 814 057b EF000000 		.4byte	0xef
 815 057f 00       		.byte	0
 816 0580 0A       		.uleb128 0xa
 817 0581 445200   		.ascii	"DR\000"
 818 0584 0C       		.byte	0xc
 819 0585 0903     		.2byte	0x309
 820 0587 EF000000 		.4byte	0xef
 821 058b 04       		.byte	0x4
 822 058c 0A       		.uleb128 0xa
 823 058d 42525200 		.ascii	"BRR\000"
 824 0591 0C       		.byte	0xc
 825 0592 0A03     		.2byte	0x30a
 826 0594 EF000000 		.4byte	0xef
 827 0598 08       		.byte	0x8
 828 0599 0A       		.uleb128 0xa
 829 059a 43523100 		.ascii	"CR1\000"
 830 059e 0C       		.byte	0xc
 831 059f 0B03     		.2byte	0x30b
 832 05a1 EF000000 		.4byte	0xef
 833 05a5 0C       		.byte	0xc
 834 05a6 0A       		.uleb128 0xa
 835 05a7 43523200 		.ascii	"CR2\000"
 836 05ab 0C       		.byte	0xc
 837 05ac 0C03     		.2byte	0x30c
 838 05ae EF000000 		.4byte	0xef
 839 05b2 10       		.byte	0x10
 840 05b3 0A       		.uleb128 0xa
 841 05b4 43523300 		.ascii	"CR3\000"
 842 05b8 0C       		.byte	0xc
 843 05b9 0D03     		.2byte	0x30d
 844 05bb EF000000 		.4byte	0xef
 845 05bf 14       		.byte	0x14
 846 05c0 0B       		.uleb128 0xb
 847 05c1 07060000 		.4byte	.LASF85
 848 05c5 0C       		.byte	0xc
 849 05c6 0E03     		.2byte	0x30e
 850 05c8 EF000000 		.4byte	0xef
 851 05cc 18       		.byte	0x18
 852 05cd 00       		.byte	0
 853 05ce 16       		.uleb128 0x16
 854 05cf EC020000 		.4byte	.LASF86
 855 05d3 0C       		.byte	0xc
ARM GAS  /var/folders/vd/czx34qs52cd_f3nb04sxmghc0000gn/T//ccRXSGGx.s 			page 16


 856 05d4 0F03     		.2byte	0x30f
 857 05d6 6B050000 		.4byte	0x56b
 858 05da 03       		.uleb128 0x3
 859 05db C0010000 		.4byte	.LASF87
 860 05df 0D       		.byte	0xd
 861 05e0 65       		.byte	0x65
 862 05e1 49030000 		.4byte	0x349
 863 05e5 03       		.uleb128 0x3
 864 05e6 E1020000 		.4byte	.LASF88
 865 05ea 0D       		.byte	0xd
 866 05eb 6D       		.byte	0x6d
 867 05ec F4000000 		.4byte	0xf4
 868 05f0 07       		.uleb128 0x7
 869 05f1 71090000 		.4byte	.LASF89
 870 05f5 04       		.byte	0x4
 871 05f6 0D       		.byte	0xd
 872 05f7 89       		.byte	0x89
 873 05f8 08060000 		.4byte	0x608
 874 05fc 09       		.uleb128 0x9
 875 05fd 737000   		.ascii	"sp\000"
 876 0600 0D       		.byte	0xd
 877 0601 8A       		.byte	0x8a
 878 0602 84060000 		.4byte	0x684
 879 0606 00       		.byte	0
 880 0607 00       		.byte	0
 881 0608 0D       		.uleb128 0xd
 882 0609 2A070000 		.4byte	.LASF90
 883 060d 24       		.byte	0x24
 884 060e 0E       		.byte	0xe
 885 060f 5901     		.2byte	0x159
 886 0611 84060000 		.4byte	0x684
 887 0615 0A       		.uleb128 0xa
 888 0616 723400   		.ascii	"r4\000"
 889 0619 0E       		.byte	0xe
 890 061a 6C01     		.2byte	0x16c
 891 061c DA050000 		.4byte	0x5da
 892 0620 00       		.byte	0
 893 0621 0A       		.uleb128 0xa
 894 0622 723500   		.ascii	"r5\000"
 895 0625 0E       		.byte	0xe
 896 0626 6D01     		.2byte	0x16d
 897 0628 DA050000 		.4byte	0x5da
 898 062c 04       		.byte	0x4
 899 062d 0A       		.uleb128 0xa
 900 062e 723600   		.ascii	"r6\000"
 901 0631 0E       		.byte	0xe
 902 0632 6E01     		.2byte	0x16e
 903 0634 DA050000 		.4byte	0x5da
 904 0638 08       		.byte	0x8
 905 0639 0A       		.uleb128 0xa
 906 063a 723700   		.ascii	"r7\000"
 907 063d 0E       		.byte	0xe
 908 063e 6F01     		.2byte	0x16f
 909 0640 DA050000 		.4byte	0x5da
 910 0644 0C       		.byte	0xc
 911 0645 0A       		.uleb128 0xa
 912 0646 723800   		.ascii	"r8\000"
ARM GAS  /var/folders/vd/czx34qs52cd_f3nb04sxmghc0000gn/T//ccRXSGGx.s 			page 17


 913 0649 0E       		.byte	0xe
 914 064a 7001     		.2byte	0x170
 915 064c DA050000 		.4byte	0x5da
 916 0650 10       		.byte	0x10
 917 0651 0A       		.uleb128 0xa
 918 0652 723900   		.ascii	"r9\000"
 919 0655 0E       		.byte	0xe
 920 0656 7101     		.2byte	0x171
 921 0658 DA050000 		.4byte	0x5da
 922 065c 14       		.byte	0x14
 923 065d 0A       		.uleb128 0xa
 924 065e 72313000 		.ascii	"r10\000"
 925 0662 0E       		.byte	0xe
 926 0663 7201     		.2byte	0x172
 927 0665 DA050000 		.4byte	0x5da
 928 0669 18       		.byte	0x18
 929 066a 0A       		.uleb128 0xa
 930 066b 72313100 		.ascii	"r11\000"
 931 066f 0E       		.byte	0xe
 932 0670 7301     		.2byte	0x173
 933 0672 DA050000 		.4byte	0x5da
 934 0676 1C       		.byte	0x1c
 935 0677 0A       		.uleb128 0xa
 936 0678 6C7200   		.ascii	"lr\000"
 937 067b 0E       		.byte	0xe
 938 067c 7401     		.2byte	0x174
 939 067e DA050000 		.4byte	0x5da
 940 0682 20       		.byte	0x20
 941 0683 00       		.byte	0
 942 0684 0C       		.uleb128 0xc
 943 0685 04       		.byte	0x4
 944 0686 08060000 		.4byte	0x608
 945 068a 15       		.uleb128 0x15
 946 068b 60       		.byte	0x60
 947 068c 0F       		.byte	0xf
 948 068d F501     		.2byte	0x1f5
 949 068f 96070000 		.4byte	0x796
 950 0693 0A       		.uleb128 0xa
 951 0694 43523100 		.ascii	"CR1\000"
 952 0698 0F       		.byte	0xf
 953 0699 F601     		.2byte	0x1f6
 954 069b EF000000 		.4byte	0xef
 955 069f 00       		.byte	0
 956 06a0 0A       		.uleb128 0xa
 957 06a1 43523200 		.ascii	"CR2\000"
 958 06a5 0F       		.byte	0xf
 959 06a6 F701     		.2byte	0x1f7
 960 06a8 EF000000 		.4byte	0xef
 961 06ac 04       		.byte	0x4
 962 06ad 0B       		.uleb128 0xb
 963 06ae 12080000 		.4byte	.LASF91
 964 06b2 0F       		.byte	0xf
 965 06b3 F801     		.2byte	0x1f8
 966 06b5 EF000000 		.4byte	0xef
 967 06b9 08       		.byte	0x8
 968 06ba 0B       		.uleb128 0xb
 969 06bb D6030000 		.4byte	.LASF92
ARM GAS  /var/folders/vd/czx34qs52cd_f3nb04sxmghc0000gn/T//ccRXSGGx.s 			page 18


 970 06bf 0F       		.byte	0xf
 971 06c0 F901     		.2byte	0x1f9
 972 06c2 EF000000 		.4byte	0xef
 973 06c6 0C       		.byte	0xc
 974 06c7 0A       		.uleb128 0xa
 975 06c8 535200   		.ascii	"SR\000"
 976 06cb 0F       		.byte	0xf
 977 06cc FA01     		.2byte	0x1fa
 978 06ce EF000000 		.4byte	0xef
 979 06d2 10       		.byte	0x10
 980 06d3 0A       		.uleb128 0xa
 981 06d4 45475200 		.ascii	"EGR\000"
 982 06d8 0F       		.byte	0xf
 983 06d9 FB01     		.2byte	0x1fb
 984 06db EF000000 		.4byte	0xef
 985 06df 14       		.byte	0x14
 986 06e0 0B       		.uleb128 0xb
 987 06e1 89020000 		.4byte	.LASF93
 988 06e5 0F       		.byte	0xf
 989 06e6 FC01     		.2byte	0x1fc
 990 06e8 EF000000 		.4byte	0xef
 991 06ec 18       		.byte	0x18
 992 06ed 0B       		.uleb128 0xb
 993 06ee 8F020000 		.4byte	.LASF94
 994 06f2 0F       		.byte	0xf
 995 06f3 FD01     		.2byte	0x1fd
 996 06f5 EF000000 		.4byte	0xef
 997 06f9 1C       		.byte	0x1c
 998 06fa 0B       		.uleb128 0xb
 999 06fb D1070000 		.4byte	.LASF95
 1000 06ff 0F       		.byte	0xf
 1001 0700 FE01     		.2byte	0x1fe
 1002 0702 EF000000 		.4byte	0xef
 1003 0706 20       		.byte	0x20
 1004 0707 0A       		.uleb128 0xa
 1005 0708 434E5400 		.ascii	"CNT\000"
 1006 070c 0F       		.byte	0xf
 1007 070d FF01     		.2byte	0x1ff
 1008 070f EF000000 		.4byte	0xef
 1009 0713 24       		.byte	0x24
 1010 0714 0A       		.uleb128 0xa
 1011 0715 50534300 		.ascii	"PSC\000"
 1012 0719 0F       		.byte	0xf
 1013 071a 0002     		.2byte	0x200
 1014 071c EF000000 		.4byte	0xef
 1015 0720 28       		.byte	0x28
 1016 0721 0A       		.uleb128 0xa
 1017 0722 41525200 		.ascii	"ARR\000"
 1018 0726 0F       		.byte	0xf
 1019 0727 0102     		.2byte	0x201
 1020 0729 EF000000 		.4byte	0xef
 1021 072d 2C       		.byte	0x2c
 1022 072e 0A       		.uleb128 0xa
 1023 072f 52435200 		.ascii	"RCR\000"
 1024 0733 0F       		.byte	0xf
 1025 0734 0202     		.2byte	0x202
 1026 0736 EF000000 		.4byte	0xef
ARM GAS  /var/folders/vd/czx34qs52cd_f3nb04sxmghc0000gn/T//ccRXSGGx.s 			page 19


 1027 073a 30       		.byte	0x30
 1028 073b 0A       		.uleb128 0xa
 1029 073c 43435200 		.ascii	"CCR\000"
 1030 0740 0F       		.byte	0xf
 1031 0741 0302     		.2byte	0x203
 1032 0743 66050000 		.4byte	0x566
 1033 0747 34       		.byte	0x34
 1034 0748 0B       		.uleb128 0xb
 1035 0749 AE090000 		.4byte	.LASF96
 1036 074d 0F       		.byte	0xf
 1037 074e 0402     		.2byte	0x204
 1038 0750 EF000000 		.4byte	0xef
 1039 0754 44       		.byte	0x44
 1040 0755 0A       		.uleb128 0xa
 1041 0756 44435200 		.ascii	"DCR\000"
 1042 075a 0F       		.byte	0xf
 1043 075b 0502     		.2byte	0x205
 1044 075d EF000000 		.4byte	0xef
 1045 0761 48       		.byte	0x48
 1046 0762 0B       		.uleb128 0xb
 1047 0763 F9000000 		.4byte	.LASF97
 1048 0767 0F       		.byte	0xf
 1049 0768 0602     		.2byte	0x206
 1050 076a EF000000 		.4byte	0xef
 1051 076e 4C       		.byte	0x4c
 1052 076f 0A       		.uleb128 0xa
 1053 0770 4F5200   		.ascii	"OR\000"
 1054 0773 0F       		.byte	0xf
 1055 0774 0702     		.2byte	0x207
 1056 0776 EF000000 		.4byte	0xef
 1057 077a 50       		.byte	0x50
 1058 077b 0B       		.uleb128 0xb
 1059 077c 95020000 		.4byte	.LASF98
 1060 0780 0F       		.byte	0xf
 1061 0781 0802     		.2byte	0x208
 1062 0783 EF000000 		.4byte	0xef
 1063 0787 54       		.byte	0x54
 1064 0788 0B       		.uleb128 0xb
 1065 0789 20030000 		.4byte	.LASF99
 1066 078d 0F       		.byte	0xf
 1067 078e 0902     		.2byte	0x209
 1068 0790 51050000 		.4byte	0x551
 1069 0794 58       		.byte	0x58
 1070 0795 00       		.byte	0
 1071 0796 16       		.uleb128 0x16
 1072 0797 9B040000 		.4byte	.LASF100
 1073 079b 0F       		.byte	0xf
 1074 079c 0A02     		.2byte	0x20a
 1075 079e 8A060000 		.4byte	0x68a
 1076 07a2 17       		.uleb128 0x17
 1077 07a3 04       		.byte	0x4
 1078 07a4 10       		.byte	0x10
 1079 07a5 38       		.byte	0x38
 1080 07a6 B7070000 		.4byte	0x7b7
 1081 07aa 08       		.uleb128 0x8
 1082 07ab B4060000 		.4byte	.LASF101
 1083 07af 10       		.byte	0x10
ARM GAS  /var/folders/vd/czx34qs52cd_f3nb04sxmghc0000gn/T//ccRXSGGx.s 			page 20


 1084 07b0 3C       		.byte	0x3c
 1085 07b1 0A010000 		.4byte	0x10a
 1086 07b5 00       		.byte	0
 1087 07b6 00       		.byte	0
 1088 07b7 03       		.uleb128 0x3
 1089 07b8 7A080000 		.4byte	.LASF102
 1090 07bc 10       		.byte	0x10
 1091 07bd 3D       		.byte	0x3d
 1092 07be A2070000 		.4byte	0x7a2
 1093 07c2 18       		.uleb128 0x18
 1094 07c3 04       		.byte	0x4
 1095 07c4 08       		.byte	0x8
 1096 07c5 C6       		.byte	0xc6
 1097 07c6 24080000 		.4byte	0x824
 1098 07ca 19       		.uleb128 0x19
 1099 07cb 130A0000 		.4byte	.LASF103
 1100 07cf 08       		.byte	0x8
 1101 07d0 CD       		.byte	0xcd
 1102 07d1 41010000 		.4byte	0x141
 1103 07d5 19       		.uleb128 0x19
 1104 07d6 3C010000 		.4byte	.LASF104
 1105 07da 08       		.byte	0x8
 1106 07db D4       		.byte	0xd4
 1107 07dc 41010000 		.4byte	0x141
 1108 07e0 19       		.uleb128 0x19
 1109 07e1 BB020000 		.4byte	.LASF105
 1110 07e5 08       		.byte	0x8
 1111 07e6 DB       		.byte	0xdb
 1112 07e7 49030000 		.4byte	0x349
 1113 07eb 19       		.uleb128 0x19
 1114 07ec 26020000 		.4byte	.LASF106
 1115 07f0 08       		.byte	0x8
 1116 07f1 E2       		.byte	0xe2
 1117 07f2 24080000 		.4byte	0x824
 1118 07f6 19       		.uleb128 0x19
 1119 07f7 22070000 		.4byte	.LASF107
 1120 07fb 08       		.byte	0x8
 1121 07fc E7       		.byte	0xe7
 1122 07fd 41010000 		.4byte	0x141
 1123 0801 19       		.uleb128 0x19
 1124 0802 37000000 		.4byte	.LASF108
 1125 0806 08       		.byte	0x8
 1126 0807 F0       		.byte	0xf0
 1127 0808 4F080000 		.4byte	0x84f
 1128 080c 19       		.uleb128 0x19
 1129 080d 66030000 		.4byte	.LASF109
 1130 0811 08       		.byte	0x8
 1131 0812 F9       		.byte	0xf9
 1132 0813 86080000 		.4byte	0x886
 1133 0817 1A       		.uleb128 0x1a
 1134 0818 04020000 		.4byte	.LASF110
 1135 081c 08       		.byte	0x8
 1136 081d 0101     		.2byte	0x101
 1137 081f 4C010000 		.4byte	0x14c
 1138 0823 00       		.byte	0
 1139 0824 0C       		.uleb128 0xc
 1140 0825 04       		.byte	0x4
ARM GAS  /var/folders/vd/czx34qs52cd_f3nb04sxmghc0000gn/T//ccRXSGGx.s 			page 21


 1141 0826 61020000 		.4byte	0x261
 1142 082a 07       		.uleb128 0x7
 1143 082b EB030000 		.4byte	.LASF111
 1144 082f 0C       		.byte	0xc
 1145 0830 11       		.byte	0x11
 1146 0831 34       		.byte	0x34
 1147 0832 4F080000 		.4byte	0x84f
 1148 0836 08       		.uleb128 0x8
 1149 0837 E6070000 		.4byte	.LASF33
 1150 083b 11       		.byte	0x11
 1151 083c 35       		.byte	0x35
 1152 083d 96020000 		.4byte	0x296
 1153 0841 00       		.byte	0
 1154 0842 09       		.uleb128 0x9
 1155 0843 636E7400 		.ascii	"cnt\000"
 1156 0847 11       		.byte	0x11
 1157 0848 37       		.byte	0x37
 1158 0849 62010000 		.4byte	0x162
 1159 084d 08       		.byte	0x8
 1160 084e 00       		.byte	0
 1161 084f 0C       		.uleb128 0xc
 1162 0850 04       		.byte	0x4
 1163 0851 2A080000 		.4byte	0x82a
 1164 0855 07       		.uleb128 0x7
 1165 0856 ED080000 		.4byte	.LASF112
 1166 085a 10       		.byte	0x10
 1167 085b 12       		.byte	0x12
 1168 085c 39       		.byte	0x39
 1169 085d 86080000 		.4byte	0x886
 1170 0861 08       		.uleb128 0x8
 1171 0862 E6070000 		.4byte	.LASF33
 1172 0866 12       		.byte	0x12
 1173 0867 3A       		.byte	0x3a
 1174 0868 96020000 		.4byte	0x296
 1175 086c 00       		.byte	0
 1176 086d 08       		.uleb128 0x8
 1177 086e 54000000 		.4byte	.LASF113
 1178 0872 12       		.byte	0x12
 1179 0873 3C       		.byte	0x3c
 1180 0874 6C020000 		.4byte	0x26c
 1181 0878 08       		.byte	0x8
 1182 0879 08       		.uleb128 0x8
 1183 087a 9B0A0000 		.4byte	.LASF52
 1184 087e 12       		.byte	0x12
 1185 087f 3E       		.byte	0x3e
 1186 0880 E8090000 		.4byte	0x9e8
 1187 0884 0C       		.byte	0xc
 1188 0885 00       		.byte	0
 1189 0886 0C       		.uleb128 0xc
 1190 0887 04       		.byte	0x4
 1191 0888 55080000 		.4byte	0x855
 1192 088c 0C       		.uleb128 0xc
 1193 088d 04       		.byte	0x4
 1194 088e 9E080000 		.4byte	0x89e
 1195 0892 04       		.uleb128 0x4
 1196 0893 8C080000 		.4byte	0x88c
 1197 0897 05       		.uleb128 0x5
ARM GAS  /var/folders/vd/czx34qs52cd_f3nb04sxmghc0000gn/T//ccRXSGGx.s 			page 22


 1198 0898 01       		.byte	0x1
 1199 0899 08       		.byte	0x8
 1200 089a 9B020000 		.4byte	.LASF114
 1201 089e 06       		.uleb128 0x6
 1202 089f 97080000 		.4byte	0x897
 1203 08a3 0C       		.uleb128 0xc
 1204 08a4 04       		.byte	0x4
 1205 08a5 E5050000 		.4byte	0x5e5
 1206 08a9 0C       		.uleb128 0xc
 1207 08aa 04       		.byte	0x4
 1208 08ab 4B030000 		.4byte	0x34b
 1209 08af 1B       		.uleb128 0x1b
 1210 08b0 636800   		.ascii	"ch\000"
 1211 08b3 08       		.byte	0x8
 1212 08b4 C701     		.2byte	0x1c7
 1213 08b6 18040000 		.4byte	0x418
 1214 08ba 13       		.uleb128 0x13
 1215 08bb E5050000 		.4byte	0x5e5
 1216 08bf C5080000 		.4byte	0x8c5
 1217 08c3 1C       		.uleb128 0x1c
 1218 08c4 00       		.byte	0
 1219 08c5 11       		.uleb128 0x11
 1220 08c6 18040000 		.4byte	.LASF115
 1221 08ca 13       		.byte	0x13
 1222 08cb 1701     		.2byte	0x117
 1223 08cd BA080000 		.4byte	0x8ba
 1224 08d1 17       		.uleb128 0x17
 1225 08d2 16       		.byte	0x16
 1226 08d3 14       		.byte	0x14
 1227 08d4 34       		.byte	0x34
 1228 08d5 B2090000 		.4byte	0x9b2
 1229 08d9 08       		.uleb128 0x8
 1230 08da B10A0000 		.4byte	.LASF116
 1231 08de 14       		.byte	0x14
 1232 08df 35       		.byte	0x35
 1233 08e0 B2090000 		.4byte	0x9b2
 1234 08e4 00       		.byte	0
 1235 08e5 08       		.uleb128 0x8
 1236 08e6 87010000 		.4byte	.LASF117
 1237 08ea 14       		.byte	0x14
 1238 08eb 36       		.byte	0x36
 1239 08ec B9000000 		.4byte	0xb9
 1240 08f0 04       		.byte	0x4
 1241 08f1 08       		.uleb128 0x8
 1242 08f2 70070000 		.4byte	.LASF118
 1243 08f6 14       		.byte	0x14
 1244 08f7 37       		.byte	0x37
 1245 08f8 B9000000 		.4byte	0xb9
 1246 08fc 05       		.byte	0x5
 1247 08fd 08       		.uleb128 0x8
 1248 08fe 1E080000 		.4byte	.LASF119
 1249 0902 14       		.byte	0x14
 1250 0903 38       		.byte	0x38
 1251 0904 C9000000 		.4byte	0xc9
 1252 0908 06       		.byte	0x6
 1253 0909 08       		.uleb128 0x8
 1254 090a 18030000 		.4byte	.LASF120
ARM GAS  /var/folders/vd/czx34qs52cd_f3nb04sxmghc0000gn/T//ccRXSGGx.s 			page 23


 1255 090e 14       		.byte	0x14
 1256 090f 39       		.byte	0x39
 1257 0910 B9000000 		.4byte	0xb9
 1258 0914 08       		.byte	0x8
 1259 0915 08       		.uleb128 0x8
 1260 0916 5A0A0000 		.4byte	.LASF121
 1261 091a 14       		.byte	0x14
 1262 091b 3A       		.byte	0x3a
 1263 091c B9000000 		.4byte	0xb9
 1264 0920 09       		.byte	0x9
 1265 0921 08       		.uleb128 0x8
 1266 0922 CB030000 		.4byte	.LASF122
 1267 0926 14       		.byte	0x14
 1268 0927 3B       		.byte	0x3b
 1269 0928 B9000000 		.4byte	0xb9
 1270 092c 0A       		.byte	0xa
 1271 092d 08       		.uleb128 0x8
 1272 092e 27000000 		.4byte	.LASF123
 1273 0932 14       		.byte	0x14
 1274 0933 3C       		.byte	0x3c
 1275 0934 B9000000 		.4byte	0xb9
 1276 0938 0B       		.byte	0xb
 1277 0939 08       		.uleb128 0x8
 1278 093a 00000000 		.4byte	.LASF124
 1279 093e 14       		.byte	0x14
 1280 093f 3D       		.byte	0x3d
 1281 0940 B9000000 		.4byte	0xb9
 1282 0944 0C       		.byte	0xc
 1283 0945 08       		.uleb128 0x8
 1284 0946 5D060000 		.4byte	.LASF125
 1285 094a 14       		.byte	0x14
 1286 094b 3E       		.byte	0x3e
 1287 094c B9000000 		.4byte	0xb9
 1288 0950 0D       		.byte	0xd
 1289 0951 08       		.uleb128 0x8
 1290 0952 0E010000 		.4byte	.LASF126
 1291 0956 14       		.byte	0x14
 1292 0957 3F       		.byte	0x3f
 1293 0958 B9000000 		.4byte	0xb9
 1294 095c 0E       		.byte	0xe
 1295 095d 08       		.uleb128 0x8
 1296 095e 9E070000 		.4byte	.LASF127
 1297 0962 14       		.byte	0x14
 1298 0963 40       		.byte	0x40
 1299 0964 B9000000 		.4byte	0xb9
 1300 0968 0F       		.byte	0xf
 1301 0969 08       		.uleb128 0x8
 1302 096a B4040000 		.4byte	.LASF128
 1303 096e 14       		.byte	0x14
 1304 096f 41       		.byte	0x41
 1305 0970 B9000000 		.4byte	0xb9
 1306 0974 10       		.byte	0x10
 1307 0975 08       		.uleb128 0x8
 1308 0976 AF030000 		.4byte	.LASF129
 1309 097a 14       		.byte	0x14
 1310 097b 42       		.byte	0x42
 1311 097c B9000000 		.4byte	0xb9
ARM GAS  /var/folders/vd/czx34qs52cd_f3nb04sxmghc0000gn/T//ccRXSGGx.s 			page 24


 1312 0980 11       		.byte	0x11
 1313 0981 08       		.uleb128 0x8
 1314 0982 8A0A0000 		.4byte	.LASF130
 1315 0986 14       		.byte	0x14
 1316 0987 43       		.byte	0x43
 1317 0988 B9000000 		.4byte	0xb9
 1318 098c 12       		.byte	0x12
 1319 098d 08       		.uleb128 0x8
 1320 098e CD020000 		.4byte	.LASF131
 1321 0992 14       		.byte	0x14
 1322 0993 44       		.byte	0x44
 1323 0994 B9000000 		.4byte	0xb9
 1324 0998 13       		.byte	0x13
 1325 0999 08       		.uleb128 0x8
 1326 099a 48000000 		.4byte	.LASF132
 1327 099e 14       		.byte	0x14
 1328 099f 45       		.byte	0x45
 1329 09a0 B9000000 		.4byte	0xb9
 1330 09a4 14       		.byte	0x14
 1331 09a5 08       		.uleb128 0x8
 1332 09a6 32030000 		.4byte	.LASF133
 1333 09aa 14       		.byte	0x14
 1334 09ab 46       		.byte	0x46
 1335 09ac B9000000 		.4byte	0xb9
 1336 09b0 15       		.byte	0x15
 1337 09b1 00       		.byte	0
 1338 09b2 13       		.uleb128 0x13
 1339 09b3 97080000 		.4byte	0x897
 1340 09b7 C2090000 		.4byte	0x9c2
 1341 09bb 14       		.uleb128 0x14
 1342 09bc 3C000000 		.4byte	0x3c
 1343 09c0 03       		.byte	0x3
 1344 09c1 00       		.byte	0
 1345 09c2 03       		.uleb128 0x3
 1346 09c3 410A0000 		.4byte	.LASF134
 1347 09c7 14       		.byte	0x14
 1348 09c8 47       		.byte	0x47
 1349 09c9 D1080000 		.4byte	0x8d1
 1350 09cd 06       		.uleb128 0x6
 1351 09ce C2090000 		.4byte	0x9c2
 1352 09d2 12       		.uleb128 0x12
 1353 09d3 62000000 		.4byte	.LASF135
 1354 09d7 14       		.byte	0x14
 1355 09d8 6C       		.byte	0x6c
 1356 09d9 CD090000 		.4byte	0x9cd
 1357 09dd 03       		.uleb128 0x3
 1358 09de 61090000 		.4byte	.LASF136
 1359 09e2 12       		.byte	0x12
 1360 09e3 34       		.byte	0x34
 1361 09e4 55080000 		.4byte	0x855
 1362 09e8 0C       		.uleb128 0xc
 1363 09e9 04       		.byte	0x4
 1364 09ea DD090000 		.4byte	0x9dd
 1365 09ee 03       		.uleb128 0x3
 1366 09ef 07030000 		.4byte	.LASF137
 1367 09f3 15       		.byte	0x15
 1368 09f4 34       		.byte	0x34
ARM GAS  /var/folders/vd/czx34qs52cd_f3nb04sxmghc0000gn/T//ccRXSGGx.s 			page 25


 1369 09f5 F9090000 		.4byte	0x9f9
 1370 09f9 07       		.uleb128 0x7
 1371 09fa 040A0000 		.4byte	.LASF138
 1372 09fe 14       		.byte	0x14
 1373 09ff 15       		.byte	0x15
 1374 0a00 39       		.byte	0x39
 1375 0a01 420A0000 		.4byte	0xa42
 1376 0a05 08       		.uleb128 0x8
 1377 0a06 9B0A0000 		.4byte	.LASF52
 1378 0a0a 15       		.byte	0x15
 1379 0a0b 3A       		.byte	0x3a
 1380 0a0c 420A0000 		.4byte	0xa42
 1381 0a10 00       		.byte	0
 1382 0a11 08       		.uleb128 0x8
 1383 0a12 95080000 		.4byte	.LASF139
 1384 0a16 15       		.byte	0x15
 1385 0a17 3D       		.byte	0x3d
 1386 0a18 6C020000 		.4byte	0x26c
 1387 0a1c 04       		.byte	0x4
 1388 0a1d 08       		.uleb128 0x8
 1389 0a1e 940A0000 		.4byte	.LASF140
 1390 0a22 15       		.byte	0x15
 1391 0a23 3F       		.byte	0x3f
 1392 0a24 4C010000 		.4byte	0x14c
 1393 0a28 08       		.byte	0x8
 1394 0a29 08       		.uleb128 0x8
 1395 0a2a D6020000 		.4byte	.LASF40
 1396 0a2e 15       		.byte	0x15
 1397 0a2f 41       		.byte	0x41
 1398 0a30 57010000 		.4byte	0x157
 1399 0a34 0C       		.byte	0xc
 1400 0a35 08       		.uleb128 0x8
 1401 0a36 FC060000 		.4byte	.LASF141
 1402 0a3a 15       		.byte	0x15
 1403 0a3b 43       		.byte	0x43
 1404 0a3c 57010000 		.4byte	0x157
 1405 0a40 10       		.byte	0x10
 1406 0a41 00       		.byte	0
 1407 0a42 0C       		.uleb128 0xc
 1408 0a43 04       		.byte	0x4
 1409 0a44 EE090000 		.4byte	0x9ee
 1410 0a48 07       		.uleb128 0x7
 1411 0a49 CD080000 		.4byte	.LASF142
 1412 0a4d 04       		.byte	0x4
 1413 0a4e 15       		.byte	0x15
 1414 0a4f 4A       		.byte	0x4a
 1415 0a50 610A0000 		.4byte	0xa61
 1416 0a54 08       		.uleb128 0x8
 1417 0a55 9B0A0000 		.4byte	.LASF52
 1418 0a59 15       		.byte	0x15
 1419 0a5a 4B       		.byte	0x4b
 1420 0a5b 420A0000 		.4byte	0xa42
 1421 0a5f 00       		.byte	0
 1422 0a60 00       		.byte	0
 1423 0a61 03       		.uleb128 0x3
 1424 0a62 0C060000 		.4byte	.LASF143
 1425 0a66 15       		.byte	0x15
ARM GAS  /var/folders/vd/czx34qs52cd_f3nb04sxmghc0000gn/T//ccRXSGGx.s 			page 26


 1426 0a67 4E       		.byte	0x4e
 1427 0a68 480A0000 		.4byte	0xa48
 1428 0a6c 05       		.uleb128 0x5
 1429 0a6d 01       		.byte	0x1
 1430 0a6e 02       		.byte	0x2
 1431 0a6f 83020000 		.4byte	.LASF144
 1432 0a73 03       		.uleb128 0x3
 1433 0a74 CE060000 		.4byte	.LASF145
 1434 0a78 16       		.byte	0x16
 1435 0a79 4B       		.byte	0x4b
 1436 0a7a 7E0A0000 		.4byte	0xa7e
 1437 0a7e 0C       		.uleb128 0xc
 1438 0a7f 04       		.byte	0x4
 1439 0a80 840A0000 		.4byte	0xa84
 1440 0a84 1D       		.uleb128 0x1d
 1441 0a85 49030000 		.4byte	0x349
 1442 0a89 980A0000 		.4byte	0xa98
 1443 0a8d 0F       		.uleb128 0xf
 1444 0a8e 2C000000 		.4byte	0x2c
 1445 0a92 0F       		.uleb128 0xf
 1446 0a93 3C000000 		.4byte	0x3c
 1447 0a97 00       		.byte	0
 1448 0a98 17       		.uleb128 0x17
 1449 0a99 08       		.byte	0x8
 1450 0a9a 16       		.byte	0x16
 1451 0a9b 55       		.byte	0x55
 1452 0a9c B90A0000 		.4byte	0xab9
 1453 0aa0 08       		.uleb128 0x8
 1454 0aa1 8A030000 		.4byte	.LASF146
 1455 0aa5 16       		.byte	0x16
 1456 0aa6 59       		.byte	0x59
 1457 0aa7 B90A0000 		.4byte	0xab9
 1458 0aab 00       		.byte	0
 1459 0aac 08       		.uleb128 0x8
 1460 0aad 30000000 		.4byte	.LASF147
 1461 0ab1 16       		.byte	0x16
 1462 0ab2 5D       		.byte	0x5d
 1463 0ab3 B90A0000 		.4byte	0xab9
 1464 0ab7 04       		.byte	0x4
 1465 0ab8 00       		.byte	0
 1466 0ab9 0C       		.uleb128 0xc
 1467 0aba 04       		.byte	0x4
 1468 0abb B9000000 		.4byte	0xb9
 1469 0abf 03       		.uleb128 0x3
 1470 0ac0 E5010000 		.4byte	.LASF148
 1471 0ac4 16       		.byte	0x16
 1472 0ac5 5E       		.byte	0x5e
 1473 0ac6 980A0000 		.4byte	0xa98
 1474 0aca 12       		.uleb128 0x12
 1475 0acb 7F0A0000 		.4byte	.LASF149
 1476 0acf 16       		.byte	0x16
 1477 0ad0 69       		.byte	0x69
 1478 0ad1 BF0A0000 		.4byte	0xabf
 1479 0ad5 07       		.uleb128 0x7
 1480 0ad6 C1040000 		.4byte	.LASF150
 1481 0ada 04       		.byte	0x4
 1482 0adb 17       		.byte	0x17
ARM GAS  /var/folders/vd/czx34qs52cd_f3nb04sxmghc0000gn/T//ccRXSGGx.s 			page 27


 1483 0adc 3C       		.byte	0x3c
 1484 0add EE0A0000 		.4byte	0xaee
 1485 0ae1 08       		.uleb128 0x8
 1486 0ae2 9B0A0000 		.4byte	.LASF52
 1487 0ae6 17       		.byte	0x17
 1488 0ae7 3D       		.byte	0x3d
 1489 0ae8 EE0A0000 		.4byte	0xaee
 1490 0aec 00       		.byte	0
 1491 0aed 00       		.byte	0
 1492 0aee 0C       		.uleb128 0xc
 1493 0aef 04       		.byte	0x4
 1494 0af0 D50A0000 		.4byte	0xad5
 1495 0af4 17       		.uleb128 0x17
 1496 0af5 10       		.byte	0x10
 1497 0af6 17       		.byte	0x17
 1498 0af7 44       		.byte	0x44
 1499 0af8 2D0B0000 		.4byte	0xb2d
 1500 0afc 08       		.uleb128 0x8
 1501 0afd 9B0A0000 		.4byte	.LASF52
 1502 0b01 17       		.byte	0x17
 1503 0b02 45       		.byte	0x45
 1504 0b03 EE0A0000 		.4byte	0xaee
 1505 0b07 00       		.byte	0
 1506 0b08 08       		.uleb128 0x8
 1507 0b09 3C090000 		.4byte	.LASF151
 1508 0b0d 17       		.byte	0x17
 1509 0b0e 46       		.byte	0x46
 1510 0b0f 2C000000 		.4byte	0x2c
 1511 0b13 04       		.byte	0x4
 1512 0b14 08       		.uleb128 0x8
 1513 0b15 20060000 		.4byte	.LASF152
 1514 0b19 17       		.byte	0x17
 1515 0b1a 48       		.byte	0x48
 1516 0b1b 3C000000 		.4byte	0x3c
 1517 0b1f 08       		.byte	0x8
 1518 0b20 08       		.uleb128 0x8
 1519 0b21 6B000000 		.4byte	.LASF153
 1520 0b25 17       		.byte	0x17
 1521 0b26 49       		.byte	0x49
 1522 0b27 730A0000 		.4byte	0xa73
 1523 0b2b 0C       		.byte	0xc
 1524 0b2c 00       		.byte	0
 1525 0b2d 03       		.uleb128 0x3
 1526 0b2e 3A080000 		.4byte	.LASF154
 1527 0b32 17       		.byte	0x17
 1528 0b33 4B       		.byte	0x4b
 1529 0b34 F40A0000 		.4byte	0xaf4
 1530 0b38 07       		.uleb128 0x7
 1531 0b39 B2000000 		.4byte	.LASF155
 1532 0b3d 10       		.byte	0x10
 1533 0b3e 18       		.byte	0x18
 1534 0b3f 97       		.byte	0x97
 1535 0b40 690B0000 		.4byte	0xb69
 1536 0b44 08       		.uleb128 0x8
 1537 0b45 9B0A0000 		.4byte	.LASF52
 1538 0b49 18       		.byte	0x18
 1539 0b4a 9B       		.byte	0x9b
ARM GAS  /var/folders/vd/czx34qs52cd_f3nb04sxmghc0000gn/T//ccRXSGGx.s 			page 28


 1540 0b4b 690B0000 		.4byte	0xb69
 1541 0b4f 00       		.byte	0
 1542 0b50 08       		.uleb128 0x8
 1543 0b51 E1070000 		.4byte	.LASF41
 1544 0b55 18       		.byte	0x18
 1545 0b56 9F       		.byte	0x9f
 1546 0b57 6D010000 		.4byte	0x16d
 1547 0b5b 04       		.byte	0x4
 1548 0b5c 08       		.uleb128 0x8
 1549 0b5d 90080000 		.4byte	.LASF37
 1550 0b61 18       		.byte	0x18
 1551 0b62 A1       		.byte	0xa1
 1552 0b63 6F0B0000 		.4byte	0xb6f
 1553 0b67 08       		.byte	0x8
 1554 0b68 00       		.byte	0
 1555 0b69 0C       		.uleb128 0xc
 1556 0b6a 04       		.byte	0x4
 1557 0b6b 380B0000 		.4byte	0xb38
 1558 0b6f 13       		.uleb128 0x13
 1559 0b70 97080000 		.4byte	0x897
 1560 0b74 7F0B0000 		.4byte	0xb7f
 1561 0b78 14       		.uleb128 0x14
 1562 0b79 3C000000 		.4byte	0x3c
 1563 0b7d 07       		.byte	0x7
 1564 0b7e 00       		.byte	0
 1565 0b7f 03       		.uleb128 0x3
 1566 0b80 58030000 		.4byte	.LASF156
 1567 0b84 18       		.byte	0x18
 1568 0b85 A5       		.byte	0xa5
 1569 0b86 380B0000 		.4byte	0xb38
 1570 0b8a 07       		.uleb128 0x7
 1571 0b8b A50A0000 		.4byte	.LASF157
 1572 0b8f 04       		.byte	0x4
 1573 0b90 18       		.byte	0x18
 1574 0b91 AA       		.byte	0xaa
 1575 0b92 A30B0000 		.4byte	0xba3
 1576 0b96 08       		.uleb128 0x8
 1577 0b97 9B0A0000 		.4byte	.LASF52
 1578 0b9b 18       		.byte	0x18
 1579 0b9c AB       		.byte	0xab
 1580 0b9d A30B0000 		.4byte	0xba3
 1581 0ba1 00       		.byte	0
 1582 0ba2 00       		.byte	0
 1583 0ba3 0C       		.uleb128 0xc
 1584 0ba4 04       		.byte	0x4
 1585 0ba5 7F0B0000 		.4byte	0xb7f
 1586 0ba9 03       		.uleb128 0x3
 1587 0baa 21090000 		.4byte	.LASF158
 1588 0bae 18       		.byte	0x18
 1589 0baf AC       		.byte	0xac
 1590 0bb0 8A0B0000 		.4byte	0xb8a
 1591 0bb4 0D       		.uleb128 0xd
 1592 0bb5 F4050000 		.4byte	.LASF159
 1593 0bb9 44       		.byte	0x44
 1594 0bba 18       		.byte	0x18
 1595 0bbb 1501     		.2byte	0x115
 1596 0bbd 2A0C0000 		.4byte	0xc2a
ARM GAS  /var/folders/vd/czx34qs52cd_f3nb04sxmghc0000gn/T//ccRXSGGx.s 			page 29


 1597 0bc1 0A       		.uleb128 0xa
 1598 0bc2 6D747800 		.ascii	"mtx\000"
 1599 0bc6 18       		.byte	0x18
 1600 0bc7 1A01     		.2byte	0x11a
 1601 0bc9 DD090000 		.4byte	0x9dd
 1602 0bcd 00       		.byte	0
 1603 0bce 0B       		.uleb128 0xb
 1604 0bcf F0000000 		.4byte	.LASF160
 1605 0bd3 18       		.byte	0x18
 1606 0bd4 2101     		.2byte	0x121
 1607 0bd6 A90B0000 		.4byte	0xba9
 1608 0bda 10       		.byte	0x10
 1609 0bdb 0B       		.uleb128 0xb
 1610 0bdc D6010000 		.4byte	.LASF161
 1611 0be0 18       		.byte	0x18
 1612 0be1 2501     		.2byte	0x125
 1613 0be3 2D0B0000 		.4byte	0xb2d
 1614 0be7 14       		.byte	0x14
 1615 0be8 0B       		.uleb128 0xb
 1616 0be9 48070000 		.4byte	.LASF162
 1617 0bed 18       		.byte	0x18
 1618 0bee 2A01     		.2byte	0x12a
 1619 0bf0 A90B0000 		.4byte	0xba9
 1620 0bf4 24       		.byte	0x24
 1621 0bf5 0B       		.uleb128 0xb
 1622 0bf6 A7020000 		.4byte	.LASF163
 1623 0bfa 18       		.byte	0x18
 1624 0bfb 3001     		.2byte	0x130
 1625 0bfd A90B0000 		.4byte	0xba9
 1626 0c01 28       		.byte	0x28
 1627 0c02 0B       		.uleb128 0xb
 1628 0c03 7B030000 		.4byte	.LASF164
 1629 0c07 18       		.byte	0x18
 1630 0c08 3401     		.2byte	0x134
 1631 0c0a 2D0B0000 		.4byte	0xb2d
 1632 0c0e 2C       		.byte	0x2c
 1633 0c0f 0B       		.uleb128 0xb
 1634 0c10 FE070000 		.4byte	.LASF165
 1635 0c14 18       		.byte	0x18
 1636 0c15 3A01     		.2byte	0x13a
 1637 0c17 A90B0000 		.4byte	0xba9
 1638 0c1b 3C       		.byte	0x3c
 1639 0c1c 0B       		.uleb128 0xb
 1640 0c1d 55040000 		.4byte	.LASF166
 1641 0c21 18       		.byte	0x18
 1642 0c22 4001     		.2byte	0x140
 1643 0c24 A90B0000 		.4byte	0xba9
 1644 0c28 40       		.byte	0x40
 1645 0c29 00       		.byte	0
 1646 0c2a 16       		.uleb128 0x16
 1647 0c2b 36070000 		.4byte	.LASF167
 1648 0c2f 18       		.byte	0x18
 1649 0c30 4201     		.2byte	0x142
 1650 0c32 B40B0000 		.4byte	0xbb4
 1651 0c36 11       		.uleb128 0x11
 1652 0c37 F3070000 		.4byte	.LASF168
 1653 0c3b 18       		.byte	0x18
ARM GAS  /var/folders/vd/czx34qs52cd_f3nb04sxmghc0000gn/T//ccRXSGGx.s 			page 30


 1654 0c3c 4D01     		.2byte	0x14d
 1655 0c3e 2A0C0000 		.4byte	0xc2a
 1656 0c42 15       		.uleb128 0x15
 1657 0c43 0C       		.byte	0xc
 1658 0c44 19       		.byte	0x19
 1659 0c45 6A01     		.2byte	0x16a
 1660 0c47 8D0C0000 		.4byte	0xc8d
 1661 0c4b 0B       		.uleb128 0xb
 1662 0c4c 00030000 		.4byte	.LASF169
 1663 0c50 19       		.byte	0x19
 1664 0c51 6B01     		.2byte	0x16b
 1665 0c53 8D0C0000 		.4byte	0xc8d
 1666 0c57 00       		.byte	0
 1667 0c58 0B       		.uleb128 0xb
 1668 0c59 7A0A0000 		.4byte	.LASF170
 1669 0c5d 19       		.byte	0x19
 1670 0c5e 6C01     		.2byte	0x16c
 1671 0c60 930C0000 		.4byte	0xc93
 1672 0c64 04       		.byte	0x4
 1673 0c65 0B       		.uleb128 0xb
 1674 0c66 A0020000 		.4byte	.LASF171
 1675 0c6a 19       		.byte	0x19
 1676 0c6b 6D01     		.2byte	0x16d
 1677 0c6d B9000000 		.4byte	0xb9
 1678 0c71 08       		.byte	0x8
 1679 0c72 0B       		.uleb128 0xb
 1680 0c73 67060000 		.4byte	.LASF172
 1681 0c77 19       		.byte	0x19
 1682 0c78 6F01     		.2byte	0x16f
 1683 0c7a B9000000 		.4byte	0xb9
 1684 0c7e 09       		.byte	0x9
 1685 0c7f 0B       		.uleb128 0xb
 1686 0c80 EC070000 		.4byte	.LASF173
 1687 0c84 19       		.byte	0x19
 1688 0c85 7001     		.2byte	0x170
 1689 0c87 B9000000 		.4byte	0xb9
 1690 0c8b 0A       		.byte	0xa
 1691 0c8c 00       		.byte	0
 1692 0c8d 0C       		.uleb128 0xc
 1693 0c8e 04       		.byte	0x4
 1694 0c8f 35050000 		.4byte	0x535
 1695 0c93 0C       		.uleb128 0xc
 1696 0c94 04       		.byte	0x4
 1697 0c95 EF000000 		.4byte	0xef
 1698 0c99 16       		.uleb128 0x16
 1699 0c9a 0D000000 		.4byte	.LASF174
 1700 0c9e 19       		.byte	0x19
 1701 0c9f 7101     		.2byte	0x171
 1702 0ca1 420C0000 		.4byte	0xc42
 1703 0ca5 06       		.uleb128 0x6
 1704 0ca6 990C0000 		.4byte	0xc99
 1705 0caa 13       		.uleb128 0x13
 1706 0cab A50C0000 		.4byte	0xca5
 1707 0caf BA0C0000 		.4byte	0xcba
 1708 0cb3 14       		.uleb128 0x14
 1709 0cb4 3C000000 		.4byte	0x3c
 1710 0cb8 0F       		.byte	0xf
ARM GAS  /var/folders/vd/czx34qs52cd_f3nb04sxmghc0000gn/T//ccRXSGGx.s 			page 31


 1711 0cb9 00       		.byte	0
 1712 0cba 06       		.uleb128 0x6
 1713 0cbb AA0C0000 		.4byte	0xcaa
 1714 0cbf 11       		.uleb128 0x11
 1715 0cc0 2A040000 		.4byte	.LASF175
 1716 0cc4 19       		.byte	0x19
 1717 0cc5 5C02     		.2byte	0x25c
 1718 0cc7 BA0C0000 		.4byte	0xcba
 1719 0ccb 1D       		.uleb128 0x1d
 1720 0ccc 2C000000 		.4byte	0x2c
 1721 0cd0 E40C0000 		.4byte	0xce4
 1722 0cd4 0F       		.uleb128 0xf
 1723 0cd5 49030000 		.4byte	0x349
 1724 0cd9 0F       		.uleb128 0xf
 1725 0cda E40C0000 		.4byte	0xce4
 1726 0cde 0F       		.uleb128 0xf
 1727 0cdf 2C000000 		.4byte	0x2c
 1728 0ce3 00       		.byte	0
 1729 0ce4 0C       		.uleb128 0xc
 1730 0ce5 04       		.byte	0x4
 1731 0ce6 C4000000 		.4byte	0xc4
 1732 0cea 0C       		.uleb128 0xc
 1733 0ceb 04       		.byte	0x4
 1734 0cec CB0C0000 		.4byte	0xccb
 1735 0cf0 1D       		.uleb128 0x1d
 1736 0cf1 2C000000 		.4byte	0x2c
 1737 0cf5 090D0000 		.4byte	0xd09
 1738 0cf9 0F       		.uleb128 0xf
 1739 0cfa 49030000 		.4byte	0x349
 1740 0cfe 0F       		.uleb128 0xf
 1741 0cff B90A0000 		.4byte	0xab9
 1742 0d03 0F       		.uleb128 0xf
 1743 0d04 2C000000 		.4byte	0x2c
 1744 0d08 00       		.byte	0
 1745 0d09 0C       		.uleb128 0xc
 1746 0d0a 04       		.byte	0x4
 1747 0d0b F00C0000 		.4byte	0xcf0
 1748 0d0f 1D       		.uleb128 0x1d
 1749 0d10 41010000 		.4byte	0x141
 1750 0d14 230D0000 		.4byte	0xd23
 1751 0d18 0F       		.uleb128 0xf
 1752 0d19 49030000 		.4byte	0x349
 1753 0d1d 0F       		.uleb128 0xf
 1754 0d1e B9000000 		.4byte	0xb9
 1755 0d22 00       		.byte	0
 1756 0d23 0C       		.uleb128 0xc
 1757 0d24 04       		.byte	0x4
 1758 0d25 0F0D0000 		.4byte	0xd0f
 1759 0d29 1D       		.uleb128 0x1d
 1760 0d2a 41010000 		.4byte	0x141
 1761 0d2e 380D0000 		.4byte	0xd38
 1762 0d32 0F       		.uleb128 0xf
 1763 0d33 49030000 		.4byte	0x349
 1764 0d37 00       		.byte	0
 1765 0d38 0C       		.uleb128 0xc
 1766 0d39 04       		.byte	0x4
 1767 0d3a 290D0000 		.4byte	0xd29
ARM GAS  /var/folders/vd/czx34qs52cd_f3nb04sxmghc0000gn/T//ccRXSGGx.s 			page 32


 1768 0d3e 1D       		.uleb128 0x1d
 1769 0d3f 41010000 		.4byte	0x141
 1770 0d43 570D0000 		.4byte	0xd57
 1771 0d47 0F       		.uleb128 0xf
 1772 0d48 49030000 		.4byte	0x349
 1773 0d4c 0F       		.uleb128 0xf
 1774 0d4d B9000000 		.4byte	0xb9
 1775 0d51 0F       		.uleb128 0xf
 1776 0d52 7C040000 		.4byte	0x47c
 1777 0d56 00       		.byte	0
 1778 0d57 0C       		.uleb128 0xc
 1779 0d58 04       		.byte	0x4
 1780 0d59 3E0D0000 		.4byte	0xd3e
 1781 0d5d 1D       		.uleb128 0x1d
 1782 0d5e 41010000 		.4byte	0x141
 1783 0d62 710D0000 		.4byte	0xd71
 1784 0d66 0F       		.uleb128 0xf
 1785 0d67 49030000 		.4byte	0x349
 1786 0d6b 0F       		.uleb128 0xf
 1787 0d6c 7C040000 		.4byte	0x47c
 1788 0d70 00       		.byte	0
 1789 0d71 0C       		.uleb128 0xc
 1790 0d72 04       		.byte	0x4
 1791 0d73 5D0D0000 		.4byte	0xd5d
 1792 0d77 1D       		.uleb128 0x1d
 1793 0d78 2C000000 		.4byte	0x2c
 1794 0d7c 950D0000 		.4byte	0xd95
 1795 0d80 0F       		.uleb128 0xf
 1796 0d81 49030000 		.4byte	0x349
 1797 0d85 0F       		.uleb128 0xf
 1798 0d86 E40C0000 		.4byte	0xce4
 1799 0d8a 0F       		.uleb128 0xf
 1800 0d8b 2C000000 		.4byte	0x2c
 1801 0d8f 0F       		.uleb128 0xf
 1802 0d90 7C040000 		.4byte	0x47c
 1803 0d94 00       		.byte	0
 1804 0d95 0C       		.uleb128 0xc
 1805 0d96 04       		.byte	0x4
 1806 0d97 770D0000 		.4byte	0xd77
 1807 0d9b 1D       		.uleb128 0x1d
 1808 0d9c 2C000000 		.4byte	0x2c
 1809 0da0 B90D0000 		.4byte	0xdb9
 1810 0da4 0F       		.uleb128 0xf
 1811 0da5 49030000 		.4byte	0x349
 1812 0da9 0F       		.uleb128 0xf
 1813 0daa B90A0000 		.4byte	0xab9
 1814 0dae 0F       		.uleb128 0xf
 1815 0daf 2C000000 		.4byte	0x2c
 1816 0db3 0F       		.uleb128 0xf
 1817 0db4 7C040000 		.4byte	0x47c
 1818 0db8 00       		.byte	0
 1819 0db9 0C       		.uleb128 0xc
 1820 0dba 04       		.byte	0x4
 1821 0dbb 9B0D0000 		.4byte	0xd9b
 1822 0dbf 1D       		.uleb128 0x1d
 1823 0dc0 41010000 		.4byte	0x141
 1824 0dc4 D80D0000 		.4byte	0xdd8
ARM GAS  /var/folders/vd/czx34qs52cd_f3nb04sxmghc0000gn/T//ccRXSGGx.s 			page 33


 1825 0dc8 0F       		.uleb128 0xf
 1826 0dc9 49030000 		.4byte	0x349
 1827 0dcd 0F       		.uleb128 0xf
 1828 0dce 3C000000 		.4byte	0x3c
 1829 0dd2 0F       		.uleb128 0xf
 1830 0dd3 49030000 		.4byte	0x349
 1831 0dd7 00       		.byte	0
 1832 0dd8 0C       		.uleb128 0xc
 1833 0dd9 04       		.byte	0x4
 1834 0dda BF0D0000 		.4byte	0xdbf
 1835 0dde 03       		.uleb128 0x3
 1836 0ddf 2C090000 		.4byte	.LASF176
 1837 0de3 1A       		.byte	0x1a
 1838 0de4 3A       		.byte	0x3a
 1839 0de5 E90D0000 		.4byte	0xde9
 1840 0de9 07       		.uleb128 0x7
 1841 0dea EF010000 		.4byte	.LASF177
 1842 0dee 24       		.byte	0x24
 1843 0def 1A       		.byte	0x1a
 1844 0df0 4B       		.byte	0x4b
 1845 0df1 560E0000 		.4byte	0xe56
 1846 0df5 08       		.uleb128 0x8
 1847 0df6 4F080000 		.4byte	.LASF178
 1848 0dfa 1A       		.byte	0x1a
 1849 0dfb 4C       		.byte	0x4c
 1850 0dfc 96020000 		.4byte	0x296
 1851 0e00 00       		.byte	0
 1852 0e01 08       		.uleb128 0x8
 1853 0e02 92030000 		.4byte	.LASF179
 1854 0e06 1A       		.byte	0x1a
 1855 0e07 4D       		.byte	0x4d
 1856 0e08 37000000 		.4byte	0x37
 1857 0e0c 08       		.byte	0x8
 1858 0e0d 08       		.uleb128 0x8
 1859 0e0e 5B010000 		.4byte	.LASF180
 1860 0e12 1A       		.byte	0x1a
 1861 0e13 4E       		.byte	0x4e
 1862 0e14 B90A0000 		.4byte	0xab9
 1863 0e18 0C       		.byte	0xc
 1864 0e19 08       		.uleb128 0x8
 1865 0e1a 4F010000 		.4byte	.LASF181
 1866 0e1e 1A       		.byte	0x1a
 1867 0e1f 4F       		.byte	0x4f
 1868 0e20 B90A0000 		.4byte	0xab9
 1869 0e24 10       		.byte	0x10
 1870 0e25 08       		.uleb128 0x8
 1871 0e26 1A0A0000 		.4byte	.LASF182
 1872 0e2a 1A       		.byte	0x1a
 1873 0e2b 51       		.byte	0x51
 1874 0e2c B90A0000 		.4byte	0xab9
 1875 0e30 14       		.byte	0x14
 1876 0e31 08       		.uleb128 0x8
 1877 0e32 7F010000 		.4byte	.LASF183
 1878 0e36 1A       		.byte	0x1a
 1879 0e37 52       		.byte	0x52
 1880 0e38 B90A0000 		.4byte	0xab9
 1881 0e3c 18       		.byte	0x18
ARM GAS  /var/folders/vd/czx34qs52cd_f3nb04sxmghc0000gn/T//ccRXSGGx.s 			page 34


 1882 0e3d 08       		.uleb128 0x8
 1883 0e3e 64010000 		.4byte	.LASF184
 1884 0e42 1A       		.byte	0x1a
 1885 0e43 53       		.byte	0x53
 1886 0e44 560E0000 		.4byte	0xe56
 1887 0e48 1C       		.byte	0x1c
 1888 0e49 08       		.uleb128 0x8
 1889 0e4a 43020000 		.4byte	.LASF185
 1890 0e4e 1A       		.byte	0x1a
 1891 0e4f 54       		.byte	0x54
 1892 0e50 49030000 		.4byte	0x349
 1893 0e54 20       		.byte	0x20
 1894 0e55 00       		.byte	0
 1895 0e56 03       		.uleb128 0x3
 1896 0e57 3D060000 		.4byte	.LASF186
 1897 0e5b 1A       		.byte	0x1a
 1898 0e5c 41       		.byte	0x41
 1899 0e5d 610E0000 		.4byte	0xe61
 1900 0e61 0C       		.uleb128 0xc
 1901 0e62 04       		.byte	0x4
 1902 0e63 670E0000 		.4byte	0xe67
 1903 0e67 0E       		.uleb128 0xe
 1904 0e68 720E0000 		.4byte	0xe72
 1905 0e6c 0F       		.uleb128 0xf
 1906 0e6d 720E0000 		.4byte	0xe72
 1907 0e71 00       		.byte	0
 1908 0e72 0C       		.uleb128 0xc
 1909 0e73 04       		.byte	0x4
 1910 0e74 DE0D0000 		.4byte	0xdde
 1911 0e78 03       		.uleb128 0x3
 1912 0e79 F6090000 		.4byte	.LASF187
 1913 0e7d 1A       		.byte	0x1a
 1914 0e7e 61       		.byte	0x61
 1915 0e7f DE0D0000 		.4byte	0xdde
 1916 0e83 03       		.uleb128 0x3
 1917 0e84 4B0A0000 		.4byte	.LASF188
 1918 0e88 1A       		.byte	0x1a
 1919 0e89 6D       		.byte	0x6d
 1920 0e8a DE0D0000 		.4byte	0xdde
 1921 0e8e 1E       		.uleb128 0x1e
 1922 0e8f 00       		.byte	0
 1923 0e90 1B       		.byte	0x1b
 1924 0e91 99       		.byte	0x99
 1925 0e92 03       		.uleb128 0x3
 1926 0e93 C2020000 		.4byte	.LASF189
 1927 0e97 1B       		.byte	0x1b
 1928 0e98 AA       		.byte	0xaa
 1929 0e99 8E0E0000 		.4byte	0xe8e
 1930 0e9d 17       		.uleb128 0x17
 1931 0e9e 04       		.byte	0x4
 1932 0e9f 1C       		.byte	0x1c
 1933 0ea0 5B       		.byte	0x5b
 1934 0ea1 BE0E0000 		.4byte	0xebe
 1935 0ea5 09       		.uleb128 0x9
 1936 0ea6 73657400 		.ascii	"set\000"
 1937 0eaa 1C       		.byte	0x1c
 1938 0eab 5C       		.byte	0x5c
ARM GAS  /var/folders/vd/czx34qs52cd_f3nb04sxmghc0000gn/T//ccRXSGGx.s 			page 35


 1939 0eac C9000000 		.4byte	0xc9
 1940 0eb0 00       		.byte	0
 1941 0eb1 08       		.uleb128 0x8
 1942 0eb2 84030000 		.4byte	.LASF190
 1943 0eb6 1C       		.byte	0x1c
 1944 0eb7 5D       		.byte	0x5d
 1945 0eb8 C9000000 		.4byte	0xc9
 1946 0ebc 02       		.byte	0x2
 1947 0ebd 00       		.byte	0
 1948 0ebe 18       		.uleb128 0x18
 1949 0ebf 04       		.byte	0x4
 1950 0ec0 1C       		.byte	0x1c
 1951 0ec1 59       		.byte	0x59
 1952 0ec2 D90E0000 		.4byte	0xed9
 1953 0ec6 1F       		.uleb128 0x1f
 1954 0ec7 5700     		.ascii	"W\000"
 1955 0ec9 1C       		.byte	0x1c
 1956 0eca 5A       		.byte	0x5a
 1957 0ecb E4000000 		.4byte	0xe4
 1958 0ecf 1F       		.uleb128 0x1f
 1959 0ed0 4800     		.ascii	"H\000"
 1960 0ed2 1C       		.byte	0x1c
 1961 0ed3 5E       		.byte	0x5e
 1962 0ed4 9D0E0000 		.4byte	0xe9d
 1963 0ed8 00       		.byte	0
 1964 0ed9 04       		.uleb128 0x4
 1965 0eda BE0E0000 		.4byte	0xebe
 1966 0ede 17       		.uleb128 0x17
 1967 0edf 28       		.byte	0x28
 1968 0ee0 1C       		.byte	0x1c
 1969 0ee1 51       		.byte	0x51
 1970 0ee2 5F0F0000 		.4byte	0xf5f
 1971 0ee6 08       		.uleb128 0x8
 1972 0ee7 4D060000 		.4byte	.LASF191
 1973 0eeb 1C       		.byte	0x1c
 1974 0eec 53       		.byte	0x53
 1975 0eed EF000000 		.4byte	0xef
 1976 0ef1 00       		.byte	0
 1977 0ef2 08       		.uleb128 0x8
 1978 0ef3 48080000 		.4byte	.LASF192
 1979 0ef7 1C       		.byte	0x1c
 1980 0ef8 54       		.byte	0x54
 1981 0ef9 EF000000 		.4byte	0xef
 1982 0efd 04       		.byte	0x4
 1983 0efe 08       		.uleb128 0x8
 1984 0eff DD040000 		.4byte	.LASF193
 1985 0f03 1C       		.byte	0x1c
 1986 0f04 55       		.byte	0x55
 1987 0f05 EF000000 		.4byte	0xef
 1988 0f09 08       		.byte	0x8
 1989 0f0a 08       		.uleb128 0x8
 1990 0f0b EE050000 		.4byte	.LASF194
 1991 0f0f 1C       		.byte	0x1c
 1992 0f10 56       		.byte	0x56
 1993 0f11 EF000000 		.4byte	0xef
 1994 0f15 0C       		.byte	0xc
 1995 0f16 09       		.uleb128 0x9
ARM GAS  /var/folders/vd/czx34qs52cd_f3nb04sxmghc0000gn/T//ccRXSGGx.s 			page 36


 1996 0f17 49445200 		.ascii	"IDR\000"
 1997 0f1b 1C       		.byte	0x1c
 1998 0f1c 57       		.byte	0x57
 1999 0f1d EF000000 		.4byte	0xef
 2000 0f21 10       		.byte	0x10
 2001 0f22 09       		.uleb128 0x9
 2002 0f23 4F445200 		.ascii	"ODR\000"
 2003 0f27 1C       		.byte	0x1c
 2004 0f28 58       		.byte	0x58
 2005 0f29 EF000000 		.4byte	0xef
 2006 0f2d 14       		.byte	0x14
 2007 0f2e 08       		.uleb128 0x8
 2008 0f2f 37090000 		.4byte	.LASF195
 2009 0f33 1C       		.byte	0x1c
 2010 0f34 5F       		.byte	0x5f
 2011 0f35 D90E0000 		.4byte	0xed9
 2012 0f39 18       		.byte	0x18
 2013 0f3a 08       		.uleb128 0x8
 2014 0f3b A7070000 		.4byte	.LASF196
 2015 0f3f 1C       		.byte	0x1c
 2016 0f40 60       		.byte	0x60
 2017 0f41 EF000000 		.4byte	0xef
 2018 0f45 1C       		.byte	0x1c
 2019 0f46 08       		.uleb128 0x8
 2020 0f47 58060000 		.4byte	.LASF197
 2021 0f4b 1C       		.byte	0x1c
 2022 0f4c 61       		.byte	0x61
 2023 0f4d EF000000 		.4byte	0xef
 2024 0f51 20       		.byte	0x20
 2025 0f52 08       		.uleb128 0x8
 2026 0f53 DC070000 		.4byte	.LASF198
 2027 0f57 1C       		.byte	0x1c
 2028 0f58 62       		.byte	0x62
 2029 0f59 EF000000 		.4byte	0xef
 2030 0f5d 24       		.byte	0x24
 2031 0f5e 00       		.byte	0
 2032 0f5f 03       		.uleb128 0x3
 2033 0f60 53020000 		.4byte	.LASF199
 2034 0f64 1C       		.byte	0x1c
 2035 0f65 63       		.byte	0x63
 2036 0f66 DE0E0000 		.4byte	0xede
 2037 0f6a 03       		.uleb128 0x3
 2038 0f6b 25030000 		.4byte	.LASF200
 2039 0f6f 1D       		.byte	0x1d
 2040 0f70 C2       		.byte	0xc2
 2041 0f71 E4000000 		.4byte	0xe4
 2042 0f75 03       		.uleb128 0x3
 2043 0f76 1D010000 		.4byte	.LASF201
 2044 0f7a 1D       		.byte	0x1d
 2045 0f7b C7       		.byte	0xc7
 2046 0f7c E4000000 		.4byte	0xe4
 2047 0f80 03       		.uleb128 0x3
 2048 0f81 8C010000 		.4byte	.LASF202
 2049 0f85 1D       		.byte	0x1d
 2050 0f86 D9       		.byte	0xd9
 2051 0f87 8B0F0000 		.4byte	0xf8b
 2052 0f8b 0C       		.uleb128 0xc
ARM GAS  /var/folders/vd/czx34qs52cd_f3nb04sxmghc0000gn/T//ccRXSGGx.s 			page 37


 2053 0f8c 04       		.byte	0x4
 2054 0f8d 5F0F0000 		.4byte	0xf5f
 2055 0f91 13       		.uleb128 0x13
 2056 0f92 920E0000 		.4byte	0xe92
 2057 0f96 A10F0000 		.4byte	0xfa1
 2058 0f9a 14       		.uleb128 0x14
 2059 0f9b 3C000000 		.4byte	0x3c
 2060 0f9f 0F       		.byte	0xf
 2061 0fa0 00       		.byte	0
 2062 0fa1 11       		.uleb128 0x11
 2063 0fa2 DB060000 		.4byte	.LASF203
 2064 0fa6 1D       		.byte	0x1d
 2065 0fa7 DA01     		.2byte	0x1da
 2066 0fa9 910F0000 		.4byte	0xf91
 2067 0fad 17       		.uleb128 0x17
 2068 0fae 0C       		.byte	0xc
 2069 0faf 1B       		.byte	0x1b
 2070 0fb0 B5       		.byte	0xb5
 2071 0fb1 DA0F0000 		.4byte	0xfda
 2072 0fb5 08       		.uleb128 0x8
 2073 0fb6 13020000 		.4byte	.LASF204
 2074 0fba 1B       		.byte	0x1b
 2075 0fbb B9       		.byte	0xb9
 2076 0fbc 800F0000 		.4byte	0xf80
 2077 0fc0 00       		.byte	0
 2078 0fc1 08       		.uleb128 0x8
 2079 0fc2 1B060000 		.4byte	.LASF205
 2080 0fc6 1B       		.byte	0x1b
 2081 0fc7 BF       		.byte	0xbf
 2082 0fc8 6A0F0000 		.4byte	0xf6a
 2083 0fcc 04       		.byte	0x4
 2084 0fcd 08       		.uleb128 0x8
 2085 0fce B4060000 		.4byte	.LASF101
 2086 0fd2 1B       		.byte	0x1b
 2087 0fd3 C3       		.byte	0xc3
 2088 0fd4 FF000000 		.4byte	0xff
 2089 0fd8 08       		.byte	0x8
 2090 0fd9 00       		.byte	0
 2091 0fda 03       		.uleb128 0x3
 2092 0fdb 52030000 		.4byte	.LASF206
 2093 0fdf 1B       		.byte	0x1b
 2094 0fe0 C4       		.byte	0xc4
 2095 0fe1 AD0F0000 		.4byte	0xfad
 2096 0fe5 06       		.uleb128 0x6
 2097 0fe6 DA0F0000 		.4byte	0xfda
 2098 0fea 20       		.uleb128 0x20
 2099 0feb 07       		.byte	0x7
 2100 0fec 01       		.byte	0x1
 2101 0fed 63000000 		.4byte	0x63
 2102 0ff1 1E       		.byte	0x1e
 2103 0ff2 4A       		.byte	0x4a
 2104 0ff3 0A100000 		.4byte	0x100a
 2105 0ff7 21       		.uleb128 0x21
 2106 0ff8 03010000 		.4byte	.LASF207
 2107 0ffc 00       		.byte	0
 2108 0ffd 21       		.uleb128 0x21
 2109 0ffe 8C070000 		.4byte	.LASF208
ARM GAS  /var/folders/vd/czx34qs52cd_f3nb04sxmghc0000gn/T//ccRXSGGx.s 			page 38


 2110 1002 01       		.byte	0x1
 2111 1003 21       		.uleb128 0x21
 2112 1004 B9080000 		.4byte	.LASF209
 2113 1008 02       		.byte	0x2
 2114 1009 00       		.byte	0
 2115 100a 03       		.uleb128 0x3
 2116 100b 9D090000 		.4byte	.LASF210
 2117 100f 1E       		.byte	0x1e
 2118 1010 4E       		.byte	0x4e
 2119 1011 EA0F0000 		.4byte	0xfea
 2120 1015 03       		.uleb128 0x3
 2121 1016 AA060000 		.4byte	.LASF211
 2122 101a 1E       		.byte	0x1e
 2123 101b 53       		.byte	0x53
 2124 101c 20100000 		.4byte	0x1020
 2125 1020 0D       		.uleb128 0xd
 2126 1021 AA060000 		.4byte	.LASF211
 2127 1025 1C       		.byte	0x1c
 2128 1026 1F       		.byte	0x1f
 2129 1027 B201     		.2byte	0x1b2
 2130 1029 89100000 		.4byte	0x1089
 2131 102d 0B       		.uleb128 0xb
 2132 102e D4000000 		.4byte	.LASF39
 2133 1032 1F       		.byte	0x1f
 2134 1033 B601     		.2byte	0x1b6
 2135 1035 0A100000 		.4byte	0x100a
 2136 1039 00       		.byte	0
 2137 103a 0B       		.uleb128 0xb
 2138 103b CD000000 		.4byte	.LASF212
 2139 103f 1F       		.byte	0x1f
 2140 1040 BA01     		.2byte	0x1ba
 2141 1042 84110000 		.4byte	0x1184
 2142 1046 04       		.byte	0x4
 2143 1047 0B       		.uleb128 0xb
 2144 1048 17080000 		.4byte	.LASF213
 2145 104c 1F       		.byte	0x1f
 2146 104d BE01     		.2byte	0x1be
 2147 104f CF100000 		.4byte	0x10cf
 2148 1053 08       		.byte	0x8
 2149 1054 0B       		.uleb128 0xb
 2150 1055 9C030000 		.4byte	.LASF214
 2151 1059 1F       		.byte	0x1f
 2152 105a C201     		.2byte	0x1c2
 2153 105c C3100000 		.4byte	0x10c3
 2154 1060 0C       		.byte	0xc
 2155 1061 0B       		.uleb128 0xb
 2156 1062 86060000 		.4byte	.LASF215
 2157 1066 1F       		.byte	0x1f
 2158 1067 C601     		.2byte	0x1c6
 2159 1069 B7100000 		.4byte	0x10b7
 2160 106d 10       		.byte	0x10
 2161 106e 0B       		.uleb128 0xb
 2162 106f AE040000 		.4byte	.LASF216
 2163 1073 1F       		.byte	0x1f
 2164 1074 CE01     		.2byte	0x1ce
 2165 1076 E4000000 		.4byte	0xe4
 2166 107a 14       		.byte	0x14
ARM GAS  /var/folders/vd/czx34qs52cd_f3nb04sxmghc0000gn/T//ccRXSGGx.s 			page 39


 2167 107b 0A       		.uleb128 0xa
 2168 107c 74696D00 		.ascii	"tim\000"
 2169 1080 1F       		.byte	0x1f
 2170 1081 D201     		.2byte	0x1d2
 2171 1083 8A110000 		.4byte	0x118a
 2172 1087 18       		.byte	0x18
 2173 1088 00       		.byte	0
 2174 1089 03       		.uleb128 0x3
 2175 108a 94060000 		.4byte	.LASF217
 2176 108e 1E       		.byte	0x1e
 2177 108f 5A       		.byte	0x5a
 2178 1090 94100000 		.4byte	0x1094
 2179 1094 0C       		.uleb128 0xc
 2180 1095 04       		.byte	0x4
 2181 1096 9A100000 		.4byte	0x109a
 2182 109a 0E       		.uleb128 0xe
 2183 109b A5100000 		.4byte	0x10a5
 2184 109f 0F       		.uleb128 0xf
 2185 10a0 A5100000 		.4byte	0x10a5
 2186 10a4 00       		.byte	0
 2187 10a5 0C       		.uleb128 0xc
 2188 10a6 04       		.byte	0x4
 2189 10a7 15100000 		.4byte	0x1015
 2190 10ab 16       		.uleb128 0x16
 2191 10ac 3B030000 		.4byte	.LASF218
 2192 10b0 1F       		.byte	0x1f
 2193 10b1 5E01     		.2byte	0x15e
 2194 10b3 E4000000 		.4byte	0xe4
 2195 10b7 16       		.uleb128 0x16
 2196 10b8 C9010000 		.4byte	.LASF219
 2197 10bc 1F       		.byte	0x1f
 2198 10bd 6301     		.2byte	0x163
 2199 10bf B9000000 		.4byte	0xb9
 2200 10c3 16       		.uleb128 0x16
 2201 10c4 C1000000 		.4byte	.LASF220
 2202 10c8 1F       		.byte	0x1f
 2203 10c9 6801     		.2byte	0x168
 2204 10cb E4000000 		.4byte	0xe4
 2205 10cf 16       		.uleb128 0x16
 2206 10d0 2C020000 		.4byte	.LASF221
 2207 10d4 1F       		.byte	0x1f
 2208 10d5 6D01     		.2byte	0x16d
 2209 10d7 E4000000 		.4byte	0xe4
 2210 10db 15       		.uleb128 0x15
 2211 10dc 08       		.byte	0x8
 2212 10dd 1F       		.byte	0x1f
 2213 10de 7201     		.2byte	0x172
 2214 10e0 FF100000 		.4byte	0x10ff
 2215 10e4 0B       		.uleb128 0xb
 2216 10e5 E3080000 		.4byte	.LASF222
 2217 10e9 1F       		.byte	0x1f
 2218 10ea 7601     		.2byte	0x176
 2219 10ec AB100000 		.4byte	0x10ab
 2220 10f0 00       		.byte	0
 2221 10f1 0B       		.uleb128 0xb
 2222 10f2 6D010000 		.4byte	.LASF223
 2223 10f6 1F       		.byte	0x1f
ARM GAS  /var/folders/vd/czx34qs52cd_f3nb04sxmghc0000gn/T//ccRXSGGx.s 			page 40


 2224 10f7 7C01     		.2byte	0x17c
 2225 10f9 89100000 		.4byte	0x1089
 2226 10fd 04       		.byte	0x4
 2227 10fe 00       		.byte	0
 2228 10ff 16       		.uleb128 0x16
 2229 1100 DF000000 		.4byte	.LASF224
 2230 1104 1F       		.byte	0x1f
 2231 1105 7E01     		.2byte	0x17e
 2232 1107 DB100000 		.4byte	0x10db
 2233 110b 15       		.uleb128 0x15
 2234 110c 34       		.byte	0x34
 2235 110d 1F       		.byte	0x1f
 2236 110e 8301     		.2byte	0x183
 2237 1110 63110000 		.4byte	0x1163
 2238 1114 0B       		.uleb128 0xb
 2239 1115 33060000 		.4byte	.LASF225
 2240 1119 1F       		.byte	0x1f
 2241 111a 8901     		.2byte	0x189
 2242 111c E4000000 		.4byte	0xe4
 2243 1120 00       		.byte	0
 2244 1121 0B       		.uleb128 0xb
 2245 1122 17080000 		.4byte	.LASF213
 2246 1126 1F       		.byte	0x1f
 2247 1127 8F01     		.2byte	0x18f
 2248 1129 CF100000 		.4byte	0x10cf
 2249 112d 04       		.byte	0x4
 2250 112e 0B       		.uleb128 0xb
 2251 112f 6D010000 		.4byte	.LASF223
 2252 1133 1F       		.byte	0x1f
 2253 1134 9501     		.2byte	0x195
 2254 1136 89100000 		.4byte	0x1089
 2255 113a 08       		.byte	0x8
 2256 113b 0B       		.uleb128 0xb
 2257 113c 86060000 		.4byte	.LASF215
 2258 1140 1F       		.byte	0x1f
 2259 1141 9901     		.2byte	0x199
 2260 1143 63110000 		.4byte	0x1163
 2261 1147 0C       		.byte	0xc
 2262 1148 0A       		.uleb128 0xa
 2263 1149 63723200 		.ascii	"cr2\000"
 2264 114d 1F       		.byte	0x1f
 2265 114e 9F01     		.2byte	0x19f
 2266 1150 E4000000 		.4byte	0xe4
 2267 1154 2C       		.byte	0x2c
 2268 1155 0B       		.uleb128 0xb
 2269 1156 FE000000 		.4byte	.LASF226
 2270 115a 1F       		.byte	0x1f
 2271 115b AC01     		.2byte	0x1ac
 2272 115d E4000000 		.4byte	0xe4
 2273 1161 30       		.byte	0x30
 2274 1162 00       		.byte	0
 2275 1163 13       		.uleb128 0x13
 2276 1164 FF100000 		.4byte	0x10ff
 2277 1168 73110000 		.4byte	0x1173
 2278 116c 14       		.uleb128 0x14
 2279 116d 3C000000 		.4byte	0x3c
 2280 1171 03       		.byte	0x3
ARM GAS  /var/folders/vd/czx34qs52cd_f3nb04sxmghc0000gn/T//ccRXSGGx.s 			page 41


 2281 1172 00       		.byte	0
 2282 1173 16       		.uleb128 0x16
 2283 1174 57090000 		.4byte	.LASF227
 2284 1178 1F       		.byte	0x1f
 2285 1179 AD01     		.2byte	0x1ad
 2286 117b 0B110000 		.4byte	0x110b
 2287 117f 06       		.uleb128 0x6
 2288 1180 73110000 		.4byte	0x1173
 2289 1184 0C       		.uleb128 0xc
 2290 1185 04       		.byte	0x4
 2291 1186 7F110000 		.4byte	0x117f
 2292 118a 0C       		.uleb128 0xc
 2293 118b 04       		.byte	0x4
 2294 118c 96070000 		.4byte	0x796
 2295 1190 11       		.uleb128 0x11
 2296 1191 8D090000 		.4byte	.LASF228
 2297 1195 1F       		.byte	0x1f
 2298 1196 FD01     		.2byte	0x1fd
 2299 1198 15100000 		.4byte	0x1015
 2300 119c 20       		.uleb128 0x20
 2301 119d 07       		.byte	0x7
 2302 119e 01       		.byte	0x1
 2303 119f 63000000 		.4byte	0x63
 2304 11a3 20       		.byte	0x20
 2305 11a4 58       		.byte	0x58
 2306 11a5 BC110000 		.4byte	0x11bc
 2307 11a9 21       		.uleb128 0x21
 2308 11aa 79020000 		.4byte	.LASF229
 2309 11ae 00       		.byte	0
 2310 11af 21       		.uleb128 0x21
 2311 11b0 6D0A0000 		.4byte	.LASF230
 2312 11b4 01       		.byte	0x1
 2313 11b5 21       		.uleb128 0x21
 2314 11b6 71080000 		.4byte	.LASF231
 2315 11ba 02       		.byte	0x2
 2316 11bb 00       		.byte	0
 2317 11bc 03       		.uleb128 0x3
 2318 11bd 67080000 		.4byte	.LASF232
 2319 11c1 20       		.byte	0x20
 2320 11c2 5C       		.byte	0x5c
 2321 11c3 9C110000 		.4byte	0x119c
 2322 11c7 03       		.uleb128 0x3
 2323 11c8 2D080000 		.4byte	.LASF233
 2324 11cc 20       		.byte	0x20
 2325 11cd 61       		.byte	0x61
 2326 11ce D2110000 		.4byte	0x11d2
 2327 11d2 07       		.uleb128 0x7
 2328 11d3 2D080000 		.4byte	.LASF233
 2329 11d7 7C       		.byte	0x7c
 2330 11d8 20       		.byte	0x20
 2331 11d9 7B       		.byte	0x7b
 2332 11da 49120000 		.4byte	0x1249
 2333 11de 09       		.uleb128 0x9
 2334 11df 766D7400 		.ascii	"vmt\000"
 2335 11e3 20       		.byte	0x20
 2336 11e4 7D       		.byte	0x7d
 2337 11e5 DF120000 		.4byte	0x12df
ARM GAS  /var/folders/vd/czx34qs52cd_f3nb04sxmghc0000gn/T//ccRXSGGx.s 			page 42


 2338 11e9 00       		.byte	0
 2339 11ea 08       		.uleb128 0x8
 2340 11eb 47060000 		.4byte	.LASF234
 2341 11ef 20       		.byte	0x20
 2342 11f0 7E       		.byte	0x7e
 2343 11f1 610A0000 		.4byte	0xa61
 2344 11f5 04       		.byte	0x4
 2345 11f6 08       		.uleb128 0x8
 2346 11f7 D4000000 		.4byte	.LASF39
 2347 11fb 20       		.byte	0x20
 2348 11fc 7E       		.byte	0x7e
 2349 11fd BC110000 		.4byte	0x11bc
 2350 1201 08       		.byte	0x8
 2351 1202 08       		.uleb128 0x8
 2352 1203 FF080000 		.4byte	.LASF235
 2353 1207 20       		.byte	0x20
 2354 1208 7E       		.byte	0x7e
 2355 1209 780E0000 		.4byte	0xe78
 2356 120d 0C       		.byte	0xc
 2357 120e 08       		.uleb128 0x8
 2358 120f B9010000 		.4byte	.LASF236
 2359 1213 20       		.byte	0x20
 2360 1214 7E       		.byte	0x7e
 2361 1215 830E0000 		.4byte	0xe83
 2362 1219 30       		.byte	0x30
 2363 121a 09       		.uleb128 0x9
 2364 121b 696200   		.ascii	"ib\000"
 2365 121e 20       		.byte	0x20
 2366 121f 7E       		.byte	0x7e
 2367 1220 E5120000 		.4byte	0x12e5
 2368 1224 54       		.byte	0x54
 2369 1225 09       		.uleb128 0x9
 2370 1226 6F6200   		.ascii	"ob\000"
 2371 1229 20       		.byte	0x20
 2372 122a 7E       		.byte	0x7e
 2373 122b E5120000 		.4byte	0x12e5
 2374 122f 64       		.byte	0x64
 2375 1230 08       		.uleb128 0x8
 2376 1231 DF010000 		.4byte	.LASF237
 2377 1235 20       		.byte	0x20
 2378 1236 7E       		.byte	0x7e
 2379 1237 F5120000 		.4byte	0x12f5
 2380 123b 74       		.byte	0x74
 2381 123c 08       		.uleb128 0x8
 2382 123d 4B030000 		.4byte	.LASF238
 2383 1241 20       		.byte	0x20
 2384 1242 7E       		.byte	0x7e
 2385 1243 B9000000 		.4byte	0xb9
 2386 1247 78       		.byte	0x78
 2387 1248 00       		.byte	0
 2388 1249 1B       		.uleb128 0x1b
 2389 124a 53443100 		.ascii	"SD1\000"
 2390 124e 21       		.byte	0x21
 2391 124f 4401     		.2byte	0x144
 2392 1251 C7110000 		.4byte	0x11c7
 2393 1255 07       		.uleb128 0x7
 2394 1256 82040000 		.4byte	.LASF239
ARM GAS  /var/folders/vd/czx34qs52cd_f3nb04sxmghc0000gn/T//ccRXSGGx.s 			page 43


 2395 125a 28       		.byte	0x28
 2396 125b 20       		.byte	0x20
 2397 125c 70       		.byte	0x70
 2398 125d DA120000 		.4byte	0x12da
 2399 1261 08       		.uleb128 0x8
 2400 1262 E6090000 		.4byte	.LASF240
 2401 1266 20       		.byte	0x20
 2402 1267 71       		.byte	0x71
 2403 1268 2C000000 		.4byte	0x2c
 2404 126c 00       		.byte	0
 2405 126d 08       		.uleb128 0x8
 2406 126e AC000000 		.4byte	.LASF241
 2407 1272 20       		.byte	0x20
 2408 1273 71       		.byte	0x71
 2409 1274 EA0C0000 		.4byte	0xcea
 2410 1278 04       		.byte	0x4
 2411 1279 08       		.uleb128 0x8
 2412 127a 53060000 		.4byte	.LASF242
 2413 127e 20       		.byte	0x20
 2414 127f 71       		.byte	0x71
 2415 1280 090D0000 		.4byte	0xd09
 2416 1284 08       		.byte	0x8
 2417 1285 09       		.uleb128 0x9
 2418 1286 70757400 		.ascii	"put\000"
 2419 128a 20       		.byte	0x20
 2420 128b 71       		.byte	0x71
 2421 128c 230D0000 		.4byte	0xd23
 2422 1290 0C       		.byte	0xc
 2423 1291 09       		.uleb128 0x9
 2424 1292 67657400 		.ascii	"get\000"
 2425 1296 20       		.byte	0x20
 2426 1297 71       		.byte	0x71
 2427 1298 380D0000 		.4byte	0xd38
 2428 129c 10       		.byte	0x10
 2429 129d 08       		.uleb128 0x8
 2430 129e DA000000 		.4byte	.LASF243
 2431 12a2 20       		.byte	0x20
 2432 12a3 71       		.byte	0x71
 2433 12a4 570D0000 		.4byte	0xd57
 2434 12a8 14       		.byte	0x14
 2435 12a9 08       		.uleb128 0x8
 2436 12aa DC020000 		.4byte	.LASF244
 2437 12ae 20       		.byte	0x20
 2438 12af 71       		.byte	0x71
 2439 12b0 710D0000 		.4byte	0xd71
 2440 12b4 18       		.byte	0x18
 2441 12b5 08       		.uleb128 0x8
 2442 12b6 7C000000 		.4byte	.LASF245
 2443 12ba 20       		.byte	0x20
 2444 12bb 71       		.byte	0x71
 2445 12bc 950D0000 		.4byte	0xd95
 2446 12c0 1C       		.byte	0x1c
 2447 12c1 08       		.uleb128 0x8
 2448 12c2 55010000 		.4byte	.LASF246
 2449 12c6 20       		.byte	0x20
 2450 12c7 71       		.byte	0x71
 2451 12c8 B90D0000 		.4byte	0xdb9
ARM GAS  /var/folders/vd/czx34qs52cd_f3nb04sxmghc0000gn/T//ccRXSGGx.s 			page 44


 2452 12cc 20       		.byte	0x20
 2453 12cd 09       		.uleb128 0x9
 2454 12ce 63746C00 		.ascii	"ctl\000"
 2455 12d2 20       		.byte	0x20
 2456 12d3 71       		.byte	0x71
 2457 12d4 D80D0000 		.4byte	0xdd8
 2458 12d8 24       		.byte	0x24
 2459 12d9 00       		.byte	0
 2460 12da 06       		.uleb128 0x6
 2461 12db 55120000 		.4byte	0x1255
 2462 12df 0C       		.uleb128 0xc
 2463 12e0 04       		.byte	0x4
 2464 12e1 DA120000 		.4byte	0x12da
 2465 12e5 13       		.uleb128 0x13
 2466 12e6 B9000000 		.4byte	0xb9
 2467 12ea F5120000 		.4byte	0x12f5
 2468 12ee 14       		.uleb128 0x14
 2469 12ef 3C000000 		.4byte	0x3c
 2470 12f3 0F       		.byte	0xf
 2471 12f4 00       		.byte	0
 2472 12f5 0C       		.uleb128 0xc
 2473 12f6 04       		.byte	0x4
 2474 12f7 CE050000 		.4byte	0x5ce
 2475 12fb 22       		.uleb128 0x22
 2476 12fc BC0A0000 		.4byte	.LASF247
 2477 1300 01       		.byte	0x1
 2478 1301 71       		.byte	0x71
 2479 1302 00000000 		.4byte	.LFB315
 2480 1306 0E000000 		.4byte	.LFE315-.LFB315
 2481 130a 01       		.uleb128 0x1
 2482 130b 9C       		.byte	0x9c
 2483 130c 49130000 		.4byte	0x1349
 2484 1310 23       		.uleb128 0x23
 2485 1311 62757300 		.ascii	"bus\000"
 2486 1315 01       		.byte	0x1
 2487 1316 71       		.byte	0x71
 2488 1317 49130000 		.4byte	0x1349
 2489 131b 00000000 		.4byte	.LLST3
 2490 131f 24       		.uleb128 0x24
 2491 1320 E3080000 		.4byte	.LASF222
 2492 1324 01       		.byte	0x1
 2493 1325 71       		.byte	0x71
 2494 1326 750F0000 		.4byte	0xf75
 2495 132a 21000000 		.4byte	.LLST4
 2496 132e 25       		.uleb128 0x25
 2497 132f A3000000 		.4byte	.LASF250
 2498 1333 5F130000 		.4byte	0x135f
 2499 1337 26       		.uleb128 0x26
 2500 1338 0E000000 		.4byte	.LVL8
 2501 133c FD130000 		.4byte	0x13fd
 2502 1340 27       		.uleb128 0x27
 2503 1341 01       		.uleb128 0x1
 2504 1342 52       		.byte	0x52
 2505 1343 03       		.uleb128 0x3
 2506 1344 F3       		.byte	0xf3
 2507 1345 01       		.uleb128 0x1
 2508 1346 51       		.byte	0x51
ARM GAS  /var/folders/vd/czx34qs52cd_f3nb04sxmghc0000gn/T//ccRXSGGx.s 			page 45


 2509 1347 00       		.byte	0
 2510 1348 00       		.byte	0
 2511 1349 0C       		.uleb128 0xc
 2512 134a 04       		.byte	0x4
 2513 134b E50F0000 		.4byte	0xfe5
 2514 134f 13       		.uleb128 0x13
 2515 1350 9E080000 		.4byte	0x89e
 2516 1354 5F130000 		.4byte	0x135f
 2517 1358 14       		.uleb128 0x14
 2518 1359 3C000000 		.4byte	0x3c
 2519 135d 0D       		.byte	0xd
 2520 135e 00       		.byte	0
 2521 135f 06       		.uleb128 0x6
 2522 1360 4F130000 		.4byte	0x134f
 2523 1364 22       		.uleb128 0x22
 2524 1365 16070000 		.4byte	.LASF248
 2525 1369 01       		.byte	0x1
 2526 136a 5A       		.byte	0x5a
 2527 136b 00000000 		.4byte	.LFB314
 2528 136f 1E000000 		.4byte	.LFE314-.LFB314
 2529 1373 01       		.uleb128 0x1
 2530 1374 9C       		.byte	0x9c
 2531 1375 A1130000 		.4byte	0x13a1
 2532 1379 23       		.uleb128 0x23
 2533 137a 62757300 		.ascii	"bus\000"
 2534 137e 01       		.byte	0x1
 2535 137f 5A       		.byte	0x5a
 2536 1380 49130000 		.4byte	0x1349
 2537 1384 4D000000 		.4byte	.LLST1
 2538 1388 24       		.uleb128 0x24
 2539 1389 8F060000 		.4byte	.LASF249
 2540 138d 01       		.byte	0x1
 2541 138e 5A       		.byte	0x5a
 2542 138f 6A0F0000 		.4byte	0xf6a
 2543 1393 6E000000 		.4byte	.LLST2
 2544 1397 25       		.uleb128 0x25
 2545 1398 A3000000 		.4byte	.LASF250
 2546 139c B1130000 		.4byte	0x13b1
 2547 13a0 00       		.byte	0
 2548 13a1 13       		.uleb128 0x13
 2549 13a2 9E080000 		.4byte	0x89e
 2550 13a6 B1130000 		.4byte	0x13b1
 2551 13aa 14       		.uleb128 0x14
 2552 13ab 3C000000 		.4byte	0x3c
 2553 13af 0B       		.byte	0xb
 2554 13b0 00       		.byte	0
 2555 13b1 06       		.uleb128 0x6
 2556 13b2 A1130000 		.4byte	0x13a1
 2557 13b6 28       		.uleb128 0x28
 2558 13b7 06090000 		.4byte	.LASF254
 2559 13bb 01       		.byte	0x1
 2560 13bc 41       		.byte	0x41
 2561 13bd 6A0F0000 		.4byte	0xf6a
 2562 13c1 00000000 		.4byte	.LFB313
 2563 13c5 0E000000 		.4byte	.LFE313-.LFB313
 2564 13c9 01       		.uleb128 0x1
 2565 13ca 9C       		.byte	0x9c
ARM GAS  /var/folders/vd/czx34qs52cd_f3nb04sxmghc0000gn/T//ccRXSGGx.s 			page 46


 2566 13cb E8130000 		.4byte	0x13e8
 2567 13cf 23       		.uleb128 0x23
 2568 13d0 62757300 		.ascii	"bus\000"
 2569 13d4 01       		.byte	0x1
 2570 13d5 41       		.byte	0x41
 2571 13d6 49130000 		.4byte	0x1349
 2572 13da 8F000000 		.4byte	.LLST0
 2573 13de 25       		.uleb128 0x25
 2574 13df A3000000 		.4byte	.LASF250
 2575 13e3 F8130000 		.4byte	0x13f8
 2576 13e7 00       		.byte	0
 2577 13e8 13       		.uleb128 0x13
 2578 13e9 9E080000 		.4byte	0x89e
 2579 13ed F8130000 		.4byte	0x13f8
 2580 13f1 14       		.uleb128 0x14
 2581 13f2 3C000000 		.4byte	0x3c
 2582 13f6 0A       		.byte	0xa
 2583 13f7 00       		.byte	0
 2584 13f8 06       		.uleb128 0x6
 2585 13f9 E8130000 		.4byte	0x13e8
 2586 13fd 29       		.uleb128 0x29
 2587 13fe 26010000 		.4byte	.LASF255
 2588 1402 26010000 		.4byte	.LASF255
 2589 1406 1D       		.byte	0x1d
 2590 1407 E101     		.2byte	0x1e1
 2591 1409 00       		.byte	0
 2592              		.section	.debug_abbrev,"",%progbits
 2593              	.Ldebug_abbrev0:
 2594 0000 01       		.uleb128 0x1
 2595 0001 11       		.uleb128 0x11
 2596 0002 01       		.byte	0x1
 2597 0003 25       		.uleb128 0x25
 2598 0004 0E       		.uleb128 0xe
 2599 0005 13       		.uleb128 0x13
 2600 0006 0B       		.uleb128 0xb
 2601 0007 03       		.uleb128 0x3
 2602 0008 0E       		.uleb128 0xe
 2603 0009 1B       		.uleb128 0x1b
 2604 000a 0E       		.uleb128 0xe
 2605 000b 55       		.uleb128 0x55
 2606 000c 17       		.uleb128 0x17
 2607 000d 11       		.uleb128 0x11
 2608 000e 01       		.uleb128 0x1
 2609 000f 10       		.uleb128 0x10
 2610 0010 17       		.uleb128 0x17
 2611 0011 00       		.byte	0
 2612 0012 00       		.byte	0
 2613 0013 02       		.uleb128 0x2
 2614 0014 24       		.uleb128 0x24
 2615 0015 00       		.byte	0
 2616 0016 0B       		.uleb128 0xb
 2617 0017 0B       		.uleb128 0xb
 2618 0018 3E       		.uleb128 0x3e
 2619 0019 0B       		.uleb128 0xb
 2620 001a 03       		.uleb128 0x3
 2621 001b 08       		.uleb128 0x8
 2622 001c 00       		.byte	0
ARM GAS  /var/folders/vd/czx34qs52cd_f3nb04sxmghc0000gn/T//ccRXSGGx.s 			page 47


 2623 001d 00       		.byte	0
 2624 001e 03       		.uleb128 0x3
 2625 001f 16       		.uleb128 0x16
 2626 0020 00       		.byte	0
 2627 0021 03       		.uleb128 0x3
 2628 0022 0E       		.uleb128 0xe
 2629 0023 3A       		.uleb128 0x3a
 2630 0024 0B       		.uleb128 0xb
 2631 0025 3B       		.uleb128 0x3b
 2632 0026 0B       		.uleb128 0xb
 2633 0027 49       		.uleb128 0x49
 2634 0028 13       		.uleb128 0x13
 2635 0029 00       		.byte	0
 2636 002a 00       		.byte	0
 2637 002b 04       		.uleb128 0x4
 2638 002c 35       		.uleb128 0x35
 2639 002d 00       		.byte	0
 2640 002e 49       		.uleb128 0x49
 2641 002f 13       		.uleb128 0x13
 2642 0030 00       		.byte	0
 2643 0031 00       		.byte	0
 2644 0032 05       		.uleb128 0x5
 2645 0033 24       		.uleb128 0x24
 2646 0034 00       		.byte	0
 2647 0035 0B       		.uleb128 0xb
 2648 0036 0B       		.uleb128 0xb
 2649 0037 3E       		.uleb128 0x3e
 2650 0038 0B       		.uleb128 0xb
 2651 0039 03       		.uleb128 0x3
 2652 003a 0E       		.uleb128 0xe
 2653 003b 00       		.byte	0
 2654 003c 00       		.byte	0
 2655 003d 06       		.uleb128 0x6
 2656 003e 26       		.uleb128 0x26
 2657 003f 00       		.byte	0
 2658 0040 49       		.uleb128 0x49
 2659 0041 13       		.uleb128 0x13
 2660 0042 00       		.byte	0
 2661 0043 00       		.byte	0
 2662 0044 07       		.uleb128 0x7
 2663 0045 13       		.uleb128 0x13
 2664 0046 01       		.byte	0x1
 2665 0047 03       		.uleb128 0x3
 2666 0048 0E       		.uleb128 0xe
 2667 0049 0B       		.uleb128 0xb
 2668 004a 0B       		.uleb128 0xb
 2669 004b 3A       		.uleb128 0x3a
 2670 004c 0B       		.uleb128 0xb
 2671 004d 3B       		.uleb128 0x3b
 2672 004e 0B       		.uleb128 0xb
 2673 004f 01       		.uleb128 0x1
 2674 0050 13       		.uleb128 0x13
 2675 0051 00       		.byte	0
 2676 0052 00       		.byte	0
 2677 0053 08       		.uleb128 0x8
 2678 0054 0D       		.uleb128 0xd
 2679 0055 00       		.byte	0
ARM GAS  /var/folders/vd/czx34qs52cd_f3nb04sxmghc0000gn/T//ccRXSGGx.s 			page 48


 2680 0056 03       		.uleb128 0x3
 2681 0057 0E       		.uleb128 0xe
 2682 0058 3A       		.uleb128 0x3a
 2683 0059 0B       		.uleb128 0xb
 2684 005a 3B       		.uleb128 0x3b
 2685 005b 0B       		.uleb128 0xb
 2686 005c 49       		.uleb128 0x49
 2687 005d 13       		.uleb128 0x13
 2688 005e 38       		.uleb128 0x38
 2689 005f 0B       		.uleb128 0xb
 2690 0060 00       		.byte	0
 2691 0061 00       		.byte	0
 2692 0062 09       		.uleb128 0x9
 2693 0063 0D       		.uleb128 0xd
 2694 0064 00       		.byte	0
 2695 0065 03       		.uleb128 0x3
 2696 0066 08       		.uleb128 0x8
 2697 0067 3A       		.uleb128 0x3a
 2698 0068 0B       		.uleb128 0xb
 2699 0069 3B       		.uleb128 0x3b
 2700 006a 0B       		.uleb128 0xb
 2701 006b 49       		.uleb128 0x49
 2702 006c 13       		.uleb128 0x13
 2703 006d 38       		.uleb128 0x38
 2704 006e 0B       		.uleb128 0xb
 2705 006f 00       		.byte	0
 2706 0070 00       		.byte	0
 2707 0071 0A       		.uleb128 0xa
 2708 0072 0D       		.uleb128 0xd
 2709 0073 00       		.byte	0
 2710 0074 03       		.uleb128 0x3
 2711 0075 08       		.uleb128 0x8
 2712 0076 3A       		.uleb128 0x3a
 2713 0077 0B       		.uleb128 0xb
 2714 0078 3B       		.uleb128 0x3b
 2715 0079 05       		.uleb128 0x5
 2716 007a 49       		.uleb128 0x49
 2717 007b 13       		.uleb128 0x13
 2718 007c 38       		.uleb128 0x38
 2719 007d 0B       		.uleb128 0xb
 2720 007e 00       		.byte	0
 2721 007f 00       		.byte	0
 2722 0080 0B       		.uleb128 0xb
 2723 0081 0D       		.uleb128 0xd
 2724 0082 00       		.byte	0
 2725 0083 03       		.uleb128 0x3
 2726 0084 0E       		.uleb128 0xe
 2727 0085 3A       		.uleb128 0x3a
 2728 0086 0B       		.uleb128 0xb
 2729 0087 3B       		.uleb128 0x3b
 2730 0088 05       		.uleb128 0x5
 2731 0089 49       		.uleb128 0x49
 2732 008a 13       		.uleb128 0x13
 2733 008b 38       		.uleb128 0x38
 2734 008c 0B       		.uleb128 0xb
 2735 008d 00       		.byte	0
 2736 008e 00       		.byte	0
ARM GAS  /var/folders/vd/czx34qs52cd_f3nb04sxmghc0000gn/T//ccRXSGGx.s 			page 49


 2737 008f 0C       		.uleb128 0xc
 2738 0090 0F       		.uleb128 0xf
 2739 0091 00       		.byte	0
 2740 0092 0B       		.uleb128 0xb
 2741 0093 0B       		.uleb128 0xb
 2742 0094 49       		.uleb128 0x49
 2743 0095 13       		.uleb128 0x13
 2744 0096 00       		.byte	0
 2745 0097 00       		.byte	0
 2746 0098 0D       		.uleb128 0xd
 2747 0099 13       		.uleb128 0x13
 2748 009a 01       		.byte	0x1
 2749 009b 03       		.uleb128 0x3
 2750 009c 0E       		.uleb128 0xe
 2751 009d 0B       		.uleb128 0xb
 2752 009e 0B       		.uleb128 0xb
 2753 009f 3A       		.uleb128 0x3a
 2754 00a0 0B       		.uleb128 0xb
 2755 00a1 3B       		.uleb128 0x3b
 2756 00a2 05       		.uleb128 0x5
 2757 00a3 01       		.uleb128 0x1
 2758 00a4 13       		.uleb128 0x13
 2759 00a5 00       		.byte	0
 2760 00a6 00       		.byte	0
 2761 00a7 0E       		.uleb128 0xe
 2762 00a8 15       		.uleb128 0x15
 2763 00a9 01       		.byte	0x1
 2764 00aa 27       		.uleb128 0x27
 2765 00ab 19       		.uleb128 0x19
 2766 00ac 01       		.uleb128 0x1
 2767 00ad 13       		.uleb128 0x13
 2768 00ae 00       		.byte	0
 2769 00af 00       		.byte	0
 2770 00b0 0F       		.uleb128 0xf
 2771 00b1 05       		.uleb128 0x5
 2772 00b2 00       		.byte	0
 2773 00b3 49       		.uleb128 0x49
 2774 00b4 13       		.uleb128 0x13
 2775 00b5 00       		.byte	0
 2776 00b6 00       		.byte	0
 2777 00b7 10       		.uleb128 0x10
 2778 00b8 0F       		.uleb128 0xf
 2779 00b9 00       		.byte	0
 2780 00ba 0B       		.uleb128 0xb
 2781 00bb 0B       		.uleb128 0xb
 2782 00bc 00       		.byte	0
 2783 00bd 00       		.byte	0
 2784 00be 11       		.uleb128 0x11
 2785 00bf 34       		.uleb128 0x34
 2786 00c0 00       		.byte	0
 2787 00c1 03       		.uleb128 0x3
 2788 00c2 0E       		.uleb128 0xe
 2789 00c3 3A       		.uleb128 0x3a
 2790 00c4 0B       		.uleb128 0xb
 2791 00c5 3B       		.uleb128 0x3b
 2792 00c6 05       		.uleb128 0x5
 2793 00c7 49       		.uleb128 0x49
ARM GAS  /var/folders/vd/czx34qs52cd_f3nb04sxmghc0000gn/T//ccRXSGGx.s 			page 50


 2794 00c8 13       		.uleb128 0x13
 2795 00c9 3F       		.uleb128 0x3f
 2796 00ca 19       		.uleb128 0x19
 2797 00cb 3C       		.uleb128 0x3c
 2798 00cc 19       		.uleb128 0x19
 2799 00cd 00       		.byte	0
 2800 00ce 00       		.byte	0
 2801 00cf 12       		.uleb128 0x12
 2802 00d0 34       		.uleb128 0x34
 2803 00d1 00       		.byte	0
 2804 00d2 03       		.uleb128 0x3
 2805 00d3 0E       		.uleb128 0xe
 2806 00d4 3A       		.uleb128 0x3a
 2807 00d5 0B       		.uleb128 0xb
 2808 00d6 3B       		.uleb128 0x3b
 2809 00d7 0B       		.uleb128 0xb
 2810 00d8 49       		.uleb128 0x49
 2811 00d9 13       		.uleb128 0x13
 2812 00da 3F       		.uleb128 0x3f
 2813 00db 19       		.uleb128 0x19
 2814 00dc 3C       		.uleb128 0x3c
 2815 00dd 19       		.uleb128 0x19
 2816 00de 00       		.byte	0
 2817 00df 00       		.byte	0
 2818 00e0 13       		.uleb128 0x13
 2819 00e1 01       		.uleb128 0x1
 2820 00e2 01       		.byte	0x1
 2821 00e3 49       		.uleb128 0x49
 2822 00e4 13       		.uleb128 0x13
 2823 00e5 01       		.uleb128 0x1
 2824 00e6 13       		.uleb128 0x13
 2825 00e7 00       		.byte	0
 2826 00e8 00       		.byte	0
 2827 00e9 14       		.uleb128 0x14
 2828 00ea 21       		.uleb128 0x21
 2829 00eb 00       		.byte	0
 2830 00ec 49       		.uleb128 0x49
 2831 00ed 13       		.uleb128 0x13
 2832 00ee 2F       		.uleb128 0x2f
 2833 00ef 0B       		.uleb128 0xb
 2834 00f0 00       		.byte	0
 2835 00f1 00       		.byte	0
 2836 00f2 15       		.uleb128 0x15
 2837 00f3 13       		.uleb128 0x13
 2838 00f4 01       		.byte	0x1
 2839 00f5 0B       		.uleb128 0xb
 2840 00f6 0B       		.uleb128 0xb
 2841 00f7 3A       		.uleb128 0x3a
 2842 00f8 0B       		.uleb128 0xb
 2843 00f9 3B       		.uleb128 0x3b
 2844 00fa 05       		.uleb128 0x5
 2845 00fb 01       		.uleb128 0x1
 2846 00fc 13       		.uleb128 0x13
 2847 00fd 00       		.byte	0
 2848 00fe 00       		.byte	0
 2849 00ff 16       		.uleb128 0x16
 2850 0100 16       		.uleb128 0x16
ARM GAS  /var/folders/vd/czx34qs52cd_f3nb04sxmghc0000gn/T//ccRXSGGx.s 			page 51


 2851 0101 00       		.byte	0
 2852 0102 03       		.uleb128 0x3
 2853 0103 0E       		.uleb128 0xe
 2854 0104 3A       		.uleb128 0x3a
 2855 0105 0B       		.uleb128 0xb
 2856 0106 3B       		.uleb128 0x3b
 2857 0107 05       		.uleb128 0x5
 2858 0108 49       		.uleb128 0x49
 2859 0109 13       		.uleb128 0x13
 2860 010a 00       		.byte	0
 2861 010b 00       		.byte	0
 2862 010c 17       		.uleb128 0x17
 2863 010d 13       		.uleb128 0x13
 2864 010e 01       		.byte	0x1
 2865 010f 0B       		.uleb128 0xb
 2866 0110 0B       		.uleb128 0xb
 2867 0111 3A       		.uleb128 0x3a
 2868 0112 0B       		.uleb128 0xb
 2869 0113 3B       		.uleb128 0x3b
 2870 0114 0B       		.uleb128 0xb
 2871 0115 01       		.uleb128 0x1
 2872 0116 13       		.uleb128 0x13
 2873 0117 00       		.byte	0
 2874 0118 00       		.byte	0
 2875 0119 18       		.uleb128 0x18
 2876 011a 17       		.uleb128 0x17
 2877 011b 01       		.byte	0x1
 2878 011c 0B       		.uleb128 0xb
 2879 011d 0B       		.uleb128 0xb
 2880 011e 3A       		.uleb128 0x3a
 2881 011f 0B       		.uleb128 0xb
 2882 0120 3B       		.uleb128 0x3b
 2883 0121 0B       		.uleb128 0xb
 2884 0122 01       		.uleb128 0x1
 2885 0123 13       		.uleb128 0x13
 2886 0124 00       		.byte	0
 2887 0125 00       		.byte	0
 2888 0126 19       		.uleb128 0x19
 2889 0127 0D       		.uleb128 0xd
 2890 0128 00       		.byte	0
 2891 0129 03       		.uleb128 0x3
 2892 012a 0E       		.uleb128 0xe
 2893 012b 3A       		.uleb128 0x3a
 2894 012c 0B       		.uleb128 0xb
 2895 012d 3B       		.uleb128 0x3b
 2896 012e 0B       		.uleb128 0xb
 2897 012f 49       		.uleb128 0x49
 2898 0130 13       		.uleb128 0x13
 2899 0131 00       		.byte	0
 2900 0132 00       		.byte	0
 2901 0133 1A       		.uleb128 0x1a
 2902 0134 0D       		.uleb128 0xd
 2903 0135 00       		.byte	0
 2904 0136 03       		.uleb128 0x3
 2905 0137 0E       		.uleb128 0xe
 2906 0138 3A       		.uleb128 0x3a
 2907 0139 0B       		.uleb128 0xb
ARM GAS  /var/folders/vd/czx34qs52cd_f3nb04sxmghc0000gn/T//ccRXSGGx.s 			page 52


 2908 013a 3B       		.uleb128 0x3b
 2909 013b 05       		.uleb128 0x5
 2910 013c 49       		.uleb128 0x49
 2911 013d 13       		.uleb128 0x13
 2912 013e 00       		.byte	0
 2913 013f 00       		.byte	0
 2914 0140 1B       		.uleb128 0x1b
 2915 0141 34       		.uleb128 0x34
 2916 0142 00       		.byte	0
 2917 0143 03       		.uleb128 0x3
 2918 0144 08       		.uleb128 0x8
 2919 0145 3A       		.uleb128 0x3a
 2920 0146 0B       		.uleb128 0xb
 2921 0147 3B       		.uleb128 0x3b
 2922 0148 05       		.uleb128 0x5
 2923 0149 49       		.uleb128 0x49
 2924 014a 13       		.uleb128 0x13
 2925 014b 3F       		.uleb128 0x3f
 2926 014c 19       		.uleb128 0x19
 2927 014d 3C       		.uleb128 0x3c
 2928 014e 19       		.uleb128 0x19
 2929 014f 00       		.byte	0
 2930 0150 00       		.byte	0
 2931 0151 1C       		.uleb128 0x1c
 2932 0152 21       		.uleb128 0x21
 2933 0153 00       		.byte	0
 2934 0154 00       		.byte	0
 2935 0155 00       		.byte	0
 2936 0156 1D       		.uleb128 0x1d
 2937 0157 15       		.uleb128 0x15
 2938 0158 01       		.byte	0x1
 2939 0159 27       		.uleb128 0x27
 2940 015a 19       		.uleb128 0x19
 2941 015b 49       		.uleb128 0x49
 2942 015c 13       		.uleb128 0x13
 2943 015d 01       		.uleb128 0x1
 2944 015e 13       		.uleb128 0x13
 2945 015f 00       		.byte	0
 2946 0160 00       		.byte	0
 2947 0161 1E       		.uleb128 0x1e
 2948 0162 13       		.uleb128 0x13
 2949 0163 00       		.byte	0
 2950 0164 0B       		.uleb128 0xb
 2951 0165 0B       		.uleb128 0xb
 2952 0166 3A       		.uleb128 0x3a
 2953 0167 0B       		.uleb128 0xb
 2954 0168 3B       		.uleb128 0x3b
 2955 0169 0B       		.uleb128 0xb
 2956 016a 00       		.byte	0
 2957 016b 00       		.byte	0
 2958 016c 1F       		.uleb128 0x1f
 2959 016d 0D       		.uleb128 0xd
 2960 016e 00       		.byte	0
 2961 016f 03       		.uleb128 0x3
 2962 0170 08       		.uleb128 0x8
 2963 0171 3A       		.uleb128 0x3a
 2964 0172 0B       		.uleb128 0xb
ARM GAS  /var/folders/vd/czx34qs52cd_f3nb04sxmghc0000gn/T//ccRXSGGx.s 			page 53


 2965 0173 3B       		.uleb128 0x3b
 2966 0174 0B       		.uleb128 0xb
 2967 0175 49       		.uleb128 0x49
 2968 0176 13       		.uleb128 0x13
 2969 0177 00       		.byte	0
 2970 0178 00       		.byte	0
 2971 0179 20       		.uleb128 0x20
 2972 017a 04       		.uleb128 0x4
 2973 017b 01       		.byte	0x1
 2974 017c 3E       		.uleb128 0x3e
 2975 017d 0B       		.uleb128 0xb
 2976 017e 0B       		.uleb128 0xb
 2977 017f 0B       		.uleb128 0xb
 2978 0180 49       		.uleb128 0x49
 2979 0181 13       		.uleb128 0x13
 2980 0182 3A       		.uleb128 0x3a
 2981 0183 0B       		.uleb128 0xb
 2982 0184 3B       		.uleb128 0x3b
 2983 0185 0B       		.uleb128 0xb
 2984 0186 01       		.uleb128 0x1
 2985 0187 13       		.uleb128 0x13
 2986 0188 00       		.byte	0
 2987 0189 00       		.byte	0
 2988 018a 21       		.uleb128 0x21
 2989 018b 28       		.uleb128 0x28
 2990 018c 00       		.byte	0
 2991 018d 03       		.uleb128 0x3
 2992 018e 0E       		.uleb128 0xe
 2993 018f 1C       		.uleb128 0x1c
 2994 0190 0B       		.uleb128 0xb
 2995 0191 00       		.byte	0
 2996 0192 00       		.byte	0
 2997 0193 22       		.uleb128 0x22
 2998 0194 2E       		.uleb128 0x2e
 2999 0195 01       		.byte	0x1
 3000 0196 3F       		.uleb128 0x3f
 3001 0197 19       		.uleb128 0x19
 3002 0198 03       		.uleb128 0x3
 3003 0199 0E       		.uleb128 0xe
 3004 019a 3A       		.uleb128 0x3a
 3005 019b 0B       		.uleb128 0xb
 3006 019c 3B       		.uleb128 0x3b
 3007 019d 0B       		.uleb128 0xb
 3008 019e 27       		.uleb128 0x27
 3009 019f 19       		.uleb128 0x19
 3010 01a0 11       		.uleb128 0x11
 3011 01a1 01       		.uleb128 0x1
 3012 01a2 12       		.uleb128 0x12
 3013 01a3 06       		.uleb128 0x6
 3014 01a4 40       		.uleb128 0x40
 3015 01a5 18       		.uleb128 0x18
 3016 01a6 9742     		.uleb128 0x2117
 3017 01a8 19       		.uleb128 0x19
 3018 01a9 01       		.uleb128 0x1
 3019 01aa 13       		.uleb128 0x13
 3020 01ab 00       		.byte	0
 3021 01ac 00       		.byte	0
ARM GAS  /var/folders/vd/czx34qs52cd_f3nb04sxmghc0000gn/T//ccRXSGGx.s 			page 54


 3022 01ad 23       		.uleb128 0x23
 3023 01ae 05       		.uleb128 0x5
 3024 01af 00       		.byte	0
 3025 01b0 03       		.uleb128 0x3
 3026 01b1 08       		.uleb128 0x8
 3027 01b2 3A       		.uleb128 0x3a
 3028 01b3 0B       		.uleb128 0xb
 3029 01b4 3B       		.uleb128 0x3b
 3030 01b5 0B       		.uleb128 0xb
 3031 01b6 49       		.uleb128 0x49
 3032 01b7 13       		.uleb128 0x13
 3033 01b8 02       		.uleb128 0x2
 3034 01b9 17       		.uleb128 0x17
 3035 01ba 00       		.byte	0
 3036 01bb 00       		.byte	0
 3037 01bc 24       		.uleb128 0x24
 3038 01bd 05       		.uleb128 0x5
 3039 01be 00       		.byte	0
 3040 01bf 03       		.uleb128 0x3
 3041 01c0 0E       		.uleb128 0xe
 3042 01c1 3A       		.uleb128 0x3a
 3043 01c2 0B       		.uleb128 0xb
 3044 01c3 3B       		.uleb128 0x3b
 3045 01c4 0B       		.uleb128 0xb
 3046 01c5 49       		.uleb128 0x49
 3047 01c6 13       		.uleb128 0x13
 3048 01c7 02       		.uleb128 0x2
 3049 01c8 17       		.uleb128 0x17
 3050 01c9 00       		.byte	0
 3051 01ca 00       		.byte	0
 3052 01cb 25       		.uleb128 0x25
 3053 01cc 34       		.uleb128 0x34
 3054 01cd 00       		.byte	0
 3055 01ce 03       		.uleb128 0x3
 3056 01cf 0E       		.uleb128 0xe
 3057 01d0 49       		.uleb128 0x49
 3058 01d1 13       		.uleb128 0x13
 3059 01d2 34       		.uleb128 0x34
 3060 01d3 19       		.uleb128 0x19
 3061 01d4 00       		.byte	0
 3062 01d5 00       		.byte	0
 3063 01d6 26       		.uleb128 0x26
 3064 01d7 898201   		.uleb128 0x4109
 3065 01da 01       		.byte	0x1
 3066 01db 11       		.uleb128 0x11
 3067 01dc 01       		.uleb128 0x1
 3068 01dd 9542     		.uleb128 0x2115
 3069 01df 19       		.uleb128 0x19
 3070 01e0 31       		.uleb128 0x31
 3071 01e1 13       		.uleb128 0x13
 3072 01e2 00       		.byte	0
 3073 01e3 00       		.byte	0
 3074 01e4 27       		.uleb128 0x27
 3075 01e5 8A8201   		.uleb128 0x410a
 3076 01e8 00       		.byte	0
 3077 01e9 02       		.uleb128 0x2
 3078 01ea 18       		.uleb128 0x18
ARM GAS  /var/folders/vd/czx34qs52cd_f3nb04sxmghc0000gn/T//ccRXSGGx.s 			page 55


 3079 01eb 9142     		.uleb128 0x2111
 3080 01ed 18       		.uleb128 0x18
 3081 01ee 00       		.byte	0
 3082 01ef 00       		.byte	0
 3083 01f0 28       		.uleb128 0x28
 3084 01f1 2E       		.uleb128 0x2e
 3085 01f2 01       		.byte	0x1
 3086 01f3 3F       		.uleb128 0x3f
 3087 01f4 19       		.uleb128 0x19
 3088 01f5 03       		.uleb128 0x3
 3089 01f6 0E       		.uleb128 0xe
 3090 01f7 3A       		.uleb128 0x3a
 3091 01f8 0B       		.uleb128 0xb
 3092 01f9 3B       		.uleb128 0x3b
 3093 01fa 0B       		.uleb128 0xb
 3094 01fb 27       		.uleb128 0x27
 3095 01fc 19       		.uleb128 0x19
 3096 01fd 49       		.uleb128 0x49
 3097 01fe 13       		.uleb128 0x13
 3098 01ff 11       		.uleb128 0x11
 3099 0200 01       		.uleb128 0x1
 3100 0201 12       		.uleb128 0x12
 3101 0202 06       		.uleb128 0x6
 3102 0203 40       		.uleb128 0x40
 3103 0204 18       		.uleb128 0x18
 3104 0205 9742     		.uleb128 0x2117
 3105 0207 19       		.uleb128 0x19
 3106 0208 01       		.uleb128 0x1
 3107 0209 13       		.uleb128 0x13
 3108 020a 00       		.byte	0
 3109 020b 00       		.byte	0
 3110 020c 29       		.uleb128 0x29
 3111 020d 2E       		.uleb128 0x2e
 3112 020e 00       		.byte	0
 3113 020f 3F       		.uleb128 0x3f
 3114 0210 19       		.uleb128 0x19
 3115 0211 3C       		.uleb128 0x3c
 3116 0212 19       		.uleb128 0x19
 3117 0213 6E       		.uleb128 0x6e
 3118 0214 0E       		.uleb128 0xe
 3119 0215 03       		.uleb128 0x3
 3120 0216 0E       		.uleb128 0xe
 3121 0217 3A       		.uleb128 0x3a
 3122 0218 0B       		.uleb128 0xb
 3123 0219 3B       		.uleb128 0x3b
 3124 021a 05       		.uleb128 0x5
 3125 021b 00       		.byte	0
 3126 021c 00       		.byte	0
 3127 021d 00       		.byte	0
 3128              		.section	.debug_loc,"",%progbits
 3129              	.Ldebug_loc0:
 3130              	.LLST3:
 3131 0000 00000000 		.4byte	.LVL5
 3132 0004 08000000 		.4byte	.LVL7
 3133 0008 0100     		.2byte	0x1
 3134 000a 50       		.byte	0x50
 3135 000b 08000000 		.4byte	.LVL7
ARM GAS  /var/folders/vd/czx34qs52cd_f3nb04sxmghc0000gn/T//ccRXSGGx.s 			page 56


 3136 000f 0E000000 		.4byte	.LFE315
 3137 0013 0400     		.2byte	0x4
 3138 0015 F3       		.byte	0xf3
 3139 0016 01       		.uleb128 0x1
 3140 0017 50       		.byte	0x50
 3141 0018 9F       		.byte	0x9f
 3142 0019 00000000 		.4byte	0
 3143 001d 00000000 		.4byte	0
 3144              	.LLST4:
 3145 0021 00000000 		.4byte	.LVL5
 3146 0025 06000000 		.4byte	.LVL6
 3147 0029 0100     		.2byte	0x1
 3148 002b 51       		.byte	0x51
 3149 002c 06000000 		.4byte	.LVL6
 3150 0030 0D000000 		.4byte	.LVL8-1
 3151 0034 0100     		.2byte	0x1
 3152 0036 52       		.byte	0x52
 3153 0037 0D000000 		.4byte	.LVL8-1
 3154 003b 0E000000 		.4byte	.LFE315
 3155 003f 0400     		.2byte	0x4
 3156 0041 F3       		.byte	0xf3
 3157 0042 01       		.uleb128 0x1
 3158 0043 51       		.byte	0x51
 3159 0044 9F       		.byte	0x9f
 3160 0045 00000000 		.4byte	0
 3161 0049 00000000 		.4byte	0
 3162              	.LLST1:
 3163 004d 00000000 		.4byte	.LVL2
 3164 0051 14000000 		.4byte	.LVL4
 3165 0055 0100     		.2byte	0x1
 3166 0057 50       		.byte	0x50
 3167 0058 14000000 		.4byte	.LVL4
 3168 005c 1E000000 		.4byte	.LFE314
 3169 0060 0400     		.2byte	0x4
 3170 0062 F3       		.byte	0xf3
 3171 0063 01       		.uleb128 0x1
 3172 0064 50       		.byte	0x50
 3173 0065 9F       		.byte	0x9f
 3174 0066 00000000 		.4byte	0
 3175 006a 00000000 		.4byte	0
 3176              	.LLST2:
 3177 006e 00000000 		.4byte	.LVL2
 3178 0072 0C000000 		.4byte	.LVL3
 3179 0076 0100     		.2byte	0x1
 3180 0078 51       		.byte	0x51
 3181 0079 0C000000 		.4byte	.LVL3
 3182 007d 1E000000 		.4byte	.LFE314
 3183 0081 0400     		.2byte	0x4
 3184 0083 F3       		.byte	0xf3
 3185 0084 01       		.uleb128 0x1
 3186 0085 51       		.byte	0x51
 3187 0086 9F       		.byte	0x9f
 3188 0087 00000000 		.4byte	0
 3189 008b 00000000 		.4byte	0
 3190              	.LLST0:
 3191 008f 00000000 		.4byte	.LVL0
 3192 0093 08000000 		.4byte	.LVL1
ARM GAS  /var/folders/vd/czx34qs52cd_f3nb04sxmghc0000gn/T//ccRXSGGx.s 			page 57


 3193 0097 0100     		.2byte	0x1
 3194 0099 50       		.byte	0x50
 3195 009a 08000000 		.4byte	.LVL1
 3196 009e 0E000000 		.4byte	.LFE313
 3197 00a2 0400     		.2byte	0x4
 3198 00a4 F3       		.byte	0xf3
 3199 00a5 01       		.uleb128 0x1
 3200 00a6 50       		.byte	0x50
 3201 00a7 9F       		.byte	0x9f
 3202 00a8 00000000 		.4byte	0
 3203 00ac 00000000 		.4byte	0
 3204              		.section	.debug_aranges,"",%progbits
 3205 0000 2C000000 		.4byte	0x2c
 3206 0004 0200     		.2byte	0x2
 3207 0006 00000000 		.4byte	.Ldebug_info0
 3208 000a 04       		.byte	0x4
 3209 000b 00       		.byte	0
 3210 000c 0000     		.2byte	0
 3211 000e 0000     		.2byte	0
 3212 0010 00000000 		.4byte	.LFB313
 3213 0014 0E000000 		.4byte	.LFE313-.LFB313
 3214 0018 00000000 		.4byte	.LFB314
 3215 001c 1E000000 		.4byte	.LFE314-.LFB314
 3216 0020 00000000 		.4byte	.LFB315
 3217 0024 0E000000 		.4byte	.LFE315-.LFB315
 3218 0028 00000000 		.4byte	0
 3219 002c 00000000 		.4byte	0
 3220              		.section	.debug_ranges,"",%progbits
 3221              	.Ldebug_ranges0:
 3222 0000 00000000 		.4byte	.LFB313
 3223 0004 0E000000 		.4byte	.LFE313
 3224 0008 00000000 		.4byte	.LFB314
 3225 000c 1E000000 		.4byte	.LFE314
 3226 0010 00000000 		.4byte	.LFB315
 3227 0014 0E000000 		.4byte	.LFE315
 3228 0018 00000000 		.4byte	0
 3229 001c 00000000 		.4byte	0
 3230              		.section	.debug_line,"",%progbits
 3231              	.Ldebug_line0:
 3232 0000 AE040000 		.section	.debug_str,"MS",%progbits,1
 3232      02007104 
 3232      00000201 
 3232      FB0E0D00 
 3232      01010101 
 3233              	.LASF124:
 3234 0000 6F66665F 		.ascii	"off_ctx\000"
 3234      63747800 
 3235              	.LASF83:
 3236 0008 4D314152 		.ascii	"M1AR\000"
 3236      00
 3237              	.LASF174:
 3238 000d 73746D33 		.ascii	"stm32_dma_stream_t\000"
 3238      325F646D 
 3238      615F7374 
 3238      7265616D 
 3238      5F7400
 3239              	.LASF4:
ARM GAS  /var/folders/vd/czx34qs52cd_f3nb04sxmghc0000gn/T//ccRXSGGx.s 			page 58


 3240 0020 73697A65 		.ascii	"size_t\000"
 3240      5F7400
 3241              	.LASF123:
 3242 0027 6F66665F 		.ascii	"off_prio\000"
 3242      7072696F 
 3242      00
 3243              	.LASF147:
 3244 0030 656E646D 		.ascii	"endmem\000"
 3244      656D00
 3245              	.LASF108:
 3246 0037 77747365 		.ascii	"wtsemp\000"
 3246      6D7000
 3247              	.LASF75:
 3248 003e 73797374 		.ascii	"systime_t\000"
 3248      696D655F 
 3248      7400
 3249              	.LASF132:
 3250 0048 6F66665F 		.ascii	"off_preempt\000"
 3250      70726565 
 3250      6D707400 
 3251              	.LASF113:
 3252 0054 6F776E65 		.ascii	"owner\000"
 3252      7200
 3253              	.LASF26:
 3254 005a 74707269 		.ascii	"tprio_t\000"
 3254      6F5F7400 
 3255              	.LASF135:
 3256 0062 63685F64 		.ascii	"ch_debug\000"
 3256      65627567 
 3256      00
 3257              	.LASF153:
 3258 006b 70726F76 		.ascii	"provider\000"
 3258      69646572 
 3258      00
 3259              	.LASF18:
 3260 0074 696E7433 		.ascii	"int32_t\000"
 3260      325F7400 
 3261              	.LASF245:
 3262 007c 77726974 		.ascii	"writet\000"
 3262      657400
 3263              	.LASF59:
 3264 0083 76746675 		.ascii	"vtfunc_t\000"
 3264      6E635F74 
 3264      00
 3265              	.LASF65:
 3266 008c 63685F76 		.ascii	"ch_virtual_timers_list\000"
 3266      69727475 
 3266      616C5F74 
 3266      696D6572 
 3266      735F6C69 
 3267              	.LASF250:
 3268 00a3 5F5F6675 		.ascii	"__func__\000"
 3268      6E635F5F 
 3268      00
 3269              	.LASF241:
 3270 00ac 77726974 		.ascii	"write\000"
 3270      6500
ARM GAS  /var/folders/vd/czx34qs52cd_f3nb04sxmghc0000gn/T//ccRXSGGx.s 			page 59


 3271              	.LASF155:
 3272 00b2 63685F64 		.ascii	"ch_dyn_element\000"
 3272      796E5F65 
 3272      6C656D65 
 3272      6E7400
 3273              	.LASF220:
 3274 00c1 70776D63 		.ascii	"pwmchnmsk_t\000"
 3274      686E6D73 
 3274      6B5F7400 
 3275              	.LASF212:
 3276 00cd 636F6E66 		.ascii	"config\000"
 3276      696700
 3277              	.LASF39:
 3278 00d4 73746174 		.ascii	"state\000"
 3278      6500
 3279              	.LASF243:
 3280 00da 70757474 		.ascii	"putt\000"
 3280      00
 3281              	.LASF224:
 3282 00df 50574D43 		.ascii	"PWMChannelConfig\000"
 3282      68616E6E 
 3282      656C436F 
 3282      6E666967 
 3282      00
 3283              	.LASF160:
 3284 00f0 6F626A5F 		.ascii	"obj_list\000"
 3284      6C697374 
 3284      00
 3285              	.LASF97:
 3286 00f9 444D4152 		.ascii	"DMAR\000"
 3286      00
 3287              	.LASF226:
 3288 00fe 64696572 		.ascii	"dier\000"
 3288      00
 3289              	.LASF207:
 3290 0103 50574D5F 		.ascii	"PWM_UNINIT\000"
 3290      554E494E 
 3290      495400
 3291              	.LASF126:
 3292 010e 6F66665F 		.ascii	"off_older\000"
 3292      6F6C6465 
 3292      7200
 3293              	.LASF34:
 3294 0118 7072696F 		.ascii	"prio\000"
 3294      00
 3295              	.LASF201:
 3296 011d 696F6D6F 		.ascii	"iomode_t\000"
 3296      64655F74 
 3296      00
 3297              	.LASF255:
 3298 0126 5F70616C 		.ascii	"_pal_lld_setgroupmode\000"
 3298      5F6C6C64 
 3298      5F736574 
 3298      67726F75 
 3298      706D6F64 
 3299              	.LASF104:
 3300 013c 65786974 		.ascii	"exitcode\000"
ARM GAS  /var/folders/vd/czx34qs52cd_f3nb04sxmghc0000gn/T//ccRXSGGx.s 			page 60


 3300      636F6465 
 3300      00
 3301              	.LASF5:
 3302 0145 5F5F7569 		.ascii	"__uint8_t\000"
 3302      6E74385F 
 3302      7400
 3303              	.LASF181:
 3304 014f 715F746F 		.ascii	"q_top\000"
 3304      7000
 3305              	.LASF246:
 3306 0155 72656164 		.ascii	"readt\000"
 3306      7400
 3307              	.LASF180:
 3308 015b 715F6275 		.ascii	"q_buffer\000"
 3308      66666572 
 3308      00
 3309              	.LASF184:
 3310 0164 715F6E6F 		.ascii	"q_notify\000"
 3310      74696679 
 3310      00
 3311              	.LASF223:
 3312 016d 63616C6C 		.ascii	"callback\000"
 3312      6261636B 
 3312      00
 3313              	.LASF11:
 3314 0176 6C6F6E67 		.ascii	"long int\000"
 3314      20696E74 
 3314      00
 3315              	.LASF183:
 3316 017f 715F7264 		.ascii	"q_rdptr\000"
 3316      70747200 
 3317              	.LASF117:
 3318 0187 7A65726F 		.ascii	"zero\000"
 3318      00
 3319              	.LASF202:
 3320 018c 696F706F 		.ascii	"ioportid_t\000"
 3320      72746964 
 3320      5F7400
 3321              	.LASF24:
 3322 0197 74737461 		.ascii	"tstate_t\000"
 3322      74655F74 
 3322      00
 3323              	.LASF44:
 3324 01a0 6570656E 		.ascii	"epending\000"
 3324      64696E67 
 3324      00
 3325              	.LASF53:
 3326 01a9 74687265 		.ascii	"threads_queue_t\000"
 3326      6164735F 
 3326      71756575 
 3326      655F7400 
 3327              	.LASF236:
 3328 01b9 6F717565 		.ascii	"oqueue\000"
 3328      756500
 3329              	.LASF87:
 3330 01c0 72656761 		.ascii	"regarm_t\000"
 3330      726D5F74 
ARM GAS  /var/folders/vd/czx34qs52cd_f3nb04sxmghc0000gn/T//ccRXSGGx.s 			page 61


 3330      00
 3331              	.LASF219:
 3332 01c9 70776D63 		.ascii	"pwmchannel_t\000"
 3332      68616E6E 
 3332      656C5F74 
 3332      00
 3333              	.LASF161:
 3334 01d6 6F626A5F 		.ascii	"obj_pool\000"
 3334      706F6F6C 
 3334      00
 3335              	.LASF237:
 3336 01df 75736172 		.ascii	"usart\000"
 3336      7400
 3337              	.LASF148:
 3338 01e5 6D656D63 		.ascii	"memcore_t\000"
 3338      6F72655F 
 3338      7400
 3339              	.LASF177:
 3340 01ef 696F5F71 		.ascii	"io_queue\000"
 3340      75657565 
 3340      00
 3341              	.LASF3:
 3342 01f8 7369676E 		.ascii	"signed char\000"
 3342      65642063 
 3342      68617200 
 3343              	.LASF110:
 3344 0204 65776D61 		.ascii	"ewmask\000"
 3344      736B00
 3345              	.LASF16:
 3346 020b 75696E74 		.ascii	"uint8_t\000"
 3346      385F7400 
 3347              	.LASF204:
 3348 0213 706F7274 		.ascii	"portid\000"
 3348      696400
 3349              	.LASF28:
 3350 021a 6576656E 		.ascii	"eventmask_t\000"
 3350      746D6173 
 3350      6B5F7400 
 3351              	.LASF106:
 3352 0226 77747472 		.ascii	"wttrp\000"
 3352      7000
 3353              	.LASF221:
 3354 022c 70776D63 		.ascii	"pwmcnt_t\000"
 3354      6E745F74 
 3354      00
 3355              	.LASF6:
 3356 0235 756E7369 		.ascii	"unsigned char\000"
 3356      676E6564 
 3356      20636861 
 3356      7200
 3357              	.LASF185:
 3358 0243 715F6C69 		.ascii	"q_link\000"
 3358      6E6B00
 3359              	.LASF66:
 3360 024a 6C617374 		.ascii	"lasttime\000"
 3360      74696D65 
 3360      00
ARM GAS  /var/folders/vd/czx34qs52cd_f3nb04sxmghc0000gn/T//ccRXSGGx.s 			page 62


 3361              	.LASF199:
 3362 0253 73746D33 		.ascii	"stm32_gpio_t\000"
 3362      325F6770 
 3362      696F5F74 
 3362      00
 3363              	.LASF69:
 3364 0260 70616E69 		.ascii	"panic_msg\000"
 3364      635F6D73 
 3364      6700
 3365              	.LASF67:
 3366 026a 73797374 		.ascii	"system_debug_t\000"
 3366      656D5F64 
 3366      65627567 
 3366      5F7400
 3367              	.LASF229:
 3368 0279 53445F55 		.ascii	"SD_UNINIT\000"
 3368      4E494E49 
 3368      5400
 3369              	.LASF144:
 3370 0283 5F426F6F 		.ascii	"_Bool\000"
 3370      6C00
 3371              	.LASF93:
 3372 0289 43434D52 		.ascii	"CCMR1\000"
 3372      3100
 3373              	.LASF94:
 3374 028f 43434D52 		.ascii	"CCMR2\000"
 3374      3200
 3375              	.LASF98:
 3376 0295 43434D52 		.ascii	"CCMR3\000"
 3376      3300
 3377              	.LASF114:
 3378 029b 63686172 		.ascii	"char\000"
 3378      00
 3379              	.LASF171:
 3380 02a0 69736869 		.ascii	"ishift\000"
 3380      667400
 3381              	.LASF163:
 3382 02a7 73656D5F 		.ascii	"sem_list\000"
 3382      6C697374 
 3382      00
 3383              	.LASF8:
 3384 02b0 5F5F7569 		.ascii	"__uint16_t\000"
 3384      6E743136 
 3384      5F7400
 3385              	.LASF105:
 3386 02bb 77746F62 		.ascii	"wtobjp\000"
 3386      6A7000
 3387              	.LASF189:
 3388 02c2 70616C65 		.ascii	"palevent_t\000"
 3388      76656E74 
 3388      5F7400
 3389              	.LASF131:
 3390 02cd 6F66665F 		.ascii	"off_refs\000"
 3390      72656673 
 3390      00
 3391              	.LASF40:
 3392 02d6 666C6167 		.ascii	"flags\000"
ARM GAS  /var/folders/vd/czx34qs52cd_f3nb04sxmghc0000gn/T//ccRXSGGx.s 			page 63


 3392      7300
 3393              	.LASF244:
 3394 02dc 67657474 		.ascii	"gett\000"
 3394      00
 3395              	.LASF88:
 3396 02e1 73746B61 		.ascii	"stkalign_t\000"
 3396      6C69676E 
 3396      5F7400
 3397              	.LASF86:
 3398 02ec 55534152 		.ascii	"USART_TypeDef\000"
 3398      545F5479 
 3398      70654465 
 3398      6600
 3399              	.LASF47:
 3400 02fa 6D706F6F 		.ascii	"mpool\000"
 3400      6C00
 3401              	.LASF169:
 3402 0300 73747265 		.ascii	"stream\000"
 3402      616D00
 3403              	.LASF137:
 3404 0307 6576656E 		.ascii	"event_listener_t\000"
 3404      745F6C69 
 3404      7374656E 
 3404      65725F74 
 3404      00
 3405              	.LASF120:
 3406 0318 70747273 		.ascii	"ptrsize\000"
 3406      697A6500 
 3407              	.LASF99:
 3408 0320 43435852 		.ascii	"CCXR\000"
 3408      00
 3409              	.LASF200:
 3410 0325 696F706F 		.ascii	"ioportmask_t\000"
 3410      72746D61 
 3410      736B5F74 
 3410      00
 3411              	.LASF133:
 3412 0332 6F66665F 		.ascii	"off_time\000"
 3412      74696D65 
 3412      00
 3413              	.LASF218:
 3414 033b 70776D6D 		.ascii	"pwmmode_t\000"
 3414      6F64655F 
 3414      7400
 3415              	.LASF30:
 3416 0345 636E745F 		.ascii	"cnt_t\000"
 3416      7400
 3417              	.LASF238:
 3418 034b 72786D61 		.ascii	"rxmask\000"
 3418      736B00
 3419              	.LASF206:
 3420 0352 494F4275 		.ascii	"IOBus\000"
 3420      7300
 3421              	.LASF156:
 3422 0358 64796E5F 		.ascii	"dyn_element_t\000"
 3422      656C656D 
 3422      656E745F 
ARM GAS  /var/folders/vd/czx34qs52cd_f3nb04sxmghc0000gn/T//ccRXSGGx.s 			page 64


 3422      7400
 3423              	.LASF109:
 3424 0366 77746D74 		.ascii	"wtmtxp\000"
 3424      787000
 3425              	.LASF57:
 3426 036d 63685F72 		.ascii	"ch_ready_list\000"
 3426      65616479 
 3426      5F6C6973 
 3426      7400
 3427              	.LASF164:
 3428 037b 73656D5F 		.ascii	"sem_pool\000"
 3428      706F6F6C 
 3428      00
 3429              	.LASF190:
 3430 0384 636C6561 		.ascii	"clear\000"
 3430      7200
 3431              	.LASF146:
 3432 038a 6E657874 		.ascii	"nextmem\000"
 3432      6D656D00 
 3433              	.LASF179:
 3434 0392 715F636F 		.ascii	"q_counter\000"
 3434      756E7465 
 3434      7200
 3435              	.LASF214:
 3436 039c 656E6162 		.ascii	"enabled\000"
 3436      6C656400 
 3437              	.LASF14:
 3438 03a4 5F5F7569 		.ascii	"__uint64_t\000"
 3438      6E743634 
 3438      5F7400
 3439              	.LASF129:
 3440 03af 6F66665F 		.ascii	"off_state\000"
 3440      73746174 
 3440      6500
 3441              	.LASF13:
 3442 03b9 6C6F6E67 		.ascii	"long unsigned int\000"
 3442      20756E73 
 3442      69676E65 
 3442      6420696E 
 3442      7400
 3443              	.LASF122:
 3444 03cb 74687265 		.ascii	"threadsize\000"
 3444      61647369 
 3444      7A6500
 3445              	.LASF92:
 3446 03d6 44494552 		.ascii	"DIER\000"
 3446      00
 3447              	.LASF78:
 3448 03db 53797374 		.ascii	"SystemCoreClock\000"
 3448      656D436F 
 3448      7265436C 
 3448      6F636B00 
 3449              	.LASF111:
 3450 03eb 63685F73 		.ascii	"ch_semaphore\000"
 3450      656D6170 
 3450      686F7265 
 3450      00
ARM GAS  /var/folders/vd/czx34qs52cd_f3nb04sxmghc0000gn/T//ccRXSGGx.s 			page 65


 3451              	.LASF50:
 3452 03f8 63685F74 		.ascii	"ch_thread\000"
 3452      68726561 
 3452      6400
 3453              	.LASF64:
 3454 0402 76697274 		.ascii	"virtual_timers_list_t\000"
 3454      75616C5F 
 3454      74696D65 
 3454      72735F6C 
 3454      6973745F 
 3455              	.LASF115:
 3456 0418 63685F69 		.ascii	"ch_idle_thread_wa\000"
 3456      646C655F 
 3456      74687265 
 3456      61645F77 
 3456      6100
 3457              	.LASF175:
 3458 042a 5F73746D 		.ascii	"_stm32_dma_streams\000"
 3458      33325F64 
 3458      6D615F73 
 3458      74726561 
 3458      6D7300
 3459              	.LASF252:
 3460 043d 2E2E2F6F 		.ascii	"../os/hal/src/hal_pal.c\000"
 3460      732F6861 
 3460      6C2F7372 
 3460      632F6861 
 3460      6C5F7061 
 3461              	.LASF166:
 3462 0455 6669666F 		.ascii	"fifo_list\000"
 3462      5F6C6973 
 3462      7400
 3463              	.LASF60:
 3464 045f 76697274 		.ascii	"virtual_timer_t\000"
 3464      75616C5F 
 3464      74696D65 
 3464      725F7400 
 3465              	.LASF56:
 3466 046f 72656164 		.ascii	"ready_list_t\000"
 3466      795F6C69 
 3466      73745F74 
 3466      00
 3467              	.LASF36:
 3468 047c 6F6C6465 		.ascii	"older\000"
 3468      7200
 3469              	.LASF239:
 3470 0482 53657269 		.ascii	"SerialDriverVMT\000"
 3470      616C4472 
 3470      69766572 
 3470      564D5400 
 3471              	.LASF46:
 3472 0492 7265616C 		.ascii	"realprio\000"
 3472      7072696F 
 3472      00
 3473              	.LASF100:
 3474 049b 73746D33 		.ascii	"stm32_tim_t\000"
 3474      325F7469 
ARM GAS  /var/folders/vd/czx34qs52cd_f3nb04sxmghc0000gn/T//ccRXSGGx.s 			page 66


 3474      6D5F7400 
 3475              	.LASF31:
 3476 04a7 75636E74 		.ascii	"ucnt_t\000"
 3476      5F7400
 3477              	.LASF216:
 3478 04ae 636C6F63 		.ascii	"clock\000"
 3478      6B00
 3479              	.LASF128:
 3480 04b4 6F66665F 		.ascii	"off_stklimit\000"
 3480      73746B6C 
 3480      696D6974 
 3480      00
 3481              	.LASF150:
 3482 04c1 706F6F6C 		.ascii	"pool_header\000"
 3482      5F686561 
 3482      64657200 
 3483              	.LASF51:
 3484 04cd 63685F74 		.ascii	"ch_threads_list\000"
 3484      68726561 
 3484      64735F6C 
 3484      69737400 
 3485              	.LASF193:
 3486 04dd 4F535045 		.ascii	"OSPEEDR\000"
 3486      45445200 
 3487              	.LASF251:
 3488 04e5 474E5520 		.ascii	"GNU C11 7.2.1 20170904 (release) [ARM/embedded-7-br"
 3488      43313120 
 3488      372E322E 
 3488      31203230 
 3488      31373039 
 3489 0518 616E6368 		.ascii	"anch revision 255204] -mcpu=cortex-m4 -mno-thumb-in"
 3489      20726576 
 3489      6973696F 
 3489      6E203235 
 3489      35323034 
 3490 054b 74657277 		.ascii	"terwork -mthumb -ggdb -O2 -fomit-frame-pointer -fal"
 3490      6F726B20 
 3490      2D6D7468 
 3490      756D6220 
 3490      2D676764 
 3491 057e 69676E2D 		.ascii	"ign-functions=16 -ffunction-sections -fdata-section"
 3491      66756E63 
 3491      74696F6E 
 3491      733D3136 
 3491      202D6666 
 3492 05b1 73202D66 		.ascii	"s -fno-common\000"
 3492      6E6F2D63 
 3492      6F6D6D6F 
 3492      6E00
 3493              	.LASF12:
 3494 05bf 5F5F7569 		.ascii	"__uint32_t\000"
 3494      6E743332 
 3494      5F7400
 3495              	.LASF45:
 3496 05ca 6D74786C 		.ascii	"mtxlist\000"
 3496      69737400 
 3497              	.LASF1:
ARM GAS  /var/folders/vd/czx34qs52cd_f3nb04sxmghc0000gn/T//ccRXSGGx.s 			page 67


 3498 05d2 6C6F6E67 		.ascii	"long long int\000"
 3498      206C6F6E 
 3498      6720696E 
 3498      7400
 3499              	.LASF76:
 3500 05e0 73797369 		.ascii	"sysinterval_t\000"
 3500      6E746572 
 3500      76616C5F 
 3500      7400
 3501              	.LASF194:
 3502 05ee 50555044 		.ascii	"PUPDR\000"
 3502      5200
 3503              	.LASF159:
 3504 05f4 63685F6F 		.ascii	"ch_objects_factory\000"
 3504      626A6563 
 3504      74735F66 
 3504      6163746F 
 3504      727900
 3505              	.LASF85:
 3506 0607 47545052 		.ascii	"GTPR\000"
 3506      00
 3507              	.LASF143:
 3508 060c 6576656E 		.ascii	"event_source_t\000"
 3508      745F736F 
 3508      75726365 
 3508      5F7400
 3509              	.LASF205:
 3510 061b 6D61736B 		.ascii	"mask\000"
 3510      00
 3511              	.LASF152:
 3512 0620 616C6967 		.ascii	"align\000"
 3512      6E00
 3513              	.LASF77:
 3514 0626 49544D5F 		.ascii	"ITM_RxBuffer\000"
 3514      52784275 
 3514      66666572 
 3514      00
 3515              	.LASF225:
 3516 0633 66726571 		.ascii	"frequency\000"
 3516      75656E63 
 3516      7900
 3517              	.LASF186:
 3518 063d 716E6F74 		.ascii	"qnotify_t\000"
 3518      6966795F 
 3518      7400
 3519              	.LASF234:
 3520 0647 6576656E 		.ascii	"event\000"
 3520      7400
 3521              	.LASF191:
 3522 064d 4D4F4445 		.ascii	"MODER\000"
 3522      5200
 3523              	.LASF242:
 3524 0653 72656164 		.ascii	"read\000"
 3524      00
 3525              	.LASF197:
 3526 0658 4146524C 		.ascii	"AFRL\000"
 3526      00
ARM GAS  /var/folders/vd/czx34qs52cd_f3nb04sxmghc0000gn/T//ccRXSGGx.s 			page 68


 3527              	.LASF125:
 3528 065d 6F66665F 		.ascii	"off_newer\000"
 3528      6E657765 
 3528      7200
 3529              	.LASF172:
 3530 0667 73656C66 		.ascii	"selfindex\000"
 3530      696E6465 
 3530      7800
 3531              	.LASF0:
 3532 0671 756E7369 		.ascii	"unsigned int\000"
 3532      676E6564 
 3532      20696E74 
 3532      00
 3533              	.LASF22:
 3534 067e 7274636E 		.ascii	"rtcnt_t\000"
 3534      745F7400 
 3535              	.LASF215:
 3536 0686 6368616E 		.ascii	"channels\000"
 3536      6E656C73 
 3536      00
 3537              	.LASF249:
 3538 068f 62697473 		.ascii	"bits\000"
 3538      00
 3539              	.LASF217:
 3540 0694 70776D63 		.ascii	"pwmcallback_t\000"
 3540      616C6C62 
 3540      61636B5F 
 3540      7400
 3541              	.LASF58:
 3542 06a2 63757272 		.ascii	"current\000"
 3542      656E7400 
 3543              	.LASF211:
 3544 06aa 50574D44 		.ascii	"PWMDriver\000"
 3544      72697665 
 3544      7200
 3545              	.LASF101:
 3546 06b4 6F666673 		.ascii	"offset\000"
 3546      657400
 3547              	.LASF84:
 3548 06bb 444D415F 		.ascii	"DMA_Stream_TypeDef\000"
 3548      53747265 
 3548      616D5F54 
 3548      79706544 
 3548      656600
 3549              	.LASF145:
 3550 06ce 6D656D67 		.ascii	"memgetfunc_t\000"
 3550      65746675 
 3550      6E635F74 
 3550      00
 3551              	.LASF203:
 3552 06db 5F70616C 		.ascii	"_pal_events\000"
 3552      5F657665 
 3552      6E747300 
 3553              	.LASF32:
 3554 06e7 74687265 		.ascii	"thread_t\000"
 3554      61645F74 
 3554      00
ARM GAS  /var/folders/vd/czx34qs52cd_f3nb04sxmghc0000gn/T//ccRXSGGx.s 			page 69


 3555              	.LASF2:
 3556 06f0 6C6F6E67 		.ascii	"long double\000"
 3556      20646F75 
 3556      626C6500 
 3557              	.LASF141:
 3558 06fc 77666C61 		.ascii	"wflags\000"
 3558      677300
 3559              	.LASF48:
 3560 0703 74687265 		.ascii	"thread_reference_t\000"
 3560      61645F72 
 3560      65666572 
 3560      656E6365 
 3560      5F7400
 3561              	.LASF248:
 3562 0716 70616C57 		.ascii	"palWriteBus\000"
 3562      72697465 
 3562      42757300 
 3563              	.LASF107:
 3564 0722 73656E74 		.ascii	"sentmsg\000"
 3564      6D736700 
 3565              	.LASF90:
 3566 072a 706F7274 		.ascii	"port_intctx\000"
 3566      5F696E74 
 3566      63747800 
 3567              	.LASF167:
 3568 0736 6F626A65 		.ascii	"objects_factory_t\000"
 3568      6374735F 
 3568      66616374 
 3568      6F72795F 
 3568      7400
 3569              	.LASF162:
 3570 0748 6275665F 		.ascii	"buf_list\000"
 3570      6C697374 
 3570      00
 3571              	.LASF79:
 3572 0751 41484250 		.ascii	"AHBPrescTable\000"
 3572      72657363 
 3572      5461626C 
 3572      6500
 3573              	.LASF61:
 3574 075f 63685F76 		.ascii	"ch_virtual_timer\000"
 3574      69727475 
 3574      616C5F74 
 3574      696D6572 
 3574      00
 3575              	.LASF118:
 3576 0770 73697A65 		.ascii	"size\000"
 3576      00
 3577              	.LASF15:
 3578 0775 6C6F6E67 		.ascii	"long long unsigned int\000"
 3578      206C6F6E 
 3578      6720756E 
 3578      7369676E 
 3578      65642069 
 3579              	.LASF208:
 3580 078c 50574D5F 		.ascii	"PWM_STOP\000"
 3580      53544F50 
ARM GAS  /var/folders/vd/czx34qs52cd_f3nb04sxmghc0000gn/T//ccRXSGGx.s 			page 70


 3580      00
 3581              	.LASF17:
 3582 0795 75696E74 		.ascii	"uint16_t\000"
 3582      31365F74 
 3582      00
 3583              	.LASF127:
 3584 079e 6F66665F 		.ascii	"off_name\000"
 3584      6E616D65 
 3584      00
 3585              	.LASF196:
 3586 07a7 4C4F434B 		.ascii	"LOCKR\000"
 3586      5200
 3587              	.LASF27:
 3588 07ad 6D73675F 		.ascii	"msg_t\000"
 3588      7400
 3589              	.LASF54:
 3590 07b3 63685F74 		.ascii	"ch_threads_queue\000"
 3590      68726561 
 3590      64735F71 
 3590      75657565 
 3590      00
 3591              	.LASF29:
 3592 07c4 6576656E 		.ascii	"eventflags_t\000"
 3592      74666C61 
 3592      67735F74 
 3592      00
 3593              	.LASF95:
 3594 07d1 43434552 		.ascii	"CCER\000"
 3594      00
 3595              	.LASF62:
 3596 07d6 64656C74 		.ascii	"delta\000"
 3596      6100
 3597              	.LASF198:
 3598 07dc 41465248 		.ascii	"AFRH\000"
 3598      00
 3599              	.LASF41:
 3600 07e1 72656673 		.ascii	"refs\000"
 3600      00
 3601              	.LASF33:
 3602 07e6 71756575 		.ascii	"queue\000"
 3602      6500
 3603              	.LASF173:
 3604 07ec 76656374 		.ascii	"vector\000"
 3604      6F7200
 3605              	.LASF168:
 3606 07f3 63685F66 		.ascii	"ch_factory\000"
 3606      6163746F 
 3606      727900
 3607              	.LASF165:
 3608 07fe 6D62785F 		.ascii	"mbx_list\000"
 3608      6C697374 
 3608      00
 3609              	.LASF74:
 3610 0807 6D61696E 		.ascii	"mainthread\000"
 3610      74687265 
 3610      616400
 3611              	.LASF91:
ARM GAS  /var/folders/vd/czx34qs52cd_f3nb04sxmghc0000gn/T//ccRXSGGx.s 			page 71


 3612 0812 534D4352 		.ascii	"SMCR\000"
 3612      00
 3613              	.LASF213:
 3614 0817 70657269 		.ascii	"period\000"
 3614      6F6400
 3615              	.LASF119:
 3616 081e 76657273 		.ascii	"version\000"
 3616      696F6E00 
 3617              	.LASF38:
 3618 0826 77616261 		.ascii	"wabase\000"
 3618      736500
 3619              	.LASF233:
 3620 082d 53657269 		.ascii	"SerialDriver\000"
 3620      616C4472 
 3620      69766572 
 3620      00
 3621              	.LASF154:
 3622 083a 6D656D6F 		.ascii	"memory_pool_t\000"
 3622      72795F70 
 3622      6F6F6C5F 
 3622      7400
 3623              	.LASF192:
 3624 0848 4F545950 		.ascii	"OTYPER\000"
 3624      455200
 3625              	.LASF178:
 3626 084f 715F7761 		.ascii	"q_waiting\000"
 3626      6974696E 
 3626      6700
 3627              	.LASF72:
 3628 0859 726C6973 		.ascii	"rlist\000"
 3628      7400
 3629              	.LASF23:
 3630 085f 746D6F64 		.ascii	"tmode_t\000"
 3630      655F7400 
 3631              	.LASF232:
 3632 0867 73647374 		.ascii	"sdstate_t\000"
 3632      6174655F 
 3632      7400
 3633              	.LASF231:
 3634 0871 53445F52 		.ascii	"SD_READY\000"
 3634      45414459 
 3634      00
 3635              	.LASF102:
 3636 087a 746D5F63 		.ascii	"tm_calibration_t\000"
 3636      616C6962 
 3636      72617469 
 3636      6F6E5F74 
 3636      00
 3637              	.LASF82:
 3638 088b 4D304152 		.ascii	"M0AR\000"
 3638      00
 3639              	.LASF37:
 3640 0890 6E616D65 		.ascii	"name\000"
 3640      00
 3641              	.LASF139:
 3642 0895 6C697374 		.ascii	"listener\000"
 3642      656E6572 
ARM GAS  /var/folders/vd/czx34qs52cd_f3nb04sxmghc0000gn/T//ccRXSGGx.s 			page 72


 3642      00
 3643              	.LASF80:
 3644 089e 41504250 		.ascii	"APBPrescTable\000"
 3644      72657363 
 3644      5461626C 
 3644      6500
 3645              	.LASF21:
 3646 08ac 75696E74 		.ascii	"uint_fast8_t\000"
 3646      5F666173 
 3646      74385F74 
 3646      00
 3647              	.LASF209:
 3648 08b9 50574D5F 		.ascii	"PWM_READY\000"
 3648      52454144 
 3648      5900
 3649              	.LASF7:
 3650 08c3 73686F72 		.ascii	"short int\000"
 3650      7420696E 
 3650      7400
 3651              	.LASF142:
 3652 08cd 6576656E 		.ascii	"event_source\000"
 3652      745F736F 
 3652      75726365 
 3652      00
 3653              	.LASF20:
 3654 08da 75696E74 		.ascii	"uint64_t\000"
 3654      36345F74 
 3654      00
 3655              	.LASF222:
 3656 08e3 6D6F6465 		.ascii	"mode\000"
 3656      00
 3657              	.LASF63:
 3658 08e8 66756E63 		.ascii	"func\000"
 3658      00
 3659              	.LASF112:
 3660 08ed 63685F6D 		.ascii	"ch_mutex\000"
 3660      75746578 
 3660      00
 3661              	.LASF43:
 3662 08f6 6D736771 		.ascii	"msgqueue\000"
 3662      75657565 
 3662      00
 3663              	.LASF235:
 3664 08ff 69717565 		.ascii	"iqueue\000"
 3664      756500
 3665              	.LASF254:
 3666 0906 70616C52 		.ascii	"palReadBus\000"
 3666      65616442 
 3666      757300
 3667              	.LASF68:
 3668 0911 63685F73 		.ascii	"ch_system_debug\000"
 3668      79737465 
 3668      6D5F6465 
 3668      62756700 
 3669              	.LASF158:
 3670 0921 64796E5F 		.ascii	"dyn_list_t\000"
 3670      6C697374 
ARM GAS  /var/folders/vd/czx34qs52cd_f3nb04sxmghc0000gn/T//ccRXSGGx.s 			page 73


 3670      5F7400
 3671              	.LASF176:
 3672 092c 696F5F71 		.ascii	"io_queue_t\000"
 3672      75657565 
 3672      5F7400
 3673              	.LASF195:
 3674 0937 42535252 		.ascii	"BSRR\000"
 3674      00
 3675              	.LASF151:
 3676 093c 6F626A65 		.ascii	"object_size\000"
 3676      63745F73 
 3676      697A6500 
 3677              	.LASF73:
 3678 0948 76746C69 		.ascii	"vtlist\000"
 3678      737400
 3679              	.LASF42:
 3680 094f 77616974 		.ascii	"waiting\000"
 3680      696E6700 
 3681              	.LASF227:
 3682 0957 50574D43 		.ascii	"PWMConfig\000"
 3682      6F6E6669 
 3682      6700
 3683              	.LASF136:
 3684 0961 6D757465 		.ascii	"mutex_t\000"
 3684      785F7400 
 3685              	.LASF25:
 3686 0969 74726566 		.ascii	"trefs_t\000"
 3686      735F7400 
 3687              	.LASF89:
 3688 0971 706F7274 		.ascii	"port_context\000"
 3688      5F636F6E 
 3688      74657874 
 3688      00
 3689              	.LASF49:
 3690 097e 74687265 		.ascii	"threads_list_t\000"
 3690      6164735F 
 3690      6C697374 
 3690      5F7400
 3691              	.LASF228:
 3692 098d 50574D44 		.ascii	"PWMD4\000"
 3692      3400
 3693              	.LASF71:
 3694 0993 63685F73 		.ascii	"ch_system\000"
 3694      79737465 
 3694      6D00
 3695              	.LASF210:
 3696 099d 70776D73 		.ascii	"pwmstate_t\000"
 3696      74617465 
 3696      5F7400
 3697              	.LASF35:
 3698 09a8 6E657765 		.ascii	"newer\000"
 3698      7200
 3699              	.LASF96:
 3700 09ae 42445452 		.ascii	"BDTR\000"
 3700      00
 3701              	.LASF19:
 3702 09b3 75696E74 		.ascii	"uint32_t\000"
ARM GAS  /var/folders/vd/czx34qs52cd_f3nb04sxmghc0000gn/T//ccRXSGGx.s 			page 74


 3702      33325F74 
 3702      00
 3703              	.LASF253:
 3704 09bc 2F557365 		.ascii	"/Users/lantian/Projects/stm32f407vet6/dev\000"
 3704      72732F6C 
 3704      616E7469 
 3704      616E2F50 
 3704      726F6A65 
 3705              	.LASF240:
 3706 09e6 696E7374 		.ascii	"instance_offset\000"
 3706      616E6365 
 3706      5F6F6666 
 3706      73657400 
 3707              	.LASF187:
 3708 09f6 696E7075 		.ascii	"input_queue_t\000"
 3708      745F7175 
 3708      6575655F 
 3708      7400
 3709              	.LASF138:
 3710 0a04 6576656E 		.ascii	"event_listener\000"
 3710      745F6C69 
 3710      7374656E 
 3710      657200
 3711              	.LASF103:
 3712 0a13 7264796D 		.ascii	"rdymsg\000"
 3712      736700
 3713              	.LASF182:
 3714 0a1a 715F7772 		.ascii	"q_wrptr\000"
 3714      70747200 
 3715              	.LASF9:
 3716 0a22 73686F72 		.ascii	"short unsigned int\000"
 3716      7420756E 
 3716      7369676E 
 3716      65642069 
 3716      6E7400
 3717              	.LASF70:
 3718 0a35 63685F73 		.ascii	"ch_system_t\000"
 3718      79737465 
 3718      6D5F7400 
 3719              	.LASF134:
 3720 0a41 63686465 		.ascii	"chdebug_t\000"
 3720      6275675F 
 3720      7400
 3721              	.LASF188:
 3722 0a4b 6F757470 		.ascii	"output_queue_t\000"
 3722      75745F71 
 3722      75657565 
 3722      5F7400
 3723              	.LASF121:
 3724 0a5a 74696D65 		.ascii	"timesize\000"
 3724      73697A65 
 3724      00
 3725              	.LASF10:
 3726 0a63 5F5F696E 		.ascii	"__int32_t\000"
 3726      7433325F 
 3726      7400
 3727              	.LASF230:
ARM GAS  /var/folders/vd/czx34qs52cd_f3nb04sxmghc0000gn/T//ccRXSGGx.s 			page 75


 3728 0a6d 53445F53 		.ascii	"SD_STOP\000"
 3728      544F5000 
 3729              	.LASF81:
 3730 0a75 4E445452 		.ascii	"NDTR\000"
 3730      00
 3731              	.LASF170:
 3732 0a7a 69666372 		.ascii	"ifcr\000"
 3732      00
 3733              	.LASF149:
 3734 0a7f 63685F6D 		.ascii	"ch_memcore\000"
 3734      656D636F 
 3734      726500
 3735              	.LASF130:
 3736 0a8a 6F66665F 		.ascii	"off_flags\000"
 3736      666C6167 
 3736      7300
 3737              	.LASF140:
 3738 0a94 6576656E 		.ascii	"events\000"
 3738      747300
 3739              	.LASF52:
 3740 0a9b 6E657874 		.ascii	"next\000"
 3740      00
 3741              	.LASF55:
 3742 0aa0 70726576 		.ascii	"prev\000"
 3742      00
 3743              	.LASF157:
 3744 0aa5 63685F64 		.ascii	"ch_dyn_list\000"
 3744      796E5F6C 
 3744      69737400 
 3745              	.LASF116:
 3746 0ab1 6964656E 		.ascii	"identifier\000"
 3746      74696669 
 3746      657200
 3747              	.LASF247:
 3748 0abc 70616C53 		.ascii	"palSetBusMode\000"
 3748      65744275 
 3748      734D6F64 
 3748      6500
 3749              		.ident	"GCC: (GNU Tools for Arm Embedded Processors 7-2017-q4-major) 7.2.1 20170904 (release) [ARM
ARM GAS  /var/folders/vd/czx34qs52cd_f3nb04sxmghc0000gn/T//ccRXSGGx.s 			page 76


DEFINED SYMBOLS
                            *ABS*:0000000000000000 hal_pal.c
/var/folders/vd/czx34qs52cd_f3nb04sxmghc0000gn/T//ccRXSGGx.s:16     .text.palReadBus:0000000000000000 $t
/var/folders/vd/czx34qs52cd_f3nb04sxmghc0000gn/T//ccRXSGGx.s:24     .text.palReadBus:0000000000000000 palReadBus
/var/folders/vd/czx34qs52cd_f3nb04sxmghc0000gn/T//ccRXSGGx.s:47     .text.palWriteBus:0000000000000000 $t
/var/folders/vd/czx34qs52cd_f3nb04sxmghc0000gn/T//ccRXSGGx.s:55     .text.palWriteBus:0000000000000000 palWriteBus
/var/folders/vd/czx34qs52cd_f3nb04sxmghc0000gn/T//ccRXSGGx.s:89     .text.palSetBusMode:0000000000000000 $t
/var/folders/vd/czx34qs52cd_f3nb04sxmghc0000gn/T//ccRXSGGx.s:97     .text.palSetBusMode:0000000000000000 palSetBusMode

UNDEFINED SYMBOLS
_pal_lld_setgroupmode
