ARM GAS  /var/folders/vd/czx34qs52cd_f3nb04sxmghc0000gn/T//ccg9wnx4.s 			page 1


   1              		.cpu cortex-m4
   2              		.eabi_attribute 20, 1
   3              		.eabi_attribute 21, 1
   4              		.eabi_attribute 23, 3
   5              		.eabi_attribute 24, 1
   6              		.eabi_attribute 25, 1
   7              		.eabi_attribute 26, 1
   8              		.eabi_attribute 30, 2
   9              		.eabi_attribute 34, 1
  10              		.eabi_attribute 18, 4
  11              		.file	"memstreams.c"
  12              		.text
  13              	.Ltext0:
  14              		.cfi_sections	.debug_frame
  15              		.section	.text._put,"ax",%progbits
  16              		.align	1
  17              		.p2align 4,,15
  18              		.syntax unified
  19              		.thumb
  20              		.thumb_func
  21              		.fpu softvfp
  22              		.type	_put, %function
  23              	_put:
  24              	.LFB315:
  25              		.file 1 "../os/hal/lib/streams/memstreams.c"
  26              		.loc 1 66 0
  27              		.cfi_startproc
  28              		@ args = 0, pretend = 0, frame = 0
  29              		@ frame_needed = 0, uses_anonymous_args = 0
  30              		@ link register save eliminated.
  31              	.LVL0:
  32              		.loc 1 69 0
  33 0000 D0E90223 		ldrd	r2, r3, [r0, #8]
  34 0004 9A42     		cmp	r2, r3
  35 0006 06D0     		beq	.L3
  36              		.loc 1 71 0
  37 0008 4268     		ldr	r2, [r0, #4]
  38 000a D154     		strb	r1, [r2, r3]
  39              		.loc 1 72 0
  40 000c C368     		ldr	r3, [r0, #12]
  41 000e 0133     		adds	r3, r3, #1
  42 0010 C360     		str	r3, [r0, #12]
  43              		.loc 1 73 0
  44 0012 0020     		movs	r0, #0
  45              	.LVL1:
  46 0014 7047     		bx	lr
  47              	.LVL2:
  48              	.L3:
  49              		.loc 1 70 0
  50 0016 6FF00100 		mvn	r0, #1
  51              	.LVL3:
  52              		.loc 1 74 0
  53 001a 7047     		bx	lr
  54              		.cfi_endproc
  55              	.LFE315:
  56              		.size	_put, .-_put
  57              		.section	.text._get,"ax",%progbits
ARM GAS  /var/folders/vd/czx34qs52cd_f3nb04sxmghc0000gn/T//ccg9wnx4.s 			page 2


  58              		.align	1
  59              		.p2align 4,,15
  60              		.syntax unified
  61              		.thumb
  62              		.thumb_func
  63              		.fpu softvfp
  64              		.type	_get, %function
  65              	_get:
  66              	.LFB316:
  67              		.loc 1 76 0
  68              		.cfi_startproc
  69              		@ args = 0, pretend = 0, frame = 0
  70              		@ frame_needed = 0, uses_anonymous_args = 0
  71              		@ link register save eliminated.
  72              	.LVL4:
  73              		.loc 1 80 0
  74 0000 D0E90313 		ldrd	r1, r3, [r0, #12]
  75 0004 9942     		cmp	r1, r3
  76              		.loc 1 76 0
  77 0006 0246     		mov	r2, r0
  78              	.LVL5:
  79              		.loc 1 80 0
  80 0008 04D0     		beq	.L7
  81              		.loc 1 82 0
  82 000a 4168     		ldr	r1, [r0, #4]
  83 000c C85C     		ldrb	r0, [r1, r3]	@ zero_extendqisi2
  84              	.LVL6:
  85              		.loc 1 83 0
  86 000e 0133     		adds	r3, r3, #1
  87 0010 1361     		str	r3, [r2, #16]
  88              		.loc 1 84 0
  89 0012 7047     		bx	lr
  90              	.LVL7:
  91              	.L7:
  92              		.loc 1 81 0
  93 0014 6FF00100 		mvn	r0, #1
  94              	.LVL8:
  95              		.loc 1 85 0
  96 0018 7047     		bx	lr
  97              		.cfi_endproc
  98              	.LFE316:
  99              		.size	_get, .-_get
 100 001a 00BF     		.section	.text._reads,"ax",%progbits
 101              		.align	1
 102              		.p2align 4,,15
 103              		.syntax unified
 104              		.thumb
 105              		.thumb_func
 106              		.fpu softvfp
 107              		.type	_reads, %function
 108              	_reads:
 109              	.LFB314:
 110              		.loc 1 56 0
 111              		.cfi_startproc
 112              		@ args = 0, pretend = 0, frame = 0
 113              		@ frame_needed = 0, uses_anonymous_args = 0
 114              	.LVL9:
ARM GAS  /var/folders/vd/czx34qs52cd_f3nb04sxmghc0000gn/T//ccg9wnx4.s 			page 3


 115 0000 70B5     		push	{r4, r5, r6, lr}
 116              		.cfi_def_cfa_offset 16
 117              		.cfi_offset 4, -16
 118              		.cfi_offset 5, -12
 119              		.cfi_offset 6, -8
 120              		.cfi_offset 14, -4
 121              		.loc 1 59 0
 122 0002 D0E90343 		ldrd	r4, r3, [r0, #12]
 123 0006 E41A     		subs	r4, r4, r3
 124              		.loc 1 61 0
 125 0008 4668     		ldr	r6, [r0, #4]
 126 000a 9442     		cmp	r4, r2
 127 000c 28BF     		it	cs
 128 000e 1446     		movcs	r4, r2
 129              		.loc 1 56 0
 130 0010 0546     		mov	r5, r0
 131              	.LVL10:
 132              		.loc 1 61 0
 133 0012 2246     		mov	r2, r4
 134 0014 0846     		mov	r0, r1
 135              	.LVL11:
 136 0016 F118     		adds	r1, r6, r3
 137              	.LVL12:
 138 0018 FFF7FEFF 		bl	memcpy
 139              	.LVL13:
 140              		.loc 1 62 0
 141 001c 2B69     		ldr	r3, [r5, #16]
 142 001e 2344     		add	r3, r3, r4
 143 0020 2B61     		str	r3, [r5, #16]
 144              		.loc 1 64 0
 145 0022 2046     		mov	r0, r4
 146 0024 70BD     		pop	{r4, r5, r6, pc}
 147              		.cfi_endproc
 148              	.LFE314:
 149              		.size	_reads, .-_reads
 150 0026 00BF     		.section	.text._writes,"ax",%progbits
 151              		.align	1
 152              		.p2align 4,,15
 153              		.syntax unified
 154              		.thumb
 155              		.thumb_func
 156              		.fpu softvfp
 157              		.type	_writes, %function
 158              	_writes:
 159              	.LFB313:
 160              		.loc 1 46 0
 161              		.cfi_startproc
 162              		@ args = 0, pretend = 0, frame = 0
 163              		@ frame_needed = 0, uses_anonymous_args = 0
 164              	.LVL14:
 165 0000 38B5     		push	{r3, r4, r5, lr}
 166              		.cfi_def_cfa_offset 16
 167              		.cfi_offset 3, -16
 168              		.cfi_offset 4, -12
 169              		.cfi_offset 5, -8
 170              		.cfi_offset 14, -4
 171              		.loc 1 49 0
ARM GAS  /var/folders/vd/czx34qs52cd_f3nb04sxmghc0000gn/T//ccg9wnx4.s 			page 4


 172 0002 D0E90243 		ldrd	r4, r3, [r0, #8]
 173 0006 E41A     		subs	r4, r4, r3
 174              		.loc 1 46 0
 175 0008 0546     		mov	r5, r0
 176              	.LVL15:
 177 000a 9442     		cmp	r4, r2
 178              		.loc 1 51 0
 179 000c 4068     		ldr	r0, [r0, #4]
 180              	.LVL16:
 181 000e 28BF     		it	cs
 182 0010 1446     		movcs	r4, r2
 183              	.LVL17:
 184 0012 1844     		add	r0, r0, r3
 185 0014 2246     		mov	r2, r4
 186 0016 FFF7FEFF 		bl	memcpy
 187              	.LVL18:
 188              		.loc 1 52 0
 189 001a EB68     		ldr	r3, [r5, #12]
 190 001c 2344     		add	r3, r3, r4
 191 001e EB60     		str	r3, [r5, #12]
 192              		.loc 1 54 0
 193 0020 2046     		mov	r0, r4
 194 0022 38BD     		pop	{r3, r4, r5, pc}
 195              		.cfi_endproc
 196              	.LFE313:
 197              		.size	_writes, .-_writes
 198              		.section	.text.msObjectInit,"ax",%progbits
 199              		.align	1
 200              		.p2align 4,,15
 201              		.global	msObjectInit
 202              		.syntax unified
 203              		.thumb
 204              		.thumb_func
 205              		.fpu softvfp
 206              		.type	msObjectInit, %function
 207              	msObjectInit:
 208              	.LFB317:
 209              		.loc 1 104 0
 210              		.cfi_startproc
 211              		@ args = 0, pretend = 0, frame = 0
 212              		@ frame_needed = 0, uses_anonymous_args = 0
 213              		@ link register save eliminated.
 214              	.LVL19:
 215 0000 10B4     		push	{r4}
 216              		.cfi_def_cfa_offset 4
 217              		.cfi_offset 4, -4
 218              		.loc 1 107 0
 219 0002 4160     		str	r1, [r0, #4]
 220              		.loc 1 106 0
 221 0004 034C     		ldr	r4, .L14
 222 0006 0460     		str	r4, [r0]
 223              		.loc 1 110 0
 224 0008 0021     		movs	r1, #0
 225              	.LVL20:
 226              		.loc 1 109 0
 227 000a C0E90223 		strd	r2, r3, [r0, #8]
 228              		.loc 1 110 0
ARM GAS  /var/folders/vd/czx34qs52cd_f3nb04sxmghc0000gn/T//ccg9wnx4.s 			page 5


 229 000e 0161     		str	r1, [r0, #16]
 230              		.loc 1 111 0
 231 0010 10BC     		pop	{r4}
 232              		.cfi_restore 4
 233              		.cfi_def_cfa_offset 0
 234 0012 7047     		bx	lr
 235              	.L15:
 236              		.align	2
 237              	.L14:
 238 0014 00000000 		.word	.LANCHOR0
 239              		.cfi_endproc
 240              	.LFE317:
 241              		.size	msObjectInit, .-msObjectInit
 242              		.section	.rodata.vmt,"a",%progbits
 243              		.align	2
 244              		.set	.LANCHOR0,. + 0
 245              		.type	vmt, %object
 246              		.size	vmt, 20
 247              	vmt:
 248 0000 00000000 		.word	0
 249 0004 00000000 		.word	_writes
 250 0008 00000000 		.word	_reads
 251 000c 00000000 		.word	_put
 252 0010 00000000 		.word	_get
 253              		.text
 254              	.Letext0:
 255              		.file 2 "/usr/local/Cellar/gcc-arm-none-eabi/20171218/lib/gcc/arm-none-eabi/7.2.1/include/stddef.h
 256              		.file 3 "/usr/local/Cellar/gcc-arm-none-eabi/20171218/arm-none-eabi/include/machine/_default_types
 257              		.file 4 "/usr/local/Cellar/gcc-arm-none-eabi/20171218/arm-none-eabi/include/sys/lock.h"
 258              		.file 5 "/usr/local/Cellar/gcc-arm-none-eabi/20171218/arm-none-eabi/include/sys/_types.h"
 259              		.file 6 "/usr/local/Cellar/gcc-arm-none-eabi/20171218/arm-none-eabi/include/sys/reent.h"
 260              		.file 7 "/usr/local/Cellar/gcc-arm-none-eabi/20171218/arm-none-eabi/include/sys/_stdint.h"
 261              		.file 8 "../os/common/ports/ARMCMx/compilers/GCC/chtypes.h"
 262              		.file 9 "../os/rt/include/chsystypes.h"
 263              		.file 10 "../os/rt/include/chschd.h"
 264              		.file 11 "../os/rt/include/chtime.h"
 265              		.file 12 "../os/common/ext/ARM/CMSIS/Core/Include/core_cm4.h"
 266              		.file 13 "../os/common/ext/ST/STM32F4xx/system_stm32f4xx.h"
 267              		.file 14 "../os/common/ext/ST/STM32F4xx/stm32f407xx.h"
 268              		.file 15 "../os/common/ports/ARMCMx/chcore.h"
 269              		.file 16 "../os/common/ports/ARMCMx/chcore_v7m.h"
 270              		.file 17 "../os/hal/ports/STM32/LLD/TIMv1/stm32_tim.h"
 271              		.file 18 "../os/rt/include/chtm.h"
 272              		.file 19 "../os/rt/include/chsem.h"
 273              		.file 20 "../os/rt/include/chmtx.h"
 274              		.file 21 "../os/rt/include/chsys.h"
 275              		.file 22 "../os/rt/include/chregistry.h"
 276              		.file 23 "../os/rt/include/chevents.h"
 277              		.file 24 "../os/common/oslib/include/chmemcore.h"
 278              		.file 25 "../os/common/oslib/include/chmempools.h"
 279              		.file 26 "../os/common/oslib/include/chfactory.h"
 280              		.file 27 "../os/hal/ports/STM32/LLD/DMAv2/stm32_dma.h"
 281              		.file 28 "../os/hal/include/hal_queues.h"
 282              		.file 29 "../os/hal/include/hal_pal.h"
 283              		.file 30 "../os/hal/ports/STM32/LLD/GPIOv2/hal_pal_lld.h"
 284              		.file 31 "../os/hal/include/hal_pwm.h"
 285              		.file 32 "../os/hal/ports/STM32/LLD/TIMv1/hal_pwm_lld.h"
ARM GAS  /var/folders/vd/czx34qs52cd_f3nb04sxmghc0000gn/T//ccg9wnx4.s 			page 6


 286              		.file 33 "../os/hal/include/hal_serial.h"
 287              		.file 34 "../os/hal/ports/STM32/LLD/USARTv1/hal_serial_lld.h"
 288              		.file 35 "../os/hal/lib/streams/memstreams.h"
 289              		.file 36 "<built-in>"