ARM GAS  /var/folders/vd/czx34qs52cd_f3nb04sxmghc0000gn/T//ccFSGepM.s 			page 1


   1              		.cpu cortex-m4
   2              		.eabi_attribute 20, 1
   3              		.eabi_attribute 21, 1
   4              		.eabi_attribute 23, 3
   5              		.eabi_attribute 24, 1
   6              		.eabi_attribute 25, 1
   7              		.eabi_attribute 26, 1
   8              		.eabi_attribute 30, 2
   9              		.eabi_attribute 34, 1
  10              		.eabi_attribute 18, 4
  11              		.file	"nullstreams.c"
  12              		.text
  13              	.Ltext0:
  14              		.cfi_sections	.debug_frame
  15              		.section	.text.writes,"ax",%progbits
  16              		.align	1
  17              		.p2align 4,,15
  18              		.syntax unified
  19              		.thumb
  20              		.thumb_func
  21              		.fpu softvfp
  22              		.type	writes, %function
  23              	writes:
  24              	.LFB313:
  25              		.file 1 "../os/hal/lib/streams/nullstreams.c"
  26              		.loc 1 44 0
  27              		.cfi_startproc
  28              		@ args = 0, pretend = 0, frame = 0
  29              		@ frame_needed = 0, uses_anonymous_args = 0
  30              		@ link register save eliminated.
  31              	.LVL0:
  32              		.loc 1 50 0
  33 0000 1046     		mov	r0, r2
  34              	.LVL1:
  35 0002 7047     		bx	lr
  36              		.cfi_endproc
  37              	.LFE313:
  38              		.size	writes, .-writes
  39              		.section	.text.reads,"ax",%progbits
  40              		.align	1
  41              		.p2align 4,,15
  42              		.syntax unified
  43              		.thumb
  44              		.thumb_func
  45              		.fpu softvfp
  46              		.type	reads, %function
  47              	reads:
  48              	.LFB314:
  49              		.loc 1 52 0
  50              		.cfi_startproc
  51              		@ args = 0, pretend = 0, frame = 0
  52              		@ frame_needed = 0, uses_anonymous_args = 0
  53              		@ link register save eliminated.
  54              	.LVL2:
  55              		.loc 1 59 0
  56 0000 0020     		movs	r0, #0
  57              	.LVL3:
ARM GAS  /var/folders/vd/czx34qs52cd_f3nb04sxmghc0000gn/T//ccFSGepM.s 			page 2


  58 0002 7047     		bx	lr
  59              		.cfi_endproc
  60              	.LFE314:
  61              		.size	reads, .-reads
  62              		.section	.text.put,"ax",%progbits
  63              		.align	1
  64              		.p2align 4,,15
  65              		.syntax unified
  66              		.thumb
  67              		.thumb_func
  68              		.fpu softvfp
  69              		.type	put, %function
  70              	put:
  71              	.LFB315:
  72              		.loc 1 61 0
  73              		.cfi_startproc
  74              		@ args = 0, pretend = 0, frame = 0
  75              		@ frame_needed = 0, uses_anonymous_args = 0
  76              		@ link register save eliminated.
  77              	.LVL4:
  78              		.loc 1 67 0
  79 0000 0020     		movs	r0, #0
  80              	.LVL5:
  81 0002 7047     		bx	lr
  82              		.cfi_endproc
  83              	.LFE315:
  84              		.size	put, .-put
  85              		.section	.text.get,"ax",%progbits
  86              		.align	1
  87              		.p2align 4,,15
  88              		.syntax unified
  89              		.thumb
  90              		.thumb_func
  91              		.fpu softvfp
  92              		.type	get, %function
  93              	get:
  94              	.LFB316:
  95              		.loc 1 69 0
  96              		.cfi_startproc
  97              		@ args = 0, pretend = 0, frame = 0
  98              		@ frame_needed = 0, uses_anonymous_args = 0
  99              		@ link register save eliminated.
 100              	.LVL6:
 101              		.loc 1 74 0
 102 0000 0420     		movs	r0, #4
 103              	.LVL7:
 104 0002 7047     		bx	lr
 105              		.cfi_endproc
 106              	.LFE316:
 107              		.size	get, .-get
 108              		.section	.text.nullObjectInit,"ax",%progbits
 109              		.align	1
 110              		.p2align 4,,15
 111              		.global	nullObjectInit
 112              		.syntax unified
 113              		.thumb
 114              		.thumb_func
ARM GAS  /var/folders/vd/czx34qs52cd_f3nb04sxmghc0000gn/T//ccFSGepM.s 			page 3


 115              		.fpu softvfp
 116              		.type	nullObjectInit, %function
 117              	nullObjectInit:
 118              	.LFB317:
 119              		.loc 1 87 0
 120              		.cfi_startproc
 121              		@ args = 0, pretend = 0, frame = 0
 122              		@ frame_needed = 0, uses_anonymous_args = 0
 123              		@ link register save eliminated.
 124              	.LVL8:
 125              		.loc 1 89 0
 126 0000 014B     		ldr	r3, .L7
 127 0002 0360     		str	r3, [r0]
 128              		.loc 1 90 0
 129 0004 7047     		bx	lr
 130              	.L8:
 131 0006 00BF     		.align	2
 132              	.L7:
 133 0008 00000000 		.word	.LANCHOR0
 134              		.cfi_endproc
 135              	.LFE317:
 136              		.size	nullObjectInit, .-nullObjectInit
 137              		.section	.rodata.vmt,"a",%progbits
 138              		.align	2
 139              		.set	.LANCHOR0,. + 0
 140              		.type	vmt, %object
 141              		.size	vmt, 20
 142              	vmt:
 143 0000 00000000 		.word	0
 144 0004 00000000 		.word	writes
 145 0008 00000000 		.word	reads
 146 000c 00000000 		.word	put
 147 0010 00000000 		.word	get
 148              		.text
 149              	.Letext0:
 150              		.file 2 "/usr/local/Cellar/gcc-arm-none-eabi/20171218/lib/gcc/arm-none-eabi/7.2.1/include/stddef.h
 151              		.file 3 "/usr/local/Cellar/gcc-arm-none-eabi/20171218/arm-none-eabi/include/machine/_default_types
 152              		.file 4 "/usr/local/Cellar/gcc-arm-none-eabi/20171218/arm-none-eabi/include/sys/_stdint.h"
 153              		.file 5 "../os/common/ports/ARMCMx/compilers/GCC/chtypes.h"
 154              		.file 6 "../os/rt/include/chsystypes.h"
 155              		.file 7 "../os/rt/include/chschd.h"
 156              		.file 8 "../os/rt/include/chtime.h"
 157              		.file 9 "../os/common/ext/ARM/CMSIS/Core/Include/core_cm4.h"
 158              		.file 10 "../os/common/ext/ST/STM32F4xx/system_stm32f4xx.h"
 159              		.file 11 "../os/common/ext/ST/STM32F4xx/stm32f407xx.h"
 160              		.file 12 "../os/common/ports/ARMCMx/chcore.h"
 161              		.file 13 "../os/common/ports/ARMCMx/chcore_v7m.h"
 162              		.file 14 "../os/hal/ports/STM32/LLD/TIMv1/stm32_tim.h"
 163              		.file 15 "../os/rt/include/chtm.h"
 164              		.file 16 "../os/rt/include/chsem.h"
 165              		.file 17 "../os/rt/include/chmtx.h"
 166              		.file 18 "../os/rt/include/chsys.h"
 167              		.file 19 "../os/rt/include/chregistry.h"
 168              		.file 20 "../os/rt/include/chevents.h"
 169              		.file 21 "../os/common/oslib/include/chmemcore.h"
 170              		.file 22 "../os/common/oslib/include/chmempools.h"
 171              		.file 23 "../os/common/oslib/include/chfactory.h"
ARM GAS  /var/folders/vd/czx34qs52cd_f3nb04sxmghc0000gn/T//ccFSGepM.s 			page 4


 172              		.file 24 "../os/hal/ports/STM32/LLD/DMAv2/stm32_dma.h"
 173              		.file 25 "../os/hal/include/hal_queues.h"
 174              		.file 26 "../os/hal/include/hal_pal.h"
 175              		.file 27 "../os/hal/ports/STM32/LLD/GPIOv2/hal_pal_lld.h"
 176              		.file 28 "../os/hal/include/hal_pwm.h"
 177              		.file 29 "../os/hal/ports/STM32/LLD/TIMv1/hal_pwm_lld.h"
 178              		.file 30 "../os/hal/include/hal_serial.h"
 179              		.file 31 "../os/hal/ports/STM32/LLD/USARTv1/hal_serial_lld.h"
 180              		.file 32 "../os/hal/lib/streams/nullstreams.h"