ARM GAS  /var/folders/vd/czx34qs52cd_f3nb04sxmghc0000gn/T//ccFSGepM.s 			page 1


   1              		.cpu cortex-m4
   2              		.eabi_attribute 20, 1
   3              		.eabi_attribute 21, 1
   4              		.eabi_attribute 23, 3
   5              		.eabi_attribute 24, 1
   6              		.eabi_attribute 25, 1
   7              		.eabi_attribute 26, 1
   8              		.eabi_attribute 30, 2
   9              		.eabi_attribute 34, 1
  10              		.eabi_attribute 18, 4
  11              		.file	"nullstreams.c"
  12              		.text
  13              	.Ltext0:
  14              		.cfi_sections	.debug_frame
  15              		.section	.text.writes,"ax",%progbits
  16              		.align	1
  17              		.p2align 4,,15
  18              		.syntax unified
  19              		.thumb
  20              		.thumb_func
  21              		.fpu softvfp
  22              		.type	writes, %function
  23              	writes:
  24              	.LFB313:
  25              		.file 1 "../os/hal/lib/streams/nullstreams.c"
  26              		.loc 1 44 0
  27              		.cfi_startproc
  28              		@ args = 0, pretend = 0, frame = 0
  29              		@ frame_needed = 0, uses_anonymous_args = 0
  30              		@ link register save eliminated.
  31              	.LVL0:
  32              		.loc 1 50 0
  33 0000 1046     		mov	r0, r2
  34              	.LVL1:
  35 0002 7047     		bx	lr
  36              		.cfi_endproc
  37              	.LFE313:
  38              		.size	writes, .-writes
  39              		.section	.text.reads,"ax",%progbits
  40              		.align	1
  41              		.p2align 4,,15
  42              		.syntax unified
  43              		.thumb
  44              		.thumb_func
  45              		.fpu softvfp
  46              		.type	reads, %function
  47              	reads:
  48              	.LFB314:
  49              		.loc 1 52 0
  50              		.cfi_startproc
  51              		@ args = 0, pretend = 0, frame = 0
  52              		@ frame_needed = 0, uses_anonymous_args = 0
  53              		@ link register save eliminated.
  54              	.LVL2:
  55              		.loc 1 59 0
  56 0000 0020     		movs	r0, #0
  57              	.LVL3:
ARM GAS  /var/folders/vd/czx34qs52cd_f3nb04sxmghc0000gn/T//ccFSGepM.s 			page 2


  58 0002 7047     		bx	lr
  59              		.cfi_endproc
  60              	.LFE314:
  61              		.size	reads, .-reads
  62              		.section	.text.put,"ax",%progbits
  63              		.align	1
  64              		.p2align 4,,15
  65              		.syntax unified
  66              		.thumb
  67              		.thumb_func
  68              		.fpu softvfp
  69              		.type	put, %function
  70              	put:
  71              	.LFB315:
  72              		.loc 1 61 0
  73              		.cfi_startproc
  74              		@ args = 0, pretend = 0, frame = 0
  75              		@ frame_needed = 0, uses_anonymous_args = 0
  76              		@ link register save eliminated.
  77              	.LVL4:
  78              		.loc 1 67 0
  79 0000 0020     		movs	r0, #0
  80              	.LVL5:
  81 0002 7047     		bx	lr
  82              		.cfi_endproc
  83              	.LFE315:
  84              		.size	put, .-put
  85              		.section	.text.get,"ax",%progbits
  86              		.align	1
  87              		.p2align 4,,15
  88              		.syntax unified
  89              		.thumb
  90              		.thumb_func
  91              		.fpu softvfp
  92              		.type	get, %function
  93              	get:
  94              	.LFB316:
  95              		.loc 1 69 0
  96              		.cfi_startproc
  97              		@ args = 0, pretend = 0, frame = 0
  98              		@ frame_needed = 0, uses_anonymous_args = 0
  99              		@ link register save eliminated.
 100              	.LVL6:
 101              		.loc 1 74 0
 102 0000 0420     		movs	r0, #4
 103              	.LVL7:
 104 0002 7047     		bx	lr
 105              		.cfi_endproc
 106              	.LFE316:
 107              		.size	get, .-get
 108              		.section	.text.nullObjectInit,"ax",%progbits
 109              		.align	1
 110              		.p2align 4,,15
 111              		.global	nullObjectInit
 112              		.syntax unified
 113              		.thumb
 114              		.thumb_func
ARM GAS  /var/folders/vd/czx34qs52cd_f3nb04sxmghc0000gn/T//ccFSGepM.s 			page 3


 115              		.fpu softvfp
 116              		.type	nullObjectInit, %function
 117              	nullObjectInit:
 118              	.LFB317:
 119              		.loc 1 87 0
 120              		.cfi_startproc
 121              		@ args = 0, pretend = 0, frame = 0
 122              		@ frame_needed = 0, uses_anonymous_args = 0
 123              		@ link register save eliminated.
 124              	.LVL8:
 125              		.loc 1 89 0
 126 0000 014B     		ldr	r3, .L7
 127 0002 0360     		str	r3, [r0]
 128              		.loc 1 90 0
 129 0004 7047     		bx	lr
 130              	.L8:
 131 0006 00BF     		.align	2
 132              	.L7:
 133 0008 00000000 		.word	.LANCHOR0
 134              		.cfi_endproc
 135              	.LFE317:
 136              		.size	nullObjectInit, .-nullObjectInit
 137              		.section	.rodata.vmt,"a",%progbits
 138              		.align	2
 139              		.set	.LANCHOR0,. + 0
 140              		.type	vmt, %object
 141              		.size	vmt, 20
 142              	vmt:
 143 0000 00000000 		.word	0
 144 0004 00000000 		.word	writes
 145 0008 00000000 		.word	reads
 146 000c 00000000 		.word	put
 147 0010 00000000 		.word	get
 148              		.text
 149              	.Letext0:
 150              		.file 2 "/usr/local/Cellar/gcc-arm-none-eabi/20171218/lib/gcc/arm-none-eabi/7.2.1/include/stddef.h
 151              		.file 3 "/usr/local/Cellar/gcc-arm-none-eabi/20171218/arm-none-eabi/include/machine/_default_types
 152              		.file 4 "/usr/local/Cellar/gcc-arm-none-eabi/20171218/arm-none-eabi/include/sys/_stdint.h"
 153              		.file 5 "../os/common/ports/ARMCMx/compilers/GCC/chtypes.h"
 154              		.file 6 "../os/rt/include/chsystypes.h"
 155              		.file 7 "../os/rt/include/chschd.h"
 156              		.file 8 "../os/rt/include/chtime.h"
 157              		.file 9 "../os/common/ext/ARM/CMSIS/Core/Include/core_cm4.h"
 158              		.file 10 "../os/common/ext/ST/STM32F4xx/system_stm32f4xx.h"
 159              		.file 11 "../os/common/ext/ST/STM32F4xx/stm32f407xx.h"
 160              		.file 12 "../os/common/ports/ARMCMx/chcore.h"
 161              		.file 13 "../os/common/ports/ARMCMx/chcore_v7m.h"
 162              		.file 14 "../os/hal/ports/STM32/LLD/TIMv1/stm32_tim.h"
 163              		.file 15 "../os/rt/include/chtm.h"
 164              		.file 16 "../os/rt/include/chsem.h"
 165              		.file 17 "../os/rt/include/chmtx.h"
 166              		.file 18 "../os/rt/include/chsys.h"
 167              		.file 19 "../os/rt/include/chregistry.h"
 168              		.file 20 "../os/rt/include/chevents.h"
 169              		.file 21 "../os/common/oslib/include/chmemcore.h"
 170              		.file 22 "../os/common/oslib/include/chmempools.h"
 171              		.file 23 "../os/common/oslib/include/chfactory.h"
ARM GAS  /var/folders/vd/czx34qs52cd_f3nb04sxmghc0000gn/T//ccFSGepM.s 			page 4


 172              		.file 24 "../os/hal/ports/STM32/LLD/DMAv2/stm32_dma.h"
 173              		.file 25 "../os/hal/include/hal_queues.h"
 174              		.file 26 "../os/hal/include/hal_pal.h"
 175              		.file 27 "../os/hal/ports/STM32/LLD/GPIOv2/hal_pal_lld.h"
 176              		.file 28 "../os/hal/include/hal_pwm.h"
 177              		.file 29 "../os/hal/ports/STM32/LLD/TIMv1/hal_pwm_lld.h"
 178              		.file 30 "../os/hal/include/hal_serial.h"
 179              		.file 31 "../os/hal/ports/STM32/LLD/USARTv1/hal_serial_lld.h"
 180              		.file 32 "../os/hal/lib/streams/nullstreams.h"
 181              		.section	.debug_info,"",%progbits
 182              	.Ldebug_info0:
 183 0000 3F130000 		.4byte	0x133f
 184 0004 0400     		.2byte	0x4
 185 0006 00000000 		.4byte	.Ldebug_abbrev0
 186 000a 04       		.byte	0x4
 187 000b 01       		.uleb128 0x1
 188 000c B3040000 		.4byte	.LASF233
 189 0010 0C       		.byte	0xc
 190 0011 29010000 		.4byte	.LASF234
 191 0015 3F090000 		.4byte	.LASF235
 192 0019 00000000 		.4byte	.Ldebug_ranges0+0
 193 001d 00000000 		.4byte	0
 194 0021 00000000 		.4byte	.Ldebug_line0
 195 0025 02       		.uleb128 0x2
 196 0026 04       		.byte	0x4
 197 0027 05       		.byte	0x5
 198 0028 696E7400 		.ascii	"int\000"
 199 002c 03       		.uleb128 0x3
 200 002d 20000000 		.4byte	.LASF4
 201 0031 02       		.byte	0x2
 202 0032 D8       		.byte	0xd8
 203 0033 3C000000 		.4byte	0x3c
 204 0037 04       		.uleb128 0x4
 205 0038 2C000000 		.4byte	0x2c
 206 003c 05       		.uleb128 0x5
 207 003d 04       		.byte	0x4
 208 003e 07       		.byte	0x7
 209 003f 29060000 		.4byte	.LASF0
 210 0043 05       		.uleb128 0x5
 211 0044 08       		.byte	0x8
 212 0045 05       		.byte	0x5
 213 0046 A0050000 		.4byte	.LASF1
 214 004a 05       		.uleb128 0x5
 215 004b 08       		.byte	0x8
 216 004c 04       		.byte	0x4
 217 004d A3060000 		.4byte	.LASF2
 218 0051 05       		.uleb128 0x5
 219 0052 01       		.byte	0x1
 220 0053 06       		.byte	0x6
 221 0054 04020000 		.4byte	.LASF3
 222 0058 03       		.uleb128 0x3
 223 0059 56010000 		.4byte	.LASF5
 224 005d 03       		.byte	0x3
 225 005e 2B       		.byte	0x2b
 226 005f 63000000 		.4byte	0x63
 227 0063 05       		.uleb128 0x5
 228 0064 01       		.byte	0x1
ARM GAS  /var/folders/vd/czx34qs52cd_f3nb04sxmghc0000gn/T//ccFSGepM.s 			page 5


 229 0065 08       		.byte	0x8
 230 0066 3A020000 		.4byte	.LASF6
 231 006a 05       		.uleb128 0x5
 232 006b 02       		.byte	0x2
 233 006c 05       		.byte	0x5
 234 006d 56080000 		.4byte	.LASF7
 235 0071 03       		.uleb128 0x3
 236 0072 B7020000 		.4byte	.LASF8
 237 0076 03       		.byte	0x3
 238 0077 39       		.byte	0x39
 239 0078 7C000000 		.4byte	0x7c
 240 007c 05       		.uleb128 0x5
 241 007d 02       		.byte	0x2
 242 007e 07       		.byte	0x7
 243 007f A5090000 		.4byte	.LASF9
 244 0083 03       		.uleb128 0x3
 245 0084 E6090000 		.4byte	.LASF10
 246 0088 03       		.byte	0x3
 247 0089 4D       		.byte	0x4d
 248 008a 8E000000 		.4byte	0x8e
 249 008e 05       		.uleb128 0x5
 250 008f 04       		.byte	0x4
 251 0090 05       		.byte	0x5
 252 0091 8D010000 		.4byte	.LASF11
 253 0095 03       		.uleb128 0x3
 254 0096 8D050000 		.4byte	.LASF12
 255 009a 03       		.byte	0x3
 256 009b 4F       		.byte	0x4f
 257 009c A0000000 		.4byte	0xa0
 258 00a0 05       		.uleb128 0x5
 259 00a1 04       		.byte	0x4
 260 00a2 07       		.byte	0x7
 261 00a3 A7030000 		.4byte	.LASF13
 262 00a7 03       		.uleb128 0x3
 263 00a8 92030000 		.4byte	.LASF14
 264 00ac 03       		.byte	0x3
 265 00ad 69       		.byte	0x69
 266 00ae B2000000 		.4byte	0xb2
 267 00b2 05       		.uleb128 0x5
 268 00b3 08       		.byte	0x8
 269 00b4 07       		.byte	0x7
 270 00b5 1C070000 		.4byte	.LASF15
 271 00b9 03       		.uleb128 0x3
 272 00ba 17020000 		.4byte	.LASF16
 273 00be 04       		.byte	0x4
 274 00bf 18       		.byte	0x18
 275 00c0 58000000 		.4byte	0x58
 276 00c4 06       		.uleb128 0x6
 277 00c5 B9000000 		.4byte	0xb9
 278 00c9 03       		.uleb128 0x3
 279 00ca 3C070000 		.4byte	.LASF17
 280 00ce 04       		.byte	0x4
 281 00cf 24       		.byte	0x24
 282 00d0 71000000 		.4byte	0x71
 283 00d4 03       		.uleb128 0x3
 284 00d5 82000000 		.4byte	.LASF18
 285 00d9 04       		.byte	0x4
ARM GAS  /var/folders/vd/czx34qs52cd_f3nb04sxmghc0000gn/T//ccFSGepM.s 			page 6


 286 00da 2C       		.byte	0x2c
 287 00db 83000000 		.4byte	0x83
 288 00df 04       		.uleb128 0x4
 289 00e0 D4000000 		.4byte	0xd4
 290 00e4 03       		.uleb128 0x3
 291 00e5 36090000 		.4byte	.LASF19
 292 00e9 04       		.byte	0x4
 293 00ea 30       		.byte	0x30
 294 00eb 95000000 		.4byte	0x95
 295 00ef 04       		.uleb128 0x4
 296 00f0 E4000000 		.4byte	0xe4
 297 00f4 03       		.uleb128 0x3
 298 00f5 6D080000 		.4byte	.LASF20
 299 00f9 04       		.byte	0x4
 300 00fa 3C       		.byte	0x3c
 301 00fb A7000000 		.4byte	0xa7
 302 00ff 03       		.uleb128 0x3
 303 0100 36060000 		.4byte	.LASF21
 304 0104 05       		.byte	0x5
 305 0105 39       		.byte	0x39
 306 0106 E4000000 		.4byte	0xe4
 307 010a 03       		.uleb128 0x3
 308 010b F4070000 		.4byte	.LASF22
 309 010f 05       		.byte	0x5
 310 0110 3C       		.byte	0x3c
 311 0111 B9000000 		.4byte	0xb9
 312 0115 03       		.uleb128 0x3
 313 0116 A3010000 		.4byte	.LASF23
 314 011a 05       		.byte	0x5
 315 011b 3D       		.byte	0x3d
 316 011c B9000000 		.4byte	0xb9
 317 0120 03       		.uleb128 0x3
 318 0121 EC080000 		.4byte	.LASF24
 319 0125 05       		.byte	0x5
 320 0126 3E       		.byte	0x3e
 321 0127 B9000000 		.4byte	0xb9
 322 012b 03       		.uleb128 0x3
 323 012c 5A000000 		.4byte	.LASF25
 324 0130 05       		.byte	0x5
 325 0131 40       		.byte	0x40
 326 0132 E4000000 		.4byte	0xe4
 327 0136 03       		.uleb128 0x3
 328 0137 4E070000 		.4byte	.LASF26
 329 013b 05       		.byte	0x5
 330 013c 41       		.byte	0x41
 331 013d D4000000 		.4byte	0xd4
 332 0141 03       		.uleb128 0x3
 333 0142 1F020000 		.4byte	.LASF27
 334 0146 05       		.byte	0x5
 335 0147 43       		.byte	0x43
 336 0148 E4000000 		.4byte	0xe4
 337 014c 03       		.uleb128 0x3
 338 014d 65070000 		.4byte	.LASF28
 339 0151 05       		.byte	0x5
 340 0152 44       		.byte	0x44
 341 0153 E4000000 		.4byte	0xe4
 342 0157 03       		.uleb128 0x3
ARM GAS  /var/folders/vd/czx34qs52cd_f3nb04sxmghc0000gn/T//ccFSGepM.s 			page 7


 343 0158 3F030000 		.4byte	.LASF29
 344 015c 05       		.byte	0x5
 345 015d 45       		.byte	0x45
 346 015e D4000000 		.4byte	0xd4
 347 0162 03       		.uleb128 0x3
 348 0163 7D040000 		.4byte	.LASF30
 349 0167 05       		.byte	0x5
 350 0168 46       		.byte	0x46
 351 0169 E4000000 		.4byte	0xe4
 352 016d 03       		.uleb128 0x3
 353 016e 9A060000 		.4byte	.LASF31
 354 0172 06       		.byte	0x6
 355 0173 34       		.byte	0x34
 356 0174 78010000 		.4byte	0x178
 357 0178 07       		.uleb128 0x7
 358 0179 E6030000 		.4byte	.LASF49
 359 017d 44       		.byte	0x44
 360 017e 07       		.byte	0x7
 361 017f 8E       		.byte	0x8e
 362 0180 56020000 		.4byte	0x256
 363 0184 08       		.uleb128 0x8
 364 0185 82070000 		.4byte	.LASF32
 365 0189 07       		.byte	0x7
 366 018a 8F       		.byte	0x8f
 367 018b 8B020000 		.4byte	0x28b
 368 018f 00       		.byte	0
 369 0190 08       		.uleb128 0x8
 370 0191 24010000 		.4byte	.LASF33
 371 0195 07       		.byte	0x7
 372 0196 90       		.byte	0x90
 373 0197 2B010000 		.4byte	0x12b
 374 019b 08       		.byte	0x8
 375 019c 09       		.uleb128 0x9
 376 019d 63747800 		.ascii	"ctx\000"
 377 01a1 07       		.byte	0x7
 378 01a2 91       		.byte	0x91
 379 01a3 E5050000 		.4byte	0x5e5
 380 01a7 0C       		.byte	0xc
 381 01a8 08       		.uleb128 0x8
 382 01a9 2B090000 		.4byte	.LASF34
 383 01ad 07       		.byte	0x7
 384 01ae 93       		.byte	0x93
 385 01af 61020000 		.4byte	0x261
 386 01b3 10       		.byte	0x10
 387 01b4 08       		.uleb128 0x8
 388 01b5 52040000 		.4byte	.LASF35
 389 01b9 07       		.byte	0x7
 390 01ba 94       		.byte	0x94
 391 01bb 61020000 		.4byte	0x261
 392 01bf 14       		.byte	0x14
 393 01c0 08       		.uleb128 0x8
 394 01c1 30080000 		.4byte	.LASF36
 395 01c5 07       		.byte	0x7
 396 01c6 9B       		.byte	0x9b
 397 01c7 81080000 		.4byte	0x881
 398 01cb 18       		.byte	0x18
 399 01cc 08       		.uleb128 0x8
ARM GAS  /var/folders/vd/czx34qs52cd_f3nb04sxmghc0000gn/T//ccFSGepM.s 			page 8


 400 01cd C2070000 		.4byte	.LASF37
 401 01d1 07       		.byte	0x7
 402 01d2 A4       		.byte	0xa4
 403 01d3 98080000 		.4byte	0x898
 404 01d7 1C       		.byte	0x1c
 405 01d8 08       		.uleb128 0x8
 406 01d9 E0000000 		.4byte	.LASF38
 407 01dd 07       		.byte	0x7
 408 01de A9       		.byte	0xa9
 409 01df 15010000 		.4byte	0x115
 410 01e3 20       		.byte	0x20
 411 01e4 08       		.uleb128 0x8
 412 01e5 DD020000 		.4byte	.LASF39
 413 01e9 07       		.byte	0x7
 414 01ea AD       		.byte	0xad
 415 01eb 0A010000 		.4byte	0x10a
 416 01ef 21       		.byte	0x21
 417 01f0 08       		.uleb128 0x8
 418 01f1 7D070000 		.4byte	.LASF40
 419 01f5 07       		.byte	0x7
 420 01f6 B2       		.byte	0xb2
 421 01f7 20010000 		.4byte	0x120
 422 01fb 22       		.byte	0x22
 423 01fc 0A       		.uleb128 0xa
 424 01fd 7500     		.ascii	"u\000"
 425 01ff 07       		.byte	0x7
 426 0200 0301     		.2byte	0x103
 427 0202 B7070000 		.4byte	0x7b7
 428 0206 24       		.byte	0x24
 429 0207 0B       		.uleb128 0xb
 430 0208 D2080000 		.4byte	.LASF41
 431 020c 07       		.byte	0x7
 432 020d 0801     		.2byte	0x108
 433 020f 67020000 		.4byte	0x267
 434 0213 28       		.byte	0x28
 435 0214 0B       		.uleb128 0xb
 436 0215 89080000 		.4byte	.LASF42
 437 0219 07       		.byte	0x7
 438 021a 0E01     		.2byte	0x10e
 439 021c 8B020000 		.4byte	0x28b
 440 0220 2C       		.byte	0x2c
 441 0221 0B       		.uleb128 0xb
 442 0222 AC010000 		.4byte	.LASF43
 443 0226 07       		.byte	0x7
 444 0227 1401     		.2byte	0x114
 445 0229 41010000 		.4byte	0x141
 446 022d 34       		.byte	0x34
 447 022e 0B       		.uleb128 0xb
 448 022f 98050000 		.4byte	.LASF44
 449 0233 07       		.byte	0x7
 450 0234 1B01     		.2byte	0x11b
 451 0236 7B080000 		.4byte	0x87b
 452 023a 38       		.byte	0x38
 453 023b 0B       		.uleb128 0xb
 454 023c 68040000 		.4byte	.LASF45
 455 0240 07       		.byte	0x7
 456 0241 1F01     		.2byte	0x11f
ARM GAS  /var/folders/vd/czx34qs52cd_f3nb04sxmghc0000gn/T//ccFSGepM.s 			page 9


 457 0243 2B010000 		.4byte	0x12b
 458 0247 3C       		.byte	0x3c
 459 0248 0B       		.uleb128 0xb
 460 0249 01030000 		.4byte	.LASF46
 461 024d 07       		.byte	0x7
 462 024e 2601     		.2byte	0x126
 463 0250 3E030000 		.4byte	0x33e
 464 0254 40       		.byte	0x40
 465 0255 00       		.byte	0
 466 0256 03       		.uleb128 0x3
 467 0257 B6060000 		.4byte	.LASF47
 468 025b 06       		.byte	0x6
 469 025c 39       		.byte	0x39
 470 025d 61020000 		.4byte	0x261
 471 0261 0C       		.uleb128 0xc
 472 0262 04       		.byte	0x4
 473 0263 6D010000 		.4byte	0x16d
 474 0267 03       		.uleb128 0x3
 475 0268 01090000 		.4byte	.LASF48
 476 026c 06       		.byte	0x6
 477 026d 3E       		.byte	0x3e
 478 026e 72020000 		.4byte	0x272
 479 0272 07       		.uleb128 0x7
 480 0273 A3040000 		.4byte	.LASF50
 481 0277 04       		.byte	0x4
 482 0278 07       		.byte	0x7
 483 0279 7C       		.byte	0x7c
 484 027a 8B020000 		.4byte	0x28b
 485 027e 08       		.uleb128 0x8
 486 027f 1E0A0000 		.4byte	.LASF51
 487 0283 07       		.byte	0x7
 488 0284 7D       		.byte	0x7d
 489 0285 61020000 		.4byte	0x261
 490 0289 00       		.byte	0
 491 028a 00       		.byte	0
 492 028b 03       		.uleb128 0x3
 493 028c B5010000 		.4byte	.LASF52
 494 0290 06       		.byte	0x6
 495 0291 45       		.byte	0x45
 496 0292 96020000 		.4byte	0x296
 497 0296 07       		.uleb128 0x7
 498 0297 54070000 		.4byte	.LASF53
 499 029b 08       		.byte	0x8
 500 029c 07       		.byte	0x7
 501 029d 83       		.byte	0x83
 502 029e BB020000 		.4byte	0x2bb
 503 02a2 08       		.uleb128 0x8
 504 02a3 1E0A0000 		.4byte	.LASF51
 505 02a7 07       		.byte	0x7
 506 02a8 84       		.byte	0x84
 507 02a9 61020000 		.4byte	0x261
 508 02ad 00       		.byte	0
 509 02ae 08       		.uleb128 0x8
 510 02af 230A0000 		.4byte	.LASF54
 511 02b3 07       		.byte	0x7
 512 02b4 85       		.byte	0x85
 513 02b5 61020000 		.4byte	0x261
ARM GAS  /var/folders/vd/czx34qs52cd_f3nb04sxmghc0000gn/T//ccFSGepM.s 			page 10


 514 02b9 04       		.byte	0x4
 515 02ba 00       		.byte	0
 516 02bb 03       		.uleb128 0x3
 517 02bc 45040000 		.4byte	.LASF55
 518 02c0 06       		.byte	0x6
 519 02c1 4C       		.byte	0x4c
 520 02c2 C6020000 		.4byte	0x2c6
 521 02c6 0D       		.uleb128 0xd
 522 02c7 61030000 		.4byte	.LASF56
 523 02cb 1C       		.byte	0x1c
 524 02cc 07       		.byte	0x7
 525 02cd 5E01     		.2byte	0x15e
 526 02cf 22030000 		.4byte	0x322
 527 02d3 0B       		.uleb128 0xb
 528 02d4 82070000 		.4byte	.LASF32
 529 02d8 07       		.byte	0x7
 530 02d9 5F01     		.2byte	0x15f
 531 02db 8B020000 		.4byte	0x28b
 532 02df 00       		.byte	0
 533 02e0 0B       		.uleb128 0xb
 534 02e1 24010000 		.4byte	.LASF33
 535 02e5 07       		.byte	0x7
 536 02e6 6001     		.2byte	0x160
 537 02e8 2B010000 		.4byte	0x12b
 538 02ec 08       		.byte	0x8
 539 02ed 0A       		.uleb128 0xa
 540 02ee 63747800 		.ascii	"ctx\000"
 541 02f2 07       		.byte	0x7
 542 02f3 6201     		.2byte	0x162
 543 02f5 E5050000 		.4byte	0x5e5
 544 02f9 0C       		.byte	0xc
 545 02fa 0B       		.uleb128 0xb
 546 02fb 2B090000 		.4byte	.LASF34
 547 02ff 07       		.byte	0x7
 548 0300 6501     		.2byte	0x165
 549 0302 61020000 		.4byte	0x261
 550 0306 10       		.byte	0x10
 551 0307 0B       		.uleb128 0xb
 552 0308 52040000 		.4byte	.LASF35
 553 030c 07       		.byte	0x7
 554 030d 6601     		.2byte	0x166
 555 030f 61020000 		.4byte	0x261
 556 0313 14       		.byte	0x14
 557 0314 0B       		.uleb128 0xb
 558 0315 55060000 		.4byte	.LASF57
 559 0319 07       		.byte	0x7
 560 031a 6901     		.2byte	0x169
 561 031c 61020000 		.4byte	0x261
 562 0320 18       		.byte	0x18
 563 0321 00       		.byte	0
 564 0322 03       		.uleb128 0x3
 565 0323 98000000 		.4byte	.LASF58
 566 0327 06       		.byte	0x6
 567 0328 51       		.byte	0x51
 568 0329 2D030000 		.4byte	0x32d
 569 032d 0C       		.uleb128 0xc
 570 032e 04       		.byte	0x4
ARM GAS  /var/folders/vd/czx34qs52cd_f3nb04sxmghc0000gn/T//ccFSGepM.s 			page 11


 571 032f 33030000 		.4byte	0x333
 572 0333 0E       		.uleb128 0xe
 573 0334 3E030000 		.4byte	0x33e
 574 0338 0F       		.uleb128 0xf
 575 0339 3E030000 		.4byte	0x33e
 576 033d 00       		.byte	0
 577 033e 10       		.uleb128 0x10
 578 033f 04       		.byte	0x4
 579 0340 03       		.uleb128 0x3
 580 0341 35040000 		.4byte	.LASF59
 581 0345 06       		.byte	0x6
 582 0346 56       		.byte	0x56
 583 0347 4B030000 		.4byte	0x34b
 584 034b 0D       		.uleb128 0xd
 585 034c 06070000 		.4byte	.LASF60
 586 0350 14       		.byte	0x14
 587 0351 07       		.byte	0x7
 588 0352 3901     		.2byte	0x139
 589 0354 9A030000 		.4byte	0x39a
 590 0358 0B       		.uleb128 0xb
 591 0359 1E0A0000 		.4byte	.LASF51
 592 035d 07       		.byte	0x7
 593 035e 3A01     		.2byte	0x13a
 594 0360 9E080000 		.4byte	0x89e
 595 0364 00       		.byte	0
 596 0365 0B       		.uleb128 0xb
 597 0366 230A0000 		.4byte	.LASF54
 598 036a 07       		.byte	0x7
 599 036b 3B01     		.2byte	0x13b
 600 036d 9E080000 		.4byte	0x89e
 601 0371 04       		.byte	0x4
 602 0372 0B       		.uleb128 0xb
 603 0373 77070000 		.4byte	.LASF61
 604 0377 07       		.byte	0x7
 605 0378 3C01     		.2byte	0x13c
 606 037a 71040000 		.4byte	0x471
 607 037e 08       		.byte	0x8
 608 037f 0B       		.uleb128 0xb
 609 0380 7B080000 		.4byte	.LASF62
 610 0384 07       		.byte	0x7
 611 0385 3D01     		.2byte	0x13d
 612 0387 22030000 		.4byte	0x322
 613 038b 0C       		.byte	0xc
 614 038c 0A       		.uleb128 0xa
 615 038d 70617200 		.ascii	"par\000"
 616 0391 07       		.byte	0x7
 617 0392 3F01     		.2byte	0x13f
 618 0394 3E030000 		.4byte	0x33e
 619 0398 10       		.byte	0x10
 620 0399 00       		.byte	0
 621 039a 03       		.uleb128 0x3
 622 039b F0030000 		.4byte	.LASF63
 623 039f 06       		.byte	0x6
 624 03a0 5B       		.byte	0x5b
 625 03a1 A5030000 		.4byte	0x3a5
 626 03a5 0D       		.uleb128 0xd
 627 03a6 A1000000 		.4byte	.LASF64
ARM GAS  /var/folders/vd/czx34qs52cd_f3nb04sxmghc0000gn/T//ccFSGepM.s 			page 12


 628 03aa 10       		.byte	0x10
 629 03ab 07       		.byte	0x7
 630 03ac 4901     		.2byte	0x149
 631 03ae E7030000 		.4byte	0x3e7
 632 03b2 0B       		.uleb128 0xb
 633 03b3 1E0A0000 		.4byte	.LASF51
 634 03b7 07       		.byte	0x7
 635 03b8 4A01     		.2byte	0x14a
 636 03ba 9E080000 		.4byte	0x89e
 637 03be 00       		.byte	0
 638 03bf 0B       		.uleb128 0xb
 639 03c0 230A0000 		.4byte	.LASF54
 640 03c4 07       		.byte	0x7
 641 03c5 4C01     		.2byte	0x14c
 642 03c7 9E080000 		.4byte	0x89e
 643 03cb 04       		.byte	0x4
 644 03cc 0B       		.uleb128 0xb
 645 03cd 77070000 		.4byte	.LASF61
 646 03d1 07       		.byte	0x7
 647 03d2 4E01     		.2byte	0x14e
 648 03d4 71040000 		.4byte	0x471
 649 03d8 08       		.byte	0x8
 650 03d9 0B       		.uleb128 0xb
 651 03da 4F020000 		.4byte	.LASF65
 652 03de 07       		.byte	0x7
 653 03df 5601     		.2byte	0x156
 654 03e1 66040000 		.4byte	0x466
 655 03e5 0C       		.byte	0xc
 656 03e6 00       		.byte	0
 657 03e7 03       		.uleb128 0x3
 658 03e8 62020000 		.4byte	.LASF66
 659 03ec 06       		.byte	0x6
 660 03ed 60       		.byte	0x60
 661 03ee F2030000 		.4byte	0x3f2
 662 03f2 0D       		.uleb128 0xd
 663 03f3 99080000 		.4byte	.LASF67
 664 03f7 04       		.byte	0x4
 665 03f8 07       		.byte	0x7
 666 03f9 7001     		.2byte	0x170
 667 03fb 0D040000 		.4byte	0x40d
 668 03ff 0B       		.uleb128 0xb
 669 0400 58020000 		.4byte	.LASF68
 670 0404 07       		.byte	0x7
 671 0405 7801     		.2byte	0x178
 672 0407 87080000 		.4byte	0x887
 673 040b 00       		.byte	0
 674 040c 00       		.byte	0
 675 040d 03       		.uleb128 0x3
 676 040e B8090000 		.4byte	.LASF69
 677 0412 06       		.byte	0x6
 678 0413 65       		.byte	0x65
 679 0414 18040000 		.4byte	0x418
 680 0418 0D       		.uleb128 0xd
 681 0419 16090000 		.4byte	.LASF70
 682 041d 78       		.byte	0x78
 683 041e 07       		.byte	0x7
 684 041f 9001     		.2byte	0x190
ARM GAS  /var/folders/vd/czx34qs52cd_f3nb04sxmghc0000gn/T//ccFSGepM.s 			page 13


 685 0421 66040000 		.4byte	0x466
 686 0425 0B       		.uleb128 0xb
 687 0426 EE070000 		.4byte	.LASF71
 688 042a 07       		.byte	0x7
 689 042b 9401     		.2byte	0x194
 690 042d BB020000 		.4byte	0x2bb
 691 0431 00       		.byte	0
 692 0432 0B       		.uleb128 0xb
 693 0433 CB080000 		.4byte	.LASF72
 694 0437 07       		.byte	0x7
 695 0438 9801     		.2byte	0x198
 696 043a 9A030000 		.4byte	0x39a
 697 043e 1C       		.byte	0x1c
 698 043f 0A       		.uleb128 0xa
 699 0440 64626700 		.ascii	"dbg\000"
 700 0444 07       		.byte	0x7
 701 0445 9C01     		.2byte	0x19c
 702 0447 E7030000 		.4byte	0x3e7
 703 044b 2C       		.byte	0x2c
 704 044c 0B       		.uleb128 0xb
 705 044d A3070000 		.4byte	.LASF73
 706 0451 07       		.byte	0x7
 707 0452 A001     		.2byte	0x1a0
 708 0454 6D010000 		.4byte	0x16d
 709 0458 30       		.byte	0x30
 710 0459 0A       		.uleb128 0xa
 711 045a 746D00   		.ascii	"tm\000"
 712 045d 07       		.byte	0x7
 713 045e A501     		.2byte	0x1a5
 714 0460 AC070000 		.4byte	0x7ac
 715 0464 74       		.byte	0x74
 716 0465 00       		.byte	0
 717 0466 03       		.uleb128 0x3
 718 0467 3E000000 		.4byte	.LASF74
 719 046b 08       		.byte	0x8
 720 046c 8C       		.byte	0x8c
 721 046d E4000000 		.4byte	0xe4
 722 0471 03       		.uleb128 0x3
 723 0472 AE050000 		.4byte	.LASF75
 724 0476 08       		.byte	0x8
 725 0477 98       		.byte	0x98
 726 0478 E4000000 		.4byte	0xe4
 727 047c 11       		.uleb128 0x11
 728 047d E9050000 		.4byte	.LASF76
 729 0481 09       		.byte	0x9
 730 0482 F407     		.2byte	0x7f4
 731 0484 DF000000 		.4byte	0xdf
 732 0488 12       		.uleb128 0x12
 733 0489 C9030000 		.4byte	.LASF77
 734 048d 0A       		.byte	0xa
 735 048e 4C       		.byte	0x4c
 736 048f E4000000 		.4byte	0xe4
 737 0493 13       		.uleb128 0x13
 738 0494 C4000000 		.4byte	0xc4
 739 0498 A3040000 		.4byte	0x4a3
 740 049c 14       		.uleb128 0x14
 741 049d 3C000000 		.4byte	0x3c
ARM GAS  /var/folders/vd/czx34qs52cd_f3nb04sxmghc0000gn/T//ccFSGepM.s 			page 14


 742 04a1 0F       		.byte	0xf
 743 04a2 00       		.byte	0
 744 04a3 06       		.uleb128 0x6
 745 04a4 93040000 		.4byte	0x493
 746 04a8 12       		.uleb128 0x12
 747 04a9 F8060000 		.4byte	.LASF78
 748 04ad 0A       		.byte	0xa
 749 04ae 4E       		.byte	0x4e
 750 04af A3040000 		.4byte	0x4a3
 751 04b3 13       		.uleb128 0x13
 752 04b4 C4000000 		.4byte	0xc4
 753 04b8 C3040000 		.4byte	0x4c3
 754 04bc 14       		.uleb128 0x14
 755 04bd 3C000000 		.4byte	0x3c
 756 04c1 07       		.byte	0x7
 757 04c2 00       		.byte	0
 758 04c3 06       		.uleb128 0x6
 759 04c4 B3040000 		.4byte	0x4b3
 760 04c8 12       		.uleb128 0x12
 761 04c9 3E080000 		.4byte	.LASF79
 762 04cd 0A       		.byte	0xa
 763 04ce 4F       		.byte	0x4f
 764 04cf C3040000 		.4byte	0x4c3
 765 04d3 15       		.uleb128 0x15
 766 04d4 18       		.byte	0x18
 767 04d5 0B       		.byte	0xb
 768 04d6 6A01     		.2byte	0x16a
 769 04d8 2A050000 		.4byte	0x52a
 770 04dc 0A       		.uleb128 0xa
 771 04dd 435200   		.ascii	"CR\000"
 772 04e0 0B       		.byte	0xb
 773 04e1 6C01     		.2byte	0x16c
 774 04e3 EF000000 		.4byte	0xef
 775 04e7 00       		.byte	0
 776 04e8 0B       		.uleb128 0xb
 777 04e9 F8090000 		.4byte	.LASF80
 778 04ed 0B       		.byte	0xb
 779 04ee 6D01     		.2byte	0x16d
 780 04f0 EF000000 		.4byte	0xef
 781 04f4 04       		.byte	0x4
 782 04f5 0A       		.uleb128 0xa
 783 04f6 50415200 		.ascii	"PAR\000"
 784 04fa 0B       		.byte	0xb
 785 04fb 6E01     		.2byte	0x16e
 786 04fd EF000000 		.4byte	0xef
 787 0501 08       		.byte	0x8
 788 0502 0B       		.uleb128 0xb
 789 0503 2B080000 		.4byte	.LASF81
 790 0507 0B       		.byte	0xb
 791 0508 6F01     		.2byte	0x16f
 792 050a EF000000 		.4byte	0xef
 793 050e 0C       		.byte	0xc
 794 050f 0B       		.uleb128 0xb
 795 0510 08000000 		.4byte	.LASF82
 796 0514 0B       		.byte	0xb
 797 0515 7001     		.2byte	0x170
 798 0517 EF000000 		.4byte	0xef
ARM GAS  /var/folders/vd/czx34qs52cd_f3nb04sxmghc0000gn/T//ccFSGepM.s 			page 15


 799 051b 10       		.byte	0x10
 800 051c 0A       		.uleb128 0xa
 801 051d 46435200 		.ascii	"FCR\000"
 802 0521 0B       		.byte	0xb
 803 0522 7101     		.2byte	0x171
 804 0524 EF000000 		.4byte	0xef
 805 0528 14       		.byte	0x14
 806 0529 00       		.byte	0
 807 052a 16       		.uleb128 0x16
 808 052b 6E060000 		.4byte	.LASF83
 809 052f 0B       		.byte	0xb
 810 0530 7201     		.2byte	0x172
 811 0532 D3040000 		.4byte	0x4d3
 812 0536 13       		.uleb128 0x13
 813 0537 EF000000 		.4byte	0xef
 814 053b 46050000 		.4byte	0x546
 815 053f 14       		.uleb128 0x14
 816 0540 3C000000 		.4byte	0x3c
 817 0544 01       		.byte	0x1
 818 0545 00       		.byte	0
 819 0546 04       		.uleb128 0x4
 820 0547 36050000 		.4byte	0x536
 821 054b 13       		.uleb128 0x13
 822 054c EF000000 		.4byte	0xef
 823 0550 5B050000 		.4byte	0x55b
 824 0554 14       		.uleb128 0x14
 825 0555 3C000000 		.4byte	0x3c
 826 0559 03       		.byte	0x3
 827 055a 00       		.byte	0
 828 055b 04       		.uleb128 0x4
 829 055c 4B050000 		.4byte	0x54b
 830 0560 15       		.uleb128 0x15
 831 0561 1C       		.byte	0x1c
 832 0562 0B       		.byte	0xb
 833 0563 0603     		.2byte	0x306
 834 0565 C3050000 		.4byte	0x5c3
 835 0569 0A       		.uleb128 0xa
 836 056a 535200   		.ascii	"SR\000"
 837 056d 0B       		.byte	0xb
 838 056e 0803     		.2byte	0x308
 839 0570 EF000000 		.4byte	0xef
 840 0574 00       		.byte	0
 841 0575 0A       		.uleb128 0xa
 842 0576 445200   		.ascii	"DR\000"
 843 0579 0B       		.byte	0xb
 844 057a 0903     		.2byte	0x309
 845 057c EF000000 		.4byte	0xef
 846 0580 04       		.byte	0x4
 847 0581 0A       		.uleb128 0xa
 848 0582 42525200 		.ascii	"BRR\000"
 849 0586 0B       		.byte	0xb
 850 0587 0A03     		.2byte	0x30a
 851 0589 EF000000 		.4byte	0xef
 852 058d 08       		.byte	0x8
 853 058e 0A       		.uleb128 0xa
 854 058f 43523100 		.ascii	"CR1\000"
 855 0593 0B       		.byte	0xb
ARM GAS  /var/folders/vd/czx34qs52cd_f3nb04sxmghc0000gn/T//ccFSGepM.s 			page 16


 856 0594 0B03     		.2byte	0x30b
 857 0596 EF000000 		.4byte	0xef
 858 059a 0C       		.byte	0xc
 859 059b 0A       		.uleb128 0xa
 860 059c 43523200 		.ascii	"CR2\000"
 861 05a0 0B       		.byte	0xb
 862 05a1 0C03     		.2byte	0x30c
 863 05a3 EF000000 		.4byte	0xef
 864 05a7 10       		.byte	0x10
 865 05a8 0A       		.uleb128 0xa
 866 05a9 43523300 		.ascii	"CR3\000"
 867 05ad 0B       		.byte	0xb
 868 05ae 0D03     		.2byte	0x30d
 869 05b0 EF000000 		.4byte	0xef
 870 05b4 14       		.byte	0x14
 871 05b5 0B       		.uleb128 0xb
 872 05b6 CF050000 		.4byte	.LASF84
 873 05ba 0B       		.byte	0xb
 874 05bb 0E03     		.2byte	0x30e
 875 05bd EF000000 		.4byte	0xef
 876 05c1 18       		.byte	0x18
 877 05c2 00       		.byte	0
 878 05c3 16       		.uleb128 0x16
 879 05c4 F3020000 		.4byte	.LASF85
 880 05c8 0B       		.byte	0xb
 881 05c9 0F03     		.2byte	0x30f
 882 05cb 60050000 		.4byte	0x560
 883 05cf 03       		.uleb128 0x3
 884 05d0 CC010000 		.4byte	.LASF86
 885 05d4 0C       		.byte	0xc
 886 05d5 65       		.byte	0x65
 887 05d6 3E030000 		.4byte	0x33e
 888 05da 03       		.uleb128 0x3
 889 05db E8020000 		.4byte	.LASF87
 890 05df 0C       		.byte	0xc
 891 05e0 6D       		.byte	0x6d
 892 05e1 F4000000 		.4byte	0xf4
 893 05e5 07       		.uleb128 0x7
 894 05e6 F4080000 		.4byte	.LASF88
 895 05ea 04       		.byte	0x4
 896 05eb 0C       		.byte	0xc
 897 05ec 89       		.byte	0x89
 898 05ed FD050000 		.4byte	0x5fd
 899 05f1 09       		.uleb128 0x9
 900 05f2 737000   		.ascii	"sp\000"
 901 05f5 0C       		.byte	0xc
 902 05f6 8A       		.byte	0x8a
 903 05f7 79060000 		.4byte	0x679
 904 05fb 00       		.byte	0
 905 05fc 00       		.byte	0
 906 05fd 0D       		.uleb128 0xd
 907 05fe D1060000 		.4byte	.LASF89
 908 0602 24       		.byte	0x24
 909 0603 0D       		.byte	0xd
 910 0604 5901     		.2byte	0x159
 911 0606 79060000 		.4byte	0x679
 912 060a 0A       		.uleb128 0xa
ARM GAS  /var/folders/vd/czx34qs52cd_f3nb04sxmghc0000gn/T//ccFSGepM.s 			page 17


 913 060b 723400   		.ascii	"r4\000"
 914 060e 0D       		.byte	0xd
 915 060f 6C01     		.2byte	0x16c
 916 0611 CF050000 		.4byte	0x5cf
 917 0615 00       		.byte	0
 918 0616 0A       		.uleb128 0xa
 919 0617 723500   		.ascii	"r5\000"
 920 061a 0D       		.byte	0xd
 921 061b 6D01     		.2byte	0x16d
 922 061d CF050000 		.4byte	0x5cf
 923 0621 04       		.byte	0x4
 924 0622 0A       		.uleb128 0xa
 925 0623 723600   		.ascii	"r6\000"
 926 0626 0D       		.byte	0xd
 927 0627 6E01     		.2byte	0x16e
 928 0629 CF050000 		.4byte	0x5cf
 929 062d 08       		.byte	0x8
 930 062e 0A       		.uleb128 0xa
 931 062f 723700   		.ascii	"r7\000"
 932 0632 0D       		.byte	0xd
 933 0633 6F01     		.2byte	0x16f
 934 0635 CF050000 		.4byte	0x5cf
 935 0639 0C       		.byte	0xc
 936 063a 0A       		.uleb128 0xa
 937 063b 723800   		.ascii	"r8\000"
 938 063e 0D       		.byte	0xd
 939 063f 7001     		.2byte	0x170
 940 0641 CF050000 		.4byte	0x5cf
 941 0645 10       		.byte	0x10
 942 0646 0A       		.uleb128 0xa
 943 0647 723900   		.ascii	"r9\000"
 944 064a 0D       		.byte	0xd
 945 064b 7101     		.2byte	0x171
 946 064d CF050000 		.4byte	0x5cf
 947 0651 14       		.byte	0x14
 948 0652 0A       		.uleb128 0xa
 949 0653 72313000 		.ascii	"r10\000"
 950 0657 0D       		.byte	0xd
 951 0658 7201     		.2byte	0x172
 952 065a CF050000 		.4byte	0x5cf
 953 065e 18       		.byte	0x18
 954 065f 0A       		.uleb128 0xa
 955 0660 72313100 		.ascii	"r11\000"
 956 0664 0D       		.byte	0xd
 957 0665 7301     		.2byte	0x173
 958 0667 CF050000 		.4byte	0x5cf
 959 066b 1C       		.byte	0x1c
 960 066c 0A       		.uleb128 0xa
 961 066d 6C7200   		.ascii	"lr\000"
 962 0670 0D       		.byte	0xd
 963 0671 7401     		.2byte	0x174
 964 0673 CF050000 		.4byte	0x5cf
 965 0677 20       		.byte	0x20
 966 0678 00       		.byte	0
 967 0679 0C       		.uleb128 0xc
 968 067a 04       		.byte	0x4
 969 067b FD050000 		.4byte	0x5fd
ARM GAS  /var/folders/vd/czx34qs52cd_f3nb04sxmghc0000gn/T//ccFSGepM.s 			page 18


 970 067f 15       		.uleb128 0x15
 971 0680 60       		.byte	0x60
 972 0681 0E       		.byte	0xe
 973 0682 F501     		.2byte	0x1f5
 974 0684 8B070000 		.4byte	0x78b
 975 0688 0A       		.uleb128 0xa
 976 0689 43523100 		.ascii	"CR1\000"
 977 068d 0E       		.byte	0xe
 978 068e F601     		.2byte	0x1f6
 979 0690 EF000000 		.4byte	0xef
 980 0694 00       		.byte	0
 981 0695 0A       		.uleb128 0xa
 982 0696 43523200 		.ascii	"CR2\000"
 983 069a 0E       		.byte	0xe
 984 069b F701     		.2byte	0x1f7
 985 069d EF000000 		.4byte	0xef
 986 06a1 04       		.byte	0x4
 987 06a2 0B       		.uleb128 0xb
 988 06a3 AE070000 		.4byte	.LASF90
 989 06a7 0E       		.byte	0xe
 990 06a8 F801     		.2byte	0x1f8
 991 06aa EF000000 		.4byte	0xef
 992 06ae 08       		.byte	0x8
 993 06af 0B       		.uleb128 0xb
 994 06b0 C4030000 		.4byte	.LASF91
 995 06b4 0E       		.byte	0xe
 996 06b5 F901     		.2byte	0x1f9
 997 06b7 EF000000 		.4byte	0xef
 998 06bb 0C       		.byte	0xc
 999 06bc 0A       		.uleb128 0xa
 1000 06bd 535200   		.ascii	"SR\000"
 1001 06c0 0E       		.byte	0xe
 1002 06c1 FA01     		.2byte	0x1fa
 1003 06c3 EF000000 		.4byte	0xef
 1004 06c7 10       		.byte	0x10
 1005 06c8 0A       		.uleb128 0xa
 1006 06c9 45475200 		.ascii	"EGR\000"
 1007 06cd 0E       		.byte	0xe
 1008 06ce FB01     		.2byte	0x1fb
 1009 06d0 EF000000 		.4byte	0xef
 1010 06d4 14       		.byte	0x14
 1011 06d5 0B       		.uleb128 0xb
 1012 06d6 90020000 		.4byte	.LASF92
 1013 06da 0E       		.byte	0xe
 1014 06db FC01     		.2byte	0x1fc
 1015 06dd EF000000 		.4byte	0xef
 1016 06e1 18       		.byte	0x18
 1017 06e2 0B       		.uleb128 0xb
 1018 06e3 96020000 		.4byte	.LASF93
 1019 06e7 0E       		.byte	0xe
 1020 06e8 FD01     		.2byte	0x1fd
 1021 06ea EF000000 		.4byte	0xef
 1022 06ee 1C       		.byte	0x1c
 1023 06ef 0B       		.uleb128 0xb
 1024 06f0 72070000 		.4byte	.LASF94
 1025 06f4 0E       		.byte	0xe
 1026 06f5 FE01     		.2byte	0x1fe
ARM GAS  /var/folders/vd/czx34qs52cd_f3nb04sxmghc0000gn/T//ccFSGepM.s 			page 19


 1027 06f7 EF000000 		.4byte	0xef
 1028 06fb 20       		.byte	0x20
 1029 06fc 0A       		.uleb128 0xa
 1030 06fd 434E5400 		.ascii	"CNT\000"
 1031 0701 0E       		.byte	0xe
 1032 0702 FF01     		.2byte	0x1ff
 1033 0704 EF000000 		.4byte	0xef
 1034 0708 24       		.byte	0x24
 1035 0709 0A       		.uleb128 0xa
 1036 070a 50534300 		.ascii	"PSC\000"
 1037 070e 0E       		.byte	0xe
 1038 070f 0002     		.2byte	0x200
 1039 0711 EF000000 		.4byte	0xef
 1040 0715 28       		.byte	0x28
 1041 0716 0A       		.uleb128 0xa
 1042 0717 41525200 		.ascii	"ARR\000"
 1043 071b 0E       		.byte	0xe
 1044 071c 0102     		.2byte	0x201
 1045 071e EF000000 		.4byte	0xef
 1046 0722 2C       		.byte	0x2c
 1047 0723 0A       		.uleb128 0xa
 1048 0724 52435200 		.ascii	"RCR\000"
 1049 0728 0E       		.byte	0xe
 1050 0729 0202     		.2byte	0x202
 1051 072b EF000000 		.4byte	0xef
 1052 072f 30       		.byte	0x30
 1053 0730 0A       		.uleb128 0xa
 1054 0731 43435200 		.ascii	"CCR\000"
 1055 0735 0E       		.byte	0xe
 1056 0736 0302     		.2byte	0x203
 1057 0738 5B050000 		.4byte	0x55b
 1058 073c 34       		.byte	0x34
 1059 073d 0B       		.uleb128 0xb
 1060 073e 31090000 		.4byte	.LASF95
 1061 0742 0E       		.byte	0xe
 1062 0743 0402     		.2byte	0x204
 1063 0745 EF000000 		.4byte	0xef
 1064 0749 44       		.byte	0x44
 1065 074a 0A       		.uleb128 0xa
 1066 074b 44435200 		.ascii	"DCR\000"
 1067 074f 0E       		.byte	0xe
 1068 0750 0502     		.2byte	0x205
 1069 0752 EF000000 		.4byte	0xef
 1070 0756 48       		.byte	0x48
 1071 0757 0B       		.uleb128 0xb
 1072 0758 05010000 		.4byte	.LASF96
 1073 075c 0E       		.byte	0xe
 1074 075d 0602     		.2byte	0x206
 1075 075f EF000000 		.4byte	0xef
 1076 0763 4C       		.byte	0x4c
 1077 0764 0A       		.uleb128 0xa
 1078 0765 4F5200   		.ascii	"OR\000"
 1079 0768 0E       		.byte	0xe
 1080 0769 0702     		.2byte	0x207
 1081 076b EF000000 		.4byte	0xef
 1082 076f 50       		.byte	0x50
 1083 0770 0B       		.uleb128 0xb
ARM GAS  /var/folders/vd/czx34qs52cd_f3nb04sxmghc0000gn/T//ccFSGepM.s 			page 20


 1084 0771 9C020000 		.4byte	.LASF97
 1085 0775 0E       		.byte	0xe
 1086 0776 0802     		.2byte	0x208
 1087 0778 EF000000 		.4byte	0xef
 1088 077c 54       		.byte	0x54
 1089 077d 0B       		.uleb128 0xb
 1090 077e 27030000 		.4byte	.LASF98
 1091 0782 0E       		.byte	0xe
 1092 0783 0902     		.2byte	0x209
 1093 0785 46050000 		.4byte	0x546
 1094 0789 58       		.byte	0x58
 1095 078a 00       		.byte	0
 1096 078b 16       		.uleb128 0x16
 1097 078c 71040000 		.4byte	.LASF99
 1098 0790 0E       		.byte	0xe
 1099 0791 0A02     		.2byte	0x20a
 1100 0793 7F060000 		.4byte	0x67f
 1101 0797 17       		.uleb128 0x17
 1102 0798 04       		.byte	0x4
 1103 0799 0F       		.byte	0xf
 1104 079a 38       		.byte	0x38
 1105 079b AC070000 		.4byte	0x7ac
 1106 079f 08       		.uleb128 0x8
 1107 07a0 67060000 		.4byte	.LASF100
 1108 07a4 0F       		.byte	0xf
 1109 07a5 3C       		.byte	0x3c
 1110 07a6 FF000000 		.4byte	0xff
 1111 07aa 00       		.byte	0
 1112 07ab 00       		.byte	0
 1113 07ac 03       		.uleb128 0x3
 1114 07ad 0F080000 		.4byte	.LASF101
 1115 07b1 0F       		.byte	0xf
 1116 07b2 3D       		.byte	0x3d
 1117 07b3 97070000 		.4byte	0x797
 1118 07b7 18       		.uleb128 0x18
 1119 07b8 04       		.byte	0x4
 1120 07b9 07       		.byte	0x7
 1121 07ba C6       		.byte	0xc6
 1122 07bb 19080000 		.4byte	0x819
 1123 07bf 19       		.uleb128 0x19
 1124 07c0 96090000 		.4byte	.LASF102
 1125 07c4 07       		.byte	0x7
 1126 07c5 CD       		.byte	0xcd
 1127 07c6 36010000 		.4byte	0x136
 1128 07ca 19       		.uleb128 0x19
 1129 07cb 4D010000 		.4byte	.LASF103
 1130 07cf 07       		.byte	0x7
 1131 07d0 D4       		.byte	0xd4
 1132 07d1 36010000 		.4byte	0x136
 1133 07d5 19       		.uleb128 0x19
 1134 07d6 C2020000 		.4byte	.LASF104
 1135 07da 07       		.byte	0x7
 1136 07db DB       		.byte	0xdb
 1137 07dc 3E030000 		.4byte	0x33e
 1138 07e0 19       		.uleb128 0x19
 1139 07e1 2B020000 		.4byte	.LASF105
 1140 07e5 07       		.byte	0x7
ARM GAS  /var/folders/vd/czx34qs52cd_f3nb04sxmghc0000gn/T//ccFSGepM.s 			page 21


 1141 07e6 E2       		.byte	0xe2
 1142 07e7 19080000 		.4byte	0x819
 1143 07eb 19       		.uleb128 0x19
 1144 07ec C9060000 		.4byte	.LASF106
 1145 07f0 07       		.byte	0x7
 1146 07f1 E7       		.byte	0xe7
 1147 07f2 36010000 		.4byte	0x136
 1148 07f6 19       		.uleb128 0x19
 1149 07f7 37000000 		.4byte	.LASF107
 1150 07fb 07       		.byte	0x7
 1151 07fc F0       		.byte	0xf0
 1152 07fd 44080000 		.4byte	0x844
 1153 0801 19       		.uleb128 0x19
 1154 0802 5A030000 		.4byte	.LASF108
 1155 0806 07       		.byte	0x7
 1156 0807 F9       		.byte	0xf9
 1157 0808 7B080000 		.4byte	0x87b
 1158 080c 1A       		.uleb128 0x1a
 1159 080d 10020000 		.4byte	.LASF109
 1160 0811 07       		.byte	0x7
 1161 0812 0101     		.2byte	0x101
 1162 0814 41010000 		.4byte	0x141
 1163 0818 00       		.byte	0
 1164 0819 0C       		.uleb128 0xc
 1165 081a 04       		.byte	0x4
 1166 081b 56020000 		.4byte	0x256
 1167 081f 07       		.uleb128 0x7
 1168 0820 D9030000 		.4byte	.LASF110
 1169 0824 0C       		.byte	0xc
 1170 0825 10       		.byte	0x10
 1171 0826 34       		.byte	0x34
 1172 0827 44080000 		.4byte	0x844
 1173 082b 08       		.uleb128 0x8
 1174 082c 82070000 		.4byte	.LASF32
 1175 0830 10       		.byte	0x10
 1176 0831 35       		.byte	0x35
 1177 0832 8B020000 		.4byte	0x28b
 1178 0836 00       		.byte	0
 1179 0837 09       		.uleb128 0x9
 1180 0838 636E7400 		.ascii	"cnt\000"
 1181 083c 10       		.byte	0x10
 1182 083d 37       		.byte	0x37
 1183 083e 57010000 		.4byte	0x157
 1184 0842 08       		.byte	0x8
 1185 0843 00       		.byte	0
 1186 0844 0C       		.uleb128 0xc
 1187 0845 04       		.byte	0x4
 1188 0846 1F080000 		.4byte	0x81f
 1189 084a 07       		.uleb128 0x7
 1190 084b 80080000 		.4byte	.LASF111
 1191 084f 10       		.byte	0x10
 1192 0850 11       		.byte	0x11
 1193 0851 39       		.byte	0x39
 1194 0852 7B080000 		.4byte	0x87b
 1195 0856 08       		.uleb128 0x8
 1196 0857 82070000 		.4byte	.LASF32
 1197 085b 11       		.byte	0x11
ARM GAS  /var/folders/vd/czx34qs52cd_f3nb04sxmghc0000gn/T//ccFSGepM.s 			page 22


 1198 085c 3A       		.byte	0x3a
 1199 085d 8B020000 		.4byte	0x28b
 1200 0861 00       		.byte	0
 1201 0862 08       		.uleb128 0x8
 1202 0863 54000000 		.4byte	.LASF112
 1203 0867 11       		.byte	0x11
 1204 0868 3C       		.byte	0x3c
 1205 0869 61020000 		.4byte	0x261
 1206 086d 08       		.byte	0x8
 1207 086e 08       		.uleb128 0x8
 1208 086f 1E0A0000 		.4byte	.LASF51
 1209 0873 11       		.byte	0x11
 1210 0874 3E       		.byte	0x3e
 1211 0875 DD090000 		.4byte	0x9dd
 1212 0879 0C       		.byte	0xc
 1213 087a 00       		.byte	0
 1214 087b 0C       		.uleb128 0xc
 1215 087c 04       		.byte	0x4
 1216 087d 4A080000 		.4byte	0x84a
 1217 0881 0C       		.uleb128 0xc
 1218 0882 04       		.byte	0x4
 1219 0883 93080000 		.4byte	0x893
 1220 0887 04       		.uleb128 0x4
 1221 0888 81080000 		.4byte	0x881
 1222 088c 05       		.uleb128 0x5
 1223 088d 01       		.byte	0x1
 1224 088e 08       		.byte	0x8
 1225 088f A2020000 		.4byte	.LASF113
 1226 0893 06       		.uleb128 0x6
 1227 0894 8C080000 		.4byte	0x88c
 1228 0898 0C       		.uleb128 0xc
 1229 0899 04       		.byte	0x4
 1230 089a DA050000 		.4byte	0x5da
 1231 089e 0C       		.uleb128 0xc
 1232 089f 04       		.byte	0x4
 1233 08a0 40030000 		.4byte	0x340
 1234 08a4 1B       		.uleb128 0x1b
 1235 08a5 636800   		.ascii	"ch\000"
 1236 08a8 07       		.byte	0x7
 1237 08a9 C701     		.2byte	0x1c7
 1238 08ab 0D040000 		.4byte	0x40d
 1239 08af 13       		.uleb128 0x13
 1240 08b0 DA050000 		.4byte	0x5da
 1241 08b4 BA080000 		.4byte	0x8ba
 1242 08b8 1C       		.uleb128 0x1c
 1243 08b9 00       		.byte	0
 1244 08ba 11       		.uleb128 0x11
 1245 08bb 06040000 		.4byte	.LASF114
 1246 08bf 12       		.byte	0x12
 1247 08c0 1701     		.2byte	0x117
 1248 08c2 AF080000 		.4byte	0x8af
 1249 08c6 17       		.uleb128 0x17
 1250 08c7 16       		.byte	0x16
 1251 08c8 13       		.byte	0x13
 1252 08c9 34       		.byte	0x34
 1253 08ca A7090000 		.4byte	0x9a7
 1254 08ce 08       		.uleb128 0x8
ARM GAS  /var/folders/vd/czx34qs52cd_f3nb04sxmghc0000gn/T//ccFSGepM.s 			page 23


 1255 08cf 340A0000 		.4byte	.LASF115
 1256 08d3 13       		.byte	0x13
 1257 08d4 35       		.byte	0x35
 1258 08d5 A7090000 		.4byte	0x9a7
 1259 08d9 00       		.byte	0
 1260 08da 08       		.uleb128 0x8
 1261 08db 9E010000 		.4byte	.LASF116
 1262 08df 13       		.byte	0x13
 1263 08e0 36       		.byte	0x36
 1264 08e1 B9000000 		.4byte	0xb9
 1265 08e5 04       		.byte	0x4
 1266 08e6 08       		.uleb128 0x8
 1267 08e7 17070000 		.4byte	.LASF117
 1268 08eb 13       		.byte	0x13
 1269 08ec 37       		.byte	0x37
 1270 08ed B9000000 		.4byte	0xb9
 1271 08f1 05       		.byte	0x5
 1272 08f2 08       		.uleb128 0x8
 1273 08f3 BA070000 		.4byte	.LASF118
 1274 08f7 13       		.byte	0x13
 1275 08f8 38       		.byte	0x38
 1276 08f9 C9000000 		.4byte	0xc9
 1277 08fd 06       		.byte	0x6
 1278 08fe 08       		.uleb128 0x8
 1279 08ff 1F030000 		.4byte	.LASF119
 1280 0903 13       		.byte	0x13
 1281 0904 39       		.byte	0x39
 1282 0905 B9000000 		.4byte	0xb9
 1283 0909 08       		.byte	0x8
 1284 090a 08       		.uleb128 0x8
 1285 090b DD090000 		.4byte	.LASF120
 1286 090f 13       		.byte	0x13
 1287 0910 3A       		.byte	0x3a
 1288 0911 B9000000 		.4byte	0xb9
 1289 0915 09       		.byte	0x9
 1290 0916 08       		.uleb128 0x8
 1291 0917 B9030000 		.4byte	.LASF121
 1292 091b 13       		.byte	0x13
 1293 091c 3B       		.byte	0x3b
 1294 091d B9000000 		.4byte	0xb9
 1295 0921 0A       		.byte	0xa
 1296 0922 08       		.uleb128 0x8
 1297 0923 27000000 		.4byte	.LASF122
 1298 0927 13       		.byte	0x13
 1299 0928 3C       		.byte	0x3c
 1300 0929 B9000000 		.4byte	0xb9
 1301 092d 0B       		.byte	0xb
 1302 092e 08       		.uleb128 0x8
 1303 092f 00000000 		.4byte	.LASF123
 1304 0933 13       		.byte	0x13
 1305 0934 3D       		.byte	0x3d
 1306 0935 B9000000 		.4byte	0xb9
 1307 0939 0C       		.byte	0xc
 1308 093a 08       		.uleb128 0x8
 1309 093b 15060000 		.4byte	.LASF124
 1310 093f 13       		.byte	0x13
 1311 0940 3E       		.byte	0x3e
ARM GAS  /var/folders/vd/czx34qs52cd_f3nb04sxmghc0000gn/T//ccFSGepM.s 			page 24


 1312 0941 B9000000 		.4byte	0xb9
 1313 0945 0D       		.byte	0xd
 1314 0946 08       		.uleb128 0x8
 1315 0947 1A010000 		.4byte	.LASF125
 1316 094b 13       		.byte	0x13
 1317 094c 3F       		.byte	0x3f
 1318 094d B9000000 		.4byte	0xb9
 1319 0951 0E       		.byte	0xe
 1320 0952 08       		.uleb128 0x8
 1321 0953 45070000 		.4byte	.LASF126
 1322 0957 13       		.byte	0x13
 1323 0958 40       		.byte	0x40
 1324 0959 B9000000 		.4byte	0xb9
 1325 095d 0F       		.byte	0xf
 1326 095e 08       		.uleb128 0x8
 1327 095f 8A040000 		.4byte	.LASF127
 1328 0963 13       		.byte	0x13
 1329 0964 41       		.byte	0x41
 1330 0965 B9000000 		.4byte	0xb9
 1331 0969 10       		.byte	0x10
 1332 096a 08       		.uleb128 0x8
 1333 096b 9D030000 		.4byte	.LASF128
 1334 096f 13       		.byte	0x13
 1335 0970 42       		.byte	0x42
 1336 0971 B9000000 		.4byte	0xb9
 1337 0975 11       		.byte	0x11
 1338 0976 08       		.uleb128 0x8
 1339 0977 0D0A0000 		.4byte	.LASF129
 1340 097b 13       		.byte	0x13
 1341 097c 43       		.byte	0x43
 1342 097d B9000000 		.4byte	0xb9
 1343 0981 12       		.byte	0x12
 1344 0982 08       		.uleb128 0x8
 1345 0983 D4020000 		.4byte	.LASF130
 1346 0987 13       		.byte	0x13
 1347 0988 44       		.byte	0x44
 1348 0989 B9000000 		.4byte	0xb9
 1349 098d 13       		.byte	0x13
 1350 098e 08       		.uleb128 0x8
 1351 098f 48000000 		.4byte	.LASF131
 1352 0993 13       		.byte	0x13
 1353 0994 45       		.byte	0x45
 1354 0995 B9000000 		.4byte	0xb9
 1355 0999 14       		.byte	0x14
 1356 099a 08       		.uleb128 0x8
 1357 099b 2C030000 		.4byte	.LASF132
 1358 099f 13       		.byte	0x13
 1359 09a0 46       		.byte	0x46
 1360 09a1 B9000000 		.4byte	0xb9
 1361 09a5 15       		.byte	0x15
 1362 09a6 00       		.byte	0
 1363 09a7 13       		.uleb128 0x13
 1364 09a8 8C080000 		.4byte	0x88c
 1365 09ac B7090000 		.4byte	0x9b7
 1366 09b0 14       		.uleb128 0x14
 1367 09b1 3C000000 		.4byte	0x3c
 1368 09b5 03       		.byte	0x3
ARM GAS  /var/folders/vd/czx34qs52cd_f3nb04sxmghc0000gn/T//ccFSGepM.s 			page 25


 1369 09b6 00       		.byte	0
 1370 09b7 03       		.uleb128 0x3
 1371 09b8 C4090000 		.4byte	.LASF133
 1372 09bc 13       		.byte	0x13
 1373 09bd 47       		.byte	0x47
 1374 09be C6080000 		.4byte	0x8c6
 1375 09c2 06       		.uleb128 0x6
 1376 09c3 B7090000 		.4byte	0x9b7
 1377 09c7 12       		.uleb128 0x12
 1378 09c8 62000000 		.4byte	.LASF134
 1379 09cc 13       		.byte	0x13
 1380 09cd 6C       		.byte	0x6c
 1381 09ce C2090000 		.4byte	0x9c2
 1382 09d2 03       		.uleb128 0x3
 1383 09d3 E4080000 		.4byte	.LASF135
 1384 09d7 11       		.byte	0x11
 1385 09d8 34       		.byte	0x34
 1386 09d9 4A080000 		.4byte	0x84a
 1387 09dd 0C       		.uleb128 0xc
 1388 09de 04       		.byte	0x4
 1389 09df D2090000 		.4byte	0x9d2
 1390 09e3 03       		.uleb128 0x3
 1391 09e4 0E030000 		.4byte	.LASF136
 1392 09e8 14       		.byte	0x14
 1393 09e9 34       		.byte	0x34
 1394 09ea EE090000 		.4byte	0x9ee
 1395 09ee 07       		.uleb128 0x7
 1396 09ef 87090000 		.4byte	.LASF137
 1397 09f3 14       		.byte	0x14
 1398 09f4 14       		.byte	0x14
 1399 09f5 39       		.byte	0x39
 1400 09f6 370A0000 		.4byte	0xa37
 1401 09fa 08       		.uleb128 0x8
 1402 09fb 1E0A0000 		.4byte	.LASF51
 1403 09ff 14       		.byte	0x14
 1404 0a00 3A       		.byte	0x3a
 1405 0a01 370A0000 		.4byte	0xa37
 1406 0a05 00       		.byte	0
 1407 0a06 08       		.uleb128 0x8
 1408 0a07 35080000 		.4byte	.LASF138
 1409 0a0b 14       		.byte	0x14
 1410 0a0c 3D       		.byte	0x3d
 1411 0a0d 61020000 		.4byte	0x261
 1412 0a11 04       		.byte	0x4
 1413 0a12 08       		.uleb128 0x8
 1414 0a13 170A0000 		.4byte	.LASF139
 1415 0a17 14       		.byte	0x14
 1416 0a18 3F       		.byte	0x3f
 1417 0a19 41010000 		.4byte	0x141
 1418 0a1d 08       		.byte	0x8
 1419 0a1e 08       		.uleb128 0x8
 1420 0a1f DD020000 		.4byte	.LASF39
 1421 0a23 14       		.byte	0x14
 1422 0a24 41       		.byte	0x41
 1423 0a25 4C010000 		.4byte	0x14c
 1424 0a29 0C       		.byte	0xc
 1425 0a2a 08       		.uleb128 0x8
ARM GAS  /var/folders/vd/czx34qs52cd_f3nb04sxmghc0000gn/T//ccFSGepM.s 			page 26


 1426 0a2b AF060000 		.4byte	.LASF140
 1427 0a2f 14       		.byte	0x14
 1428 0a30 43       		.byte	0x43
 1429 0a31 4C010000 		.4byte	0x14c
 1430 0a35 10       		.byte	0x10
 1431 0a36 00       		.byte	0
 1432 0a37 0C       		.uleb128 0xc
 1433 0a38 04       		.byte	0x4
 1434 0a39 E3090000 		.4byte	0x9e3
 1435 0a3d 07       		.uleb128 0x7
 1436 0a3e 60080000 		.4byte	.LASF141
 1437 0a42 04       		.byte	0x4
 1438 0a43 14       		.byte	0x14
 1439 0a44 4A       		.byte	0x4a
 1440 0a45 560A0000 		.4byte	0xa56
 1441 0a49 08       		.uleb128 0x8
 1442 0a4a 1E0A0000 		.4byte	.LASF51
 1443 0a4e 14       		.byte	0x14
 1444 0a4f 4B       		.byte	0x4b
 1445 0a50 370A0000 		.4byte	0xa37
 1446 0a54 00       		.byte	0
 1447 0a55 00       		.byte	0
 1448 0a56 03       		.uleb128 0x3
 1449 0a57 D4050000 		.4byte	.LASF142
 1450 0a5b 14       		.byte	0x14
 1451 0a5c 4E       		.byte	0x4e
 1452 0a5d 3D0A0000 		.4byte	0xa3d
 1453 0a61 05       		.uleb128 0x5
 1454 0a62 01       		.byte	0x1
 1455 0a63 02       		.byte	0x2
 1456 0a64 8A020000 		.4byte	.LASF143
 1457 0a68 03       		.uleb128 0x3
 1458 0a69 81060000 		.4byte	.LASF144
 1459 0a6d 15       		.byte	0x15
 1460 0a6e 4B       		.byte	0x4b
 1461 0a6f 730A0000 		.4byte	0xa73
 1462 0a73 0C       		.uleb128 0xc
 1463 0a74 04       		.byte	0x4
 1464 0a75 790A0000 		.4byte	0xa79
 1465 0a79 1D       		.uleb128 0x1d
 1466 0a7a 3E030000 		.4byte	0x33e
 1467 0a7e 8D0A0000 		.4byte	0xa8d
 1468 0a82 0F       		.uleb128 0xf
 1469 0a83 2C000000 		.4byte	0x2c
 1470 0a87 0F       		.uleb128 0xf
 1471 0a88 3C000000 		.4byte	0x3c
 1472 0a8c 00       		.byte	0
 1473 0a8d 17       		.uleb128 0x17
 1474 0a8e 08       		.byte	0x8
 1475 0a8f 15       		.byte	0x15
 1476 0a90 55       		.byte	0x55
 1477 0a91 AE0A0000 		.4byte	0xaae
 1478 0a95 08       		.uleb128 0x8
 1479 0a96 78030000 		.4byte	.LASF145
 1480 0a9a 15       		.byte	0x15
 1481 0a9b 59       		.byte	0x59
 1482 0a9c AE0A0000 		.4byte	0xaae
ARM GAS  /var/folders/vd/czx34qs52cd_f3nb04sxmghc0000gn/T//ccFSGepM.s 			page 27


 1483 0aa0 00       		.byte	0
 1484 0aa1 08       		.uleb128 0x8
 1485 0aa2 30000000 		.4byte	.LASF146
 1486 0aa6 15       		.byte	0x15
 1487 0aa7 5D       		.byte	0x5d
 1488 0aa8 AE0A0000 		.4byte	0xaae
 1489 0aac 04       		.byte	0x4
 1490 0aad 00       		.byte	0
 1491 0aae 0C       		.uleb128 0xc
 1492 0aaf 04       		.byte	0x4
 1493 0ab0 B9000000 		.4byte	0xb9
 1494 0ab4 03       		.uleb128 0x3
 1495 0ab5 F1010000 		.4byte	.LASF147
 1496 0ab9 15       		.byte	0x15
 1497 0aba 5E       		.byte	0x5e
 1498 0abb 8D0A0000 		.4byte	0xa8d
 1499 0abf 12       		.uleb128 0x12
 1500 0ac0 020A0000 		.4byte	.LASF148
 1501 0ac4 15       		.byte	0x15
 1502 0ac5 69       		.byte	0x69
 1503 0ac6 B40A0000 		.4byte	0xab4
 1504 0aca 07       		.uleb128 0x7
 1505 0acb 97040000 		.4byte	.LASF149
 1506 0acf 04       		.byte	0x4
 1507 0ad0 16       		.byte	0x16
 1508 0ad1 3C       		.byte	0x3c
 1509 0ad2 E30A0000 		.4byte	0xae3
 1510 0ad6 08       		.uleb128 0x8
 1511 0ad7 1E0A0000 		.4byte	.LASF51
 1512 0adb 16       		.byte	0x16
 1513 0adc 3D       		.byte	0x3d
 1514 0add E30A0000 		.4byte	0xae3
 1515 0ae1 00       		.byte	0
 1516 0ae2 00       		.byte	0
 1517 0ae3 0C       		.uleb128 0xc
 1518 0ae4 04       		.byte	0x4
 1519 0ae5 CA0A0000 		.4byte	0xaca
 1520 0ae9 17       		.uleb128 0x17
 1521 0aea 10       		.byte	0x10
 1522 0aeb 16       		.byte	0x16
 1523 0aec 44       		.byte	0x44
 1524 0aed 220B0000 		.4byte	0xb22
 1525 0af1 08       		.uleb128 0x8
 1526 0af2 1E0A0000 		.4byte	.LASF51
 1527 0af6 16       		.byte	0x16
 1528 0af7 45       		.byte	0x45
 1529 0af8 E30A0000 		.4byte	0xae3
 1530 0afc 00       		.byte	0
 1531 0afd 08       		.uleb128 0x8
 1532 0afe BF080000 		.4byte	.LASF150
 1533 0b02 16       		.byte	0x16
 1534 0b03 46       		.byte	0x46
 1535 0b04 2C000000 		.4byte	0x2c
 1536 0b08 04       		.byte	0x4
 1537 0b09 08       		.uleb128 0x8
 1538 0b0a E3050000 		.4byte	.LASF151
 1539 0b0e 16       		.byte	0x16
ARM GAS  /var/folders/vd/czx34qs52cd_f3nb04sxmghc0000gn/T//ccFSGepM.s 			page 28


 1540 0b0f 48       		.byte	0x48
 1541 0b10 3C000000 		.4byte	0x3c
 1542 0b14 08       		.byte	0x8
 1543 0b15 08       		.uleb128 0x8
 1544 0b16 6B000000 		.4byte	.LASF152
 1545 0b1a 16       		.byte	0x16
 1546 0b1b 49       		.byte	0x49
 1547 0b1c 680A0000 		.4byte	0xa68
 1548 0b20 0C       		.byte	0xc
 1549 0b21 00       		.byte	0
 1550 0b22 03       		.uleb128 0x3
 1551 0b23 D6070000 		.4byte	.LASF153
 1552 0b27 16       		.byte	0x16
 1553 0b28 4B       		.byte	0x4b
 1554 0b29 E90A0000 		.4byte	0xae9
 1555 0b2d 07       		.uleb128 0x7
 1556 0b2e BE000000 		.4byte	.LASF154
 1557 0b32 10       		.byte	0x10
 1558 0b33 17       		.byte	0x17
 1559 0b34 97       		.byte	0x97
 1560 0b35 5E0B0000 		.4byte	0xb5e
 1561 0b39 08       		.uleb128 0x8
 1562 0b3a 1E0A0000 		.4byte	.LASF51
 1563 0b3e 17       		.byte	0x17
 1564 0b3f 9B       		.byte	0x9b
 1565 0b40 5E0B0000 		.4byte	0xb5e
 1566 0b44 00       		.byte	0
 1567 0b45 08       		.uleb128 0x8
 1568 0b46 7D070000 		.4byte	.LASF40
 1569 0b4a 17       		.byte	0x17
 1570 0b4b 9F       		.byte	0x9f
 1571 0b4c 62010000 		.4byte	0x162
 1572 0b50 04       		.byte	0x4
 1573 0b51 08       		.uleb128 0x8
 1574 0b52 30080000 		.4byte	.LASF36
 1575 0b56 17       		.byte	0x17
 1576 0b57 A1       		.byte	0xa1
 1577 0b58 640B0000 		.4byte	0xb64
 1578 0b5c 08       		.byte	0x8
 1579 0b5d 00       		.byte	0
 1580 0b5e 0C       		.uleb128 0xc
 1581 0b5f 04       		.byte	0x4
 1582 0b60 2D0B0000 		.4byte	0xb2d
 1583 0b64 13       		.uleb128 0x13
 1584 0b65 8C080000 		.4byte	0x88c
 1585 0b69 740B0000 		.4byte	0xb74
 1586 0b6d 14       		.uleb128 0x14
 1587 0b6e 3C000000 		.4byte	0x3c
 1588 0b72 07       		.byte	0x7
 1589 0b73 00       		.byte	0
 1590 0b74 03       		.uleb128 0x3
 1591 0b75 4C030000 		.4byte	.LASF155
 1592 0b79 17       		.byte	0x17
 1593 0b7a A5       		.byte	0xa5
 1594 0b7b 2D0B0000 		.4byte	0xb2d
 1595 0b7f 07       		.uleb128 0x7
 1596 0b80 280A0000 		.4byte	.LASF156
ARM GAS  /var/folders/vd/czx34qs52cd_f3nb04sxmghc0000gn/T//ccFSGepM.s 			page 29


 1597 0b84 04       		.byte	0x4
 1598 0b85 17       		.byte	0x17
 1599 0b86 AA       		.byte	0xaa
 1600 0b87 980B0000 		.4byte	0xb98
 1601 0b8b 08       		.uleb128 0x8
 1602 0b8c 1E0A0000 		.4byte	.LASF51
 1603 0b90 17       		.byte	0x17
 1604 0b91 AB       		.byte	0xab
 1605 0b92 980B0000 		.4byte	0xb98
 1606 0b96 00       		.byte	0
 1607 0b97 00       		.byte	0
 1608 0b98 0C       		.uleb128 0xc
 1609 0b99 04       		.byte	0x4
 1610 0b9a 740B0000 		.4byte	0xb74
 1611 0b9e 03       		.uleb128 0x3
 1612 0b9f A9080000 		.4byte	.LASF157
 1613 0ba3 17       		.byte	0x17
 1614 0ba4 AC       		.byte	0xac
 1615 0ba5 7F0B0000 		.4byte	0xb7f
 1616 0ba9 0D       		.uleb128 0xd
 1617 0baa BC050000 		.4byte	.LASF158
 1618 0bae 44       		.byte	0x44
 1619 0baf 17       		.byte	0x17
 1620 0bb0 1501     		.2byte	0x115
 1621 0bb2 1F0C0000 		.4byte	0xc1f
 1622 0bb6 0A       		.uleb128 0xa
 1623 0bb7 6D747800 		.ascii	"mtx\000"
 1624 0bbb 17       		.byte	0x17
 1625 0bbc 1A01     		.2byte	0x11a
 1626 0bbe D2090000 		.4byte	0x9d2
 1627 0bc2 00       		.byte	0
 1628 0bc3 0B       		.uleb128 0xb
 1629 0bc4 FC000000 		.4byte	.LASF159
 1630 0bc8 17       		.byte	0x17
 1631 0bc9 2101     		.2byte	0x121
 1632 0bcb 9E0B0000 		.4byte	0xb9e
 1633 0bcf 10       		.byte	0x10
 1634 0bd0 0B       		.uleb128 0xb
 1635 0bd1 E2010000 		.4byte	.LASF160
 1636 0bd5 17       		.byte	0x17
 1637 0bd6 2501     		.2byte	0x125
 1638 0bd8 220B0000 		.4byte	0xb22
 1639 0bdc 14       		.byte	0x14
 1640 0bdd 0B       		.uleb128 0xb
 1641 0bde EF060000 		.4byte	.LASF161
 1642 0be2 17       		.byte	0x17
 1643 0be3 2A01     		.2byte	0x12a
 1644 0be5 9E0B0000 		.4byte	0xb9e
 1645 0be9 24       		.byte	0x24
 1646 0bea 0B       		.uleb128 0xb
 1647 0beb AE020000 		.4byte	.LASF162
 1648 0bef 17       		.byte	0x17
 1649 0bf0 3001     		.2byte	0x130
 1650 0bf2 9E0B0000 		.4byte	0xb9e
 1651 0bf6 28       		.byte	0x28
 1652 0bf7 0B       		.uleb128 0xb
 1653 0bf8 6F030000 		.4byte	.LASF163
ARM GAS  /var/folders/vd/czx34qs52cd_f3nb04sxmghc0000gn/T//ccFSGepM.s 			page 30


 1654 0bfc 17       		.byte	0x17
 1655 0bfd 3401     		.2byte	0x134
 1656 0bff 220B0000 		.4byte	0xb22
 1657 0c03 2C       		.byte	0x2c
 1658 0c04 0B       		.uleb128 0xb
 1659 0c05 9A070000 		.4byte	.LASF164
 1660 0c09 17       		.byte	0x17
 1661 0c0a 3A01     		.2byte	0x13a
 1662 0c0c 9E0B0000 		.4byte	0xb9e
 1663 0c10 3C       		.byte	0x3c
 1664 0c11 0B       		.uleb128 0xb
 1665 0c12 2B040000 		.4byte	.LASF165
 1666 0c16 17       		.byte	0x17
 1667 0c17 4001     		.2byte	0x140
 1668 0c19 9E0B0000 		.4byte	0xb9e
 1669 0c1d 40       		.byte	0x40
 1670 0c1e 00       		.byte	0
 1671 0c1f 16       		.uleb128 0x16
 1672 0c20 DD060000 		.4byte	.LASF166
 1673 0c24 17       		.byte	0x17
 1674 0c25 4201     		.2byte	0x142
 1675 0c27 A90B0000 		.4byte	0xba9
 1676 0c2b 11       		.uleb128 0x11
 1677 0c2c 8F070000 		.4byte	.LASF167
 1678 0c30 17       		.byte	0x17
 1679 0c31 4D01     		.2byte	0x14d
 1680 0c33 1F0C0000 		.4byte	0xc1f
 1681 0c37 15       		.uleb128 0x15
 1682 0c38 0C       		.byte	0xc
 1683 0c39 18       		.byte	0x18
 1684 0c3a 6A01     		.2byte	0x16a
 1685 0c3c 820C0000 		.4byte	0xc82
 1686 0c40 0B       		.uleb128 0xb
 1687 0c41 07030000 		.4byte	.LASF168
 1688 0c45 18       		.byte	0x18
 1689 0c46 6B01     		.2byte	0x16b
 1690 0c48 820C0000 		.4byte	0xc82
 1691 0c4c 00       		.byte	0
 1692 0c4d 0B       		.uleb128 0xb
 1693 0c4e FD090000 		.4byte	.LASF169
 1694 0c52 18       		.byte	0x18
 1695 0c53 6C01     		.2byte	0x16c
 1696 0c55 880C0000 		.4byte	0xc88
 1697 0c59 04       		.byte	0x4
 1698 0c5a 0B       		.uleb128 0xb
 1699 0c5b A7020000 		.4byte	.LASF170
 1700 0c5f 18       		.byte	0x18
 1701 0c60 6D01     		.2byte	0x16d
 1702 0c62 B9000000 		.4byte	0xb9
 1703 0c66 08       		.byte	0x8
 1704 0c67 0B       		.uleb128 0xb
 1705 0c68 1F060000 		.4byte	.LASF171
 1706 0c6c 18       		.byte	0x18
 1707 0c6d 6F01     		.2byte	0x16f
 1708 0c6f B9000000 		.4byte	0xb9
 1709 0c73 09       		.byte	0x9
 1710 0c74 0B       		.uleb128 0xb
ARM GAS  /var/folders/vd/czx34qs52cd_f3nb04sxmghc0000gn/T//ccFSGepM.s 			page 31


 1711 0c75 88070000 		.4byte	.LASF172
 1712 0c79 18       		.byte	0x18
 1713 0c7a 7001     		.2byte	0x170
 1714 0c7c B9000000 		.4byte	0xb9
 1715 0c80 0A       		.byte	0xa
 1716 0c81 00       		.byte	0
 1717 0c82 0C       		.uleb128 0xc
 1718 0c83 04       		.byte	0x4
 1719 0c84 2A050000 		.4byte	0x52a
 1720 0c88 0C       		.uleb128 0xc
 1721 0c89 04       		.byte	0x4
 1722 0c8a EF000000 		.4byte	0xef
 1723 0c8e 16       		.uleb128 0x16
 1724 0c8f 0D000000 		.4byte	.LASF173
 1725 0c93 18       		.byte	0x18
 1726 0c94 7101     		.2byte	0x171
 1727 0c96 370C0000 		.4byte	0xc37
 1728 0c9a 06       		.uleb128 0x6
 1729 0c9b 8E0C0000 		.4byte	0xc8e
 1730 0c9f 13       		.uleb128 0x13
 1731 0ca0 9A0C0000 		.4byte	0xc9a
 1732 0ca4 AF0C0000 		.4byte	0xcaf
 1733 0ca8 14       		.uleb128 0x14
 1734 0ca9 3C000000 		.4byte	0x3c
 1735 0cad 0F       		.byte	0xf
 1736 0cae 00       		.byte	0
 1737 0caf 06       		.uleb128 0x6
 1738 0cb0 9F0C0000 		.4byte	0xc9f
 1739 0cb4 11       		.uleb128 0x11
 1740 0cb5 18040000 		.4byte	.LASF174
 1741 0cb9 18       		.byte	0x18
 1742 0cba 5C02     		.2byte	0x25c
 1743 0cbc AF0C0000 		.4byte	0xcaf
 1744 0cc0 1D       		.uleb128 0x1d
 1745 0cc1 2C000000 		.4byte	0x2c
 1746 0cc5 D90C0000 		.4byte	0xcd9
 1747 0cc9 0F       		.uleb128 0xf
 1748 0cca 3E030000 		.4byte	0x33e
 1749 0cce 0F       		.uleb128 0xf
 1750 0ccf D90C0000 		.4byte	0xcd9
 1751 0cd3 0F       		.uleb128 0xf
 1752 0cd4 2C000000 		.4byte	0x2c
 1753 0cd8 00       		.byte	0
 1754 0cd9 0C       		.uleb128 0xc
 1755 0cda 04       		.byte	0x4
 1756 0cdb C4000000 		.4byte	0xc4
 1757 0cdf 0C       		.uleb128 0xc
 1758 0ce0 04       		.byte	0x4
 1759 0ce1 C00C0000 		.4byte	0xcc0
 1760 0ce5 1D       		.uleb128 0x1d
 1761 0ce6 2C000000 		.4byte	0x2c
 1762 0cea FE0C0000 		.4byte	0xcfe
 1763 0cee 0F       		.uleb128 0xf
 1764 0cef 3E030000 		.4byte	0x33e
 1765 0cf3 0F       		.uleb128 0xf
 1766 0cf4 AE0A0000 		.4byte	0xaae
 1767 0cf8 0F       		.uleb128 0xf
ARM GAS  /var/folders/vd/czx34qs52cd_f3nb04sxmghc0000gn/T//ccFSGepM.s 			page 32


 1768 0cf9 2C000000 		.4byte	0x2c
 1769 0cfd 00       		.byte	0
 1770 0cfe 0C       		.uleb128 0xc
 1771 0cff 04       		.byte	0x4
 1772 0d00 E50C0000 		.4byte	0xce5
 1773 0d04 1D       		.uleb128 0x1d
 1774 0d05 36010000 		.4byte	0x136
 1775 0d09 180D0000 		.4byte	0xd18
 1776 0d0d 0F       		.uleb128 0xf
 1777 0d0e 3E030000 		.4byte	0x33e
 1778 0d12 0F       		.uleb128 0xf
 1779 0d13 B9000000 		.4byte	0xb9
 1780 0d17 00       		.byte	0
 1781 0d18 0C       		.uleb128 0xc
 1782 0d19 04       		.byte	0x4
 1783 0d1a 040D0000 		.4byte	0xd04
 1784 0d1e 1D       		.uleb128 0x1d
 1785 0d1f 36010000 		.4byte	0x136
 1786 0d23 2D0D0000 		.4byte	0xd2d
 1787 0d27 0F       		.uleb128 0xf
 1788 0d28 3E030000 		.4byte	0x33e
 1789 0d2c 00       		.byte	0
 1790 0d2d 0C       		.uleb128 0xc
 1791 0d2e 04       		.byte	0x4
 1792 0d2f 1E0D0000 		.4byte	0xd1e
 1793 0d33 1D       		.uleb128 0x1d
 1794 0d34 36010000 		.4byte	0x136
 1795 0d38 4C0D0000 		.4byte	0xd4c
 1796 0d3c 0F       		.uleb128 0xf
 1797 0d3d 3E030000 		.4byte	0x33e
 1798 0d41 0F       		.uleb128 0xf
 1799 0d42 B9000000 		.4byte	0xb9
 1800 0d46 0F       		.uleb128 0xf
 1801 0d47 71040000 		.4byte	0x471
 1802 0d4b 00       		.byte	0
 1803 0d4c 0C       		.uleb128 0xc
 1804 0d4d 04       		.byte	0x4
 1805 0d4e 330D0000 		.4byte	0xd33
 1806 0d52 1D       		.uleb128 0x1d
 1807 0d53 36010000 		.4byte	0x136
 1808 0d57 660D0000 		.4byte	0xd66
 1809 0d5b 0F       		.uleb128 0xf
 1810 0d5c 3E030000 		.4byte	0x33e
 1811 0d60 0F       		.uleb128 0xf
 1812 0d61 71040000 		.4byte	0x471
 1813 0d65 00       		.byte	0
 1814 0d66 0C       		.uleb128 0xc
 1815 0d67 04       		.byte	0x4
 1816 0d68 520D0000 		.4byte	0xd52
 1817 0d6c 1D       		.uleb128 0x1d
 1818 0d6d 2C000000 		.4byte	0x2c
 1819 0d71 8A0D0000 		.4byte	0xd8a
 1820 0d75 0F       		.uleb128 0xf
 1821 0d76 3E030000 		.4byte	0x33e
 1822 0d7a 0F       		.uleb128 0xf
 1823 0d7b D90C0000 		.4byte	0xcd9
 1824 0d7f 0F       		.uleb128 0xf
ARM GAS  /var/folders/vd/czx34qs52cd_f3nb04sxmghc0000gn/T//ccFSGepM.s 			page 33


 1825 0d80 2C000000 		.4byte	0x2c
 1826 0d84 0F       		.uleb128 0xf
 1827 0d85 71040000 		.4byte	0x471
 1828 0d89 00       		.byte	0
 1829 0d8a 0C       		.uleb128 0xc
 1830 0d8b 04       		.byte	0x4
 1831 0d8c 6C0D0000 		.4byte	0xd6c
 1832 0d90 1D       		.uleb128 0x1d
 1833 0d91 2C000000 		.4byte	0x2c
 1834 0d95 AE0D0000 		.4byte	0xdae
 1835 0d99 0F       		.uleb128 0xf
 1836 0d9a 3E030000 		.4byte	0x33e
 1837 0d9e 0F       		.uleb128 0xf
 1838 0d9f AE0A0000 		.4byte	0xaae
 1839 0da3 0F       		.uleb128 0xf
 1840 0da4 2C000000 		.4byte	0x2c
 1841 0da8 0F       		.uleb128 0xf
 1842 0da9 71040000 		.4byte	0x471
 1843 0dad 00       		.byte	0
 1844 0dae 0C       		.uleb128 0xc
 1845 0daf 04       		.byte	0x4
 1846 0db0 900D0000 		.4byte	0xd90
 1847 0db4 1D       		.uleb128 0x1d
 1848 0db5 36010000 		.4byte	0x136
 1849 0db9 CD0D0000 		.4byte	0xdcd
 1850 0dbd 0F       		.uleb128 0xf
 1851 0dbe 3E030000 		.4byte	0x33e
 1852 0dc2 0F       		.uleb128 0xf
 1853 0dc3 3C000000 		.4byte	0x3c
 1854 0dc7 0F       		.uleb128 0xf
 1855 0dc8 3E030000 		.4byte	0x33e
 1856 0dcc 00       		.byte	0
 1857 0dcd 0C       		.uleb128 0xc
 1858 0dce 04       		.byte	0x4
 1859 0dcf B40D0000 		.4byte	0xdb4
 1860 0dd3 03       		.uleb128 0x3
 1861 0dd4 B4080000 		.4byte	.LASF175
 1862 0dd8 19       		.byte	0x19
 1863 0dd9 3A       		.byte	0x3a
 1864 0dda DE0D0000 		.4byte	0xdde
 1865 0dde 07       		.uleb128 0x7
 1866 0ddf FB010000 		.4byte	.LASF176
 1867 0de3 24       		.byte	0x24
 1868 0de4 19       		.byte	0x19
 1869 0de5 4B       		.byte	0x4b
 1870 0de6 4B0E0000 		.4byte	0xe4b
 1871 0dea 08       		.uleb128 0x8
 1872 0deb E4070000 		.4byte	.LASF177
 1873 0def 19       		.byte	0x19
 1874 0df0 4C       		.byte	0x4c
 1875 0df1 8B020000 		.4byte	0x28b
 1876 0df5 00       		.byte	0
 1877 0df6 08       		.uleb128 0x8
 1878 0df7 80030000 		.4byte	.LASF178
 1879 0dfb 19       		.byte	0x19
 1880 0dfc 4D       		.byte	0x4d
 1881 0dfd 37000000 		.4byte	0x37
ARM GAS  /var/folders/vd/czx34qs52cd_f3nb04sxmghc0000gn/T//ccFSGepM.s 			page 34


 1882 0e01 08       		.byte	0x8
 1883 0e02 08       		.uleb128 0x8
 1884 0e03 72010000 		.4byte	.LASF179
 1885 0e07 19       		.byte	0x19
 1886 0e08 4E       		.byte	0x4e
 1887 0e09 AE0A0000 		.4byte	0xaae
 1888 0e0d 0C       		.byte	0xc
 1889 0e0e 08       		.uleb128 0x8
 1890 0e0f 60010000 		.4byte	.LASF180
 1891 0e13 19       		.byte	0x19
 1892 0e14 4F       		.byte	0x4f
 1893 0e15 AE0A0000 		.4byte	0xaae
 1894 0e19 10       		.byte	0x10
 1895 0e1a 08       		.uleb128 0x8
 1896 0e1b 9D090000 		.4byte	.LASF181
 1897 0e1f 19       		.byte	0x19
 1898 0e20 51       		.byte	0x51
 1899 0e21 AE0A0000 		.4byte	0xaae
 1900 0e25 14       		.byte	0x14
 1901 0e26 08       		.uleb128 0x8
 1902 0e27 96010000 		.4byte	.LASF182
 1903 0e2b 19       		.byte	0x19
 1904 0e2c 52       		.byte	0x52
 1905 0e2d AE0A0000 		.4byte	0xaae
 1906 0e31 18       		.byte	0x18
 1907 0e32 08       		.uleb128 0x8
 1908 0e33 7B010000 		.4byte	.LASF183
 1909 0e37 19       		.byte	0x19
 1910 0e38 53       		.byte	0x53
 1911 0e39 4B0E0000 		.4byte	0xe4b
 1912 0e3d 1C       		.byte	0x1c
 1913 0e3e 08       		.uleb128 0x8
 1914 0e3f 48020000 		.4byte	.LASF184
 1915 0e43 19       		.byte	0x19
 1916 0e44 54       		.byte	0x54
 1917 0e45 3E030000 		.4byte	0x33e
 1918 0e49 20       		.byte	0x20
 1919 0e4a 00       		.byte	0
 1920 0e4b 03       		.uleb128 0x3
 1921 0e4c 00060000 		.4byte	.LASF185
 1922 0e50 19       		.byte	0x19
 1923 0e51 41       		.byte	0x41
 1924 0e52 560E0000 		.4byte	0xe56
 1925 0e56 0C       		.uleb128 0xc
 1926 0e57 04       		.byte	0x4
 1927 0e58 5C0E0000 		.4byte	0xe5c
 1928 0e5c 0E       		.uleb128 0xe
 1929 0e5d 670E0000 		.4byte	0xe67
 1930 0e61 0F       		.uleb128 0xf
 1931 0e62 670E0000 		.4byte	0xe67
 1932 0e66 00       		.byte	0
 1933 0e67 0C       		.uleb128 0xc
 1934 0e68 04       		.byte	0x4
 1935 0e69 D30D0000 		.4byte	0xdd3
 1936 0e6d 03       		.uleb128 0x3
 1937 0e6e 79090000 		.4byte	.LASF186
 1938 0e72 19       		.byte	0x19
ARM GAS  /var/folders/vd/czx34qs52cd_f3nb04sxmghc0000gn/T//ccFSGepM.s 			page 35


 1939 0e73 61       		.byte	0x61
 1940 0e74 D30D0000 		.4byte	0xdd3
 1941 0e78 03       		.uleb128 0x3
 1942 0e79 CE090000 		.4byte	.LASF187
 1943 0e7d 19       		.byte	0x19
 1944 0e7e 6D       		.byte	0x6d
 1945 0e7f D30D0000 		.4byte	0xdd3
 1946 0e83 1E       		.uleb128 0x1e
 1947 0e84 00       		.byte	0
 1948 0e85 1A       		.byte	0x1a
 1949 0e86 99       		.byte	0x99
 1950 0e87 03       		.uleb128 0x3
 1951 0e88 C9020000 		.4byte	.LASF188
 1952 0e8c 1A       		.byte	0x1a
 1953 0e8d AA       		.byte	0xaa
 1954 0e8e 830E0000 		.4byte	0xe83
 1955 0e92 13       		.uleb128 0x13
 1956 0e93 870E0000 		.4byte	0xe87
 1957 0e97 A20E0000 		.4byte	0xea2
 1958 0e9b 14       		.uleb128 0x14
 1959 0e9c 3C000000 		.4byte	0x3c
 1960 0ea0 0F       		.byte	0xf
 1961 0ea1 00       		.byte	0
 1962 0ea2 11       		.uleb128 0x11
 1963 0ea3 8E060000 		.4byte	.LASF189
 1964 0ea7 1B       		.byte	0x1b
 1965 0ea8 DA01     		.2byte	0x1da
 1966 0eaa 920E0000 		.4byte	0xe92
 1967 0eae 1F       		.uleb128 0x1f
 1968 0eaf 07       		.byte	0x7
 1969 0eb0 01       		.byte	0x1
 1970 0eb1 63000000 		.4byte	0x63
 1971 0eb5 1C       		.byte	0x1c
 1972 0eb6 4A       		.byte	0x4a
 1973 0eb7 CE0E0000 		.4byte	0xece
 1974 0ebb 20       		.uleb128 0x20
 1975 0ebc 0F010000 		.4byte	.LASF190
 1976 0ec0 00       		.byte	0
 1977 0ec1 20       		.uleb128 0x20
 1978 0ec2 33070000 		.4byte	.LASF191
 1979 0ec6 01       		.byte	0x1
 1980 0ec7 20       		.uleb128 0x20
 1981 0ec8 4C080000 		.4byte	.LASF192
 1982 0ecc 02       		.byte	0x2
 1983 0ecd 00       		.byte	0
 1984 0ece 03       		.uleb128 0x3
 1985 0ecf 20090000 		.4byte	.LASF193
 1986 0ed3 1C       		.byte	0x1c
 1987 0ed4 4E       		.byte	0x4e
 1988 0ed5 AE0E0000 		.4byte	0xeae
 1989 0ed9 03       		.uleb128 0x3
 1990 0eda 5D060000 		.4byte	.LASF194
 1991 0ede 1C       		.byte	0x1c
 1992 0edf 53       		.byte	0x53
 1993 0ee0 E40E0000 		.4byte	0xee4
 1994 0ee4 0D       		.uleb128 0xd
 1995 0ee5 5D060000 		.4byte	.LASF194
ARM GAS  /var/folders/vd/czx34qs52cd_f3nb04sxmghc0000gn/T//ccFSGepM.s 			page 36


 1996 0ee9 1C       		.byte	0x1c
 1997 0eea 1D       		.byte	0x1d
 1998 0eeb B201     		.2byte	0x1b2
 1999 0eed 4D0F0000 		.4byte	0xf4d
 2000 0ef1 0B       		.uleb128 0xb
 2001 0ef2 E0000000 		.4byte	.LASF38
 2002 0ef6 1D       		.byte	0x1d
 2003 0ef7 B601     		.2byte	0x1b6
 2004 0ef9 CE0E0000 		.4byte	0xece
 2005 0efd 00       		.byte	0
 2006 0efe 0B       		.uleb128 0xb
 2007 0eff D9000000 		.4byte	.LASF195
 2008 0f03 1D       		.byte	0x1d
 2009 0f04 BA01     		.2byte	0x1ba
 2010 0f06 48100000 		.4byte	0x1048
 2011 0f0a 04       		.byte	0x4
 2012 0f0b 0B       		.uleb128 0xb
 2013 0f0c B3070000 		.4byte	.LASF196
 2014 0f10 1D       		.byte	0x1d
 2015 0f11 BE01     		.2byte	0x1be
 2016 0f13 930F0000 		.4byte	0xf93
 2017 0f17 08       		.byte	0x8
 2018 0f18 0B       		.uleb128 0xb
 2019 0f19 8A030000 		.4byte	.LASF197
 2020 0f1d 1D       		.byte	0x1d
 2021 0f1e C201     		.2byte	0x1c2
 2022 0f20 870F0000 		.4byte	0xf87
 2023 0f24 0C       		.byte	0xc
 2024 0f25 0B       		.uleb128 0xb
 2025 0f26 3E060000 		.4byte	.LASF198
 2026 0f2a 1D       		.byte	0x1d
 2027 0f2b C601     		.2byte	0x1c6
 2028 0f2d 7B0F0000 		.4byte	0xf7b
 2029 0f31 10       		.byte	0x10
 2030 0f32 0B       		.uleb128 0xb
 2031 0f33 84040000 		.4byte	.LASF199
 2032 0f37 1D       		.byte	0x1d
 2033 0f38 CE01     		.2byte	0x1ce
 2034 0f3a E4000000 		.4byte	0xe4
 2035 0f3e 14       		.byte	0x14
 2036 0f3f 0A       		.uleb128 0xa
 2037 0f40 74696D00 		.ascii	"tim\000"
 2038 0f44 1D       		.byte	0x1d
 2039 0f45 D201     		.2byte	0x1d2
 2040 0f47 4E100000 		.4byte	0x104e
 2041 0f4b 18       		.byte	0x18
 2042 0f4c 00       		.byte	0
 2043 0f4d 03       		.uleb128 0x3
 2044 0f4e 47060000 		.4byte	.LASF200
 2045 0f52 1C       		.byte	0x1c
 2046 0f53 5A       		.byte	0x5a
 2047 0f54 580F0000 		.4byte	0xf58
 2048 0f58 0C       		.uleb128 0xc
 2049 0f59 04       		.byte	0x4
 2050 0f5a 5E0F0000 		.4byte	0xf5e
 2051 0f5e 0E       		.uleb128 0xe
 2052 0f5f 690F0000 		.4byte	0xf69
ARM GAS  /var/folders/vd/czx34qs52cd_f3nb04sxmghc0000gn/T//ccFSGepM.s 			page 37


 2053 0f63 0F       		.uleb128 0xf
 2054 0f64 690F0000 		.4byte	0xf69
 2055 0f68 00       		.byte	0
 2056 0f69 0C       		.uleb128 0xc
 2057 0f6a 04       		.byte	0x4
 2058 0f6b D90E0000 		.4byte	0xed9
 2059 0f6f 16       		.uleb128 0x16
 2060 0f70 35030000 		.4byte	.LASF201
 2061 0f74 1D       		.byte	0x1d
 2062 0f75 5E01     		.2byte	0x15e
 2063 0f77 E4000000 		.4byte	0xe4
 2064 0f7b 16       		.uleb128 0x16
 2065 0f7c D5010000 		.4byte	.LASF202
 2066 0f80 1D       		.byte	0x1d
 2067 0f81 6301     		.2byte	0x163
 2068 0f83 B9000000 		.4byte	0xb9
 2069 0f87 16       		.uleb128 0x16
 2070 0f88 CD000000 		.4byte	.LASF203
 2071 0f8c 1D       		.byte	0x1d
 2072 0f8d 6801     		.2byte	0x168
 2073 0f8f E4000000 		.4byte	0xe4
 2074 0f93 16       		.uleb128 0x16
 2075 0f94 31020000 		.4byte	.LASF204
 2076 0f98 1D       		.byte	0x1d
 2077 0f99 6D01     		.2byte	0x16d
 2078 0f9b E4000000 		.4byte	0xe4
 2079 0f9f 15       		.uleb128 0x15
 2080 0fa0 08       		.byte	0x8
 2081 0fa1 1D       		.byte	0x1d
 2082 0fa2 7201     		.2byte	0x172
 2083 0fa4 C30F0000 		.4byte	0xfc3
 2084 0fa8 0B       		.uleb128 0xb
 2085 0fa9 76080000 		.4byte	.LASF205
 2086 0fad 1D       		.byte	0x1d
 2087 0fae 7601     		.2byte	0x176
 2088 0fb0 6F0F0000 		.4byte	0xf6f
 2089 0fb4 00       		.byte	0
 2090 0fb5 0B       		.uleb128 0xb
 2091 0fb6 84010000 		.4byte	.LASF206
 2092 0fba 1D       		.byte	0x1d
 2093 0fbb 7C01     		.2byte	0x17c
 2094 0fbd 4D0F0000 		.4byte	0xf4d
 2095 0fc1 04       		.byte	0x4
 2096 0fc2 00       		.byte	0
 2097 0fc3 16       		.uleb128 0x16
 2098 0fc4 EB000000 		.4byte	.LASF207
 2099 0fc8 1D       		.byte	0x1d
 2100 0fc9 7E01     		.2byte	0x17e
 2101 0fcb 9F0F0000 		.4byte	0xf9f
 2102 0fcf 15       		.uleb128 0x15
 2103 0fd0 34       		.byte	0x34
 2104 0fd1 1D       		.byte	0x1d
 2105 0fd2 8301     		.2byte	0x183
 2106 0fd4 27100000 		.4byte	0x1027
 2107 0fd8 0B       		.uleb128 0xb
 2108 0fd9 F6050000 		.4byte	.LASF208
 2109 0fdd 1D       		.byte	0x1d
ARM GAS  /var/folders/vd/czx34qs52cd_f3nb04sxmghc0000gn/T//ccFSGepM.s 			page 38


 2110 0fde 8901     		.2byte	0x189
 2111 0fe0 E4000000 		.4byte	0xe4
 2112 0fe4 00       		.byte	0
 2113 0fe5 0B       		.uleb128 0xb
 2114 0fe6 B3070000 		.4byte	.LASF196
 2115 0fea 1D       		.byte	0x1d
 2116 0feb 8F01     		.2byte	0x18f
 2117 0fed 930F0000 		.4byte	0xf93
 2118 0ff1 04       		.byte	0x4
 2119 0ff2 0B       		.uleb128 0xb
 2120 0ff3 84010000 		.4byte	.LASF206
 2121 0ff7 1D       		.byte	0x1d
 2122 0ff8 9501     		.2byte	0x195
 2123 0ffa 4D0F0000 		.4byte	0xf4d
 2124 0ffe 08       		.byte	0x8
 2125 0fff 0B       		.uleb128 0xb
 2126 1000 3E060000 		.4byte	.LASF198
 2127 1004 1D       		.byte	0x1d
 2128 1005 9901     		.2byte	0x199
 2129 1007 27100000 		.4byte	0x1027
 2130 100b 0C       		.byte	0xc
 2131 100c 0A       		.uleb128 0xa
 2132 100d 63723200 		.ascii	"cr2\000"
 2133 1011 1D       		.byte	0x1d
 2134 1012 9F01     		.2byte	0x19f
 2135 1014 E4000000 		.4byte	0xe4
 2136 1018 2C       		.byte	0x2c
 2137 1019 0B       		.uleb128 0xb
 2138 101a 0A010000 		.4byte	.LASF209
 2139 101e 1D       		.byte	0x1d
 2140 101f AC01     		.2byte	0x1ac
 2141 1021 E4000000 		.4byte	0xe4
 2142 1025 30       		.byte	0x30
 2143 1026 00       		.byte	0
 2144 1027 13       		.uleb128 0x13
 2145 1028 C30F0000 		.4byte	0xfc3
 2146 102c 37100000 		.4byte	0x1037
 2147 1030 14       		.uleb128 0x14
 2148 1031 3C000000 		.4byte	0x3c
 2149 1035 03       		.byte	0x3
 2150 1036 00       		.byte	0
 2151 1037 16       		.uleb128 0x16
 2152 1038 DA080000 		.4byte	.LASF210
 2153 103c 1D       		.byte	0x1d
 2154 103d AD01     		.2byte	0x1ad
 2155 103f CF0F0000 		.4byte	0xfcf
 2156 1043 06       		.uleb128 0x6
 2157 1044 37100000 		.4byte	0x1037
 2158 1048 0C       		.uleb128 0xc
 2159 1049 04       		.byte	0x4
 2160 104a 43100000 		.4byte	0x1043
 2161 104e 0C       		.uleb128 0xc
 2162 104f 04       		.byte	0x4
 2163 1050 8B070000 		.4byte	0x78b
 2164 1054 11       		.uleb128 0x11
 2165 1055 10090000 		.4byte	.LASF211
 2166 1059 1D       		.byte	0x1d
ARM GAS  /var/folders/vd/czx34qs52cd_f3nb04sxmghc0000gn/T//ccFSGepM.s 			page 39


 2167 105a FD01     		.2byte	0x1fd
 2168 105c D90E0000 		.4byte	0xed9
 2169 1060 1F       		.uleb128 0x1f
 2170 1061 07       		.byte	0x7
 2171 1062 01       		.byte	0x1
 2172 1063 63000000 		.4byte	0x63
 2173 1067 1E       		.byte	0x1e
 2174 1068 58       		.byte	0x58
 2175 1069 80100000 		.4byte	0x1080
 2176 106d 20       		.uleb128 0x20
 2177 106e 71020000 		.4byte	.LASF212
 2178 1072 00       		.byte	0
 2179 1073 20       		.uleb128 0x20
 2180 1074 F0090000 		.4byte	.LASF213
 2181 1078 01       		.byte	0x1
 2182 1079 20       		.uleb128 0x20
 2183 107a 06080000 		.4byte	.LASF214
 2184 107e 02       		.byte	0x2
 2185 107f 00       		.byte	0
 2186 1080 03       		.uleb128 0x3
 2187 1081 FC070000 		.4byte	.LASF215
 2188 1085 1E       		.byte	0x1e
 2189 1086 5C       		.byte	0x5c
 2190 1087 60100000 		.4byte	0x1060
 2191 108b 03       		.uleb128 0x3
 2192 108c C9070000 		.4byte	.LASF216
 2193 1090 1E       		.byte	0x1e
 2194 1091 61       		.byte	0x61
 2195 1092 96100000 		.4byte	0x1096
 2196 1096 07       		.uleb128 0x7
 2197 1097 C9070000 		.4byte	.LASF216
 2198 109b 7C       		.byte	0x7c
 2199 109c 1E       		.byte	0x1e
 2200 109d 7B       		.byte	0x7b
 2201 109e 0D110000 		.4byte	0x110d
 2202 10a2 09       		.uleb128 0x9
 2203 10a3 766D7400 		.ascii	"vmt\000"
 2204 10a7 1E       		.byte	0x1e
 2205 10a8 7D       		.byte	0x7d
 2206 10a9 A3110000 		.4byte	0x11a3
 2207 10ad 00       		.byte	0
 2208 10ae 08       		.uleb128 0x8
 2209 10af 0A060000 		.4byte	.LASF217
 2210 10b3 1E       		.byte	0x1e
 2211 10b4 7E       		.byte	0x7e
 2212 10b5 560A0000 		.4byte	0xa56
 2213 10b9 04       		.byte	0x4
 2214 10ba 08       		.uleb128 0x8
 2215 10bb E0000000 		.4byte	.LASF38
 2216 10bf 1E       		.byte	0x1e
 2217 10c0 7E       		.byte	0x7e
 2218 10c1 80100000 		.4byte	0x1080
 2219 10c5 08       		.byte	0x8
 2220 10c6 08       		.uleb128 0x8
 2221 10c7 92080000 		.4byte	.LASF218
 2222 10cb 1E       		.byte	0x1e
 2223 10cc 7E       		.byte	0x7e
ARM GAS  /var/folders/vd/czx34qs52cd_f3nb04sxmghc0000gn/T//ccFSGepM.s 			page 40


 2224 10cd 6D0E0000 		.4byte	0xe6d
 2225 10d1 0C       		.byte	0xc
 2226 10d2 08       		.uleb128 0x8
 2227 10d3 C5010000 		.4byte	.LASF219
 2228 10d7 1E       		.byte	0x1e
 2229 10d8 7E       		.byte	0x7e
 2230 10d9 780E0000 		.4byte	0xe78
 2231 10dd 30       		.byte	0x30
 2232 10de 09       		.uleb128 0x9
 2233 10df 696200   		.ascii	"ib\000"
 2234 10e2 1E       		.byte	0x1e
 2235 10e3 7E       		.byte	0x7e
 2236 10e4 A9110000 		.4byte	0x11a9
 2237 10e8 54       		.byte	0x54
 2238 10e9 09       		.uleb128 0x9
 2239 10ea 6F6200   		.ascii	"ob\000"
 2240 10ed 1E       		.byte	0x1e
 2241 10ee 7E       		.byte	0x7e
 2242 10ef A9110000 		.4byte	0x11a9
 2243 10f3 64       		.byte	0x64
 2244 10f4 08       		.uleb128 0x8
 2245 10f5 EB010000 		.4byte	.LASF220
 2246 10f9 1E       		.byte	0x1e
 2247 10fa 7E       		.byte	0x7e
 2248 10fb B9110000 		.4byte	0x11b9
 2249 10ff 74       		.byte	0x74
 2250 1100 08       		.uleb128 0x8
 2251 1101 45030000 		.4byte	.LASF221
 2252 1105 1E       		.byte	0x1e
 2253 1106 7E       		.byte	0x7e
 2254 1107 B9000000 		.4byte	0xb9
 2255 110b 78       		.byte	0x78
 2256 110c 00       		.byte	0
 2257 110d 1B       		.uleb128 0x1b
 2258 110e 53443100 		.ascii	"SD1\000"
 2259 1112 1F       		.byte	0x1f
 2260 1113 4401     		.2byte	0x144
 2261 1115 8B100000 		.4byte	0x108b
 2262 1119 07       		.uleb128 0x7
 2263 111a 58040000 		.4byte	.LASF222
 2264 111e 28       		.byte	0x28
 2265 111f 1E       		.byte	0x1e
 2266 1120 70       		.byte	0x70
 2267 1121 9E110000 		.4byte	0x119e
 2268 1125 08       		.uleb128 0x8
 2269 1126 69090000 		.4byte	.LASF223
 2270 112a 1E       		.byte	0x1e
 2271 112b 71       		.byte	0x71
 2272 112c 2C000000 		.4byte	0x2c
 2273 1130 00       		.byte	0
 2274 1131 08       		.uleb128 0x8
 2275 1132 B8000000 		.4byte	.LASF224
 2276 1136 1E       		.byte	0x1e
 2277 1137 71       		.byte	0x71
 2278 1138 DF0C0000 		.4byte	0xcdf
 2279 113c 04       		.byte	0x4
 2280 113d 08       		.uleb128 0x8
ARM GAS  /var/folders/vd/czx34qs52cd_f3nb04sxmghc0000gn/T//ccFSGepM.s 			page 41


 2281 113e 10060000 		.4byte	.LASF225
 2282 1142 1E       		.byte	0x1e
 2283 1143 71       		.byte	0x71
 2284 1144 FE0C0000 		.4byte	0xcfe
 2285 1148 08       		.byte	0x8
 2286 1149 09       		.uleb128 0x9
 2287 114a 70757400 		.ascii	"put\000"
 2288 114e 1E       		.byte	0x1e
 2289 114f 71       		.byte	0x71
 2290 1150 180D0000 		.4byte	0xd18
 2291 1154 0C       		.byte	0xc
 2292 1155 09       		.uleb128 0x9
 2293 1156 67657400 		.ascii	"get\000"
 2294 115a 1E       		.byte	0x1e
 2295 115b 71       		.byte	0x71
 2296 115c 2D0D0000 		.4byte	0xd2d
 2297 1160 10       		.byte	0x10
 2298 1161 08       		.uleb128 0x8
 2299 1162 E6000000 		.4byte	.LASF226
 2300 1166 1E       		.byte	0x1e
 2301 1167 71       		.byte	0x71
 2302 1168 4C0D0000 		.4byte	0xd4c
 2303 116c 14       		.byte	0x14
 2304 116d 08       		.uleb128 0x8
 2305 116e E3020000 		.4byte	.LASF227
 2306 1172 1E       		.byte	0x1e
 2307 1173 71       		.byte	0x71
 2308 1174 660D0000 		.4byte	0xd66
 2309 1178 18       		.byte	0x18
 2310 1179 08       		.uleb128 0x8
 2311 117a 91000000 		.4byte	.LASF228
 2312 117e 1E       		.byte	0x1e
 2313 117f 71       		.byte	0x71
 2314 1180 8A0D0000 		.4byte	0xd8a
 2315 1184 1C       		.byte	0x1c
 2316 1185 08       		.uleb128 0x8
 2317 1186 6C010000 		.4byte	.LASF229
 2318 118a 1E       		.byte	0x1e
 2319 118b 71       		.byte	0x71
 2320 118c AE0D0000 		.4byte	0xdae
 2321 1190 20       		.byte	0x20
 2322 1191 09       		.uleb128 0x9
 2323 1192 63746C00 		.ascii	"ctl\000"
 2324 1196 1E       		.byte	0x1e
 2325 1197 71       		.byte	0x71
 2326 1198 CD0D0000 		.4byte	0xdcd
 2327 119c 24       		.byte	0x24
 2328 119d 00       		.byte	0
 2329 119e 06       		.uleb128 0x6
 2330 119f 19110000 		.4byte	0x1119
 2331 11a3 0C       		.uleb128 0xc
 2332 11a4 04       		.byte	0x4
 2333 11a5 9E110000 		.4byte	0x119e
 2334 11a9 13       		.uleb128 0x13
 2335 11aa B9000000 		.4byte	0xb9
 2336 11ae B9110000 		.4byte	0x11b9
 2337 11b2 14       		.uleb128 0x14
ARM GAS  /var/folders/vd/czx34qs52cd_f3nb04sxmghc0000gn/T//ccFSGepM.s 			page 42


 2338 11b3 3C000000 		.4byte	0x3c
 2339 11b7 0F       		.byte	0xf
 2340 11b8 00       		.byte	0
 2341 11b9 0C       		.uleb128 0xc
 2342 11ba 04       		.byte	0x4
 2343 11bb C3050000 		.4byte	0x5c3
 2344 11bf 07       		.uleb128 0x7
 2345 11c0 74000000 		.4byte	.LASF230
 2346 11c4 14       		.byte	0x14
 2347 11c5 20       		.byte	0x20
 2348 11c6 35       		.byte	0x35
 2349 11c7 08120000 		.4byte	0x1208
 2350 11cb 08       		.uleb128 0x8
 2351 11cc 69090000 		.4byte	.LASF223
 2352 11d0 20       		.byte	0x20
 2353 11d1 36       		.byte	0x36
 2354 11d2 2C000000 		.4byte	0x2c
 2355 11d6 00       		.byte	0
 2356 11d7 08       		.uleb128 0x8
 2357 11d8 B8000000 		.4byte	.LASF224
 2358 11dc 20       		.byte	0x20
 2359 11dd 36       		.byte	0x36
 2360 11de DF0C0000 		.4byte	0xcdf
 2361 11e2 04       		.byte	0x4
 2362 11e3 08       		.uleb128 0x8
 2363 11e4 10060000 		.4byte	.LASF225
 2364 11e8 20       		.byte	0x20
 2365 11e9 36       		.byte	0x36
 2366 11ea FE0C0000 		.4byte	0xcfe
 2367 11ee 08       		.byte	0x8
 2368 11ef 09       		.uleb128 0x9
 2369 11f0 70757400 		.ascii	"put\000"
 2370 11f4 20       		.byte	0x20
 2371 11f5 36       		.byte	0x36
 2372 11f6 180D0000 		.4byte	0xd18
 2373 11fa 0C       		.byte	0xc
 2374 11fb 09       		.uleb128 0x9
 2375 11fc 67657400 		.ascii	"get\000"
 2376 1200 20       		.byte	0x20
 2377 1201 36       		.byte	0x36
 2378 1202 2D0D0000 		.4byte	0xd2d
 2379 1206 10       		.byte	0x10
 2380 1207 00       		.byte	0
 2381 1208 06       		.uleb128 0x6
 2382 1209 BF110000 		.4byte	0x11bf
 2383 120d 17       		.uleb128 0x17
 2384 120e 04       		.byte	0x4
 2385 120f 20       		.byte	0x20
 2386 1210 3E       		.byte	0x3e
 2387 1211 22120000 		.4byte	0x1222
 2388 1215 09       		.uleb128 0x9
 2389 1216 766D7400 		.ascii	"vmt\000"
 2390 121a 20       		.byte	0x20
 2391 121b 40       		.byte	0x40
 2392 121c 22120000 		.4byte	0x1222
 2393 1220 00       		.byte	0
 2394 1221 00       		.byte	0
ARM GAS  /var/folders/vd/czx34qs52cd_f3nb04sxmghc0000gn/T//ccFSGepM.s 			page 43


 2395 1222 0C       		.uleb128 0xc
 2396 1223 04       		.byte	0x4
 2397 1224 08120000 		.4byte	0x1208
 2398 1228 03       		.uleb128 0x3
 2399 1229 20080000 		.4byte	.LASF231
 2400 122d 20       		.byte	0x20
 2401 122e 42       		.byte	0x42
 2402 122f 0D120000 		.4byte	0x120d
 2403 1233 21       		.uleb128 0x21
 2404 1234 766D7400 		.ascii	"vmt\000"
 2405 1238 01       		.byte	0x1
 2406 1239 4C       		.byte	0x4c
 2407 123a 08120000 		.4byte	0x1208
 2408 123e 05       		.uleb128 0x5
 2409 123f 03       		.byte	0x3
 2410 1240 00000000 		.4byte	vmt
 2411 1244 22       		.uleb128 0x22
 2412 1245 7B020000 		.4byte	.LASF236
 2413 1249 01       		.byte	0x1
 2414 124a 57       		.byte	0x57
 2415 124b 00000000 		.4byte	.LFB317
 2416 124f 0C000000 		.4byte	.LFE317-.LFB317
 2417 1253 01       		.uleb128 0x1
 2418 1254 9C       		.byte	0x9c
 2419 1255 67120000 		.4byte	0x1267
 2420 1259 23       		.uleb128 0x23
 2421 125a 6E737000 		.ascii	"nsp\000"
 2422 125e 01       		.byte	0x1
 2423 125f 57       		.byte	0x57
 2424 1260 67120000 		.4byte	0x1267
 2425 1264 01       		.uleb128 0x1
 2426 1265 50       		.byte	0x50
 2427 1266 00       		.byte	0
 2428 1267 0C       		.uleb128 0xc
 2429 1268 04       		.byte	0x4
 2430 1269 28120000 		.4byte	0x1228
 2431 126d 24       		.uleb128 0x24
 2432 126e 67657400 		.ascii	"get\000"
 2433 1272 01       		.byte	0x1
 2434 1273 45       		.byte	0x45
 2435 1274 36010000 		.4byte	0x136
 2436 1278 00000000 		.4byte	.LFB316
 2437 127c 04000000 		.4byte	.LFE316-.LFB316
 2438 1280 01       		.uleb128 0x1
 2439 1281 9C       		.byte	0x9c
 2440 1282 95120000 		.4byte	0x1295
 2441 1286 25       		.uleb128 0x25
 2442 1287 697000   		.ascii	"ip\000"
 2443 128a 01       		.byte	0x1
 2444 128b 45       		.byte	0x45
 2445 128c 3E030000 		.4byte	0x33e
 2446 1290 00000000 		.4byte	.LLST3
 2447 1294 00       		.byte	0
 2448 1295 24       		.uleb128 0x24
 2449 1296 70757400 		.ascii	"put\000"
 2450 129a 01       		.byte	0x1
 2451 129b 3D       		.byte	0x3d
ARM GAS  /var/folders/vd/czx34qs52cd_f3nb04sxmghc0000gn/T//ccFSGepM.s 			page 44


 2452 129c 36010000 		.4byte	0x136
 2453 12a0 00000000 		.4byte	.LFB315
 2454 12a4 04000000 		.4byte	.LFE315-.LFB315
 2455 12a8 01       		.uleb128 0x1
 2456 12a9 9C       		.byte	0x9c
 2457 12aa C8120000 		.4byte	0x12c8
 2458 12ae 25       		.uleb128 0x25
 2459 12af 697000   		.ascii	"ip\000"
 2460 12b2 01       		.byte	0x1
 2461 12b3 3D       		.byte	0x3d
 2462 12b4 3E030000 		.4byte	0x33e
 2463 12b8 21000000 		.4byte	.LLST2
 2464 12bc 23       		.uleb128 0x23
 2465 12bd 6200     		.ascii	"b\000"
 2466 12bf 01       		.byte	0x1
 2467 12c0 3D       		.byte	0x3d
 2468 12c1 B9000000 		.4byte	0xb9
 2469 12c5 01       		.uleb128 0x1
 2470 12c6 51       		.byte	0x51
 2471 12c7 00       		.byte	0
 2472 12c8 26       		.uleb128 0x26
 2473 12c9 66010000 		.4byte	.LASF232
 2474 12cd 01       		.byte	0x1
 2475 12ce 34       		.byte	0x34
 2476 12cf 2C000000 		.4byte	0x2c
 2477 12d3 00000000 		.4byte	.LFB314
 2478 12d7 04000000 		.4byte	.LFE314-.LFB314
 2479 12db 01       		.uleb128 0x1
 2480 12dc 9C       		.byte	0x9c
 2481 12dd 07130000 		.4byte	0x1307
 2482 12e1 25       		.uleb128 0x25
 2483 12e2 697000   		.ascii	"ip\000"
 2484 12e5 01       		.byte	0x1
 2485 12e6 34       		.byte	0x34
 2486 12e7 3E030000 		.4byte	0x33e
 2487 12eb 42000000 		.4byte	.LLST1
 2488 12ef 23       		.uleb128 0x23
 2489 12f0 627000   		.ascii	"bp\000"
 2490 12f3 01       		.byte	0x1
 2491 12f4 34       		.byte	0x34
 2492 12f5 AE0A0000 		.4byte	0xaae
 2493 12f9 01       		.uleb128 0x1
 2494 12fa 51       		.byte	0x51
 2495 12fb 23       		.uleb128 0x23
 2496 12fc 6E00     		.ascii	"n\000"
 2497 12fe 01       		.byte	0x1
 2498 12ff 34       		.byte	0x34
 2499 1300 2C000000 		.4byte	0x2c
 2500 1304 01       		.uleb128 0x1
 2501 1305 52       		.byte	0x52
 2502 1306 00       		.byte	0
 2503 1307 27       		.uleb128 0x27
 2504 1308 8A000000 		.4byte	.LASF237
 2505 130c 01       		.byte	0x1
 2506 130d 2C       		.byte	0x2c
 2507 130e 2C000000 		.4byte	0x2c
 2508 1312 00000000 		.4byte	.LFB313
ARM GAS  /var/folders/vd/czx34qs52cd_f3nb04sxmghc0000gn/T//ccFSGepM.s 			page 45


 2509 1316 04000000 		.4byte	.LFE313-.LFB313
 2510 131a 01       		.uleb128 0x1
 2511 131b 9C       		.byte	0x9c
 2512 131c 25       		.uleb128 0x25
 2513 131d 697000   		.ascii	"ip\000"
 2514 1320 01       		.byte	0x1
 2515 1321 2C       		.byte	0x2c
 2516 1322 3E030000 		.4byte	0x33e
 2517 1326 63000000 		.4byte	.LLST0
 2518 132a 23       		.uleb128 0x23
 2519 132b 627000   		.ascii	"bp\000"
 2520 132e 01       		.byte	0x1
 2521 132f 2C       		.byte	0x2c
 2522 1330 D90C0000 		.4byte	0xcd9
 2523 1334 01       		.uleb128 0x1
 2524 1335 51       		.byte	0x51
 2525 1336 23       		.uleb128 0x23
 2526 1337 6E00     		.ascii	"n\000"
 2527 1339 01       		.byte	0x1
 2528 133a 2C       		.byte	0x2c
 2529 133b 2C000000 		.4byte	0x2c
 2530 133f 01       		.uleb128 0x1
 2531 1340 52       		.byte	0x52
 2532 1341 00       		.byte	0
 2533 1342 00       		.byte	0
 2534              		.section	.debug_abbrev,"",%progbits
 2535              	.Ldebug_abbrev0:
 2536 0000 01       		.uleb128 0x1
 2537 0001 11       		.uleb128 0x11
 2538 0002 01       		.byte	0x1
 2539 0003 25       		.uleb128 0x25
 2540 0004 0E       		.uleb128 0xe
 2541 0005 13       		.uleb128 0x13
 2542 0006 0B       		.uleb128 0xb
 2543 0007 03       		.uleb128 0x3
 2544 0008 0E       		.uleb128 0xe
 2545 0009 1B       		.uleb128 0x1b
 2546 000a 0E       		.uleb128 0xe
 2547 000b 55       		.uleb128 0x55
 2548 000c 17       		.uleb128 0x17
 2549 000d 11       		.uleb128 0x11
 2550 000e 01       		.uleb128 0x1
 2551 000f 10       		.uleb128 0x10
 2552 0010 17       		.uleb128 0x17
 2553 0011 00       		.byte	0
 2554 0012 00       		.byte	0
 2555 0013 02       		.uleb128 0x2
 2556 0014 24       		.uleb128 0x24
 2557 0015 00       		.byte	0
 2558 0016 0B       		.uleb128 0xb
 2559 0017 0B       		.uleb128 0xb
 2560 0018 3E       		.uleb128 0x3e
 2561 0019 0B       		.uleb128 0xb
 2562 001a 03       		.uleb128 0x3
 2563 001b 08       		.uleb128 0x8
 2564 001c 00       		.byte	0
 2565 001d 00       		.byte	0
ARM GAS  /var/folders/vd/czx34qs52cd_f3nb04sxmghc0000gn/T//ccFSGepM.s 			page 46


 2566 001e 03       		.uleb128 0x3
 2567 001f 16       		.uleb128 0x16
 2568 0020 00       		.byte	0
 2569 0021 03       		.uleb128 0x3
 2570 0022 0E       		.uleb128 0xe
 2571 0023 3A       		.uleb128 0x3a
 2572 0024 0B       		.uleb128 0xb
 2573 0025 3B       		.uleb128 0x3b
 2574 0026 0B       		.uleb128 0xb
 2575 0027 49       		.uleb128 0x49
 2576 0028 13       		.uleb128 0x13
 2577 0029 00       		.byte	0
 2578 002a 00       		.byte	0
 2579 002b 04       		.uleb128 0x4
 2580 002c 35       		.uleb128 0x35
 2581 002d 00       		.byte	0
 2582 002e 49       		.uleb128 0x49
 2583 002f 13       		.uleb128 0x13
 2584 0030 00       		.byte	0
 2585 0031 00       		.byte	0
 2586 0032 05       		.uleb128 0x5
 2587 0033 24       		.uleb128 0x24
 2588 0034 00       		.byte	0
 2589 0035 0B       		.uleb128 0xb
 2590 0036 0B       		.uleb128 0xb
 2591 0037 3E       		.uleb128 0x3e
 2592 0038 0B       		.uleb128 0xb
 2593 0039 03       		.uleb128 0x3
 2594 003a 0E       		.uleb128 0xe
 2595 003b 00       		.byte	0
 2596 003c 00       		.byte	0
 2597 003d 06       		.uleb128 0x6
 2598 003e 26       		.uleb128 0x26
 2599 003f 00       		.byte	0
 2600 0040 49       		.uleb128 0x49
 2601 0041 13       		.uleb128 0x13
 2602 0042 00       		.byte	0
 2603 0043 00       		.byte	0
 2604 0044 07       		.uleb128 0x7
 2605 0045 13       		.uleb128 0x13
 2606 0046 01       		.byte	0x1
 2607 0047 03       		.uleb128 0x3
 2608 0048 0E       		.uleb128 0xe
 2609 0049 0B       		.uleb128 0xb
 2610 004a 0B       		.uleb128 0xb
 2611 004b 3A       		.uleb128 0x3a
 2612 004c 0B       		.uleb128 0xb
 2613 004d 3B       		.uleb128 0x3b
 2614 004e 0B       		.uleb128 0xb
 2615 004f 01       		.uleb128 0x1
 2616 0050 13       		.uleb128 0x13
 2617 0051 00       		.byte	0
 2618 0052 00       		.byte	0
 2619 0053 08       		.uleb128 0x8
 2620 0054 0D       		.uleb128 0xd
 2621 0055 00       		.byte	0
 2622 0056 03       		.uleb128 0x3
ARM GAS  /var/folders/vd/czx34qs52cd_f3nb04sxmghc0000gn/T//ccFSGepM.s 			page 47


 2623 0057 0E       		.uleb128 0xe
 2624 0058 3A       		.uleb128 0x3a
 2625 0059 0B       		.uleb128 0xb
 2626 005a 3B       		.uleb128 0x3b
 2627 005b 0B       		.uleb128 0xb
 2628 005c 49       		.uleb128 0x49
 2629 005d 13       		.uleb128 0x13
 2630 005e 38       		.uleb128 0x38
 2631 005f 0B       		.uleb128 0xb
 2632 0060 00       		.byte	0
 2633 0061 00       		.byte	0
 2634 0062 09       		.uleb128 0x9
 2635 0063 0D       		.uleb128 0xd
 2636 0064 00       		.byte	0
 2637 0065 03       		.uleb128 0x3
 2638 0066 08       		.uleb128 0x8
 2639 0067 3A       		.uleb128 0x3a
 2640 0068 0B       		.uleb128 0xb
 2641 0069 3B       		.uleb128 0x3b
 2642 006a 0B       		.uleb128 0xb
 2643 006b 49       		.uleb128 0x49
 2644 006c 13       		.uleb128 0x13
 2645 006d 38       		.uleb128 0x38
 2646 006e 0B       		.uleb128 0xb
 2647 006f 00       		.byte	0
 2648 0070 00       		.byte	0
 2649 0071 0A       		.uleb128 0xa
 2650 0072 0D       		.uleb128 0xd
 2651 0073 00       		.byte	0
 2652 0074 03       		.uleb128 0x3
 2653 0075 08       		.uleb128 0x8
 2654 0076 3A       		.uleb128 0x3a
 2655 0077 0B       		.uleb128 0xb
 2656 0078 3B       		.uleb128 0x3b
 2657 0079 05       		.uleb128 0x5
 2658 007a 49       		.uleb128 0x49
 2659 007b 13       		.uleb128 0x13
 2660 007c 38       		.uleb128 0x38
 2661 007d 0B       		.uleb128 0xb
 2662 007e 00       		.byte	0
 2663 007f 00       		.byte	0
 2664 0080 0B       		.uleb128 0xb
 2665 0081 0D       		.uleb128 0xd
 2666 0082 00       		.byte	0
 2667 0083 03       		.uleb128 0x3
 2668 0084 0E       		.uleb128 0xe
 2669 0085 3A       		.uleb128 0x3a
 2670 0086 0B       		.uleb128 0xb
 2671 0087 3B       		.uleb128 0x3b
 2672 0088 05       		.uleb128 0x5
 2673 0089 49       		.uleb128 0x49
 2674 008a 13       		.uleb128 0x13
 2675 008b 38       		.uleb128 0x38
 2676 008c 0B       		.uleb128 0xb
 2677 008d 00       		.byte	0
 2678 008e 00       		.byte	0
 2679 008f 0C       		.uleb128 0xc
ARM GAS  /var/folders/vd/czx34qs52cd_f3nb04sxmghc0000gn/T//ccFSGepM.s 			page 48


 2680 0090 0F       		.uleb128 0xf
 2681 0091 00       		.byte	0
 2682 0092 0B       		.uleb128 0xb
 2683 0093 0B       		.uleb128 0xb
 2684 0094 49       		.uleb128 0x49
 2685 0095 13       		.uleb128 0x13
 2686 0096 00       		.byte	0
 2687 0097 00       		.byte	0
 2688 0098 0D       		.uleb128 0xd
 2689 0099 13       		.uleb128 0x13
 2690 009a 01       		.byte	0x1
 2691 009b 03       		.uleb128 0x3
 2692 009c 0E       		.uleb128 0xe
 2693 009d 0B       		.uleb128 0xb
 2694 009e 0B       		.uleb128 0xb
 2695 009f 3A       		.uleb128 0x3a
 2696 00a0 0B       		.uleb128 0xb
 2697 00a1 3B       		.uleb128 0x3b
 2698 00a2 05       		.uleb128 0x5
 2699 00a3 01       		.uleb128 0x1
 2700 00a4 13       		.uleb128 0x13
 2701 00a5 00       		.byte	0
 2702 00a6 00       		.byte	0
 2703 00a7 0E       		.uleb128 0xe
 2704 00a8 15       		.uleb128 0x15
 2705 00a9 01       		.byte	0x1
 2706 00aa 27       		.uleb128 0x27
 2707 00ab 19       		.uleb128 0x19
 2708 00ac 01       		.uleb128 0x1
 2709 00ad 13       		.uleb128 0x13
 2710 00ae 00       		.byte	0
 2711 00af 00       		.byte	0
 2712 00b0 0F       		.uleb128 0xf
 2713 00b1 05       		.uleb128 0x5
 2714 00b2 00       		.byte	0
 2715 00b3 49       		.uleb128 0x49
 2716 00b4 13       		.uleb128 0x13
 2717 00b5 00       		.byte	0
 2718 00b6 00       		.byte	0
 2719 00b7 10       		.uleb128 0x10
 2720 00b8 0F       		.uleb128 0xf
 2721 00b9 00       		.byte	0
 2722 00ba 0B       		.uleb128 0xb
 2723 00bb 0B       		.uleb128 0xb
 2724 00bc 00       		.byte	0
 2725 00bd 00       		.byte	0
 2726 00be 11       		.uleb128 0x11
 2727 00bf 34       		.uleb128 0x34
 2728 00c0 00       		.byte	0
 2729 00c1 03       		.uleb128 0x3
 2730 00c2 0E       		.uleb128 0xe
 2731 00c3 3A       		.uleb128 0x3a
 2732 00c4 0B       		.uleb128 0xb
 2733 00c5 3B       		.uleb128 0x3b
 2734 00c6 05       		.uleb128 0x5
 2735 00c7 49       		.uleb128 0x49
 2736 00c8 13       		.uleb128 0x13
ARM GAS  /var/folders/vd/czx34qs52cd_f3nb04sxmghc0000gn/T//ccFSGepM.s 			page 49


 2737 00c9 3F       		.uleb128 0x3f
 2738 00ca 19       		.uleb128 0x19
 2739 00cb 3C       		.uleb128 0x3c
 2740 00cc 19       		.uleb128 0x19
 2741 00cd 00       		.byte	0
 2742 00ce 00       		.byte	0
 2743 00cf 12       		.uleb128 0x12
 2744 00d0 34       		.uleb128 0x34
 2745 00d1 00       		.byte	0
 2746 00d2 03       		.uleb128 0x3
 2747 00d3 0E       		.uleb128 0xe
 2748 00d4 3A       		.uleb128 0x3a
 2749 00d5 0B       		.uleb128 0xb
 2750 00d6 3B       		.uleb128 0x3b
 2751 00d7 0B       		.uleb128 0xb
 2752 00d8 49       		.uleb128 0x49
 2753 00d9 13       		.uleb128 0x13
 2754 00da 3F       		.uleb128 0x3f
 2755 00db 19       		.uleb128 0x19
 2756 00dc 3C       		.uleb128 0x3c
 2757 00dd 19       		.uleb128 0x19
 2758 00de 00       		.byte	0
 2759 00df 00       		.byte	0
 2760 00e0 13       		.uleb128 0x13
 2761 00e1 01       		.uleb128 0x1
 2762 00e2 01       		.byte	0x1
 2763 00e3 49       		.uleb128 0x49
 2764 00e4 13       		.uleb128 0x13
 2765 00e5 01       		.uleb128 0x1
 2766 00e6 13       		.uleb128 0x13
 2767 00e7 00       		.byte	0
 2768 00e8 00       		.byte	0
 2769 00e9 14       		.uleb128 0x14
 2770 00ea 21       		.uleb128 0x21
 2771 00eb 00       		.byte	0
 2772 00ec 49       		.uleb128 0x49
 2773 00ed 13       		.uleb128 0x13
 2774 00ee 2F       		.uleb128 0x2f
 2775 00ef 0B       		.uleb128 0xb
 2776 00f0 00       		.byte	0
 2777 00f1 00       		.byte	0
 2778 00f2 15       		.uleb128 0x15
 2779 00f3 13       		.uleb128 0x13
 2780 00f4 01       		.byte	0x1
 2781 00f5 0B       		.uleb128 0xb
 2782 00f6 0B       		.uleb128 0xb
 2783 00f7 3A       		.uleb128 0x3a
 2784 00f8 0B       		.uleb128 0xb
 2785 00f9 3B       		.uleb128 0x3b
 2786 00fa 05       		.uleb128 0x5
 2787 00fb 01       		.uleb128 0x1
 2788 00fc 13       		.uleb128 0x13
 2789 00fd 00       		.byte	0
 2790 00fe 00       		.byte	0
 2791 00ff 16       		.uleb128 0x16
 2792 0100 16       		.uleb128 0x16
 2793 0101 00       		.byte	0
ARM GAS  /var/folders/vd/czx34qs52cd_f3nb04sxmghc0000gn/T//ccFSGepM.s 			page 50


 2794 0102 03       		.uleb128 0x3
 2795 0103 0E       		.uleb128 0xe
 2796 0104 3A       		.uleb128 0x3a
 2797 0105 0B       		.uleb128 0xb
 2798 0106 3B       		.uleb128 0x3b
 2799 0107 05       		.uleb128 0x5
 2800 0108 49       		.uleb128 0x49
 2801 0109 13       		.uleb128 0x13
 2802 010a 00       		.byte	0
 2803 010b 00       		.byte	0
 2804 010c 17       		.uleb128 0x17
 2805 010d 13       		.uleb128 0x13
 2806 010e 01       		.byte	0x1
 2807 010f 0B       		.uleb128 0xb
 2808 0110 0B       		.uleb128 0xb
 2809 0111 3A       		.uleb128 0x3a
 2810 0112 0B       		.uleb128 0xb
 2811 0113 3B       		.uleb128 0x3b
 2812 0114 0B       		.uleb128 0xb
 2813 0115 01       		.uleb128 0x1
 2814 0116 13       		.uleb128 0x13
 2815 0117 00       		.byte	0
 2816 0118 00       		.byte	0
 2817 0119 18       		.uleb128 0x18
 2818 011a 17       		.uleb128 0x17
 2819 011b 01       		.byte	0x1
 2820 011c 0B       		.uleb128 0xb
 2821 011d 0B       		.uleb128 0xb
 2822 011e 3A       		.uleb128 0x3a
 2823 011f 0B       		.uleb128 0xb
 2824 0120 3B       		.uleb128 0x3b
 2825 0121 0B       		.uleb128 0xb
 2826 0122 01       		.uleb128 0x1
 2827 0123 13       		.uleb128 0x13
 2828 0124 00       		.byte	0
 2829 0125 00       		.byte	0
 2830 0126 19       		.uleb128 0x19
 2831 0127 0D       		.uleb128 0xd
 2832 0128 00       		.byte	0
 2833 0129 03       		.uleb128 0x3
 2834 012a 0E       		.uleb128 0xe
 2835 012b 3A       		.uleb128 0x3a
 2836 012c 0B       		.uleb128 0xb
 2837 012d 3B       		.uleb128 0x3b
 2838 012e 0B       		.uleb128 0xb
 2839 012f 49       		.uleb128 0x49
 2840 0130 13       		.uleb128 0x13
 2841 0131 00       		.byte	0
 2842 0132 00       		.byte	0
 2843 0133 1A       		.uleb128 0x1a
 2844 0134 0D       		.uleb128 0xd
 2845 0135 00       		.byte	0
 2846 0136 03       		.uleb128 0x3
 2847 0137 0E       		.uleb128 0xe
 2848 0138 3A       		.uleb128 0x3a
 2849 0139 0B       		.uleb128 0xb
 2850 013a 3B       		.uleb128 0x3b
ARM GAS  /var/folders/vd/czx34qs52cd_f3nb04sxmghc0000gn/T//ccFSGepM.s 			page 51


 2851 013b 05       		.uleb128 0x5
 2852 013c 49       		.uleb128 0x49
 2853 013d 13       		.uleb128 0x13
 2854 013e 00       		.byte	0
 2855 013f 00       		.byte	0
 2856 0140 1B       		.uleb128 0x1b
 2857 0141 34       		.uleb128 0x34
 2858 0142 00       		.byte	0
 2859 0143 03       		.uleb128 0x3
 2860 0144 08       		.uleb128 0x8
 2861 0145 3A       		.uleb128 0x3a
 2862 0146 0B       		.uleb128 0xb
 2863 0147 3B       		.uleb128 0x3b
 2864 0148 05       		.uleb128 0x5
 2865 0149 49       		.uleb128 0x49
 2866 014a 13       		.uleb128 0x13
 2867 014b 3F       		.uleb128 0x3f
 2868 014c 19       		.uleb128 0x19
 2869 014d 3C       		.uleb128 0x3c
 2870 014e 19       		.uleb128 0x19
 2871 014f 00       		.byte	0
 2872 0150 00       		.byte	0
 2873 0151 1C       		.uleb128 0x1c
 2874 0152 21       		.uleb128 0x21
 2875 0153 00       		.byte	0
 2876 0154 00       		.byte	0
 2877 0155 00       		.byte	0
 2878 0156 1D       		.uleb128 0x1d
 2879 0157 15       		.uleb128 0x15
 2880 0158 01       		.byte	0x1
 2881 0159 27       		.uleb128 0x27
 2882 015a 19       		.uleb128 0x19
 2883 015b 49       		.uleb128 0x49
 2884 015c 13       		.uleb128 0x13
 2885 015d 01       		.uleb128 0x1
 2886 015e 13       		.uleb128 0x13
 2887 015f 00       		.byte	0
 2888 0160 00       		.byte	0
 2889 0161 1E       		.uleb128 0x1e
 2890 0162 13       		.uleb128 0x13
 2891 0163 00       		.byte	0
 2892 0164 0B       		.uleb128 0xb
 2893 0165 0B       		.uleb128 0xb
 2894 0166 3A       		.uleb128 0x3a
 2895 0167 0B       		.uleb128 0xb
 2896 0168 3B       		.uleb128 0x3b
 2897 0169 0B       		.uleb128 0xb
 2898 016a 00       		.byte	0
 2899 016b 00       		.byte	0
 2900 016c 1F       		.uleb128 0x1f
 2901 016d 04       		.uleb128 0x4
 2902 016e 01       		.byte	0x1
 2903 016f 3E       		.uleb128 0x3e
 2904 0170 0B       		.uleb128 0xb
 2905 0171 0B       		.uleb128 0xb
 2906 0172 0B       		.uleb128 0xb
 2907 0173 49       		.uleb128 0x49
ARM GAS  /var/folders/vd/czx34qs52cd_f3nb04sxmghc0000gn/T//ccFSGepM.s 			page 52


 2908 0174 13       		.uleb128 0x13
 2909 0175 3A       		.uleb128 0x3a
 2910 0176 0B       		.uleb128 0xb
 2911 0177 3B       		.uleb128 0x3b
 2912 0178 0B       		.uleb128 0xb
 2913 0179 01       		.uleb128 0x1
 2914 017a 13       		.uleb128 0x13
 2915 017b 00       		.byte	0
 2916 017c 00       		.byte	0
 2917 017d 20       		.uleb128 0x20
 2918 017e 28       		.uleb128 0x28
 2919 017f 00       		.byte	0
 2920 0180 03       		.uleb128 0x3
 2921 0181 0E       		.uleb128 0xe
 2922 0182 1C       		.uleb128 0x1c
 2923 0183 0B       		.uleb128 0xb
 2924 0184 00       		.byte	0
 2925 0185 00       		.byte	0
 2926 0186 21       		.uleb128 0x21
 2927 0187 34       		.uleb128 0x34
 2928 0188 00       		.byte	0
 2929 0189 03       		.uleb128 0x3
 2930 018a 08       		.uleb128 0x8
 2931 018b 3A       		.uleb128 0x3a
 2932 018c 0B       		.uleb128 0xb
 2933 018d 3B       		.uleb128 0x3b
 2934 018e 0B       		.uleb128 0xb
 2935 018f 49       		.uleb128 0x49
 2936 0190 13       		.uleb128 0x13
 2937 0191 02       		.uleb128 0x2
 2938 0192 18       		.uleb128 0x18
 2939 0193 00       		.byte	0
 2940 0194 00       		.byte	0
 2941 0195 22       		.uleb128 0x22
 2942 0196 2E       		.uleb128 0x2e
 2943 0197 01       		.byte	0x1
 2944 0198 3F       		.uleb128 0x3f
 2945 0199 19       		.uleb128 0x19
 2946 019a 03       		.uleb128 0x3
 2947 019b 0E       		.uleb128 0xe
 2948 019c 3A       		.uleb128 0x3a
 2949 019d 0B       		.uleb128 0xb
 2950 019e 3B       		.uleb128 0x3b
 2951 019f 0B       		.uleb128 0xb
 2952 01a0 27       		.uleb128 0x27
 2953 01a1 19       		.uleb128 0x19
 2954 01a2 11       		.uleb128 0x11
 2955 01a3 01       		.uleb128 0x1
 2956 01a4 12       		.uleb128 0x12
 2957 01a5 06       		.uleb128 0x6
 2958 01a6 40       		.uleb128 0x40
 2959 01a7 18       		.uleb128 0x18
 2960 01a8 9742     		.uleb128 0x2117
 2961 01aa 19       		.uleb128 0x19
 2962 01ab 01       		.uleb128 0x1
 2963 01ac 13       		.uleb128 0x13
 2964 01ad 00       		.byte	0
ARM GAS  /var/folders/vd/czx34qs52cd_f3nb04sxmghc0000gn/T//ccFSGepM.s 			page 53


 2965 01ae 00       		.byte	0
 2966 01af 23       		.uleb128 0x23
 2967 01b0 05       		.uleb128 0x5
 2968 01b1 00       		.byte	0
 2969 01b2 03       		.uleb128 0x3
 2970 01b3 08       		.uleb128 0x8
 2971 01b4 3A       		.uleb128 0x3a
 2972 01b5 0B       		.uleb128 0xb
 2973 01b6 3B       		.uleb128 0x3b
 2974 01b7 0B       		.uleb128 0xb
 2975 01b8 49       		.uleb128 0x49
 2976 01b9 13       		.uleb128 0x13
 2977 01ba 02       		.uleb128 0x2
 2978 01bb 18       		.uleb128 0x18
 2979 01bc 00       		.byte	0
 2980 01bd 00       		.byte	0
 2981 01be 24       		.uleb128 0x24
 2982 01bf 2E       		.uleb128 0x2e
 2983 01c0 01       		.byte	0x1
 2984 01c1 03       		.uleb128 0x3
 2985 01c2 08       		.uleb128 0x8
 2986 01c3 3A       		.uleb128 0x3a
 2987 01c4 0B       		.uleb128 0xb
 2988 01c5 3B       		.uleb128 0x3b
 2989 01c6 0B       		.uleb128 0xb
 2990 01c7 27       		.uleb128 0x27
 2991 01c8 19       		.uleb128 0x19
 2992 01c9 49       		.uleb128 0x49
 2993 01ca 13       		.uleb128 0x13
 2994 01cb 11       		.uleb128 0x11
 2995 01cc 01       		.uleb128 0x1
 2996 01cd 12       		.uleb128 0x12
 2997 01ce 06       		.uleb128 0x6
 2998 01cf 40       		.uleb128 0x40
 2999 01d0 18       		.uleb128 0x18
 3000 01d1 9742     		.uleb128 0x2117
 3001 01d3 19       		.uleb128 0x19
 3002 01d4 01       		.uleb128 0x1
 3003 01d5 13       		.uleb128 0x13
 3004 01d6 00       		.byte	0
 3005 01d7 00       		.byte	0
 3006 01d8 25       		.uleb128 0x25
 3007 01d9 05       		.uleb128 0x5
 3008 01da 00       		.byte	0
 3009 01db 03       		.uleb128 0x3
 3010 01dc 08       		.uleb128 0x8
 3011 01dd 3A       		.uleb128 0x3a
 3012 01de 0B       		.uleb128 0xb
 3013 01df 3B       		.uleb128 0x3b
 3014 01e0 0B       		.uleb128 0xb
 3015 01e1 49       		.uleb128 0x49
 3016 01e2 13       		.uleb128 0x13
 3017 01e3 02       		.uleb128 0x2
 3018 01e4 17       		.uleb128 0x17
 3019 01e5 00       		.byte	0
 3020 01e6 00       		.byte	0
 3021 01e7 26       		.uleb128 0x26
ARM GAS  /var/folders/vd/czx34qs52cd_f3nb04sxmghc0000gn/T//ccFSGepM.s 			page 54


 3022 01e8 2E       		.uleb128 0x2e
 3023 01e9 01       		.byte	0x1
 3024 01ea 03       		.uleb128 0x3
 3025 01eb 0E       		.uleb128 0xe
 3026 01ec 3A       		.uleb128 0x3a
 3027 01ed 0B       		.uleb128 0xb
 3028 01ee 3B       		.uleb128 0x3b
 3029 01ef 0B       		.uleb128 0xb
 3030 01f0 27       		.uleb128 0x27
 3031 01f1 19       		.uleb128 0x19
 3032 01f2 49       		.uleb128 0x49
 3033 01f3 13       		.uleb128 0x13
 3034 01f4 11       		.uleb128 0x11
 3035 01f5 01       		.uleb128 0x1
 3036 01f6 12       		.uleb128 0x12
 3037 01f7 06       		.uleb128 0x6
 3038 01f8 40       		.uleb128 0x40
 3039 01f9 18       		.uleb128 0x18
 3040 01fa 9742     		.uleb128 0x2117
 3041 01fc 19       		.uleb128 0x19
 3042 01fd 01       		.uleb128 0x1
 3043 01fe 13       		.uleb128 0x13
 3044 01ff 00       		.byte	0
 3045 0200 00       		.byte	0
 3046 0201 27       		.uleb128 0x27
 3047 0202 2E       		.uleb128 0x2e
 3048 0203 01       		.byte	0x1
 3049 0204 03       		.uleb128 0x3
 3050 0205 0E       		.uleb128 0xe
 3051 0206 3A       		.uleb128 0x3a
 3052 0207 0B       		.uleb128 0xb
 3053 0208 3B       		.uleb128 0x3b
 3054 0209 0B       		.uleb128 0xb
 3055 020a 27       		.uleb128 0x27
 3056 020b 19       		.uleb128 0x19
 3057 020c 49       		.uleb128 0x49
 3058 020d 13       		.uleb128 0x13
 3059 020e 11       		.uleb128 0x11
 3060 020f 01       		.uleb128 0x1
 3061 0210 12       		.uleb128 0x12
 3062 0211 06       		.uleb128 0x6
 3063 0212 40       		.uleb128 0x40
 3064 0213 18       		.uleb128 0x18
 3065 0214 9742     		.uleb128 0x2117
 3066 0216 19       		.uleb128 0x19
 3067 0217 00       		.byte	0
 3068 0218 00       		.byte	0
 3069 0219 00       		.byte	0
 3070              		.section	.debug_loc,"",%progbits
 3071              	.Ldebug_loc0:
 3072              	.LLST3:
 3073 0000 00000000 		.4byte	.LVL6
 3074 0004 02000000 		.4byte	.LVL7
 3075 0008 0100     		.2byte	0x1
 3076 000a 50       		.byte	0x50
 3077 000b 02000000 		.4byte	.LVL7
 3078 000f 04000000 		.4byte	.LFE316
ARM GAS  /var/folders/vd/czx34qs52cd_f3nb04sxmghc0000gn/T//ccFSGepM.s 			page 55


 3079 0013 0400     		.2byte	0x4
 3080 0015 F3       		.byte	0xf3
 3081 0016 01       		.uleb128 0x1
 3082 0017 50       		.byte	0x50
 3083 0018 9F       		.byte	0x9f
 3084 0019 00000000 		.4byte	0
 3085 001d 00000000 		.4byte	0
 3086              	.LLST2:
 3087 0021 00000000 		.4byte	.LVL4
 3088 0025 02000000 		.4byte	.LVL5
 3089 0029 0100     		.2byte	0x1
 3090 002b 50       		.byte	0x50
 3091 002c 02000000 		.4byte	.LVL5
 3092 0030 04000000 		.4byte	.LFE315
 3093 0034 0400     		.2byte	0x4
 3094 0036 F3       		.byte	0xf3
 3095 0037 01       		.uleb128 0x1
 3096 0038 50       		.byte	0x50
 3097 0039 9F       		.byte	0x9f
 3098 003a 00000000 		.4byte	0
 3099 003e 00000000 		.4byte	0
 3100              	.LLST1:
 3101 0042 00000000 		.4byte	.LVL2
 3102 0046 02000000 		.4byte	.LVL3
 3103 004a 0100     		.2byte	0x1
 3104 004c 50       		.byte	0x50
 3105 004d 02000000 		.4byte	.LVL3
 3106 0051 04000000 		.4byte	.LFE314
 3107 0055 0400     		.2byte	0x4
 3108 0057 F3       		.byte	0xf3
 3109 0058 01       		.uleb128 0x1
 3110 0059 50       		.byte	0x50
 3111 005a 9F       		.byte	0x9f
 3112 005b 00000000 		.4byte	0
 3113 005f 00000000 		.4byte	0
 3114              	.LLST0:
 3115 0063 00000000 		.4byte	.LVL0
 3116 0067 02000000 		.4byte	.LVL1
 3117 006b 0100     		.2byte	0x1
 3118 006d 50       		.byte	0x50
 3119 006e 02000000 		.4byte	.LVL1
 3120 0072 04000000 		.4byte	.LFE313
 3121 0076 0400     		.2byte	0x4
 3122 0078 F3       		.byte	0xf3
 3123 0079 01       		.uleb128 0x1
 3124 007a 50       		.byte	0x50
 3125 007b 9F       		.byte	0x9f
 3126 007c 00000000 		.4byte	0
 3127 0080 00000000 		.4byte	0
 3128              		.section	.debug_aranges,"",%progbits
 3129 0000 3C000000 		.4byte	0x3c
 3130 0004 0200     		.2byte	0x2
 3131 0006 00000000 		.4byte	.Ldebug_info0
 3132 000a 04       		.byte	0x4
 3133 000b 00       		.byte	0
 3134 000c 0000     		.2byte	0
 3135 000e 0000     		.2byte	0
ARM GAS  /var/folders/vd/czx34qs52cd_f3nb04sxmghc0000gn/T//ccFSGepM.s 			page 56


 3136 0010 00000000 		.4byte	.LFB313
 3137 0014 04000000 		.4byte	.LFE313-.LFB313
 3138 0018 00000000 		.4byte	.LFB314
 3139 001c 04000000 		.4byte	.LFE314-.LFB314
 3140 0020 00000000 		.4byte	.LFB315
 3141 0024 04000000 		.4byte	.LFE315-.LFB315
 3142 0028 00000000 		.4byte	.LFB316
 3143 002c 04000000 		.4byte	.LFE316-.LFB316
 3144 0030 00000000 		.4byte	.LFB317
 3145 0034 0C000000 		.4byte	.LFE317-.LFB317
 3146 0038 00000000 		.4byte	0
 3147 003c 00000000 		.4byte	0
 3148              		.section	.debug_ranges,"",%progbits
 3149              	.Ldebug_ranges0:
 3150 0000 00000000 		.4byte	.LFB313
 3151 0004 04000000 		.4byte	.LFE313
 3152 0008 00000000 		.4byte	.LFB314
 3153 000c 04000000 		.4byte	.LFE314
 3154 0010 00000000 		.4byte	.LFB315
 3155 0014 04000000 		.4byte	.LFE315
 3156 0018 00000000 		.4byte	.LFB316
 3157 001c 04000000 		.4byte	.LFE316
 3158 0020 00000000 		.4byte	.LFB317
 3159 0024 0C000000 		.4byte	.LFE317
 3160 0028 00000000 		.4byte	0
 3161 002c 00000000 		.4byte	0
 3162              		.section	.debug_line,"",%progbits
 3163              	.Ldebug_line0:
 3164 0000 88040000 		.section	.debug_str,"MS",%progbits,1
 3164      02002F04 
 3164      00000201 
 3164      FB0E0D00 
 3164      01010101 
 3165              	.LASF123:
 3166 0000 6F66665F 		.ascii	"off_ctx\000"
 3166      63747800 
 3167              	.LASF82:
 3168 0008 4D314152 		.ascii	"M1AR\000"
 3168      00
 3169              	.LASF173:
 3170 000d 73746D33 		.ascii	"stm32_dma_stream_t\000"
 3170      325F646D 
 3170      615F7374 
 3170      7265616D 
 3170      5F7400
 3171              	.LASF4:
 3172 0020 73697A65 		.ascii	"size_t\000"
 3172      5F7400
 3173              	.LASF122:
 3174 0027 6F66665F 		.ascii	"off_prio\000"
 3174      7072696F 
 3174      00
 3175              	.LASF146:
 3176 0030 656E646D 		.ascii	"endmem\000"
 3176      656D00
 3177              	.LASF107:
 3178 0037 77747365 		.ascii	"wtsemp\000"
ARM GAS  /var/folders/vd/czx34qs52cd_f3nb04sxmghc0000gn/T//ccFSGepM.s 			page 57


 3178      6D7000
 3179              	.LASF74:
 3180 003e 73797374 		.ascii	"systime_t\000"
 3180      696D655F 
 3180      7400
 3181              	.LASF131:
 3182 0048 6F66665F 		.ascii	"off_preempt\000"
 3182      70726565 
 3182      6D707400 
 3183              	.LASF112:
 3184 0054 6F776E65 		.ascii	"owner\000"
 3184      7200
 3185              	.LASF25:
 3186 005a 74707269 		.ascii	"tprio_t\000"
 3186      6F5F7400 
 3187              	.LASF134:
 3188 0062 63685F64 		.ascii	"ch_debug\000"
 3188      65627567 
 3188      00
 3189              	.LASF152:
 3190 006b 70726F76 		.ascii	"provider\000"
 3190      69646572 
 3190      00
 3191              	.LASF230:
 3192 0074 4E756C6C 		.ascii	"NullStreamVMT\000"
 3192      53747265 
 3192      616D564D 
 3192      5400
 3193              	.LASF18:
 3194 0082 696E7433 		.ascii	"int32_t\000"
 3194      325F7400 
 3195              	.LASF237:
 3196 008a 77726974 		.ascii	"writes\000"
 3196      657300
 3197              	.LASF228:
 3198 0091 77726974 		.ascii	"writet\000"
 3198      657400
 3199              	.LASF58:
 3200 0098 76746675 		.ascii	"vtfunc_t\000"
 3200      6E635F74 
 3200      00
 3201              	.LASF64:
 3202 00a1 63685F76 		.ascii	"ch_virtual_timers_list\000"
 3202      69727475 
 3202      616C5F74 
 3202      696D6572 
 3202      735F6C69 
 3203              	.LASF224:
 3204 00b8 77726974 		.ascii	"write\000"
 3204      6500
 3205              	.LASF154:
 3206 00be 63685F64 		.ascii	"ch_dyn_element\000"
 3206      796E5F65 
 3206      6C656D65 
 3206      6E7400
 3207              	.LASF203:
 3208 00cd 70776D63 		.ascii	"pwmchnmsk_t\000"
ARM GAS  /var/folders/vd/czx34qs52cd_f3nb04sxmghc0000gn/T//ccFSGepM.s 			page 58


 3208      686E6D73 
 3208      6B5F7400 
 3209              	.LASF195:
 3210 00d9 636F6E66 		.ascii	"config\000"
 3210      696700
 3211              	.LASF38:
 3212 00e0 73746174 		.ascii	"state\000"
 3212      6500
 3213              	.LASF226:
 3214 00e6 70757474 		.ascii	"putt\000"
 3214      00
 3215              	.LASF207:
 3216 00eb 50574D43 		.ascii	"PWMChannelConfig\000"
 3216      68616E6E 
 3216      656C436F 
 3216      6E666967 
 3216      00
 3217              	.LASF159:
 3218 00fc 6F626A5F 		.ascii	"obj_list\000"
 3218      6C697374 
 3218      00
 3219              	.LASF96:
 3220 0105 444D4152 		.ascii	"DMAR\000"
 3220      00
 3221              	.LASF209:
 3222 010a 64696572 		.ascii	"dier\000"
 3222      00
 3223              	.LASF190:
 3224 010f 50574D5F 		.ascii	"PWM_UNINIT\000"
 3224      554E494E 
 3224      495400
 3225              	.LASF125:
 3226 011a 6F66665F 		.ascii	"off_older\000"
 3226      6F6C6465 
 3226      7200
 3227              	.LASF33:
 3228 0124 7072696F 		.ascii	"prio\000"
 3228      00
 3229              	.LASF234:
 3230 0129 2E2E2F6F 		.ascii	"../os/hal/lib/streams/nullstreams.c\000"
 3230      732F6861 
 3230      6C2F6C69 
 3230      622F7374 
 3230      7265616D 
 3231              	.LASF103:
 3232 014d 65786974 		.ascii	"exitcode\000"
 3232      636F6465 
 3232      00
 3233              	.LASF5:
 3234 0156 5F5F7569 		.ascii	"__uint8_t\000"
 3234      6E74385F 
 3234      7400
 3235              	.LASF180:
 3236 0160 715F746F 		.ascii	"q_top\000"
 3236      7000
 3237              	.LASF232:
 3238 0166 72656164 		.ascii	"reads\000"
ARM GAS  /var/folders/vd/czx34qs52cd_f3nb04sxmghc0000gn/T//ccFSGepM.s 			page 59


 3238      7300
 3239              	.LASF229:
 3240 016c 72656164 		.ascii	"readt\000"
 3240      7400
 3241              	.LASF179:
 3242 0172 715F6275 		.ascii	"q_buffer\000"
 3242      66666572 
 3242      00
 3243              	.LASF183:
 3244 017b 715F6E6F 		.ascii	"q_notify\000"
 3244      74696679 
 3244      00
 3245              	.LASF206:
 3246 0184 63616C6C 		.ascii	"callback\000"
 3246      6261636B 
 3246      00
 3247              	.LASF11:
 3248 018d 6C6F6E67 		.ascii	"long int\000"
 3248      20696E74 
 3248      00
 3249              	.LASF182:
 3250 0196 715F7264 		.ascii	"q_rdptr\000"
 3250      70747200 
 3251              	.LASF116:
 3252 019e 7A65726F 		.ascii	"zero\000"
 3252      00
 3253              	.LASF23:
 3254 01a3 74737461 		.ascii	"tstate_t\000"
 3254      74655F74 
 3254      00
 3255              	.LASF43:
 3256 01ac 6570656E 		.ascii	"epending\000"
 3256      64696E67 
 3256      00
 3257              	.LASF52:
 3258 01b5 74687265 		.ascii	"threads_queue_t\000"
 3258      6164735F 
 3258      71756575 
 3258      655F7400 
 3259              	.LASF219:
 3260 01c5 6F717565 		.ascii	"oqueue\000"
 3260      756500
 3261              	.LASF86:
 3262 01cc 72656761 		.ascii	"regarm_t\000"
 3262      726D5F74 
 3262      00
 3263              	.LASF202:
 3264 01d5 70776D63 		.ascii	"pwmchannel_t\000"
 3264      68616E6E 
 3264      656C5F74 
 3264      00
 3265              	.LASF160:
 3266 01e2 6F626A5F 		.ascii	"obj_pool\000"
 3266      706F6F6C 
 3266      00
 3267              	.LASF220:
 3268 01eb 75736172 		.ascii	"usart\000"
ARM GAS  /var/folders/vd/czx34qs52cd_f3nb04sxmghc0000gn/T//ccFSGepM.s 			page 60


 3268      7400
 3269              	.LASF147:
 3270 01f1 6D656D63 		.ascii	"memcore_t\000"
 3270      6F72655F 
 3270      7400
 3271              	.LASF176:
 3272 01fb 696F5F71 		.ascii	"io_queue\000"
 3272      75657565 
 3272      00
 3273              	.LASF3:
 3274 0204 7369676E 		.ascii	"signed char\000"
 3274      65642063 
 3274      68617200 
 3275              	.LASF109:
 3276 0210 65776D61 		.ascii	"ewmask\000"
 3276      736B00
 3277              	.LASF16:
 3278 0217 75696E74 		.ascii	"uint8_t\000"
 3278      385F7400 
 3279              	.LASF27:
 3280 021f 6576656E 		.ascii	"eventmask_t\000"
 3280      746D6173 
 3280      6B5F7400 
 3281              	.LASF105:
 3282 022b 77747472 		.ascii	"wttrp\000"
 3282      7000
 3283              	.LASF204:
 3284 0231 70776D63 		.ascii	"pwmcnt_t\000"
 3284      6E745F74 
 3284      00
 3285              	.LASF6:
 3286 023a 756E7369 		.ascii	"unsigned char\000"
 3286      676E6564 
 3286      20636861 
 3286      7200
 3287              	.LASF184:
 3288 0248 715F6C69 		.ascii	"q_link\000"
 3288      6E6B00
 3289              	.LASF65:
 3290 024f 6C617374 		.ascii	"lasttime\000"
 3290      74696D65 
 3290      00
 3291              	.LASF68:
 3292 0258 70616E69 		.ascii	"panic_msg\000"
 3292      635F6D73 
 3292      6700
 3293              	.LASF66:
 3294 0262 73797374 		.ascii	"system_debug_t\000"
 3294      656D5F64 
 3294      65627567 
 3294      5F7400
 3295              	.LASF212:
 3296 0271 53445F55 		.ascii	"SD_UNINIT\000"
 3296      4E494E49 
 3296      5400
 3297              	.LASF236:
 3298 027b 6E756C6C 		.ascii	"nullObjectInit\000"
ARM GAS  /var/folders/vd/czx34qs52cd_f3nb04sxmghc0000gn/T//ccFSGepM.s 			page 61


 3298      4F626A65 
 3298      6374496E 
 3298      697400
 3299              	.LASF143:
 3300 028a 5F426F6F 		.ascii	"_Bool\000"
 3300      6C00
 3301              	.LASF92:
 3302 0290 43434D52 		.ascii	"CCMR1\000"
 3302      3100
 3303              	.LASF93:
 3304 0296 43434D52 		.ascii	"CCMR2\000"
 3304      3200
 3305              	.LASF97:
 3306 029c 43434D52 		.ascii	"CCMR3\000"
 3306      3300
 3307              	.LASF113:
 3308 02a2 63686172 		.ascii	"char\000"
 3308      00
 3309              	.LASF170:
 3310 02a7 69736869 		.ascii	"ishift\000"
 3310      667400
 3311              	.LASF162:
 3312 02ae 73656D5F 		.ascii	"sem_list\000"
 3312      6C697374 
 3312      00
 3313              	.LASF8:
 3314 02b7 5F5F7569 		.ascii	"__uint16_t\000"
 3314      6E743136 
 3314      5F7400
 3315              	.LASF104:
 3316 02c2 77746F62 		.ascii	"wtobjp\000"
 3316      6A7000
 3317              	.LASF188:
 3318 02c9 70616C65 		.ascii	"palevent_t\000"
 3318      76656E74 
 3318      5F7400
 3319              	.LASF130:
 3320 02d4 6F66665F 		.ascii	"off_refs\000"
 3320      72656673 
 3320      00
 3321              	.LASF39:
 3322 02dd 666C6167 		.ascii	"flags\000"
 3322      7300
 3323              	.LASF227:
 3324 02e3 67657474 		.ascii	"gett\000"
 3324      00
 3325              	.LASF87:
 3326 02e8 73746B61 		.ascii	"stkalign_t\000"
 3326      6C69676E 
 3326      5F7400
 3327              	.LASF85:
 3328 02f3 55534152 		.ascii	"USART_TypeDef\000"
 3328      545F5479 
 3328      70654465 
 3328      6600
 3329              	.LASF46:
 3330 0301 6D706F6F 		.ascii	"mpool\000"
ARM GAS  /var/folders/vd/czx34qs52cd_f3nb04sxmghc0000gn/T//ccFSGepM.s 			page 62


 3330      6C00
 3331              	.LASF168:
 3332 0307 73747265 		.ascii	"stream\000"
 3332      616D00
 3333              	.LASF136:
 3334 030e 6576656E 		.ascii	"event_listener_t\000"
 3334      745F6C69 
 3334      7374656E 
 3334      65725F74 
 3334      00
 3335              	.LASF119:
 3336 031f 70747273 		.ascii	"ptrsize\000"
 3336      697A6500 
 3337              	.LASF98:
 3338 0327 43435852 		.ascii	"CCXR\000"
 3338      00
 3339              	.LASF132:
 3340 032c 6F66665F 		.ascii	"off_time\000"
 3340      74696D65 
 3340      00
 3341              	.LASF201:
 3342 0335 70776D6D 		.ascii	"pwmmode_t\000"
 3342      6F64655F 
 3342      7400
 3343              	.LASF29:
 3344 033f 636E745F 		.ascii	"cnt_t\000"
 3344      7400
 3345              	.LASF221:
 3346 0345 72786D61 		.ascii	"rxmask\000"
 3346      736B00
 3347              	.LASF155:
 3348 034c 64796E5F 		.ascii	"dyn_element_t\000"
 3348      656C656D 
 3348      656E745F 
 3348      7400
 3349              	.LASF108:
 3350 035a 77746D74 		.ascii	"wtmtxp\000"
 3350      787000
 3351              	.LASF56:
 3352 0361 63685F72 		.ascii	"ch_ready_list\000"
 3352      65616479 
 3352      5F6C6973 
 3352      7400
 3353              	.LASF163:
 3354 036f 73656D5F 		.ascii	"sem_pool\000"
 3354      706F6F6C 
 3354      00
 3355              	.LASF145:
 3356 0378 6E657874 		.ascii	"nextmem\000"
 3356      6D656D00 
 3357              	.LASF178:
 3358 0380 715F636F 		.ascii	"q_counter\000"
 3358      756E7465 
 3358      7200
 3359              	.LASF197:
 3360 038a 656E6162 		.ascii	"enabled\000"
 3360      6C656400 
ARM GAS  /var/folders/vd/czx34qs52cd_f3nb04sxmghc0000gn/T//ccFSGepM.s 			page 63


 3361              	.LASF14:
 3362 0392 5F5F7569 		.ascii	"__uint64_t\000"
 3362      6E743634 
 3362      5F7400
 3363              	.LASF128:
 3364 039d 6F66665F 		.ascii	"off_state\000"
 3364      73746174 
 3364      6500
 3365              	.LASF13:
 3366 03a7 6C6F6E67 		.ascii	"long unsigned int\000"
 3366      20756E73 
 3366      69676E65 
 3366      6420696E 
 3366      7400
 3367              	.LASF121:
 3368 03b9 74687265 		.ascii	"threadsize\000"
 3368      61647369 
 3368      7A6500
 3369              	.LASF91:
 3370 03c4 44494552 		.ascii	"DIER\000"
 3370      00
 3371              	.LASF77:
 3372 03c9 53797374 		.ascii	"SystemCoreClock\000"
 3372      656D436F 
 3372      7265436C 
 3372      6F636B00 
 3373              	.LASF110:
 3374 03d9 63685F73 		.ascii	"ch_semaphore\000"
 3374      656D6170 
 3374      686F7265 
 3374      00
 3375              	.LASF49:
 3376 03e6 63685F74 		.ascii	"ch_thread\000"
 3376      68726561 
 3376      6400
 3377              	.LASF63:
 3378 03f0 76697274 		.ascii	"virtual_timers_list_t\000"
 3378      75616C5F 
 3378      74696D65 
 3378      72735F6C 
 3378      6973745F 
 3379              	.LASF114:
 3380 0406 63685F69 		.ascii	"ch_idle_thread_wa\000"
 3380      646C655F 
 3380      74687265 
 3380      61645F77 
 3380      6100
 3381              	.LASF174:
 3382 0418 5F73746D 		.ascii	"_stm32_dma_streams\000"
 3382      33325F64 
 3382      6D615F73 
 3382      74726561 
 3382      6D7300
 3383              	.LASF165:
 3384 042b 6669666F 		.ascii	"fifo_list\000"
 3384      5F6C6973 
 3384      7400
ARM GAS  /var/folders/vd/czx34qs52cd_f3nb04sxmghc0000gn/T//ccFSGepM.s 			page 64


 3385              	.LASF59:
 3386 0435 76697274 		.ascii	"virtual_timer_t\000"
 3386      75616C5F 
 3386      74696D65 
 3386      725F7400 
 3387              	.LASF55:
 3388 0445 72656164 		.ascii	"ready_list_t\000"
 3388      795F6C69 
 3388      73745F74 
 3388      00
 3389              	.LASF35:
 3390 0452 6F6C6465 		.ascii	"older\000"
 3390      7200
 3391              	.LASF222:
 3392 0458 53657269 		.ascii	"SerialDriverVMT\000"
 3392      616C4472 
 3392      69766572 
 3392      564D5400 
 3393              	.LASF45:
 3394 0468 7265616C 		.ascii	"realprio\000"
 3394      7072696F 
 3394      00
 3395              	.LASF99:
 3396 0471 73746D33 		.ascii	"stm32_tim_t\000"
 3396      325F7469 
 3396      6D5F7400 
 3397              	.LASF30:
 3398 047d 75636E74 		.ascii	"ucnt_t\000"
 3398      5F7400
 3399              	.LASF199:
 3400 0484 636C6F63 		.ascii	"clock\000"
 3400      6B00
 3401              	.LASF127:
 3402 048a 6F66665F 		.ascii	"off_stklimit\000"
 3402      73746B6C 
 3402      696D6974 
 3402      00
 3403              	.LASF149:
 3404 0497 706F6F6C 		.ascii	"pool_header\000"
 3404      5F686561 
 3404      64657200 
 3405              	.LASF50:
 3406 04a3 63685F74 		.ascii	"ch_threads_list\000"
 3406      68726561 
 3406      64735F6C 
 3406      69737400 
 3407              	.LASF233:
 3408 04b3 474E5520 		.ascii	"GNU C11 7.2.1 20170904 (release) [ARM/embedded-7-br"
 3408      43313120 
 3408      372E322E 
 3408      31203230 
 3408      31373039 
 3409 04e6 616E6368 		.ascii	"anch revision 255204] -mcpu=cortex-m4 -mno-thumb-in"
 3409      20726576 
 3409      6973696F 
 3409      6E203235 
 3409      35323034 
ARM GAS  /var/folders/vd/czx34qs52cd_f3nb04sxmghc0000gn/T//ccFSGepM.s 			page 65


 3410 0519 74657277 		.ascii	"terwork -mthumb -ggdb -O2 -fomit-frame-pointer -fal"
 3410      6F726B20 
 3410      2D6D7468 
 3410      756D6220 
 3410      2D676764 
 3411 054c 69676E2D 		.ascii	"ign-functions=16 -ffunction-sections -fdata-section"
 3411      66756E63 
 3411      74696F6E 
 3411      733D3136 
 3411      202D6666 
 3412 057f 73202D66 		.ascii	"s -fno-common\000"
 3412      6E6F2D63 
 3412      6F6D6D6F 
 3412      6E00
 3413              	.LASF12:
 3414 058d 5F5F7569 		.ascii	"__uint32_t\000"
 3414      6E743332 
 3414      5F7400
 3415              	.LASF44:
 3416 0598 6D74786C 		.ascii	"mtxlist\000"
 3416      69737400 
 3417              	.LASF1:
 3418 05a0 6C6F6E67 		.ascii	"long long int\000"
 3418      206C6F6E 
 3418      6720696E 
 3418      7400
 3419              	.LASF75:
 3420 05ae 73797369 		.ascii	"sysinterval_t\000"
 3420      6E746572 
 3420      76616C5F 
 3420      7400
 3421              	.LASF158:
 3422 05bc 63685F6F 		.ascii	"ch_objects_factory\000"
 3422      626A6563 
 3422      74735F66 
 3422      6163746F 
 3422      727900
 3423              	.LASF84:
 3424 05cf 47545052 		.ascii	"GTPR\000"
 3424      00
 3425              	.LASF142:
 3426 05d4 6576656E 		.ascii	"event_source_t\000"
 3426      745F736F 
 3426      75726365 
 3426      5F7400
 3427              	.LASF151:
 3428 05e3 616C6967 		.ascii	"align\000"
 3428      6E00
 3429              	.LASF76:
 3430 05e9 49544D5F 		.ascii	"ITM_RxBuffer\000"
 3430      52784275 
 3430      66666572 
 3430      00
 3431              	.LASF208:
 3432 05f6 66726571 		.ascii	"frequency\000"
 3432      75656E63 
 3432      7900
ARM GAS  /var/folders/vd/czx34qs52cd_f3nb04sxmghc0000gn/T//ccFSGepM.s 			page 66


 3433              	.LASF185:
 3434 0600 716E6F74 		.ascii	"qnotify_t\000"
 3434      6966795F 
 3434      7400
 3435              	.LASF217:
 3436 060a 6576656E 		.ascii	"event\000"
 3436      7400
 3437              	.LASF225:
 3438 0610 72656164 		.ascii	"read\000"
 3438      00
 3439              	.LASF124:
 3440 0615 6F66665F 		.ascii	"off_newer\000"
 3440      6E657765 
 3440      7200
 3441              	.LASF171:
 3442 061f 73656C66 		.ascii	"selfindex\000"
 3442      696E6465 
 3442      7800
 3443              	.LASF0:
 3444 0629 756E7369 		.ascii	"unsigned int\000"
 3444      676E6564 
 3444      20696E74 
 3444      00
 3445              	.LASF21:
 3446 0636 7274636E 		.ascii	"rtcnt_t\000"
 3446      745F7400 
 3447              	.LASF198:
 3448 063e 6368616E 		.ascii	"channels\000"
 3448      6E656C73 
 3448      00
 3449              	.LASF200:
 3450 0647 70776D63 		.ascii	"pwmcallback_t\000"
 3450      616C6C62 
 3450      61636B5F 
 3450      7400
 3451              	.LASF57:
 3452 0655 63757272 		.ascii	"current\000"
 3452      656E7400 
 3453              	.LASF194:
 3454 065d 50574D44 		.ascii	"PWMDriver\000"
 3454      72697665 
 3454      7200
 3455              	.LASF100:
 3456 0667 6F666673 		.ascii	"offset\000"
 3456      657400
 3457              	.LASF83:
 3458 066e 444D415F 		.ascii	"DMA_Stream_TypeDef\000"
 3458      53747265 
 3458      616D5F54 
 3458      79706544 
 3458      656600
 3459              	.LASF144:
 3460 0681 6D656D67 		.ascii	"memgetfunc_t\000"
 3460      65746675 
 3460      6E635F74 
 3460      00
 3461              	.LASF189:
ARM GAS  /var/folders/vd/czx34qs52cd_f3nb04sxmghc0000gn/T//ccFSGepM.s 			page 67


 3462 068e 5F70616C 		.ascii	"_pal_events\000"
 3462      5F657665 
 3462      6E747300 
 3463              	.LASF31:
 3464 069a 74687265 		.ascii	"thread_t\000"
 3464      61645F74 
 3464      00
 3465              	.LASF2:
 3466 06a3 6C6F6E67 		.ascii	"long double\000"
 3466      20646F75 
 3466      626C6500 
 3467              	.LASF140:
 3468 06af 77666C61 		.ascii	"wflags\000"
 3468      677300
 3469              	.LASF47:
 3470 06b6 74687265 		.ascii	"thread_reference_t\000"
 3470      61645F72 
 3470      65666572 
 3470      656E6365 
 3470      5F7400
 3471              	.LASF106:
 3472 06c9 73656E74 		.ascii	"sentmsg\000"
 3472      6D736700 
 3473              	.LASF89:
 3474 06d1 706F7274 		.ascii	"port_intctx\000"
 3474      5F696E74 
 3474      63747800 
 3475              	.LASF166:
 3476 06dd 6F626A65 		.ascii	"objects_factory_t\000"
 3476      6374735F 
 3476      66616374 
 3476      6F72795F 
 3476      7400
 3477              	.LASF161:
 3478 06ef 6275665F 		.ascii	"buf_list\000"
 3478      6C697374 
 3478      00
 3479              	.LASF78:
 3480 06f8 41484250 		.ascii	"AHBPrescTable\000"
 3480      72657363 
 3480      5461626C 
 3480      6500
 3481              	.LASF60:
 3482 0706 63685F76 		.ascii	"ch_virtual_timer\000"
 3482      69727475 
 3482      616C5F74 
 3482      696D6572 
 3482      00
 3483              	.LASF117:
 3484 0717 73697A65 		.ascii	"size\000"
 3484      00
 3485              	.LASF15:
 3486 071c 6C6F6E67 		.ascii	"long long unsigned int\000"
 3486      206C6F6E 
 3486      6720756E 
 3486      7369676E 
 3486      65642069 
ARM GAS  /var/folders/vd/czx34qs52cd_f3nb04sxmghc0000gn/T//ccFSGepM.s 			page 68


 3487              	.LASF191:
 3488 0733 50574D5F 		.ascii	"PWM_STOP\000"
 3488      53544F50 
 3488      00
 3489              	.LASF17:
 3490 073c 75696E74 		.ascii	"uint16_t\000"
 3490      31365F74 
 3490      00
 3491              	.LASF126:
 3492 0745 6F66665F 		.ascii	"off_name\000"
 3492      6E616D65 
 3492      00
 3493              	.LASF26:
 3494 074e 6D73675F 		.ascii	"msg_t\000"
 3494      7400
 3495              	.LASF53:
 3496 0754 63685F74 		.ascii	"ch_threads_queue\000"
 3496      68726561 
 3496      64735F71 
 3496      75657565 
 3496      00
 3497              	.LASF28:
 3498 0765 6576656E 		.ascii	"eventflags_t\000"
 3498      74666C61 
 3498      67735F74 
 3498      00
 3499              	.LASF94:
 3500 0772 43434552 		.ascii	"CCER\000"
 3500      00
 3501              	.LASF61:
 3502 0777 64656C74 		.ascii	"delta\000"
 3502      6100
 3503              	.LASF40:
 3504 077d 72656673 		.ascii	"refs\000"
 3504      00
 3505              	.LASF32:
 3506 0782 71756575 		.ascii	"queue\000"
 3506      6500
 3507              	.LASF172:
 3508 0788 76656374 		.ascii	"vector\000"
 3508      6F7200
 3509              	.LASF167:
 3510 078f 63685F66 		.ascii	"ch_factory\000"
 3510      6163746F 
 3510      727900
 3511              	.LASF164:
 3512 079a 6D62785F 		.ascii	"mbx_list\000"
 3512      6C697374 
 3512      00
 3513              	.LASF73:
 3514 07a3 6D61696E 		.ascii	"mainthread\000"
 3514      74687265 
 3514      616400
 3515              	.LASF90:
 3516 07ae 534D4352 		.ascii	"SMCR\000"
 3516      00
 3517              	.LASF196:
ARM GAS  /var/folders/vd/czx34qs52cd_f3nb04sxmghc0000gn/T//ccFSGepM.s 			page 69


 3518 07b3 70657269 		.ascii	"period\000"
 3518      6F6400
 3519              	.LASF118:
 3520 07ba 76657273 		.ascii	"version\000"
 3520      696F6E00 
 3521              	.LASF37:
 3522 07c2 77616261 		.ascii	"wabase\000"
 3522      736500
 3523              	.LASF216:
 3524 07c9 53657269 		.ascii	"SerialDriver\000"
 3524      616C4472 
 3524      69766572 
 3524      00
 3525              	.LASF153:
 3526 07d6 6D656D6F 		.ascii	"memory_pool_t\000"
 3526      72795F70 
 3526      6F6F6C5F 
 3526      7400
 3527              	.LASF177:
 3528 07e4 715F7761 		.ascii	"q_waiting\000"
 3528      6974696E 
 3528      6700
 3529              	.LASF71:
 3530 07ee 726C6973 		.ascii	"rlist\000"
 3530      7400
 3531              	.LASF22:
 3532 07f4 746D6F64 		.ascii	"tmode_t\000"
 3532      655F7400 
 3533              	.LASF215:
 3534 07fc 73647374 		.ascii	"sdstate_t\000"
 3534      6174655F 
 3534      7400
 3535              	.LASF214:
 3536 0806 53445F52 		.ascii	"SD_READY\000"
 3536      45414459 
 3536      00
 3537              	.LASF101:
 3538 080f 746D5F63 		.ascii	"tm_calibration_t\000"
 3538      616C6962 
 3538      72617469 
 3538      6F6E5F74 
 3538      00
 3539              	.LASF231:
 3540 0820 4E756C6C 		.ascii	"NullStream\000"
 3540      53747265 
 3540      616D00
 3541              	.LASF81:
 3542 082b 4D304152 		.ascii	"M0AR\000"
 3542      00
 3543              	.LASF36:
 3544 0830 6E616D65 		.ascii	"name\000"
 3544      00
 3545              	.LASF138:
 3546 0835 6C697374 		.ascii	"listener\000"
 3546      656E6572 
 3546      00
 3547              	.LASF79:
ARM GAS  /var/folders/vd/czx34qs52cd_f3nb04sxmghc0000gn/T//ccFSGepM.s 			page 70


 3548 083e 41504250 		.ascii	"APBPrescTable\000"
 3548      72657363 
 3548      5461626C 
 3548      6500
 3549              	.LASF192:
 3550 084c 50574D5F 		.ascii	"PWM_READY\000"
 3550      52454144 
 3550      5900
 3551              	.LASF7:
 3552 0856 73686F72 		.ascii	"short int\000"
 3552      7420696E 
 3552      7400
 3553              	.LASF141:
 3554 0860 6576656E 		.ascii	"event_source\000"
 3554      745F736F 
 3554      75726365 
 3554      00
 3555              	.LASF20:
 3556 086d 75696E74 		.ascii	"uint64_t\000"
 3556      36345F74 
 3556      00
 3557              	.LASF205:
 3558 0876 6D6F6465 		.ascii	"mode\000"
 3558      00
 3559              	.LASF62:
 3560 087b 66756E63 		.ascii	"func\000"
 3560      00
 3561              	.LASF111:
 3562 0880 63685F6D 		.ascii	"ch_mutex\000"
 3562      75746578 
 3562      00
 3563              	.LASF42:
 3564 0889 6D736771 		.ascii	"msgqueue\000"
 3564      75657565 
 3564      00
 3565              	.LASF218:
 3566 0892 69717565 		.ascii	"iqueue\000"
 3566      756500
 3567              	.LASF67:
 3568 0899 63685F73 		.ascii	"ch_system_debug\000"
 3568      79737465 
 3568      6D5F6465 
 3568      62756700 
 3569              	.LASF157:
 3570 08a9 64796E5F 		.ascii	"dyn_list_t\000"
 3570      6C697374 
 3570      5F7400
 3571              	.LASF175:
 3572 08b4 696F5F71 		.ascii	"io_queue_t\000"
 3572      75657565 
 3572      5F7400
 3573              	.LASF150:
 3574 08bf 6F626A65 		.ascii	"object_size\000"
 3574      63745F73 
 3574      697A6500 
 3575              	.LASF72:
 3576 08cb 76746C69 		.ascii	"vtlist\000"
ARM GAS  /var/folders/vd/czx34qs52cd_f3nb04sxmghc0000gn/T//ccFSGepM.s 			page 71


 3576      737400
 3577              	.LASF41:
 3578 08d2 77616974 		.ascii	"waiting\000"
 3578      696E6700 
 3579              	.LASF210:
 3580 08da 50574D43 		.ascii	"PWMConfig\000"
 3580      6F6E6669 
 3580      6700
 3581              	.LASF135:
 3582 08e4 6D757465 		.ascii	"mutex_t\000"
 3582      785F7400 
 3583              	.LASF24:
 3584 08ec 74726566 		.ascii	"trefs_t\000"
 3584      735F7400 
 3585              	.LASF88:
 3586 08f4 706F7274 		.ascii	"port_context\000"
 3586      5F636F6E 
 3586      74657874 
 3586      00
 3587              	.LASF48:
 3588 0901 74687265 		.ascii	"threads_list_t\000"
 3588      6164735F 
 3588      6C697374 
 3588      5F7400
 3589              	.LASF211:
 3590 0910 50574D44 		.ascii	"PWMD4\000"
 3590      3400
 3591              	.LASF70:
 3592 0916 63685F73 		.ascii	"ch_system\000"
 3592      79737465 
 3592      6D00
 3593              	.LASF193:
 3594 0920 70776D73 		.ascii	"pwmstate_t\000"
 3594      74617465 
 3594      5F7400
 3595              	.LASF34:
 3596 092b 6E657765 		.ascii	"newer\000"
 3596      7200
 3597              	.LASF95:
 3598 0931 42445452 		.ascii	"BDTR\000"
 3598      00
 3599              	.LASF19:
 3600 0936 75696E74 		.ascii	"uint32_t\000"
 3600      33325F74 
 3600      00
 3601              	.LASF235:
 3602 093f 2F557365 		.ascii	"/Users/lantian/Projects/stm32f407vet6/dev\000"
 3602      72732F6C 
 3602      616E7469 
 3602      616E2F50 
 3602      726F6A65 
 3603              	.LASF223:
 3604 0969 696E7374 		.ascii	"instance_offset\000"
 3604      616E6365 
 3604      5F6F6666 
 3604      73657400 
 3605              	.LASF186:
ARM GAS  /var/folders/vd/czx34qs52cd_f3nb04sxmghc0000gn/T//ccFSGepM.s 			page 72


 3606 0979 696E7075 		.ascii	"input_queue_t\000"
 3606      745F7175 
 3606      6575655F 
 3606      7400
 3607              	.LASF137:
 3608 0987 6576656E 		.ascii	"event_listener\000"
 3608      745F6C69 
 3608      7374656E 
 3608      657200
 3609              	.LASF102:
 3610 0996 7264796D 		.ascii	"rdymsg\000"
 3610      736700
 3611              	.LASF181:
 3612 099d 715F7772 		.ascii	"q_wrptr\000"
 3612      70747200 
 3613              	.LASF9:
 3614 09a5 73686F72 		.ascii	"short unsigned int\000"
 3614      7420756E 
 3614      7369676E 
 3614      65642069 
 3614      6E7400
 3615              	.LASF69:
 3616 09b8 63685F73 		.ascii	"ch_system_t\000"
 3616      79737465 
 3616      6D5F7400 
 3617              	.LASF133:
 3618 09c4 63686465 		.ascii	"chdebug_t\000"
 3618      6275675F 
 3618      7400
 3619              	.LASF187:
 3620 09ce 6F757470 		.ascii	"output_queue_t\000"
 3620      75745F71 
 3620      75657565 
 3620      5F7400
 3621              	.LASF120:
 3622 09dd 74696D65 		.ascii	"timesize\000"
 3622      73697A65 
 3622      00
 3623              	.LASF10:
 3624 09e6 5F5F696E 		.ascii	"__int32_t\000"
 3624      7433325F 
 3624      7400
 3625              	.LASF213:
 3626 09f0 53445F53 		.ascii	"SD_STOP\000"
 3626      544F5000 
 3627              	.LASF80:
 3628 09f8 4E445452 		.ascii	"NDTR\000"
 3628      00
 3629              	.LASF169:
 3630 09fd 69666372 		.ascii	"ifcr\000"
 3630      00
 3631              	.LASF148:
 3632 0a02 63685F6D 		.ascii	"ch_memcore\000"
 3632      656D636F 
 3632      726500
 3633              	.LASF129:
 3634 0a0d 6F66665F 		.ascii	"off_flags\000"
ARM GAS  /var/folders/vd/czx34qs52cd_f3nb04sxmghc0000gn/T//ccFSGepM.s 			page 73


 3634      666C6167 
 3634      7300
 3635              	.LASF139:
 3636 0a17 6576656E 		.ascii	"events\000"
 3636      747300
 3637              	.LASF51:
 3638 0a1e 6E657874 		.ascii	"next\000"
 3638      00
 3639              	.LASF54:
 3640 0a23 70726576 		.ascii	"prev\000"
 3640      00
 3641              	.LASF156:
 3642 0a28 63685F64 		.ascii	"ch_dyn_list\000"
 3642      796E5F6C 
 3642      69737400 
 3643              	.LASF115:
 3644 0a34 6964656E 		.ascii	"identifier\000"
 3644      74696669 
 3644      657200
 3645              		.ident	"GCC: (GNU Tools for Arm Embedded Processors 7-2017-q4-major) 7.2.1 20170904 (release) [ARM
ARM GAS  /var/folders/vd/czx34qs52cd_f3nb04sxmghc0000gn/T//ccFSGepM.s 			page 74


DEFINED SYMBOLS
                            *ABS*:0000000000000000 nullstreams.c
/var/folders/vd/czx34qs52cd_f3nb04sxmghc0000gn/T//ccFSGepM.s:16     .text.writes:0000000000000000 $t
/var/folders/vd/czx34qs52cd_f3nb04sxmghc0000gn/T//ccFSGepM.s:23     .text.writes:0000000000000000 writes
/var/folders/vd/czx34qs52cd_f3nb04sxmghc0000gn/T//ccFSGepM.s:40     .text.reads:0000000000000000 $t
/var/folders/vd/czx34qs52cd_f3nb04sxmghc0000gn/T//ccFSGepM.s:47     .text.reads:0000000000000000 reads
/var/folders/vd/czx34qs52cd_f3nb04sxmghc0000gn/T//ccFSGepM.s:63     .text.put:0000000000000000 $t
/var/folders/vd/czx34qs52cd_f3nb04sxmghc0000gn/T//ccFSGepM.s:70     .text.put:0000000000000000 put
/var/folders/vd/czx34qs52cd_f3nb04sxmghc0000gn/T//ccFSGepM.s:86     .text.get:0000000000000000 $t
/var/folders/vd/czx34qs52cd_f3nb04sxmghc0000gn/T//ccFSGepM.s:93     .text.get:0000000000000000 get
/var/folders/vd/czx34qs52cd_f3nb04sxmghc0000gn/T//ccFSGepM.s:109    .text.nullObjectInit:0000000000000000 $t
/var/folders/vd/czx34qs52cd_f3nb04sxmghc0000gn/T//ccFSGepM.s:117    .text.nullObjectInit:0000000000000000 nullObjectInit
/var/folders/vd/czx34qs52cd_f3nb04sxmghc0000gn/T//ccFSGepM.s:133    .text.nullObjectInit:0000000000000008 $d
/var/folders/vd/czx34qs52cd_f3nb04sxmghc0000gn/T//ccFSGepM.s:138    .rodata.vmt:0000000000000000 $d
/var/folders/vd/czx34qs52cd_f3nb04sxmghc0000gn/T//ccFSGepM.s:142    .rodata.vmt:0000000000000000 vmt

NO UNDEFINED SYMBOLS
