ARM GAS  /var/folders/vd/czx34qs52cd_f3nb04sxmghc0000gn/T//ccMYOG2x.s 			page 1


   1              		.cpu cortex-m4
   2              		.eabi_attribute 20, 1
   3              		.eabi_attribute 21, 1
   4              		.eabi_attribute 23, 3
   5              		.eabi_attribute 24, 1
   6              		.eabi_attribute 25, 1
   7              		.eabi_attribute 26, 1
   8              		.eabi_attribute 30, 2
   9              		.eabi_attribute 34, 1
  10              		.eabi_attribute 18, 4
  11              		.file	"nvic.c"
  12              		.text
  13              	.Ltext0:
  14              		.cfi_sections	.debug_frame
  15              		.section	.text.nvicEnableVector,"ax",%progbits
  16              		.align	1
  17              		.p2align 4,,15
  18              		.global	nvicEnableVector
  19              		.syntax unified
  20              		.thumb
  21              		.thumb_func
  22              		.fpu softvfp
  23              		.type	nvicEnableVector, %function
  24              	nvicEnableVector:
  25              	.LFB313:
  26              		.file 1 "../os/hal/ports/common/ARMCMx/nvic.c"
  27              		.loc 1 57 0
  28              		.cfi_startproc
  29              		@ args = 0, pretend = 0, frame = 0
  30              		@ frame_needed = 0, uses_anonymous_args = 0
  31              		@ link register save eliminated.
  32              	.LVL0:
  33              		.loc 1 65 0
  34 0000 4309     		lsrs	r3, r0, #5
  35              		.loc 1 57 0
  36 0002 10B4     		push	{r4}
  37              		.cfi_def_cfa_offset 4
  38              		.cfi_offset 4, -4
  39 0004 9B00     		lsls	r3, r3, #2
  40              		.loc 1 63 0
  41 0006 00F16044 		add	r4, r0, #-536870912
  42 000a 04F56144 		add	r4, r4, #57600
  43 000e 03F16043 		add	r3, r3, #-536870912
  44 0012 0901     		lsls	r1, r1, #4
  45              	.LVL1:
  46 0014 03F56143 		add	r3, r3, #57600
  47              		.loc 1 65 0
  48 0018 00F01F00 		and	r0, r0, #31
  49              	.LVL2:
  50 001c 0122     		movs	r2, #1
  51              		.loc 1 63 0
  52 001e C9B2     		uxtb	r1, r1
  53 0020 84F80013 		strb	r1, [r4, #768]
  54              		.loc 1 65 0
  55 0024 02FA00F0 		lsl	r0, r2, r0
  56 0028 C3F88001 		str	r0, [r3, #384]
  57              		.loc 1 67 0
ARM GAS  /var/folders/vd/czx34qs52cd_f3nb04sxmghc0000gn/T//ccMYOG2x.s 			page 2


  58 002c 10BC     		pop	{r4}
  59              		.cfi_restore 4
  60              		.cfi_def_cfa_offset 0
  61              	.LVL3:
  62              		.loc 1 66 0
  63 002e 1860     		str	r0, [r3]
  64              		.loc 1 67 0
  65 0030 7047     		bx	lr
  66              		.cfi_endproc
  67              	.LFE313:
  68              		.size	nvicEnableVector, .-nvicEnableVector
  69 0032 00BF     		.section	.text.nvicDisableVector,"ax",%progbits
  70              		.align	1
  71              		.p2align 4,,15
  72              		.global	nvicDisableVector
  73              		.syntax unified
  74              		.thumb
  75              		.thumb_func
  76              		.fpu softvfp
  77              		.type	nvicDisableVector, %function
  78              	nvicDisableVector:
  79              	.LFB314:
  80              		.loc 1 74 0
  81              		.cfi_startproc
  82              		@ args = 0, pretend = 0, frame = 0
  83              		@ frame_needed = 0, uses_anonymous_args = 0
  84              		@ link register save eliminated.
  85              	.LVL4:
  86              		.loc 1 76 0
  87 0000 0749     		ldr	r1, .L6
  88 0002 4309     		lsrs	r3, r0, #5
  89              		.loc 1 74 0
  90 0004 10B4     		push	{r4}
  91              		.cfi_def_cfa_offset 4
  92              		.cfi_offset 4, -4
  93              		.loc 1 76 0
  94 0006 2033     		adds	r3, r3, #32
  95 0008 00F01F04 		and	r4, r0, #31
  96 000c 0122     		movs	r2, #1
  97              		.loc 1 80 0
  98 000e 0844     		add	r0, r0, r1
  99              	.LVL5:
 100              		.loc 1 76 0
 101 0010 A240     		lsls	r2, r2, r4
 102              		.loc 1 80 0
 103 0012 0024     		movs	r4, #0
 104              		.loc 1 76 0
 105 0014 41F82320 		str	r2, [r1, r3, lsl #2]
 106              		.loc 1 80 0
 107 0018 80F80043 		strb	r4, [r0, #768]
 108              		.loc 1 82 0
 109 001c 10BC     		pop	{r4}
 110              		.cfi_restore 4
 111              		.cfi_def_cfa_offset 0
 112 001e 7047     		bx	lr
 113              	.L7:
 114              		.align	2
ARM GAS  /var/folders/vd/czx34qs52cd_f3nb04sxmghc0000gn/T//ccMYOG2x.s 			page 3


 115              	.L6:
 116 0020 00E100E0 		.word	-536813312
 117              		.cfi_endproc
 118              	.LFE314:
 119              		.size	nvicDisableVector, .-nvicDisableVector
 120              		.section	.text.nvicSetSystemHandlerPriority,"ax",%progbits
 121              		.align	1
 122              		.p2align 4,,15
 123              		.global	nvicSetSystemHandlerPriority
 124              		.syntax unified
 125              		.thumb
 126              		.thumb_func
 127              		.fpu softvfp
 128              		.type	nvicSetSystemHandlerPriority, %function
 129              	nvicSetSystemHandlerPriority:
 130              	.LFB315:
 131              		.loc 1 90 0
 132              		.cfi_startproc
 133              		@ args = 0, pretend = 0, frame = 0
 134              		@ frame_needed = 0, uses_anonymous_args = 0
 135              		@ link register save eliminated.
 136              	.LVL6:
 137              		.loc 1 100 0
 138 0000 00F16040 		add	r0, r0, #-536870912
 139              	.LVL7:
 140 0004 00F56D40 		add	r0, r0, #60672
 141              	.LVL8:
 142 0008 0901     		lsls	r1, r1, #4
 143              	.LVL9:
 144 000a C9B2     		uxtb	r1, r1
 145 000c 0176     		strb	r1, [r0, #24]
 146              		.loc 1 102 0
 147 000e 7047     		bx	lr
 148              		.cfi_endproc
 149              	.LFE315:
 150              		.size	nvicSetSystemHandlerPriority, .-nvicSetSystemHandlerPriority
 151              		.section	.text.nvicClearPending,"ax",%progbits
 152              		.align	1
 153              		.p2align 4,,15
 154              		.global	nvicClearPending
 155              		.syntax unified
 156              		.thumb
 157              		.thumb_func
 158              		.fpu softvfp
 159              		.type	nvicClearPending, %function
 160              	nvicClearPending:
 161              	.LFB316:
 162              		.loc 1 109 0
 163              		.cfi_startproc
 164              		@ args = 0, pretend = 0, frame = 0
 165              		@ frame_needed = 0, uses_anonymous_args = 0
 166              		@ link register save eliminated.
 167              	.LVL10:
 168              		.loc 1 111 0
 169 0000 4309     		lsrs	r3, r0, #5
 170 0002 6033     		adds	r3, r3, #96
 171 0004 00F01F00 		and	r0, r0, #31
ARM GAS  /var/folders/vd/czx34qs52cd_f3nb04sxmghc0000gn/T//ccMYOG2x.s 			page 4


 172              	.LVL11:
 173 0008 0122     		movs	r2, #1
 174 000a 0349     		ldr	r1, .L10
 175 000c 02FA00F0 		lsl	r0, r2, r0
 176 0010 41F82300 		str	r0, [r1, r3, lsl #2]
 177              		.loc 1 112 0
 178 0014 7047     		bx	lr
 179              	.L11:
 180 0016 00BF     		.align	2
 181              	.L10:
 182 0018 00E100E0 		.word	-536813312
 183              		.cfi_endproc
 184              	.LFE316:
 185              		.size	nvicClearPending, .-nvicClearPending
 186              		.text
 187              	.Letext0:
 188              		.file 2 "/usr/local/Cellar/gcc-arm-none-eabi/20171218/lib/gcc/arm-none-eabi/7.2.1/include/stddef.h
 189              		.file 3 "/usr/local/Cellar/gcc-arm-none-eabi/20171218/arm-none-eabi/include/machine/_default_types
 190              		.file 4 "/usr/local/Cellar/gcc-arm-none-eabi/20171218/arm-none-eabi/include/sys/_stdint.h"
 191              		.file 5 "../os/common/ports/ARMCMx/compilers/GCC/chtypes.h"
 192              		.file 6 "../os/rt/include/chsystypes.h"
 193              		.file 7 "../os/rt/include/chschd.h"
 194              		.file 8 "../os/rt/include/chtime.h"
 195              		.file 9 "../os/common/ext/ARM/CMSIS/Core/Include/core_cm4.h"
 196              		.file 10 "../os/common/ext/ST/STM32F4xx/system_stm32f4xx.h"
 197              		.file 11 "../os/common/ext/ST/STM32F4xx/stm32f407xx.h"
 198              		.file 12 "../os/common/ports/ARMCMx/chcore.h"
 199              		.file 13 "../os/common/ports/ARMCMx/chcore_v7m.h"
 200              		.file 14 "../os/hal/ports/STM32/LLD/TIMv1/stm32_tim.h"
 201              		.file 15 "../os/rt/include/chtm.h"
 202              		.file 16 "../os/rt/include/chsem.h"
 203              		.file 17 "../os/rt/include/chmtx.h"
 204              		.file 18 "../os/rt/include/chsys.h"
 205              		.file 19 "../os/rt/include/chregistry.h"
 206              		.file 20 "../os/rt/include/chevents.h"
 207              		.file 21 "../os/common/oslib/include/chmemcore.h"
 208              		.file 22 "../os/common/oslib/include/chmempools.h"
 209              		.file 23 "../os/common/oslib/include/chfactory.h"
 210              		.file 24 "../os/hal/ports/STM32/LLD/DMAv2/stm32_dma.h"
 211              		.file 25 "../os/hal/include/hal_queues.h"
 212              		.file 26 "../os/hal/include/hal_pal.h"
 213              		.file 27 "../os/hal/ports/STM32/LLD/GPIOv2/hal_pal_lld.h"
 214              		.file 28 "../os/hal/include/hal_pwm.h"
 215              		.file 29 "../os/hal/ports/STM32/LLD/TIMv1/hal_pwm_lld.h"
 216              		.file 30 "../os/hal/include/hal_serial.h"
 217              		.file 31 "../os/hal/ports/STM32/LLD/USARTv1/hal_serial_lld.h"