ARM GAS  /var/folders/vd/czx34qs52cd_f3nb04sxmghc0000gn/T//ccMYOG2x.s 			page 1


   1              		.cpu cortex-m4
   2              		.eabi_attribute 20, 1
   3              		.eabi_attribute 21, 1
   4              		.eabi_attribute 23, 3
   5              		.eabi_attribute 24, 1
   6              		.eabi_attribute 25, 1
   7              		.eabi_attribute 26, 1
   8              		.eabi_attribute 30, 2
   9              		.eabi_attribute 34, 1
  10              		.eabi_attribute 18, 4
  11              		.file	"nvic.c"
  12              		.text
  13              	.Ltext0:
  14              		.cfi_sections	.debug_frame
  15              		.section	.text.nvicEnableVector,"ax",%progbits
  16              		.align	1
  17              		.p2align 4,,15
  18              		.global	nvicEnableVector
  19              		.syntax unified
  20              		.thumb
  21              		.thumb_func
  22              		.fpu softvfp
  23              		.type	nvicEnableVector, %function
  24              	nvicEnableVector:
  25              	.LFB313:
  26              		.file 1 "../os/hal/ports/common/ARMCMx/nvic.c"
  27              		.loc 1 57 0
  28              		.cfi_startproc
  29              		@ args = 0, pretend = 0, frame = 0
  30              		@ frame_needed = 0, uses_anonymous_args = 0
  31              		@ link register save eliminated.
  32              	.LVL0:
  33              		.loc 1 65 0
  34 0000 4309     		lsrs	r3, r0, #5
  35              		.loc 1 57 0
  36 0002 10B4     		push	{r4}
  37              		.cfi_def_cfa_offset 4
  38              		.cfi_offset 4, -4
  39 0004 9B00     		lsls	r3, r3, #2
  40              		.loc 1 63 0
  41 0006 00F16044 		add	r4, r0, #-536870912
  42 000a 04F56144 		add	r4, r4, #57600
  43 000e 03F16043 		add	r3, r3, #-536870912
  44 0012 0901     		lsls	r1, r1, #4
  45              	.LVL1:
  46 0014 03F56143 		add	r3, r3, #57600
  47              		.loc 1 65 0
  48 0018 00F01F00 		and	r0, r0, #31
  49              	.LVL2:
  50 001c 0122     		movs	r2, #1
  51              		.loc 1 63 0
  52 001e C9B2     		uxtb	r1, r1
  53 0020 84F80013 		strb	r1, [r4, #768]
  54              		.loc 1 65 0
  55 0024 02FA00F0 		lsl	r0, r2, r0
  56 0028 C3F88001 		str	r0, [r3, #384]
  57              		.loc 1 67 0
ARM GAS  /var/folders/vd/czx34qs52cd_f3nb04sxmghc0000gn/T//ccMYOG2x.s 			page 2


  58 002c 10BC     		pop	{r4}
  59              		.cfi_restore 4
  60              		.cfi_def_cfa_offset 0
  61              	.LVL3:
  62              		.loc 1 66 0
  63 002e 1860     		str	r0, [r3]
  64              		.loc 1 67 0
  65 0030 7047     		bx	lr
  66              		.cfi_endproc
  67              	.LFE313:
  68              		.size	nvicEnableVector, .-nvicEnableVector
  69 0032 00BF     		.section	.text.nvicDisableVector,"ax",%progbits
  70              		.align	1
  71              		.p2align 4,,15
  72              		.global	nvicDisableVector
  73              		.syntax unified
  74              		.thumb
  75              		.thumb_func
  76              		.fpu softvfp
  77              		.type	nvicDisableVector, %function
  78              	nvicDisableVector:
  79              	.LFB314:
  80              		.loc 1 74 0
  81              		.cfi_startproc
  82              		@ args = 0, pretend = 0, frame = 0
  83              		@ frame_needed = 0, uses_anonymous_args = 0
  84              		@ link register save eliminated.
  85              	.LVL4:
  86              		.loc 1 76 0
  87 0000 0749     		ldr	r1, .L6
  88 0002 4309     		lsrs	r3, r0, #5
  89              		.loc 1 74 0
  90 0004 10B4     		push	{r4}
  91              		.cfi_def_cfa_offset 4
  92              		.cfi_offset 4, -4
  93              		.loc 1 76 0
  94 0006 2033     		adds	r3, r3, #32
  95 0008 00F01F04 		and	r4, r0, #31
  96 000c 0122     		movs	r2, #1
  97              		.loc 1 80 0
  98 000e 0844     		add	r0, r0, r1
  99              	.LVL5:
 100              		.loc 1 76 0
 101 0010 A240     		lsls	r2, r2, r4
 102              		.loc 1 80 0
 103 0012 0024     		movs	r4, #0
 104              		.loc 1 76 0
 105 0014 41F82320 		str	r2, [r1, r3, lsl #2]
 106              		.loc 1 80 0
 107 0018 80F80043 		strb	r4, [r0, #768]
 108              		.loc 1 82 0
 109 001c 10BC     		pop	{r4}
 110              		.cfi_restore 4
 111              		.cfi_def_cfa_offset 0
 112 001e 7047     		bx	lr
 113              	.L7:
 114              		.align	2
ARM GAS  /var/folders/vd/czx34qs52cd_f3nb04sxmghc0000gn/T//ccMYOG2x.s 			page 3


 115              	.L6:
 116 0020 00E100E0 		.word	-536813312
 117              		.cfi_endproc
 118              	.LFE314:
 119              		.size	nvicDisableVector, .-nvicDisableVector
 120              		.section	.text.nvicSetSystemHandlerPriority,"ax",%progbits
 121              		.align	1
 122              		.p2align 4,,15
 123              		.global	nvicSetSystemHandlerPriority
 124              		.syntax unified
 125              		.thumb
 126              		.thumb_func
 127              		.fpu softvfp
 128              		.type	nvicSetSystemHandlerPriority, %function
 129              	nvicSetSystemHandlerPriority:
 130              	.LFB315:
 131              		.loc 1 90 0
 132              		.cfi_startproc
 133              		@ args = 0, pretend = 0, frame = 0
 134              		@ frame_needed = 0, uses_anonymous_args = 0
 135              		@ link register save eliminated.
 136              	.LVL6:
 137              		.loc 1 100 0
 138 0000 00F16040 		add	r0, r0, #-536870912
 139              	.LVL7:
 140 0004 00F56D40 		add	r0, r0, #60672
 141              	.LVL8:
 142 0008 0901     		lsls	r1, r1, #4
 143              	.LVL9:
 144 000a C9B2     		uxtb	r1, r1
 145 000c 0176     		strb	r1, [r0, #24]
 146              		.loc 1 102 0
 147 000e 7047     		bx	lr
 148              		.cfi_endproc
 149              	.LFE315:
 150              		.size	nvicSetSystemHandlerPriority, .-nvicSetSystemHandlerPriority
 151              		.section	.text.nvicClearPending,"ax",%progbits
 152              		.align	1
 153              		.p2align 4,,15
 154              		.global	nvicClearPending
 155              		.syntax unified
 156              		.thumb
 157              		.thumb_func
 158              		.fpu softvfp
 159              		.type	nvicClearPending, %function
 160              	nvicClearPending:
 161              	.LFB316:
 162              		.loc 1 109 0
 163              		.cfi_startproc
 164              		@ args = 0, pretend = 0, frame = 0
 165              		@ frame_needed = 0, uses_anonymous_args = 0
 166              		@ link register save eliminated.
 167              	.LVL10:
 168              		.loc 1 111 0
 169 0000 4309     		lsrs	r3, r0, #5
 170 0002 6033     		adds	r3, r3, #96
 171 0004 00F01F00 		and	r0, r0, #31
ARM GAS  /var/folders/vd/czx34qs52cd_f3nb04sxmghc0000gn/T//ccMYOG2x.s 			page 4


 172              	.LVL11:
 173 0008 0122     		movs	r2, #1
 174 000a 0349     		ldr	r1, .L10
 175 000c 02FA00F0 		lsl	r0, r2, r0
 176 0010 41F82300 		str	r0, [r1, r3, lsl #2]
 177              		.loc 1 112 0
 178 0014 7047     		bx	lr
 179              	.L11:
 180 0016 00BF     		.align	2
 181              	.L10:
 182 0018 00E100E0 		.word	-536813312
 183              		.cfi_endproc
 184              	.LFE316:
 185              		.size	nvicClearPending, .-nvicClearPending
 186              		.text
 187              	.Letext0:
 188              		.file 2 "/usr/local/Cellar/gcc-arm-none-eabi/20171218/lib/gcc/arm-none-eabi/7.2.1/include/stddef.h
 189              		.file 3 "/usr/local/Cellar/gcc-arm-none-eabi/20171218/arm-none-eabi/include/machine/_default_types
 190              		.file 4 "/usr/local/Cellar/gcc-arm-none-eabi/20171218/arm-none-eabi/include/sys/_stdint.h"
 191              		.file 5 "../os/common/ports/ARMCMx/compilers/GCC/chtypes.h"
 192              		.file 6 "../os/rt/include/chsystypes.h"
 193              		.file 7 "../os/rt/include/chschd.h"
 194              		.file 8 "../os/rt/include/chtime.h"
 195              		.file 9 "../os/common/ext/ARM/CMSIS/Core/Include/core_cm4.h"
 196              		.file 10 "../os/common/ext/ST/STM32F4xx/system_stm32f4xx.h"
 197              		.file 11 "../os/common/ext/ST/STM32F4xx/stm32f407xx.h"
 198              		.file 12 "../os/common/ports/ARMCMx/chcore.h"
 199              		.file 13 "../os/common/ports/ARMCMx/chcore_v7m.h"
 200              		.file 14 "../os/hal/ports/STM32/LLD/TIMv1/stm32_tim.h"
 201              		.file 15 "../os/rt/include/chtm.h"
 202              		.file 16 "../os/rt/include/chsem.h"
 203              		.file 17 "../os/rt/include/chmtx.h"
 204              		.file 18 "../os/rt/include/chsys.h"
 205              		.file 19 "../os/rt/include/chregistry.h"
 206              		.file 20 "../os/rt/include/chevents.h"
 207              		.file 21 "../os/common/oslib/include/chmemcore.h"
 208              		.file 22 "../os/common/oslib/include/chmempools.h"
 209              		.file 23 "../os/common/oslib/include/chfactory.h"
 210              		.file 24 "../os/hal/ports/STM32/LLD/DMAv2/stm32_dma.h"
 211              		.file 25 "../os/hal/include/hal_queues.h"
 212              		.file 26 "../os/hal/include/hal_pal.h"
 213              		.file 27 "../os/hal/ports/STM32/LLD/GPIOv2/hal_pal_lld.h"
 214              		.file 28 "../os/hal/include/hal_pwm.h"
 215              		.file 29 "../os/hal/ports/STM32/LLD/TIMv1/hal_pwm_lld.h"
 216              		.file 30 "../os/hal/include/hal_serial.h"
 217              		.file 31 "../os/hal/ports/STM32/LLD/USARTv1/hal_serial_lld.h"
 218              		.section	.debug_info,"",%progbits
 219              	.Ldebug_info0:
 220 0000 49150000 		.4byte	0x1549
 221 0004 0400     		.2byte	0x4
 222 0006 00000000 		.4byte	.Ldebug_abbrev0
 223 000a 04       		.byte	0x4
 224 000b 01       		.uleb128 0x1
 225 000c 3F050000 		.4byte	.LASF262
 226 0010 0C       		.byte	0xc
 227 0011 F8020000 		.4byte	.LASF263
 228 0015 190A0000 		.4byte	.LASF264
ARM GAS  /var/folders/vd/czx34qs52cd_f3nb04sxmghc0000gn/T//ccMYOG2x.s 			page 5


 229 0019 00000000 		.4byte	.Ldebug_ranges0+0
 230 001d 00000000 		.4byte	0
 231 0021 00000000 		.4byte	.Ldebug_line0
 232 0025 02       		.uleb128 0x2
 233 0026 04       		.byte	0x4
 234 0027 05       		.byte	0x5
 235 0028 696E7400 		.ascii	"int\000"
 236 002c 03       		.uleb128 0x3
 237 002d 29000000 		.4byte	.LASF4
 238 0031 02       		.byte	0x2
 239 0032 D8       		.byte	0xd8
 240 0033 3C000000 		.4byte	0x3c
 241 0037 04       		.uleb128 0x4
 242 0038 2C000000 		.4byte	0x2c
 243 003c 05       		.uleb128 0x5
 244 003d 04       		.byte	0x4
 245 003e 07       		.byte	0x7
 246 003f B5060000 		.4byte	.LASF0
 247 0043 05       		.uleb128 0x5
 248 0044 08       		.byte	0x8
 249 0045 05       		.byte	0x5
 250 0046 2C060000 		.4byte	.LASF1
 251 004a 05       		.uleb128 0x5
 252 004b 08       		.byte	0x8
 253 004c 04       		.byte	0x4
 254 004d 2F070000 		.4byte	.LASF2
 255 0051 05       		.uleb128 0x5
 256 0052 01       		.byte	0x1
 257 0053 06       		.byte	0x6
 258 0054 F3010000 		.4byte	.LASF3
 259 0058 03       		.uleb128 0x3
 260 0059 39010000 		.4byte	.LASF5
 261 005d 03       		.byte	0x3
 262 005e 2B       		.byte	0x2b
 263 005f 63000000 		.4byte	0x63
 264 0063 05       		.uleb128 0x5
 265 0064 01       		.byte	0x1
 266 0065 08       		.byte	0x8
 267 0066 33020000 		.4byte	.LASF6
 268 006a 05       		.uleb128 0x5
 269 006b 02       		.byte	0x2
 270 006c 05       		.byte	0x5
 271 006d 1A090000 		.4byte	.LASF7
 272 0071 03       		.uleb128 0x3
 273 0072 D5020000 		.4byte	.LASF8
 274 0076 03       		.byte	0x3
 275 0077 39       		.byte	0x39
 276 0078 7C000000 		.4byte	0x7c
 277 007c 05       		.uleb128 0x5
 278 007d 02       		.byte	0x2
 279 007e 07       		.byte	0x7
 280 007f 7F0A0000 		.4byte	.LASF9
 281 0083 03       		.uleb128 0x3
 282 0084 C60A0000 		.4byte	.LASF10
 283 0088 03       		.byte	0x3
 284 0089 4D       		.byte	0x4d
 285 008a 8E000000 		.4byte	0x8e
ARM GAS  /var/folders/vd/czx34qs52cd_f3nb04sxmghc0000gn/T//ccMYOG2x.s 			page 6


 286 008e 05       		.uleb128 0x5
 287 008f 04       		.byte	0x4
 288 0090 05       		.byte	0x5
 289 0091 70010000 		.4byte	.LASF11
 290 0095 03       		.uleb128 0x3
 291 0096 19060000 		.4byte	.LASF12
 292 009a 03       		.byte	0x3
 293 009b 4F       		.byte	0x4f
 294 009c A0000000 		.4byte	0xa0
 295 00a0 05       		.uleb128 0x5
 296 00a1 04       		.byte	0x4
 297 00a2 07       		.byte	0x7
 298 00a3 10040000 		.4byte	.LASF13
 299 00a7 03       		.uleb128 0x3
 300 00a8 FB030000 		.4byte	.LASF14
 301 00ac 03       		.byte	0x3
 302 00ad 69       		.byte	0x69
 303 00ae B2000000 		.4byte	0xb2
 304 00b2 05       		.uleb128 0x5
 305 00b3 08       		.byte	0x8
 306 00b4 07       		.byte	0x7
 307 00b5 C9070000 		.4byte	.LASF15
 308 00b9 03       		.uleb128 0x3
 309 00ba 06020000 		.4byte	.LASF16
 310 00be 04       		.byte	0x4
 311 00bf 18       		.byte	0x18
 312 00c0 58000000 		.4byte	0x58
 313 00c4 04       		.uleb128 0x4
 314 00c5 B9000000 		.4byte	0xb9
 315 00c9 06       		.uleb128 0x6
 316 00ca B9000000 		.4byte	0xb9
 317 00ce 03       		.uleb128 0x3
 318 00cf E9070000 		.4byte	.LASF17
 319 00d3 04       		.byte	0x4
 320 00d4 24       		.byte	0x24
 321 00d5 71000000 		.4byte	0x71
 322 00d9 03       		.uleb128 0x3
 323 00da 7D000000 		.4byte	.LASF18
 324 00de 04       		.byte	0x4
 325 00df 2C       		.byte	0x2c
 326 00e0 83000000 		.4byte	0x83
 327 00e4 04       		.uleb128 0x4
 328 00e5 D9000000 		.4byte	0xd9
 329 00e9 03       		.uleb128 0x3
 330 00ea 100A0000 		.4byte	.LASF19
 331 00ee 04       		.byte	0x4
 332 00ef 30       		.byte	0x30
 333 00f0 95000000 		.4byte	0x95
 334 00f4 04       		.uleb128 0x4
 335 00f5 E9000000 		.4byte	0xe9
 336 00f9 06       		.uleb128 0x6
 337 00fa F4000000 		.4byte	0xf4
 338 00fe 03       		.uleb128 0x3
 339 00ff 31090000 		.4byte	.LASF20
 340 0103 04       		.byte	0x4
 341 0104 3C       		.byte	0x3c
 342 0105 A7000000 		.4byte	0xa7
ARM GAS  /var/folders/vd/czx34qs52cd_f3nb04sxmghc0000gn/T//ccMYOG2x.s 			page 7


 343 0109 03       		.uleb128 0x3
 344 010a C2060000 		.4byte	.LASF21
 345 010e 05       		.byte	0x5
 346 010f 39       		.byte	0x39
 347 0110 E9000000 		.4byte	0xe9
 348 0114 03       		.uleb128 0x3
 349 0115 B8080000 		.4byte	.LASF22
 350 0119 05       		.byte	0x5
 351 011a 3C       		.byte	0x3c
 352 011b B9000000 		.4byte	0xb9
 353 011f 03       		.uleb128 0x3
 354 0120 8C010000 		.4byte	.LASF23
 355 0124 05       		.byte	0x5
 356 0125 3D       		.byte	0x3d
 357 0126 B9000000 		.4byte	0xb9
 358 012a 03       		.uleb128 0x3
 359 012b B5090000 		.4byte	.LASF24
 360 012f 05       		.byte	0x5
 361 0130 3E       		.byte	0x3e
 362 0131 B9000000 		.4byte	0xb9
 363 0135 03       		.uleb128 0x3
 364 0136 63000000 		.4byte	.LASF25
 365 013a 05       		.byte	0x5
 366 013b 40       		.byte	0x40
 367 013c E9000000 		.4byte	0xe9
 368 0140 03       		.uleb128 0x3
 369 0141 FB070000 		.4byte	.LASF26
 370 0145 05       		.byte	0x5
 371 0146 41       		.byte	0x41
 372 0147 D9000000 		.4byte	0xd9
 373 014b 03       		.uleb128 0x3
 374 014c 0E020000 		.4byte	.LASF27
 375 0150 05       		.byte	0x5
 376 0151 43       		.byte	0x43
 377 0152 E9000000 		.4byte	0xe9
 378 0156 03       		.uleb128 0x3
 379 0157 12080000 		.4byte	.LASF28
 380 015b 05       		.byte	0x5
 381 015c 44       		.byte	0x44
 382 015d E9000000 		.4byte	0xe9
 383 0161 03       		.uleb128 0x3
 384 0162 A3030000 		.4byte	.LASF29
 385 0166 05       		.byte	0x5
 386 0167 45       		.byte	0x45
 387 0168 D9000000 		.4byte	0xd9
 388 016c 03       		.uleb128 0x3
 389 016d 03050000 		.4byte	.LASF30
 390 0171 05       		.byte	0x5
 391 0172 46       		.byte	0x46
 392 0173 E9000000 		.4byte	0xe9
 393 0177 03       		.uleb128 0x3
 394 0178 26070000 		.4byte	.LASF31
 395 017c 06       		.byte	0x6
 396 017d 34       		.byte	0x34
 397 017e 82010000 		.4byte	0x182
 398 0182 07       		.uleb128 0x7
 399 0183 4F040000 		.4byte	.LASF49
ARM GAS  /var/folders/vd/czx34qs52cd_f3nb04sxmghc0000gn/T//ccMYOG2x.s 			page 8


 400 0187 44       		.byte	0x44
 401 0188 07       		.byte	0x7
 402 0189 8E       		.byte	0x8e
 403 018a 60020000 		.4byte	0x260
 404 018e 08       		.uleb128 0x8
 405 018f 2F080000 		.4byte	.LASF32
 406 0193 07       		.byte	0x7
 407 0194 8F       		.byte	0x8f
 408 0195 95020000 		.4byte	0x295
 409 0199 00       		.byte	0
 410 019a 08       		.uleb128 0x8
 411 019b 2B010000 		.4byte	.LASF33
 412 019f 07       		.byte	0x7
 413 01a0 90       		.byte	0x90
 414 01a1 35010000 		.4byte	0x135
 415 01a5 08       		.byte	0x8
 416 01a6 09       		.uleb128 0x9
 417 01a7 63747800 		.ascii	"ctx\000"
 418 01ab 07       		.byte	0x7
 419 01ac 91       		.byte	0x91
 420 01ad AC080000 		.4byte	0x8ac
 421 01b1 0C       		.byte	0xc
 422 01b2 08       		.uleb128 0x8
 423 01b3 F4090000 		.4byte	.LASF34
 424 01b7 07       		.byte	0x7
 425 01b8 93       		.byte	0x93
 426 01b9 6B020000 		.4byte	0x26b
 427 01bd 10       		.byte	0x10
 428 01be 08       		.uleb128 0x8
 429 01bf D8040000 		.4byte	.LASF35
 430 01c3 07       		.byte	0x7
 431 01c4 94       		.byte	0x94
 432 01c5 6B020000 		.4byte	0x26b
 433 01c9 14       		.byte	0x14
 434 01ca 08       		.uleb128 0x8
 435 01cb E9080000 		.4byte	.LASF36
 436 01cf 07       		.byte	0x7
 437 01d0 9B       		.byte	0x9b
 438 01d1 480B0000 		.4byte	0xb48
 439 01d5 18       		.byte	0x18
 440 01d6 08       		.uleb128 0x8
 441 01d7 74080000 		.4byte	.LASF37
 442 01db 07       		.byte	0x7
 443 01dc A4       		.byte	0xa4
 444 01dd 5F0B0000 		.4byte	0xb5f
 445 01e1 1C       		.byte	0x1c
 446 01e2 08       		.uleb128 0x8
 447 01e3 E2000000 		.4byte	.LASF38
 448 01e7 07       		.byte	0x7
 449 01e8 A9       		.byte	0xa9
 450 01e9 1F010000 		.4byte	0x11f
 451 01ed 20       		.byte	0x20
 452 01ee 08       		.uleb128 0x8
 453 01ef 36030000 		.4byte	.LASF39
 454 01f3 07       		.byte	0x7
 455 01f4 AD       		.byte	0xad
 456 01f5 14010000 		.4byte	0x114
ARM GAS  /var/folders/vd/czx34qs52cd_f3nb04sxmghc0000gn/T//ccMYOG2x.s 			page 9


 457 01f9 21       		.byte	0x21
 458 01fa 08       		.uleb128 0x8
 459 01fb 2A080000 		.4byte	.LASF40
 460 01ff 07       		.byte	0x7
 461 0200 B2       		.byte	0xb2
 462 0201 2A010000 		.4byte	0x12a
 463 0205 22       		.byte	0x22
 464 0206 0A       		.uleb128 0xa
 465 0207 7500     		.ascii	"u\000"
 466 0209 07       		.byte	0x7
 467 020a 0301     		.2byte	0x103
 468 020c 7E0A0000 		.4byte	0xa7e
 469 0210 24       		.byte	0x24
 470 0211 0B       		.uleb128 0xb
 471 0212 9B090000 		.4byte	.LASF41
 472 0216 07       		.byte	0x7
 473 0217 0801     		.2byte	0x108
 474 0219 71020000 		.4byte	0x271
 475 021d 28       		.byte	0x28
 476 021e 0B       		.uleb128 0xb
 477 021f 4D090000 		.4byte	.LASF42
 478 0223 07       		.byte	0x7
 479 0224 0E01     		.2byte	0x10e
 480 0226 95020000 		.4byte	0x295
 481 022a 2C       		.byte	0x2c
 482 022b 0B       		.uleb128 0xb
 483 022c 95010000 		.4byte	.LASF43
 484 0230 07       		.byte	0x7
 485 0231 1401     		.2byte	0x114
 486 0233 4B010000 		.4byte	0x14b
 487 0237 34       		.byte	0x34
 488 0238 0B       		.uleb128 0xb
 489 0239 24060000 		.4byte	.LASF44
 490 023d 07       		.byte	0x7
 491 023e 1B01     		.2byte	0x11b
 492 0240 420B0000 		.4byte	0xb42
 493 0244 38       		.byte	0x38
 494 0245 0B       		.uleb128 0xb
 495 0246 EE040000 		.4byte	.LASF45
 496 024a 07       		.byte	0x7
 497 024b 1F01     		.2byte	0x11f
 498 024d 35010000 		.4byte	0x135
 499 0251 3C       		.byte	0x3c
 500 0252 0B       		.uleb128 0xb
 501 0253 5A030000 		.4byte	.LASF46
 502 0257 07       		.byte	0x7
 503 0258 2601     		.2byte	0x126
 504 025a 48030000 		.4byte	0x348
 505 025e 40       		.byte	0x40
 506 025f 00       		.byte	0
 507 0260 03       		.uleb128 0x3
 508 0261 54070000 		.4byte	.LASF47
 509 0265 06       		.byte	0x6
 510 0266 39       		.byte	0x39
 511 0267 6B020000 		.4byte	0x26b
 512 026b 0C       		.uleb128 0xc
 513 026c 04       		.byte	0x4
ARM GAS  /var/folders/vd/czx34qs52cd_f3nb04sxmghc0000gn/T//ccMYOG2x.s 			page 10


 514 026d 77010000 		.4byte	0x177
 515 0271 03       		.uleb128 0x3
 516 0272 CA090000 		.4byte	.LASF48
 517 0276 06       		.byte	0x6
 518 0277 3E       		.byte	0x3e
 519 0278 7C020000 		.4byte	0x27c
 520 027c 07       		.uleb128 0x7
 521 027d 29050000 		.4byte	.LASF50
 522 0281 04       		.byte	0x4
 523 0282 07       		.byte	0x7
 524 0283 7C       		.byte	0x7c
 525 0284 95020000 		.4byte	0x295
 526 0288 08       		.uleb128 0x8
 527 0289 030B0000 		.4byte	.LASF51
 528 028d 07       		.byte	0x7
 529 028e 7D       		.byte	0x7d
 530 028f 6B020000 		.4byte	0x26b
 531 0293 00       		.byte	0
 532 0294 00       		.byte	0
 533 0295 03       		.uleb128 0x3
 534 0296 9E010000 		.4byte	.LASF52
 535 029a 06       		.byte	0x6
 536 029b 45       		.byte	0x45
 537 029c A0020000 		.4byte	0x2a0
 538 02a0 07       		.uleb128 0x7
 539 02a1 01080000 		.4byte	.LASF53
 540 02a5 08       		.byte	0x8
 541 02a6 07       		.byte	0x7
 542 02a7 83       		.byte	0x83
 543 02a8 C5020000 		.4byte	0x2c5
 544 02ac 08       		.uleb128 0x8
 545 02ad 030B0000 		.4byte	.LASF51
 546 02b1 07       		.byte	0x7
 547 02b2 84       		.byte	0x84
 548 02b3 6B020000 		.4byte	0x26b
 549 02b7 00       		.byte	0
 550 02b8 08       		.uleb128 0x8
 551 02b9 080B0000 		.4byte	.LASF54
 552 02bd 07       		.byte	0x7
 553 02be 85       		.byte	0x85
 554 02bf 6B020000 		.4byte	0x26b
 555 02c3 04       		.byte	0x4
 556 02c4 00       		.byte	0
 557 02c5 03       		.uleb128 0x3
 558 02c6 CB040000 		.4byte	.LASF55
 559 02ca 06       		.byte	0x6
 560 02cb 4C       		.byte	0x4c
 561 02cc D0020000 		.4byte	0x2d0
 562 02d0 0D       		.uleb128 0xd
 563 02d1 CA030000 		.4byte	.LASF56
 564 02d5 1C       		.byte	0x1c
 565 02d6 07       		.byte	0x7
 566 02d7 5E01     		.2byte	0x15e
 567 02d9 2C030000 		.4byte	0x32c
 568 02dd 0B       		.uleb128 0xb
 569 02de 2F080000 		.4byte	.LASF32
 570 02e2 07       		.byte	0x7
ARM GAS  /var/folders/vd/czx34qs52cd_f3nb04sxmghc0000gn/T//ccMYOG2x.s 			page 11


 571 02e3 5F01     		.2byte	0x15f
 572 02e5 95020000 		.4byte	0x295
 573 02e9 00       		.byte	0
 574 02ea 0B       		.uleb128 0xb
 575 02eb 2B010000 		.4byte	.LASF33
 576 02ef 07       		.byte	0x7
 577 02f0 6001     		.2byte	0x160
 578 02f2 35010000 		.4byte	0x135
 579 02f6 08       		.byte	0x8
 580 02f7 0A       		.uleb128 0xa
 581 02f8 63747800 		.ascii	"ctx\000"
 582 02fc 07       		.byte	0x7
 583 02fd 6201     		.2byte	0x162
 584 02ff AC080000 		.4byte	0x8ac
 585 0303 0C       		.byte	0xc
 586 0304 0B       		.uleb128 0xb
 587 0305 F4090000 		.4byte	.LASF34
 588 0309 07       		.byte	0x7
 589 030a 6501     		.2byte	0x165
 590 030c 6B020000 		.4byte	0x26b
 591 0310 10       		.byte	0x10
 592 0311 0B       		.uleb128 0xb
 593 0312 D8040000 		.4byte	.LASF35
 594 0316 07       		.byte	0x7
 595 0317 6601     		.2byte	0x166
 596 0319 6B020000 		.4byte	0x26b
 597 031d 14       		.byte	0x14
 598 031e 0B       		.uleb128 0xb
 599 031f E1060000 		.4byte	.LASF57
 600 0323 07       		.byte	0x7
 601 0324 6901     		.2byte	0x169
 602 0326 6B020000 		.4byte	0x26b
 603 032a 18       		.byte	0x18
 604 032b 00       		.byte	0
 605 032c 03       		.uleb128 0x3
 606 032d 8C000000 		.4byte	.LASF58
 607 0331 06       		.byte	0x6
 608 0332 51       		.byte	0x51
 609 0333 37030000 		.4byte	0x337
 610 0337 0C       		.uleb128 0xc
 611 0338 04       		.byte	0x4
 612 0339 3D030000 		.4byte	0x33d
 613 033d 0E       		.uleb128 0xe
 614 033e 48030000 		.4byte	0x348
 615 0342 0F       		.uleb128 0xf
 616 0343 48030000 		.4byte	0x348
 617 0347 00       		.byte	0
 618 0348 10       		.uleb128 0x10
 619 0349 04       		.byte	0x4
 620 034a 03       		.uleb128 0x3
 621 034b BB040000 		.4byte	.LASF59
 622 034f 06       		.byte	0x6
 623 0350 56       		.byte	0x56
 624 0351 55030000 		.4byte	0x355
 625 0355 0D       		.uleb128 0xd
 626 0356 A4070000 		.4byte	.LASF60
 627 035a 14       		.byte	0x14
ARM GAS  /var/folders/vd/czx34qs52cd_f3nb04sxmghc0000gn/T//ccMYOG2x.s 			page 12


 628 035b 07       		.byte	0x7
 629 035c 3901     		.2byte	0x139
 630 035e A4030000 		.4byte	0x3a4
 631 0362 0B       		.uleb128 0xb
 632 0363 030B0000 		.4byte	.LASF51
 633 0367 07       		.byte	0x7
 634 0368 3A01     		.2byte	0x13a
 635 036a 650B0000 		.4byte	0xb65
 636 036e 00       		.byte	0
 637 036f 0B       		.uleb128 0xb
 638 0370 080B0000 		.4byte	.LASF54
 639 0374 07       		.byte	0x7
 640 0375 3B01     		.2byte	0x13b
 641 0377 650B0000 		.4byte	0xb65
 642 037b 04       		.byte	0x4
 643 037c 0B       		.uleb128 0xb
 644 037d 24080000 		.4byte	.LASF61
 645 0381 07       		.byte	0x7
 646 0382 3C01     		.2byte	0x13c
 647 0384 7B040000 		.4byte	0x47b
 648 0388 08       		.byte	0x8
 649 0389 0B       		.uleb128 0xb
 650 038a 3F090000 		.4byte	.LASF62
 651 038e 07       		.byte	0x7
 652 038f 3D01     		.2byte	0x13d
 653 0391 2C030000 		.4byte	0x32c
 654 0395 0C       		.byte	0xc
 655 0396 0A       		.uleb128 0xa
 656 0397 70617200 		.ascii	"par\000"
 657 039b 07       		.byte	0x7
 658 039c 3F01     		.2byte	0x13f
 659 039e 48030000 		.4byte	0x348
 660 03a2 10       		.byte	0x10
 661 03a3 00       		.byte	0
 662 03a4 03       		.uleb128 0x3
 663 03a5 59040000 		.4byte	.LASF63
 664 03a9 06       		.byte	0x6
 665 03aa 5B       		.byte	0x5b
 666 03ab AF030000 		.4byte	0x3af
 667 03af 0D       		.uleb128 0xd
 668 03b0 95000000 		.4byte	.LASF64
 669 03b4 10       		.byte	0x10
 670 03b5 07       		.byte	0x7
 671 03b6 4901     		.2byte	0x149
 672 03b8 F1030000 		.4byte	0x3f1
 673 03bc 0B       		.uleb128 0xb
 674 03bd 030B0000 		.4byte	.LASF51
 675 03c1 07       		.byte	0x7
 676 03c2 4A01     		.2byte	0x14a
 677 03c4 650B0000 		.4byte	0xb65
 678 03c8 00       		.byte	0
 679 03c9 0B       		.uleb128 0xb
 680 03ca 080B0000 		.4byte	.LASF54
 681 03ce 07       		.byte	0x7
 682 03cf 4C01     		.2byte	0x14c
 683 03d1 650B0000 		.4byte	0xb65
 684 03d5 04       		.byte	0x4
ARM GAS  /var/folders/vd/czx34qs52cd_f3nb04sxmghc0000gn/T//ccMYOG2x.s 			page 13


 685 03d6 0B       		.uleb128 0xb
 686 03d7 24080000 		.4byte	.LASF61
 687 03db 07       		.byte	0x7
 688 03dc 4E01     		.2byte	0x14e
 689 03de 7B040000 		.4byte	0x47b
 690 03e2 08       		.byte	0x8
 691 03e3 0B       		.uleb128 0xb
 692 03e4 5F020000 		.4byte	.LASF65
 693 03e8 07       		.byte	0x7
 694 03e9 5601     		.2byte	0x156
 695 03eb 70040000 		.4byte	0x470
 696 03ef 0C       		.byte	0xc
 697 03f0 00       		.byte	0
 698 03f1 03       		.uleb128 0x3
 699 03f2 77020000 		.4byte	.LASF66
 700 03f6 06       		.byte	0x6
 701 03f7 60       		.byte	0x60
 702 03f8 FC030000 		.4byte	0x3fc
 703 03fc 0D       		.uleb128 0xd
 704 03fd 62090000 		.4byte	.LASF67
 705 0401 04       		.byte	0x4
 706 0402 07       		.byte	0x7
 707 0403 7001     		.2byte	0x170
 708 0405 17040000 		.4byte	0x417
 709 0409 0B       		.uleb128 0xb
 710 040a 68020000 		.4byte	.LASF68
 711 040e 07       		.byte	0x7
 712 040f 7801     		.2byte	0x178
 713 0411 4E0B0000 		.4byte	0xb4e
 714 0415 00       		.byte	0
 715 0416 00       		.byte	0
 716 0417 03       		.uleb128 0x3
 717 0418 980A0000 		.4byte	.LASF69
 718 041c 06       		.byte	0x6
 719 041d 65       		.byte	0x65
 720 041e 22040000 		.4byte	0x422
 721 0422 0D       		.uleb128 0xd
 722 0423 DF090000 		.4byte	.LASF70
 723 0427 78       		.byte	0x78
 724 0428 07       		.byte	0x7
 725 0429 9001     		.2byte	0x190
 726 042b 70040000 		.4byte	0x470
 727 042f 0B       		.uleb128 0xb
 728 0430 B2080000 		.4byte	.LASF71
 729 0434 07       		.byte	0x7
 730 0435 9401     		.2byte	0x194
 731 0437 C5020000 		.4byte	0x2c5
 732 043b 00       		.byte	0
 733 043c 0B       		.uleb128 0xb
 734 043d 94090000 		.4byte	.LASF72
 735 0441 07       		.byte	0x7
 736 0442 9801     		.2byte	0x198
 737 0444 A4030000 		.4byte	0x3a4
 738 0448 1C       		.byte	0x1c
 739 0449 0A       		.uleb128 0xa
 740 044a 64626700 		.ascii	"dbg\000"
 741 044e 07       		.byte	0x7
ARM GAS  /var/folders/vd/czx34qs52cd_f3nb04sxmghc0000gn/T//ccMYOG2x.s 			page 14


 742 044f 9C01     		.2byte	0x19c
 743 0451 F1030000 		.4byte	0x3f1
 744 0455 2C       		.byte	0x2c
 745 0456 0B       		.uleb128 0xb
 746 0457 50080000 		.4byte	.LASF73
 747 045b 07       		.byte	0x7
 748 045c A001     		.2byte	0x1a0
 749 045e 77010000 		.4byte	0x177
 750 0462 30       		.byte	0x30
 751 0463 0A       		.uleb128 0xa
 752 0464 746D00   		.ascii	"tm\000"
 753 0467 07       		.byte	0x7
 754 0468 A501     		.2byte	0x1a5
 755 046a 730A0000 		.4byte	0xa73
 756 046e 74       		.byte	0x74
 757 046f 00       		.byte	0
 758 0470 03       		.uleb128 0x3
 759 0471 47000000 		.4byte	.LASF74
 760 0475 08       		.byte	0x8
 761 0476 8C       		.byte	0x8c
 762 0477 E9000000 		.4byte	0xe9
 763 047b 03       		.uleb128 0x3
 764 047c 3A060000 		.4byte	.LASF75
 765 0480 08       		.byte	0x8
 766 0481 98       		.byte	0x98
 767 0482 E9000000 		.4byte	0xe9
 768 0486 11       		.uleb128 0x11
 769 0487 040E     		.2byte	0xe04
 770 0489 09       		.byte	0x9
 771 048a 9601     		.2byte	0x196
 772 048c 42050000 		.4byte	0x542
 773 0490 0B       		.uleb128 0xb
 774 0491 ED0A0000 		.4byte	.LASF76
 775 0495 09       		.byte	0x9
 776 0496 9801     		.2byte	0x198
 777 0498 52050000 		.4byte	0x552
 778 049c 00       		.byte	0
 779 049d 0B       		.uleb128 0xb
 780 049e 29020000 		.4byte	.LASF77
 781 04a2 09       		.byte	0x9
 782 04a3 9901     		.2byte	0x199
 783 04a5 57050000 		.4byte	0x557
 784 04a9 20       		.byte	0x20
 785 04aa 0B       		.uleb128 0xb
 786 04ab 5B080000 		.4byte	.LASF78
 787 04af 09       		.byte	0x9
 788 04b0 9A01     		.2byte	0x19a
 789 04b2 52050000 		.4byte	0x552
 790 04b6 80       		.byte	0x80
 791 04b7 0B       		.uleb128 0xb
 792 04b8 0D000000 		.4byte	.LASF79
 793 04bc 09       		.byte	0x9
 794 04bd 9B01     		.2byte	0x19b
 795 04bf 57050000 		.4byte	0x557
 796 04c3 A0       		.byte	0xa0
 797 04c4 12       		.uleb128 0x12
 798 04c5 60030000 		.4byte	.LASF80
ARM GAS  /var/folders/vd/czx34qs52cd_f3nb04sxmghc0000gn/T//ccMYOG2x.s 			page 15


 799 04c9 09       		.byte	0x9
 800 04ca 9C01     		.2byte	0x19c
 801 04cc 52050000 		.4byte	0x552
 802 04d0 0001     		.2byte	0x100
 803 04d2 12       		.uleb128 0x12
 804 04d3 96020000 		.4byte	.LASF81
 805 04d7 09       		.byte	0x9
 806 04d8 9D01     		.2byte	0x19d
 807 04da 57050000 		.4byte	0x557
 808 04de 2001     		.2byte	0x120
 809 04e0 12       		.uleb128 0x12
 810 04e1 0C010000 		.4byte	.LASF82
 811 04e5 09       		.byte	0x9
 812 04e6 9E01     		.2byte	0x19e
 813 04e8 52050000 		.4byte	0x552
 814 04ec 8001     		.2byte	0x180
 815 04ee 12       		.uleb128 0x12
 816 04ef 41020000 		.4byte	.LASF83
 817 04f3 09       		.byte	0x9
 818 04f4 9F01     		.2byte	0x19f
 819 04f6 57050000 		.4byte	0x557
 820 04fa A001     		.2byte	0x1a0
 821 04fc 12       		.uleb128 0x12
 822 04fd 72020000 		.4byte	.LASF84
 823 0501 09       		.byte	0x9
 824 0502 A001     		.2byte	0x1a0
 825 0504 52050000 		.4byte	0x552
 826 0508 0002     		.2byte	0x200
 827 050a 12       		.uleb128 0x12
 828 050b 4B020000 		.4byte	.LASF85
 829 050f 09       		.byte	0x9
 830 0510 A101     		.2byte	0x1a1
 831 0512 67050000 		.4byte	0x567
 832 0516 2002     		.2byte	0x220
 833 0518 13       		.uleb128 0x13
 834 0519 495000   		.ascii	"IP\000"
 835 051c 09       		.byte	0x9
 836 051d A201     		.2byte	0x1a2
 837 051f 87050000 		.4byte	0x587
 838 0523 0003     		.2byte	0x300
 839 0525 12       		.uleb128 0x12
 840 0526 55020000 		.4byte	.LASF86
 841 052a 09       		.byte	0x9
 842 052b A301     		.2byte	0x1a3
 843 052d 8C050000 		.4byte	0x58c
 844 0531 F003     		.2byte	0x3f0
 845 0533 12       		.uleb128 0x12
 846 0534 B0030000 		.4byte	.LASF87
 847 0538 09       		.byte	0x9
 848 0539 A401     		.2byte	0x1a4
 849 053b F4000000 		.4byte	0xf4
 850 053f 000E     		.2byte	0xe00
 851 0541 00       		.byte	0
 852 0542 14       		.uleb128 0x14
 853 0543 F4000000 		.4byte	0xf4
 854 0547 52050000 		.4byte	0x552
 855 054b 15       		.uleb128 0x15
ARM GAS  /var/folders/vd/czx34qs52cd_f3nb04sxmghc0000gn/T//ccMYOG2x.s 			page 16


 856 054c 3C000000 		.4byte	0x3c
 857 0550 07       		.byte	0x7
 858 0551 00       		.byte	0
 859 0552 04       		.uleb128 0x4
 860 0553 42050000 		.4byte	0x542
 861 0557 14       		.uleb128 0x14
 862 0558 E9000000 		.4byte	0xe9
 863 055c 67050000 		.4byte	0x567
 864 0560 15       		.uleb128 0x15
 865 0561 3C000000 		.4byte	0x3c
 866 0565 17       		.byte	0x17
 867 0566 00       		.byte	0
 868 0567 14       		.uleb128 0x14
 869 0568 E9000000 		.4byte	0xe9
 870 056c 77050000 		.4byte	0x577
 871 0570 15       		.uleb128 0x15
 872 0571 3C000000 		.4byte	0x3c
 873 0575 37       		.byte	0x37
 874 0576 00       		.byte	0
 875 0577 14       		.uleb128 0x14
 876 0578 C4000000 		.4byte	0xc4
 877 057c 87050000 		.4byte	0x587
 878 0580 15       		.uleb128 0x15
 879 0581 3C000000 		.4byte	0x3c
 880 0585 EF       		.byte	0xef
 881 0586 00       		.byte	0
 882 0587 04       		.uleb128 0x4
 883 0588 77050000 		.4byte	0x577
 884 058c 14       		.uleb128 0x14
 885 058d E9000000 		.4byte	0xe9
 886 0591 9D050000 		.4byte	0x59d
 887 0595 16       		.uleb128 0x16
 888 0596 3C000000 		.4byte	0x3c
 889 059a 8302     		.2byte	0x283
 890 059c 00       		.byte	0
 891 059d 17       		.uleb128 0x17
 892 059e BA070000 		.4byte	.LASF88
 893 05a2 09       		.byte	0x9
 894 05a3 A501     		.2byte	0x1a5
 895 05a5 86040000 		.4byte	0x486
 896 05a9 18       		.uleb128 0x18
 897 05aa 8C       		.byte	0x8c
 898 05ab 09       		.byte	0x9
 899 05ac B801     		.2byte	0x1b8
 900 05ae C4060000 		.4byte	0x6c4
 901 05b2 0B       		.uleb128 0xb
 902 05b3 81010000 		.4byte	.LASF89
 903 05b7 09       		.byte	0x9
 904 05b8 BA01     		.2byte	0x1ba
 905 05ba F9000000 		.4byte	0xf9
 906 05be 00       		.byte	0
 907 05bf 0B       		.uleb128 0xb
 908 05c0 DB010000 		.4byte	.LASF90
 909 05c4 09       		.byte	0x9
 910 05c5 BB01     		.2byte	0x1bb
 911 05c7 F4000000 		.4byte	0xf4
 912 05cb 04       		.byte	0x4
ARM GAS  /var/folders/vd/czx34qs52cd_f3nb04sxmghc0000gn/T//ccMYOG2x.s 			page 17


 913 05cc 0B       		.uleb128 0xb
 914 05cd BB000000 		.4byte	.LASF91
 915 05d1 09       		.byte	0x9
 916 05d2 BC01     		.2byte	0x1bc
 917 05d4 F4000000 		.4byte	0xf4
 918 05d8 08       		.byte	0x8
 919 05d9 0B       		.uleb128 0xb
 920 05da 4F010000 		.4byte	.LASF92
 921 05de 09       		.byte	0x9
 922 05df BD01     		.2byte	0x1bd
 923 05e1 F4000000 		.4byte	0xf4
 924 05e5 0C       		.byte	0xc
 925 05e6 0A       		.uleb128 0xa
 926 05e7 53435200 		.ascii	"SCR\000"
 927 05eb 09       		.byte	0x9
 928 05ec BE01     		.2byte	0x1be
 929 05ee F4000000 		.4byte	0xf4
 930 05f2 10       		.byte	0x10
 931 05f3 0A       		.uleb128 0xa
 932 05f4 43435200 		.ascii	"CCR\000"
 933 05f8 09       		.byte	0x9
 934 05f9 BF01     		.2byte	0x1bf
 935 05fb F4000000 		.4byte	0xf4
 936 05ff 14       		.byte	0x14
 937 0600 0A       		.uleb128 0xa
 938 0601 53485000 		.ascii	"SHP\000"
 939 0605 09       		.byte	0x9
 940 0606 C001     		.2byte	0x1c0
 941 0608 D4060000 		.4byte	0x6d4
 942 060c 18       		.byte	0x18
 943 060d 0B       		.uleb128 0xb
 944 060e 8A030000 		.4byte	.LASF93
 945 0612 09       		.byte	0x9
 946 0613 C101     		.2byte	0x1c1
 947 0615 F4000000 		.4byte	0xf4
 948 0619 24       		.byte	0x24
 949 061a 0B       		.uleb128 0xb
 950 061b AD080000 		.4byte	.LASF94
 951 061f 09       		.byte	0x9
 952 0620 C201     		.2byte	0x1c2
 953 0622 F4000000 		.4byte	0xf4
 954 0626 28       		.byte	0x28
 955 0627 0B       		.uleb128 0xb
 956 0628 1D030000 		.4byte	.LASF95
 957 062c 09       		.byte	0x9
 958 062d C301     		.2byte	0x1c3
 959 062f F4000000 		.4byte	0xf4
 960 0633 2C       		.byte	0x2c
 961 0634 0B       		.uleb128 0xb
 962 0635 C7020000 		.4byte	.LASF96
 963 0639 09       		.byte	0x9
 964 063a C401     		.2byte	0x1c4
 965 063c F4000000 		.4byte	0xf4
 966 0640 30       		.byte	0x30
 967 0641 0B       		.uleb128 0xb
 968 0642 14090000 		.4byte	.LASF97
 969 0646 09       		.byte	0x9
ARM GAS  /var/folders/vd/czx34qs52cd_f3nb04sxmghc0000gn/T//ccMYOG2x.s 			page 18


 970 0647 C501     		.2byte	0x1c5
 971 0649 F4000000 		.4byte	0xf4
 972 064d 34       		.byte	0x34
 973 064e 0B       		.uleb128 0xb
 974 064f B5070000 		.4byte	.LASF98
 975 0653 09       		.byte	0x9
 976 0654 C601     		.2byte	0x1c6
 977 0656 F4000000 		.4byte	0xf4
 978 065a 38       		.byte	0x38
 979 065b 0B       		.uleb128 0xb
 980 065c 96080000 		.4byte	.LASF99
 981 0660 09       		.byte	0x9
 982 0661 C701     		.2byte	0x1c7
 983 0663 F4000000 		.4byte	0xf4
 984 0667 3C       		.byte	0x3c
 985 0668 0A       		.uleb128 0xa
 986 0669 50465200 		.ascii	"PFR\000"
 987 066d 09       		.byte	0x9
 988 066e C801     		.2byte	0x1c8
 989 0670 EE060000 		.4byte	0x6ee
 990 0674 40       		.byte	0x40
 991 0675 0A       		.uleb128 0xa
 992 0676 44465200 		.ascii	"DFR\000"
 993 067a 09       		.byte	0x9
 994 067b C901     		.2byte	0x1c9
 995 067d F9000000 		.4byte	0xf9
 996 0681 48       		.byte	0x48
 997 0682 0A       		.uleb128 0xa
 998 0683 41445200 		.ascii	"ADR\000"
 999 0687 09       		.byte	0x9
 1000 0688 CA01     		.2byte	0x1ca
 1001 068a F9000000 		.4byte	0xf9
 1002 068e 4C       		.byte	0x4c
 1003 068f 0B       		.uleb128 0xb
 1004 0690 05090000 		.4byte	.LASF100
 1005 0694 09       		.byte	0x9
 1006 0695 CB01     		.2byte	0x1cb
 1007 0697 08070000 		.4byte	0x708
 1008 069b 50       		.byte	0x50
 1009 069c 0B       		.uleb128 0xb
 1010 069d 5D090000 		.4byte	.LASF101
 1011 06a1 09       		.byte	0x9
 1012 06a2 CC01     		.2byte	0x1cc
 1013 06a4 22070000 		.4byte	0x722
 1014 06a8 60       		.byte	0x60
 1015 06a9 0B       		.uleb128 0xb
 1016 06aa 29020000 		.4byte	.LASF77
 1017 06ae 09       		.byte	0x9
 1018 06af CD01     		.2byte	0x1cd
 1019 06b1 27070000 		.4byte	0x727
 1020 06b5 74       		.byte	0x74
 1021 06b6 0B       		.uleb128 0xb
 1022 06b7 920A0000 		.4byte	.LASF102
 1023 06bb 09       		.byte	0x9
 1024 06bc CE01     		.2byte	0x1ce
 1025 06be F4000000 		.4byte	0xf4
 1026 06c2 88       		.byte	0x88
ARM GAS  /var/folders/vd/czx34qs52cd_f3nb04sxmghc0000gn/T//ccMYOG2x.s 			page 19


 1027 06c3 00       		.byte	0
 1028 06c4 14       		.uleb128 0x14
 1029 06c5 C4000000 		.4byte	0xc4
 1030 06c9 D4060000 		.4byte	0x6d4
 1031 06cd 15       		.uleb128 0x15
 1032 06ce 3C000000 		.4byte	0x3c
 1033 06d2 0B       		.byte	0xb
 1034 06d3 00       		.byte	0
 1035 06d4 04       		.uleb128 0x4
 1036 06d5 C4060000 		.4byte	0x6c4
 1037 06d9 14       		.uleb128 0x14
 1038 06da F9000000 		.4byte	0xf9
 1039 06de E9060000 		.4byte	0x6e9
 1040 06e2 15       		.uleb128 0x15
 1041 06e3 3C000000 		.4byte	0x3c
 1042 06e7 01       		.byte	0x1
 1043 06e8 00       		.byte	0
 1044 06e9 06       		.uleb128 0x6
 1045 06ea D9060000 		.4byte	0x6d9
 1046 06ee 04       		.uleb128 0x4
 1047 06ef E9060000 		.4byte	0x6e9
 1048 06f3 14       		.uleb128 0x14
 1049 06f4 F9000000 		.4byte	0xf9
 1050 06f8 03070000 		.4byte	0x703
 1051 06fc 15       		.uleb128 0x15
 1052 06fd 3C000000 		.4byte	0x3c
 1053 0701 03       		.byte	0x3
 1054 0702 00       		.byte	0
 1055 0703 06       		.uleb128 0x6
 1056 0704 F3060000 		.4byte	0x6f3
 1057 0708 04       		.uleb128 0x4
 1058 0709 03070000 		.4byte	0x703
 1059 070d 14       		.uleb128 0x14
 1060 070e F9000000 		.4byte	0xf9
 1061 0712 1D070000 		.4byte	0x71d
 1062 0716 15       		.uleb128 0x15
 1063 0717 3C000000 		.4byte	0x3c
 1064 071b 04       		.byte	0x4
 1065 071c 00       		.byte	0
 1066 071d 06       		.uleb128 0x6
 1067 071e 0D070000 		.4byte	0x70d
 1068 0722 04       		.uleb128 0x4
 1069 0723 1D070000 		.4byte	0x71d
 1070 0727 14       		.uleb128 0x14
 1071 0728 E9000000 		.4byte	0xe9
 1072 072c 37070000 		.4byte	0x737
 1073 0730 15       		.uleb128 0x15
 1074 0731 3C000000 		.4byte	0x3c
 1075 0735 04       		.byte	0x4
 1076 0736 00       		.byte	0
 1077 0737 17       		.uleb128 0x17
 1078 0738 B7020000 		.4byte	.LASF103
 1079 073c 09       		.byte	0x9
 1080 073d CF01     		.2byte	0x1cf
 1081 073f A9050000 		.4byte	0x5a9
 1082 0743 19       		.uleb128 0x19
 1083 0744 75060000 		.4byte	.LASF104
ARM GAS  /var/folders/vd/czx34qs52cd_f3nb04sxmghc0000gn/T//ccMYOG2x.s 			page 20


 1084 0748 09       		.byte	0x9
 1085 0749 F407     		.2byte	0x7f4
 1086 074b E4000000 		.4byte	0xe4
 1087 074f 1A       		.uleb128 0x1a
 1088 0750 32040000 		.4byte	.LASF105
 1089 0754 0A       		.byte	0xa
 1090 0755 4C       		.byte	0x4c
 1091 0756 E9000000 		.4byte	0xe9
 1092 075a 14       		.uleb128 0x14
 1093 075b C9000000 		.4byte	0xc9
 1094 075f 6A070000 		.4byte	0x76a
 1095 0763 15       		.uleb128 0x15
 1096 0764 3C000000 		.4byte	0x3c
 1097 0768 0F       		.byte	0xf
 1098 0769 00       		.byte	0
 1099 076a 06       		.uleb128 0x6
 1100 076b 5A070000 		.4byte	0x75a
 1101 076f 1A       		.uleb128 0x1a
 1102 0770 96070000 		.4byte	.LASF106
 1103 0774 0A       		.byte	0xa
 1104 0775 4E       		.byte	0x4e
 1105 0776 6A070000 		.4byte	0x76a
 1106 077a 14       		.uleb128 0x14
 1107 077b C9000000 		.4byte	0xc9
 1108 077f 8A070000 		.4byte	0x78a
 1109 0783 15       		.uleb128 0x15
 1110 0784 3C000000 		.4byte	0x3c
 1111 0788 07       		.byte	0x7
 1112 0789 00       		.byte	0
 1113 078a 06       		.uleb128 0x6
 1114 078b 7A070000 		.4byte	0x77a
 1115 078f 1A       		.uleb128 0x1a
 1116 0790 F7080000 		.4byte	.LASF107
 1117 0794 0A       		.byte	0xa
 1118 0795 4F       		.byte	0x4f
 1119 0796 8A070000 		.4byte	0x78a
 1120 079a 18       		.uleb128 0x18
 1121 079b 18       		.byte	0x18
 1122 079c 0B       		.byte	0xb
 1123 079d 6A01     		.2byte	0x16a
 1124 079f F1070000 		.4byte	0x7f1
 1125 07a3 0A       		.uleb128 0xa
 1126 07a4 435200   		.ascii	"CR\000"
 1127 07a7 0B       		.byte	0xb
 1128 07a8 6C01     		.2byte	0x16c
 1129 07aa F4000000 		.4byte	0xf4
 1130 07ae 00       		.byte	0
 1131 07af 0B       		.uleb128 0xb
 1132 07b0 D80A0000 		.4byte	.LASF108
 1133 07b4 0B       		.byte	0xb
 1134 07b5 6D01     		.2byte	0x16d
 1135 07b7 F4000000 		.4byte	0xf4
 1136 07bb 04       		.byte	0x4
 1137 07bc 0A       		.uleb128 0xa
 1138 07bd 50415200 		.ascii	"PAR\000"
 1139 07c1 0B       		.byte	0xb
 1140 07c2 6E01     		.2byte	0x16e
ARM GAS  /var/folders/vd/czx34qs52cd_f3nb04sxmghc0000gn/T//ccMYOG2x.s 			page 21


 1141 07c4 F4000000 		.4byte	0xf4
 1142 07c8 08       		.byte	0x8
 1143 07c9 0B       		.uleb128 0xb
 1144 07ca E4080000 		.4byte	.LASF109
 1145 07ce 0B       		.byte	0xb
 1146 07cf 6F01     		.2byte	0x16f
 1147 07d1 F4000000 		.4byte	0xf4
 1148 07d5 0C       		.byte	0xc
 1149 07d6 0B       		.uleb128 0xb
 1150 07d7 08000000 		.4byte	.LASF110
 1151 07db 0B       		.byte	0xb
 1152 07dc 7001     		.2byte	0x170
 1153 07de F4000000 		.4byte	0xf4
 1154 07e2 10       		.byte	0x10
 1155 07e3 0A       		.uleb128 0xa
 1156 07e4 46435200 		.ascii	"FCR\000"
 1157 07e8 0B       		.byte	0xb
 1158 07e9 7101     		.2byte	0x171
 1159 07eb F4000000 		.4byte	0xf4
 1160 07ef 14       		.byte	0x14
 1161 07f0 00       		.byte	0
 1162 07f1 17       		.uleb128 0x17
 1163 07f2 FA060000 		.4byte	.LASF111
 1164 07f6 0B       		.byte	0xb
 1165 07f7 7201     		.2byte	0x172
 1166 07f9 9A070000 		.4byte	0x79a
 1167 07fd 14       		.uleb128 0x14
 1168 07fe F4000000 		.4byte	0xf4
 1169 0802 0D080000 		.4byte	0x80d
 1170 0806 15       		.uleb128 0x15
 1171 0807 3C000000 		.4byte	0x3c
 1172 080b 01       		.byte	0x1
 1173 080c 00       		.byte	0
 1174 080d 04       		.uleb128 0x4
 1175 080e FD070000 		.4byte	0x7fd
 1176 0812 14       		.uleb128 0x14
 1177 0813 F4000000 		.4byte	0xf4
 1178 0817 22080000 		.4byte	0x822
 1179 081b 15       		.uleb128 0x15
 1180 081c 3C000000 		.4byte	0x3c
 1181 0820 03       		.byte	0x3
 1182 0821 00       		.byte	0
 1183 0822 04       		.uleb128 0x4
 1184 0823 12080000 		.4byte	0x812
 1185 0827 18       		.uleb128 0x18
 1186 0828 1C       		.byte	0x1c
 1187 0829 0B       		.byte	0xb
 1188 082a 0603     		.2byte	0x306
 1189 082c 8A080000 		.4byte	0x88a
 1190 0830 0A       		.uleb128 0xa
 1191 0831 535200   		.ascii	"SR\000"
 1192 0834 0B       		.byte	0xb
 1193 0835 0803     		.2byte	0x308
 1194 0837 F4000000 		.4byte	0xf4
 1195 083b 00       		.byte	0
 1196 083c 0A       		.uleb128 0xa
 1197 083d 445200   		.ascii	"DR\000"
ARM GAS  /var/folders/vd/czx34qs52cd_f3nb04sxmghc0000gn/T//ccMYOG2x.s 			page 22


 1198 0840 0B       		.byte	0xb
 1199 0841 0903     		.2byte	0x309
 1200 0843 F4000000 		.4byte	0xf4
 1201 0847 04       		.byte	0x4
 1202 0848 0A       		.uleb128 0xa
 1203 0849 42525200 		.ascii	"BRR\000"
 1204 084d 0B       		.byte	0xb
 1205 084e 0A03     		.2byte	0x30a
 1206 0850 F4000000 		.4byte	0xf4
 1207 0854 08       		.byte	0x8
 1208 0855 0A       		.uleb128 0xa
 1209 0856 43523100 		.ascii	"CR1\000"
 1210 085a 0B       		.byte	0xb
 1211 085b 0B03     		.2byte	0x30b
 1212 085d F4000000 		.4byte	0xf4
 1213 0861 0C       		.byte	0xc
 1214 0862 0A       		.uleb128 0xa
 1215 0863 43523200 		.ascii	"CR2\000"
 1216 0867 0B       		.byte	0xb
 1217 0868 0C03     		.2byte	0x30c
 1218 086a F4000000 		.4byte	0xf4
 1219 086e 10       		.byte	0x10
 1220 086f 0A       		.uleb128 0xa
 1221 0870 43523300 		.ascii	"CR3\000"
 1222 0874 0B       		.byte	0xb
 1223 0875 0D03     		.2byte	0x30d
 1224 0877 F4000000 		.4byte	0xf4
 1225 087b 14       		.byte	0x14
 1226 087c 0B       		.uleb128 0xb
 1227 087d 5B060000 		.4byte	.LASF112
 1228 0881 0B       		.byte	0xb
 1229 0882 0E03     		.2byte	0x30e
 1230 0884 F4000000 		.4byte	0xf4
 1231 0888 18       		.byte	0x18
 1232 0889 00       		.byte	0
 1233 088a 17       		.uleb128 0x17
 1234 088b 4C030000 		.4byte	.LASF113
 1235 088f 0B       		.byte	0xb
 1236 0890 0F03     		.2byte	0x30f
 1237 0892 27080000 		.4byte	0x827
 1238 0896 03       		.uleb128 0x3
 1239 0897 B5010000 		.4byte	.LASF114
 1240 089b 0C       		.byte	0xc
 1241 089c 65       		.byte	0x65
 1242 089d 48030000 		.4byte	0x348
 1243 08a1 03       		.uleb128 0x3
 1244 08a2 41030000 		.4byte	.LASF115
 1245 08a6 0C       		.byte	0xc
 1246 08a7 6D       		.byte	0x6d
 1247 08a8 FE000000 		.4byte	0xfe
 1248 08ac 07       		.uleb128 0x7
 1249 08ad BD090000 		.4byte	.LASF116
 1250 08b1 04       		.byte	0x4
 1251 08b2 0C       		.byte	0xc
 1252 08b3 89       		.byte	0x89
 1253 08b4 C4080000 		.4byte	0x8c4
 1254 08b8 09       		.uleb128 0x9
ARM GAS  /var/folders/vd/czx34qs52cd_f3nb04sxmghc0000gn/T//ccMYOG2x.s 			page 23


 1255 08b9 737000   		.ascii	"sp\000"
 1256 08bc 0C       		.byte	0xc
 1257 08bd 8A       		.byte	0x8a
 1258 08be 40090000 		.4byte	0x940
 1259 08c2 00       		.byte	0
 1260 08c3 00       		.byte	0
 1261 08c4 0D       		.uleb128 0xd
 1262 08c5 6F070000 		.4byte	.LASF117
 1263 08c9 24       		.byte	0x24
 1264 08ca 0D       		.byte	0xd
 1265 08cb 5901     		.2byte	0x159
 1266 08cd 40090000 		.4byte	0x940
 1267 08d1 0A       		.uleb128 0xa
 1268 08d2 723400   		.ascii	"r4\000"
 1269 08d5 0D       		.byte	0xd
 1270 08d6 6C01     		.2byte	0x16c
 1271 08d8 96080000 		.4byte	0x896
 1272 08dc 00       		.byte	0
 1273 08dd 0A       		.uleb128 0xa
 1274 08de 723500   		.ascii	"r5\000"
 1275 08e1 0D       		.byte	0xd
 1276 08e2 6D01     		.2byte	0x16d
 1277 08e4 96080000 		.4byte	0x896
 1278 08e8 04       		.byte	0x4
 1279 08e9 0A       		.uleb128 0xa
 1280 08ea 723600   		.ascii	"r6\000"
 1281 08ed 0D       		.byte	0xd
 1282 08ee 6E01     		.2byte	0x16e
 1283 08f0 96080000 		.4byte	0x896
 1284 08f4 08       		.byte	0x8
 1285 08f5 0A       		.uleb128 0xa
 1286 08f6 723700   		.ascii	"r7\000"
 1287 08f9 0D       		.byte	0xd
 1288 08fa 6F01     		.2byte	0x16f
 1289 08fc 96080000 		.4byte	0x896
 1290 0900 0C       		.byte	0xc
 1291 0901 0A       		.uleb128 0xa
 1292 0902 723800   		.ascii	"r8\000"
 1293 0905 0D       		.byte	0xd
 1294 0906 7001     		.2byte	0x170
 1295 0908 96080000 		.4byte	0x896
 1296 090c 10       		.byte	0x10
 1297 090d 0A       		.uleb128 0xa
 1298 090e 723900   		.ascii	"r9\000"
 1299 0911 0D       		.byte	0xd
 1300 0912 7101     		.2byte	0x171
 1301 0914 96080000 		.4byte	0x896
 1302 0918 14       		.byte	0x14
 1303 0919 0A       		.uleb128 0xa
 1304 091a 72313000 		.ascii	"r10\000"
 1305 091e 0D       		.byte	0xd
 1306 091f 7201     		.2byte	0x172
 1307 0921 96080000 		.4byte	0x896
 1308 0925 18       		.byte	0x18
 1309 0926 0A       		.uleb128 0xa
 1310 0927 72313100 		.ascii	"r11\000"
 1311 092b 0D       		.byte	0xd
ARM GAS  /var/folders/vd/czx34qs52cd_f3nb04sxmghc0000gn/T//ccMYOG2x.s 			page 24


 1312 092c 7301     		.2byte	0x173
 1313 092e 96080000 		.4byte	0x896
 1314 0932 1C       		.byte	0x1c
 1315 0933 0A       		.uleb128 0xa
 1316 0934 6C7200   		.ascii	"lr\000"
 1317 0937 0D       		.byte	0xd
 1318 0938 7401     		.2byte	0x174
 1319 093a 96080000 		.4byte	0x896
 1320 093e 20       		.byte	0x20
 1321 093f 00       		.byte	0
 1322 0940 0C       		.uleb128 0xc
 1323 0941 04       		.byte	0x4
 1324 0942 C4080000 		.4byte	0x8c4
 1325 0946 18       		.uleb128 0x18
 1326 0947 60       		.byte	0x60
 1327 0948 0E       		.byte	0xe
 1328 0949 F501     		.2byte	0x1f5
 1329 094b 520A0000 		.4byte	0xa52
 1330 094f 0A       		.uleb128 0xa
 1331 0950 43523100 		.ascii	"CR1\000"
 1332 0954 0E       		.byte	0xe
 1333 0955 F601     		.2byte	0x1f6
 1334 0957 F4000000 		.4byte	0xf4
 1335 095b 00       		.byte	0
 1336 095c 0A       		.uleb128 0xa
 1337 095d 43523200 		.ascii	"CR2\000"
 1338 0961 0E       		.byte	0xe
 1339 0962 F701     		.2byte	0x1f7
 1340 0964 F4000000 		.4byte	0xf4
 1341 0968 04       		.byte	0x4
 1342 0969 0B       		.uleb128 0xb
 1343 096a 60080000 		.4byte	.LASF118
 1344 096e 0E       		.byte	0xe
 1345 096f F801     		.2byte	0x1f8
 1346 0971 F4000000 		.4byte	0xf4
 1347 0975 08       		.byte	0x8
 1348 0976 0B       		.uleb128 0xb
 1349 0977 2D040000 		.4byte	.LASF119
 1350 097b 0E       		.byte	0xe
 1351 097c F901     		.2byte	0x1f9
 1352 097e F4000000 		.4byte	0xf4
 1353 0982 0C       		.byte	0xc
 1354 0983 0A       		.uleb128 0xa
 1355 0984 535200   		.ascii	"SR\000"
 1356 0987 0E       		.byte	0xe
 1357 0988 FA01     		.2byte	0x1fa
 1358 098a F4000000 		.4byte	0xf4
 1359 098e 10       		.byte	0x10
 1360 098f 0A       		.uleb128 0xa
 1361 0990 45475200 		.ascii	"EGR\000"
 1362 0994 0E       		.byte	0xe
 1363 0995 FB01     		.2byte	0x1fb
 1364 0997 F4000000 		.4byte	0xf4
 1365 099b 14       		.byte	0x14
 1366 099c 0B       		.uleb128 0xb
 1367 099d A0020000 		.4byte	.LASF120
 1368 09a1 0E       		.byte	0xe
ARM GAS  /var/folders/vd/czx34qs52cd_f3nb04sxmghc0000gn/T//ccMYOG2x.s 			page 25


 1369 09a2 FC01     		.2byte	0x1fc
 1370 09a4 F4000000 		.4byte	0xf4
 1371 09a8 18       		.byte	0x18
 1372 09a9 0B       		.uleb128 0xb
 1373 09aa A6020000 		.4byte	.LASF121
 1374 09ae 0E       		.byte	0xe
 1375 09af FD01     		.2byte	0x1fd
 1376 09b1 F4000000 		.4byte	0xf4
 1377 09b5 1C       		.byte	0x1c
 1378 09b6 0B       		.uleb128 0xb
 1379 09b7 1F080000 		.4byte	.LASF122
 1380 09bb 0E       		.byte	0xe
 1381 09bc FE01     		.2byte	0x1fe
 1382 09be F4000000 		.4byte	0xf4
 1383 09c2 20       		.byte	0x20
 1384 09c3 0A       		.uleb128 0xa
 1385 09c4 434E5400 		.ascii	"CNT\000"
 1386 09c8 0E       		.byte	0xe
 1387 09c9 FF01     		.2byte	0x1ff
 1388 09cb F4000000 		.4byte	0xf4
 1389 09cf 24       		.byte	0x24
 1390 09d0 0A       		.uleb128 0xa
 1391 09d1 50534300 		.ascii	"PSC\000"
 1392 09d5 0E       		.byte	0xe
 1393 09d6 0002     		.2byte	0x200
 1394 09d8 F4000000 		.4byte	0xf4
 1395 09dc 28       		.byte	0x28
 1396 09dd 0A       		.uleb128 0xa
 1397 09de 41525200 		.ascii	"ARR\000"
 1398 09e2 0E       		.byte	0xe
 1399 09e3 0102     		.2byte	0x201
 1400 09e5 F4000000 		.4byte	0xf4
 1401 09e9 2C       		.byte	0x2c
 1402 09ea 0A       		.uleb128 0xa
 1403 09eb 52435200 		.ascii	"RCR\000"
 1404 09ef 0E       		.byte	0xe
 1405 09f0 0202     		.2byte	0x202
 1406 09f2 F4000000 		.4byte	0xf4
 1407 09f6 30       		.byte	0x30
 1408 09f7 0A       		.uleb128 0xa
 1409 09f8 43435200 		.ascii	"CCR\000"
 1410 09fc 0E       		.byte	0xe
 1411 09fd 0302     		.2byte	0x203
 1412 09ff 22080000 		.4byte	0x822
 1413 0a03 34       		.byte	0x34
 1414 0a04 0B       		.uleb128 0xb
 1415 0a05 FA090000 		.4byte	.LASF123
 1416 0a09 0E       		.byte	0xe
 1417 0a0a 0402     		.2byte	0x204
 1418 0a0c F4000000 		.4byte	0xf4
 1419 0a10 44       		.byte	0x44
 1420 0a11 0A       		.uleb128 0xa
 1421 0a12 44435200 		.ascii	"DCR\000"
 1422 0a16 0E       		.byte	0xe
 1423 0a17 0502     		.2byte	0x205
 1424 0a19 F4000000 		.4byte	0xf4
 1425 0a1d 48       		.byte	0x48
ARM GAS  /var/folders/vd/czx34qs52cd_f3nb04sxmghc0000gn/T//ccMYOG2x.s 			page 26


 1426 0a1e 0B       		.uleb128 0xb
 1427 0a1f 07010000 		.4byte	.LASF124
 1428 0a23 0E       		.byte	0xe
 1429 0a24 0602     		.2byte	0x206
 1430 0a26 F4000000 		.4byte	0xf4
 1431 0a2a 4C       		.byte	0x4c
 1432 0a2b 0A       		.uleb128 0xa
 1433 0a2c 4F5200   		.ascii	"OR\000"
 1434 0a2f 0E       		.byte	0xe
 1435 0a30 0702     		.2byte	0x207
 1436 0a32 F4000000 		.4byte	0xf4
 1437 0a36 50       		.byte	0x50
 1438 0a37 0B       		.uleb128 0xb
 1439 0a38 AC020000 		.4byte	.LASF125
 1440 0a3c 0E       		.byte	0xe
 1441 0a3d 0802     		.2byte	0x208
 1442 0a3f F4000000 		.4byte	0xf4
 1443 0a43 54       		.byte	0x54
 1444 0a44 0B       		.uleb128 0xb
 1445 0a45 85030000 		.4byte	.LASF126
 1446 0a49 0E       		.byte	0xe
 1447 0a4a 0902     		.2byte	0x209
 1448 0a4c 0D080000 		.4byte	0x80d
 1449 0a50 58       		.byte	0x58
 1450 0a51 00       		.byte	0
 1451 0a52 17       		.uleb128 0x17
 1452 0a53 F7040000 		.4byte	.LASF127
 1453 0a57 0E       		.byte	0xe
 1454 0a58 0A02     		.2byte	0x20a
 1455 0a5a 46090000 		.4byte	0x946
 1456 0a5e 1B       		.uleb128 0x1b
 1457 0a5f 04       		.byte	0x4
 1458 0a60 0F       		.byte	0xf
 1459 0a61 38       		.byte	0x38
 1460 0a62 730A0000 		.4byte	0xa73
 1461 0a66 08       		.uleb128 0x8
 1462 0a67 F3060000 		.4byte	.LASF128
 1463 0a6b 0F       		.byte	0xf
 1464 0a6c 3C       		.byte	0x3c
 1465 0a6d 09010000 		.4byte	0x109
 1466 0a71 00       		.byte	0
 1467 0a72 00       		.byte	0
 1468 0a73 03       		.uleb128 0x3
 1469 0a74 D3080000 		.4byte	.LASF129
 1470 0a78 0F       		.byte	0xf
 1471 0a79 3D       		.byte	0x3d
 1472 0a7a 5E0A0000 		.4byte	0xa5e
 1473 0a7e 1C       		.uleb128 0x1c
 1474 0a7f 04       		.byte	0x4
 1475 0a80 07       		.byte	0x7
 1476 0a81 C6       		.byte	0xc6
 1477 0a82 E00A0000 		.4byte	0xae0
 1478 0a86 1D       		.uleb128 0x1d
 1479 0a87 700A0000 		.4byte	.LASF130
 1480 0a8b 07       		.byte	0x7
 1481 0a8c CD       		.byte	0xcd
 1482 0a8d 40010000 		.4byte	0x140
ARM GAS  /var/folders/vd/czx34qs52cd_f3nb04sxmghc0000gn/T//ccMYOG2x.s 			page 27


 1483 0a91 1D       		.uleb128 0x1d
 1484 0a92 30010000 		.4byte	.LASF131
 1485 0a96 07       		.byte	0x7
 1486 0a97 D4       		.byte	0xd4
 1487 0a98 40010000 		.4byte	0x140
 1488 0a9c 1D       		.uleb128 0x1d
 1489 0a9d F1020000 		.4byte	.LASF132
 1490 0aa1 07       		.byte	0x7
 1491 0aa2 DB       		.byte	0xdb
 1492 0aa3 48030000 		.4byte	0x348
 1493 0aa7 1D       		.uleb128 0x1d
 1494 0aa8 1A020000 		.4byte	.LASF133
 1495 0aac 07       		.byte	0x7
 1496 0aad E2       		.byte	0xe2
 1497 0aae E00A0000 		.4byte	0xae0
 1498 0ab2 1D       		.uleb128 0x1d
 1499 0ab3 67070000 		.4byte	.LASF134
 1500 0ab7 07       		.byte	0x7
 1501 0ab8 E7       		.byte	0xe7
 1502 0ab9 40010000 		.4byte	0x140
 1503 0abd 1D       		.uleb128 0x1d
 1504 0abe 40000000 		.4byte	.LASF135
 1505 0ac2 07       		.byte	0x7
 1506 0ac3 F0       		.byte	0xf0
 1507 0ac4 0B0B0000 		.4byte	0xb0b
 1508 0ac8 1D       		.uleb128 0x1d
 1509 0ac9 C3030000 		.4byte	.LASF136
 1510 0acd 07       		.byte	0x7
 1511 0ace F9       		.byte	0xf9
 1512 0acf 420B0000 		.4byte	0xb42
 1513 0ad3 1E       		.uleb128 0x1e
 1514 0ad4 FF010000 		.4byte	.LASF137
 1515 0ad8 07       		.byte	0x7
 1516 0ad9 0101     		.2byte	0x101
 1517 0adb 4B010000 		.4byte	0x14b
 1518 0adf 00       		.byte	0
 1519 0ae0 0C       		.uleb128 0xc
 1520 0ae1 04       		.byte	0x4
 1521 0ae2 60020000 		.4byte	0x260
 1522 0ae6 07       		.uleb128 0x7
 1523 0ae7 42040000 		.4byte	.LASF138
 1524 0aeb 0C       		.byte	0xc
 1525 0aec 10       		.byte	0x10
 1526 0aed 34       		.byte	0x34
 1527 0aee 0B0B0000 		.4byte	0xb0b
 1528 0af2 08       		.uleb128 0x8
 1529 0af3 2F080000 		.4byte	.LASF32
 1530 0af7 10       		.byte	0x10
 1531 0af8 35       		.byte	0x35
 1532 0af9 95020000 		.4byte	0x295
 1533 0afd 00       		.byte	0
 1534 0afe 09       		.uleb128 0x9
 1535 0aff 636E7400 		.ascii	"cnt\000"
 1536 0b03 10       		.byte	0x10
 1537 0b04 37       		.byte	0x37
 1538 0b05 61010000 		.4byte	0x161
 1539 0b09 08       		.byte	0x8
ARM GAS  /var/folders/vd/czx34qs52cd_f3nb04sxmghc0000gn/T//ccMYOG2x.s 			page 28


 1540 0b0a 00       		.byte	0
 1541 0b0b 0C       		.uleb128 0xc
 1542 0b0c 04       		.byte	0x4
 1543 0b0d E60A0000 		.4byte	0xae6
 1544 0b11 07       		.uleb128 0x7
 1545 0b12 44090000 		.4byte	.LASF139
 1546 0b16 10       		.byte	0x10
 1547 0b17 11       		.byte	0x11
 1548 0b18 39       		.byte	0x39
 1549 0b19 420B0000 		.4byte	0xb42
 1550 0b1d 08       		.uleb128 0x8
 1551 0b1e 2F080000 		.4byte	.LASF32
 1552 0b22 11       		.byte	0x11
 1553 0b23 3A       		.byte	0x3a
 1554 0b24 95020000 		.4byte	0x295
 1555 0b28 00       		.byte	0
 1556 0b29 08       		.uleb128 0x8
 1557 0b2a 5D000000 		.4byte	.LASF140
 1558 0b2e 11       		.byte	0x11
 1559 0b2f 3C       		.byte	0x3c
 1560 0b30 6B020000 		.4byte	0x26b
 1561 0b34 08       		.byte	0x8
 1562 0b35 08       		.uleb128 0x8
 1563 0b36 030B0000 		.4byte	.LASF51
 1564 0b3a 11       		.byte	0x11
 1565 0b3b 3E       		.byte	0x3e
 1566 0b3c A40C0000 		.4byte	0xca4
 1567 0b40 0C       		.byte	0xc
 1568 0b41 00       		.byte	0
 1569 0b42 0C       		.uleb128 0xc
 1570 0b43 04       		.byte	0x4
 1571 0b44 110B0000 		.4byte	0xb11
 1572 0b48 0C       		.uleb128 0xc
 1573 0b49 04       		.byte	0x4
 1574 0b4a 5A0B0000 		.4byte	0xb5a
 1575 0b4e 04       		.uleb128 0x4
 1576 0b4f 480B0000 		.4byte	0xb48
 1577 0b53 05       		.uleb128 0x5
 1578 0b54 01       		.byte	0x1
 1579 0b55 08       		.byte	0x8
 1580 0b56 B2020000 		.4byte	.LASF141
 1581 0b5a 06       		.uleb128 0x6
 1582 0b5b 530B0000 		.4byte	0xb53
 1583 0b5f 0C       		.uleb128 0xc
 1584 0b60 04       		.byte	0x4
 1585 0b61 A1080000 		.4byte	0x8a1
 1586 0b65 0C       		.uleb128 0xc
 1587 0b66 04       		.byte	0x4
 1588 0b67 4A030000 		.4byte	0x34a
 1589 0b6b 1F       		.uleb128 0x1f
 1590 0b6c 636800   		.ascii	"ch\000"
 1591 0b6f 07       		.byte	0x7
 1592 0b70 C701     		.2byte	0x1c7
 1593 0b72 17040000 		.4byte	0x417
 1594 0b76 14       		.uleb128 0x14
 1595 0b77 A1080000 		.4byte	0x8a1
 1596 0b7b 810B0000 		.4byte	0xb81
ARM GAS  /var/folders/vd/czx34qs52cd_f3nb04sxmghc0000gn/T//ccMYOG2x.s 			page 29


 1597 0b7f 20       		.uleb128 0x20
 1598 0b80 00       		.byte	0
 1599 0b81 19       		.uleb128 0x19
 1600 0b82 8C040000 		.4byte	.LASF142
 1601 0b86 12       		.byte	0x12
 1602 0b87 1701     		.2byte	0x117
 1603 0b89 760B0000 		.4byte	0xb76
 1604 0b8d 1B       		.uleb128 0x1b
 1605 0b8e 16       		.byte	0x16
 1606 0b8f 13       		.byte	0x13
 1607 0b90 34       		.byte	0x34
 1608 0b91 6E0C0000 		.4byte	0xc6e
 1609 0b95 08       		.uleb128 0x8
 1610 0b96 190B0000 		.4byte	.LASF143
 1611 0b9a 13       		.byte	0x13
 1612 0b9b 35       		.byte	0x35
 1613 0b9c 6E0C0000 		.4byte	0xc6e
 1614 0ba0 00       		.byte	0
 1615 0ba1 08       		.uleb128 0x8
 1616 0ba2 87010000 		.4byte	.LASF144
 1617 0ba6 13       		.byte	0x13
 1618 0ba7 36       		.byte	0x36
 1619 0ba8 B9000000 		.4byte	0xb9
 1620 0bac 04       		.byte	0x4
 1621 0bad 08       		.uleb128 0x8
 1622 0bae C4070000 		.4byte	.LASF145
 1623 0bb2 13       		.byte	0x13
 1624 0bb3 37       		.byte	0x37
 1625 0bb4 B9000000 		.4byte	0xb9
 1626 0bb8 05       		.byte	0x5
 1627 0bb9 08       		.uleb128 0x8
 1628 0bba 6C080000 		.4byte	.LASF146
 1629 0bbe 13       		.byte	0x13
 1630 0bbf 38       		.byte	0x38
 1631 0bc0 CE000000 		.4byte	0xce
 1632 0bc4 06       		.byte	0x6
 1633 0bc5 08       		.uleb128 0x8
 1634 0bc6 7D030000 		.4byte	.LASF147
 1635 0bca 13       		.byte	0x13
 1636 0bcb 39       		.byte	0x39
 1637 0bcc B9000000 		.4byte	0xb9
 1638 0bd0 08       		.byte	0x8
 1639 0bd1 08       		.uleb128 0x8
 1640 0bd2 BD0A0000 		.4byte	.LASF148
 1641 0bd6 13       		.byte	0x13
 1642 0bd7 3A       		.byte	0x3a
 1643 0bd8 B9000000 		.4byte	0xb9
 1644 0bdc 09       		.byte	0x9
 1645 0bdd 08       		.uleb128 0x8
 1646 0bde 22040000 		.4byte	.LASF149
 1647 0be2 13       		.byte	0x13
 1648 0be3 3B       		.byte	0x3b
 1649 0be4 B9000000 		.4byte	0xb9
 1650 0be8 0A       		.byte	0xa
 1651 0be9 08       		.uleb128 0x8
 1652 0bea 30000000 		.4byte	.LASF150
 1653 0bee 13       		.byte	0x13
ARM GAS  /var/folders/vd/czx34qs52cd_f3nb04sxmghc0000gn/T//ccMYOG2x.s 			page 30


 1654 0bef 3C       		.byte	0x3c
 1655 0bf0 B9000000 		.4byte	0xb9
 1656 0bf4 0B       		.byte	0xb
 1657 0bf5 08       		.uleb128 0x8
 1658 0bf6 00000000 		.4byte	.LASF151
 1659 0bfa 13       		.byte	0x13
 1660 0bfb 3D       		.byte	0x3d
 1661 0bfc B9000000 		.4byte	0xb9
 1662 0c00 0C       		.byte	0xc
 1663 0c01 08       		.uleb128 0x8
 1664 0c02 A1060000 		.4byte	.LASF152
 1665 0c06 13       		.byte	0x13
 1666 0c07 3E       		.byte	0x3e
 1667 0c08 B9000000 		.4byte	0xb9
 1668 0c0c 0D       		.byte	0xd
 1669 0c0d 08       		.uleb128 0x8
 1670 0c0e 21010000 		.4byte	.LASF153
 1671 0c12 13       		.byte	0x13
 1672 0c13 3F       		.byte	0x3f
 1673 0c14 B9000000 		.4byte	0xb9
 1674 0c18 0E       		.byte	0xe
 1675 0c19 08       		.uleb128 0x8
 1676 0c1a F2070000 		.4byte	.LASF154
 1677 0c1e 13       		.byte	0x13
 1678 0c1f 40       		.byte	0x40
 1679 0c20 B9000000 		.4byte	0xb9
 1680 0c24 0F       		.byte	0xf
 1681 0c25 08       		.uleb128 0x8
 1682 0c26 10050000 		.4byte	.LASF155
 1683 0c2a 13       		.byte	0x13
 1684 0c2b 41       		.byte	0x41
 1685 0c2c B9000000 		.4byte	0xb9
 1686 0c30 10       		.byte	0x10
 1687 0c31 08       		.uleb128 0x8
 1688 0c32 06040000 		.4byte	.LASF156
 1689 0c36 13       		.byte	0x13
 1690 0c37 42       		.byte	0x42
 1691 0c38 B9000000 		.4byte	0xb9
 1692 0c3c 11       		.byte	0x11
 1693 0c3d 08       		.uleb128 0x8
 1694 0c3e F20A0000 		.4byte	.LASF157
 1695 0c42 13       		.byte	0x13
 1696 0c43 43       		.byte	0x43
 1697 0c44 B9000000 		.4byte	0xb9
 1698 0c48 12       		.byte	0x12
 1699 0c49 08       		.uleb128 0x8
 1700 0c4a 2D030000 		.4byte	.LASF158
 1701 0c4e 13       		.byte	0x13
 1702 0c4f 44       		.byte	0x44
 1703 0c50 B9000000 		.4byte	0xb9
 1704 0c54 13       		.byte	0x13
 1705 0c55 08       		.uleb128 0x8
 1706 0c56 51000000 		.4byte	.LASF159
 1707 0c5a 13       		.byte	0x13
 1708 0c5b 45       		.byte	0x45
 1709 0c5c B9000000 		.4byte	0xb9
 1710 0c60 14       		.byte	0x14
ARM GAS  /var/folders/vd/czx34qs52cd_f3nb04sxmghc0000gn/T//ccMYOG2x.s 			page 31


 1711 0c61 08       		.uleb128 0x8
 1712 0c62 90030000 		.4byte	.LASF160
 1713 0c66 13       		.byte	0x13
 1714 0c67 46       		.byte	0x46
 1715 0c68 B9000000 		.4byte	0xb9
 1716 0c6c 15       		.byte	0x15
 1717 0c6d 00       		.byte	0
 1718 0c6e 14       		.uleb128 0x14
 1719 0c6f 530B0000 		.4byte	0xb53
 1720 0c73 7E0C0000 		.4byte	0xc7e
 1721 0c77 15       		.uleb128 0x15
 1722 0c78 3C000000 		.4byte	0x3c
 1723 0c7c 03       		.byte	0x3
 1724 0c7d 00       		.byte	0
 1725 0c7e 03       		.uleb128 0x3
 1726 0c7f A40A0000 		.4byte	.LASF161
 1727 0c83 13       		.byte	0x13
 1728 0c84 47       		.byte	0x47
 1729 0c85 8D0B0000 		.4byte	0xb8d
 1730 0c89 06       		.uleb128 0x6
 1731 0c8a 7E0C0000 		.4byte	0xc7e
 1732 0c8e 1A       		.uleb128 0x1a
 1733 0c8f 6B000000 		.4byte	.LASF162
 1734 0c93 13       		.byte	0x13
 1735 0c94 6C       		.byte	0x6c
 1736 0c95 890C0000 		.4byte	0xc89
 1737 0c99 03       		.uleb128 0x3
 1738 0c9a AD090000 		.4byte	.LASF163
 1739 0c9e 11       		.byte	0x11
 1740 0c9f 34       		.byte	0x34
 1741 0ca0 110B0000 		.4byte	0xb11
 1742 0ca4 0C       		.uleb128 0xc
 1743 0ca5 04       		.byte	0x4
 1744 0ca6 990C0000 		.4byte	0xc99
 1745 0caa 03       		.uleb128 0x3
 1746 0cab 6C030000 		.4byte	.LASF164
 1747 0caf 14       		.byte	0x14
 1748 0cb0 34       		.byte	0x34
 1749 0cb1 B50C0000 		.4byte	0xcb5
 1750 0cb5 07       		.uleb128 0x7
 1751 0cb6 610A0000 		.4byte	.LASF165
 1752 0cba 14       		.byte	0x14
 1753 0cbb 14       		.byte	0x14
 1754 0cbc 39       		.byte	0x39
 1755 0cbd FE0C0000 		.4byte	0xcfe
 1756 0cc1 08       		.uleb128 0x8
 1757 0cc2 030B0000 		.4byte	.LASF51
 1758 0cc6 14       		.byte	0x14
 1759 0cc7 3A       		.byte	0x3a
 1760 0cc8 FE0C0000 		.4byte	0xcfe
 1761 0ccc 00       		.byte	0
 1762 0ccd 08       		.uleb128 0x8
 1763 0cce EE080000 		.4byte	.LASF166
 1764 0cd2 14       		.byte	0x14
 1765 0cd3 3D       		.byte	0x3d
 1766 0cd4 6B020000 		.4byte	0x26b
 1767 0cd8 04       		.byte	0x4
ARM GAS  /var/folders/vd/czx34qs52cd_f3nb04sxmghc0000gn/T//ccMYOG2x.s 			page 32


 1768 0cd9 08       		.uleb128 0x8
 1769 0cda FC0A0000 		.4byte	.LASF167
 1770 0cde 14       		.byte	0x14
 1771 0cdf 3F       		.byte	0x3f
 1772 0ce0 4B010000 		.4byte	0x14b
 1773 0ce4 08       		.byte	0x8
 1774 0ce5 08       		.uleb128 0x8
 1775 0ce6 36030000 		.4byte	.LASF39
 1776 0cea 14       		.byte	0x14
 1777 0ceb 41       		.byte	0x41
 1778 0cec 56010000 		.4byte	0x156
 1779 0cf0 0C       		.byte	0xc
 1780 0cf1 08       		.uleb128 0x8
 1781 0cf2 3B070000 		.4byte	.LASF168
 1782 0cf6 14       		.byte	0x14
 1783 0cf7 43       		.byte	0x43
 1784 0cf8 56010000 		.4byte	0x156
 1785 0cfc 10       		.byte	0x10
 1786 0cfd 00       		.byte	0
 1787 0cfe 0C       		.uleb128 0xc
 1788 0cff 04       		.byte	0x4
 1789 0d00 AA0C0000 		.4byte	0xcaa
 1790 0d04 07       		.uleb128 0x7
 1791 0d05 24090000 		.4byte	.LASF169
 1792 0d09 04       		.byte	0x4
 1793 0d0a 14       		.byte	0x14
 1794 0d0b 4A       		.byte	0x4a
 1795 0d0c 1D0D0000 		.4byte	0xd1d
 1796 0d10 08       		.uleb128 0x8
 1797 0d11 030B0000 		.4byte	.LASF51
 1798 0d15 14       		.byte	0x14
 1799 0d16 4B       		.byte	0x4b
 1800 0d17 FE0C0000 		.4byte	0xcfe
 1801 0d1b 00       		.byte	0
 1802 0d1c 00       		.byte	0
 1803 0d1d 03       		.uleb128 0x3
 1804 0d1e 60060000 		.4byte	.LASF170
 1805 0d22 14       		.byte	0x14
 1806 0d23 4E       		.byte	0x4e
 1807 0d24 040D0000 		.4byte	0xd04
 1808 0d28 05       		.uleb128 0x5
 1809 0d29 01       		.byte	0x1
 1810 0d2a 02       		.byte	0x2
 1811 0d2b 90020000 		.4byte	.LASF171
 1812 0d2f 03       		.uleb128 0x3
 1813 0d30 0D070000 		.4byte	.LASF172
 1814 0d34 15       		.byte	0x15
 1815 0d35 4B       		.byte	0x4b
 1816 0d36 3A0D0000 		.4byte	0xd3a
 1817 0d3a 0C       		.uleb128 0xc
 1818 0d3b 04       		.byte	0x4
 1819 0d3c 400D0000 		.4byte	0xd40
 1820 0d40 21       		.uleb128 0x21
 1821 0d41 48030000 		.4byte	0x348
 1822 0d45 540D0000 		.4byte	0xd54
 1823 0d49 0F       		.uleb128 0xf
 1824 0d4a 2C000000 		.4byte	0x2c
ARM GAS  /var/folders/vd/czx34qs52cd_f3nb04sxmghc0000gn/T//ccMYOG2x.s 			page 33


 1825 0d4e 0F       		.uleb128 0xf
 1826 0d4f 3C000000 		.4byte	0x3c
 1827 0d53 00       		.byte	0
 1828 0d54 1B       		.uleb128 0x1b
 1829 0d55 08       		.byte	0x8
 1830 0d56 15       		.byte	0x15
 1831 0d57 55       		.byte	0x55
 1832 0d58 750D0000 		.4byte	0xd75
 1833 0d5c 08       		.uleb128 0x8
 1834 0d5d E1030000 		.4byte	.LASF173
 1835 0d61 15       		.byte	0x15
 1836 0d62 59       		.byte	0x59
 1837 0d63 750D0000 		.4byte	0xd75
 1838 0d67 00       		.byte	0
 1839 0d68 08       		.uleb128 0x8
 1840 0d69 39000000 		.4byte	.LASF174
 1841 0d6d 15       		.byte	0x15
 1842 0d6e 5D       		.byte	0x5d
 1843 0d6f 750D0000 		.4byte	0xd75
 1844 0d73 04       		.byte	0x4
 1845 0d74 00       		.byte	0
 1846 0d75 0C       		.uleb128 0xc
 1847 0d76 04       		.byte	0x4
 1848 0d77 B9000000 		.4byte	0xb9
 1849 0d7b 03       		.uleb128 0x3
 1850 0d7c E0010000 		.4byte	.LASF175
 1851 0d80 15       		.byte	0x15
 1852 0d81 5E       		.byte	0x5e
 1853 0d82 540D0000 		.4byte	0xd54
 1854 0d86 1A       		.uleb128 0x1a
 1855 0d87 E20A0000 		.4byte	.LASF176
 1856 0d8b 15       		.byte	0x15
 1857 0d8c 69       		.byte	0x69
 1858 0d8d 7B0D0000 		.4byte	0xd7b
 1859 0d91 07       		.uleb128 0x7
 1860 0d92 1D050000 		.4byte	.LASF177
 1861 0d96 04       		.byte	0x4
 1862 0d97 16       		.byte	0x16
 1863 0d98 3C       		.byte	0x3c
 1864 0d99 AA0D0000 		.4byte	0xdaa
 1865 0d9d 08       		.uleb128 0x8
 1866 0d9e 030B0000 		.4byte	.LASF51
 1867 0da2 16       		.byte	0x16
 1868 0da3 3D       		.byte	0x3d
 1869 0da4 AA0D0000 		.4byte	0xdaa
 1870 0da8 00       		.byte	0
 1871 0da9 00       		.byte	0
 1872 0daa 0C       		.uleb128 0xc
 1873 0dab 04       		.byte	0x4
 1874 0dac 910D0000 		.4byte	0xd91
 1875 0db0 1B       		.uleb128 0x1b
 1876 0db1 10       		.byte	0x10
 1877 0db2 16       		.byte	0x16
 1878 0db3 44       		.byte	0x44
 1879 0db4 E90D0000 		.4byte	0xde9
 1880 0db8 08       		.uleb128 0x8
 1881 0db9 030B0000 		.4byte	.LASF51
ARM GAS  /var/folders/vd/czx34qs52cd_f3nb04sxmghc0000gn/T//ccMYOG2x.s 			page 34


 1882 0dbd 16       		.byte	0x16
 1883 0dbe 45       		.byte	0x45
 1884 0dbf AA0D0000 		.4byte	0xdaa
 1885 0dc3 00       		.byte	0
 1886 0dc4 08       		.uleb128 0x8
 1887 0dc5 88090000 		.4byte	.LASF178
 1888 0dc9 16       		.byte	0x16
 1889 0dca 46       		.byte	0x46
 1890 0dcb 2C000000 		.4byte	0x2c
 1891 0dcf 04       		.byte	0x4
 1892 0dd0 08       		.uleb128 0x8
 1893 0dd1 6F060000 		.4byte	.LASF179
 1894 0dd5 16       		.byte	0x16
 1895 0dd6 48       		.byte	0x48
 1896 0dd7 3C000000 		.4byte	0x3c
 1897 0ddb 08       		.byte	0x8
 1898 0ddc 08       		.uleb128 0x8
 1899 0ddd 74000000 		.4byte	.LASF180
 1900 0de1 16       		.byte	0x16
 1901 0de2 49       		.byte	0x49
 1902 0de3 2F0D0000 		.4byte	0xd2f
 1903 0de7 0C       		.byte	0xc
 1904 0de8 00       		.byte	0
 1905 0de9 03       		.uleb128 0x3
 1906 0dea 88080000 		.4byte	.LASF181
 1907 0dee 16       		.byte	0x16
 1908 0def 4B       		.byte	0x4b
 1909 0df0 B00D0000 		.4byte	0xdb0
 1910 0df4 07       		.uleb128 0x7
 1911 0df5 C0000000 		.4byte	.LASF182
 1912 0df9 10       		.byte	0x10
 1913 0dfa 17       		.byte	0x17
 1914 0dfb 97       		.byte	0x97
 1915 0dfc 250E0000 		.4byte	0xe25
 1916 0e00 08       		.uleb128 0x8
 1917 0e01 030B0000 		.4byte	.LASF51
 1918 0e05 17       		.byte	0x17
 1919 0e06 9B       		.byte	0x9b
 1920 0e07 250E0000 		.4byte	0xe25
 1921 0e0b 00       		.byte	0
 1922 0e0c 08       		.uleb128 0x8
 1923 0e0d 2A080000 		.4byte	.LASF40
 1924 0e11 17       		.byte	0x17
 1925 0e12 9F       		.byte	0x9f
 1926 0e13 6C010000 		.4byte	0x16c
 1927 0e17 04       		.byte	0x4
 1928 0e18 08       		.uleb128 0x8
 1929 0e19 E9080000 		.4byte	.LASF36
 1930 0e1d 17       		.byte	0x17
 1931 0e1e A1       		.byte	0xa1
 1932 0e1f 2B0E0000 		.4byte	0xe2b
 1933 0e23 08       		.byte	0x8
 1934 0e24 00       		.byte	0
 1935 0e25 0C       		.uleb128 0xc
 1936 0e26 04       		.byte	0x4
 1937 0e27 F40D0000 		.4byte	0xdf4
 1938 0e2b 14       		.uleb128 0x14
ARM GAS  /var/folders/vd/czx34qs52cd_f3nb04sxmghc0000gn/T//ccMYOG2x.s 			page 35


 1939 0e2c 530B0000 		.4byte	0xb53
 1940 0e30 3B0E0000 		.4byte	0xe3b
 1941 0e34 15       		.uleb128 0x15
 1942 0e35 3C000000 		.4byte	0x3c
 1943 0e39 07       		.byte	0x7
 1944 0e3a 00       		.byte	0
 1945 0e3b 03       		.uleb128 0x3
 1946 0e3c B5030000 		.4byte	.LASF183
 1947 0e40 17       		.byte	0x17
 1948 0e41 A5       		.byte	0xa5
 1949 0e42 F40D0000 		.4byte	0xdf4
 1950 0e46 07       		.uleb128 0x7
 1951 0e47 0D0B0000 		.4byte	.LASF184
 1952 0e4b 04       		.byte	0x4
 1953 0e4c 17       		.byte	0x17
 1954 0e4d AA       		.byte	0xaa
 1955 0e4e 5F0E0000 		.4byte	0xe5f
 1956 0e52 08       		.uleb128 0x8
 1957 0e53 030B0000 		.4byte	.LASF51
 1958 0e57 17       		.byte	0x17
 1959 0e58 AB       		.byte	0xab
 1960 0e59 5F0E0000 		.4byte	0xe5f
 1961 0e5d 00       		.byte	0
 1962 0e5e 00       		.byte	0
 1963 0e5f 0C       		.uleb128 0xc
 1964 0e60 04       		.byte	0x4
 1965 0e61 3B0E0000 		.4byte	0xe3b
 1966 0e65 03       		.uleb128 0x3
 1967 0e66 72090000 		.4byte	.LASF185
 1968 0e6a 17       		.byte	0x17
 1969 0e6b AC       		.byte	0xac
 1970 0e6c 460E0000 		.4byte	0xe46
 1971 0e70 0D       		.uleb128 0xd
 1972 0e71 48060000 		.4byte	.LASF186
 1973 0e75 44       		.byte	0x44
 1974 0e76 17       		.byte	0x17
 1975 0e77 1501     		.2byte	0x115
 1976 0e79 E60E0000 		.4byte	0xee6
 1977 0e7d 0A       		.uleb128 0xa
 1978 0e7e 6D747800 		.ascii	"mtx\000"
 1979 0e82 17       		.byte	0x17
 1980 0e83 1A01     		.2byte	0x11a
 1981 0e85 990C0000 		.4byte	0xc99
 1982 0e89 00       		.byte	0
 1983 0e8a 0B       		.uleb128 0xb
 1984 0e8b FE000000 		.4byte	.LASF187
 1985 0e8f 17       		.byte	0x17
 1986 0e90 2101     		.2byte	0x121
 1987 0e92 650E0000 		.4byte	0xe65
 1988 0e96 10       		.byte	0x10
 1989 0e97 0B       		.uleb128 0xb
 1990 0e98 D2010000 		.4byte	.LASF188
 1991 0e9c 17       		.byte	0x17
 1992 0e9d 2501     		.2byte	0x125
 1993 0e9f E90D0000 		.4byte	0xde9
 1994 0ea3 14       		.byte	0x14
 1995 0ea4 0B       		.uleb128 0xb
ARM GAS  /var/folders/vd/czx34qs52cd_f3nb04sxmghc0000gn/T//ccMYOG2x.s 			page 36


 1996 0ea5 8D070000 		.4byte	.LASF189
 1997 0ea9 17       		.byte	0x17
 1998 0eaa 2A01     		.2byte	0x12a
 1999 0eac 650E0000 		.4byte	0xe65
 2000 0eb0 24       		.byte	0x24
 2001 0eb1 0B       		.uleb128 0xb
 2002 0eb2 CC020000 		.4byte	.LASF190
 2003 0eb6 17       		.byte	0x17
 2004 0eb7 3001     		.2byte	0x130
 2005 0eb9 650E0000 		.4byte	0xe65
 2006 0ebd 28       		.byte	0x28
 2007 0ebe 0B       		.uleb128 0xb
 2008 0ebf D8030000 		.4byte	.LASF191
 2009 0ec3 17       		.byte	0x17
 2010 0ec4 3401     		.2byte	0x134
 2011 0ec6 E90D0000 		.4byte	0xde9
 2012 0eca 2C       		.byte	0x2c
 2013 0ecb 0B       		.uleb128 0xb
 2014 0ecc 47080000 		.4byte	.LASF192
 2015 0ed0 17       		.byte	0x17
 2016 0ed1 3A01     		.2byte	0x13a
 2017 0ed3 650E0000 		.4byte	0xe65
 2018 0ed7 3C       		.byte	0x3c
 2019 0ed8 0B       		.uleb128 0xb
 2020 0ed9 B1040000 		.4byte	.LASF193
 2021 0edd 17       		.byte	0x17
 2022 0ede 4001     		.2byte	0x140
 2023 0ee0 650E0000 		.4byte	0xe65
 2024 0ee4 40       		.byte	0x40
 2025 0ee5 00       		.byte	0
 2026 0ee6 17       		.uleb128 0x17
 2027 0ee7 7B070000 		.4byte	.LASF194
 2028 0eeb 17       		.byte	0x17
 2029 0eec 4201     		.2byte	0x142
 2030 0eee 700E0000 		.4byte	0xe70
 2031 0ef2 19       		.uleb128 0x19
 2032 0ef3 3C080000 		.4byte	.LASF195
 2033 0ef7 17       		.byte	0x17
 2034 0ef8 4D01     		.2byte	0x14d
 2035 0efa E60E0000 		.4byte	0xee6
 2036 0efe 18       		.uleb128 0x18
 2037 0eff 0C       		.byte	0xc
 2038 0f00 18       		.byte	0x18
 2039 0f01 6A01     		.2byte	0x16a
 2040 0f03 490F0000 		.4byte	0xf49
 2041 0f07 0B       		.uleb128 0xb
 2042 0f08 65030000 		.4byte	.LASF196
 2043 0f0c 18       		.byte	0x18
 2044 0f0d 6B01     		.2byte	0x16b
 2045 0f0f 490F0000 		.4byte	0xf49
 2046 0f13 00       		.byte	0
 2047 0f14 0B       		.uleb128 0xb
 2048 0f15 DD0A0000 		.4byte	.LASF197
 2049 0f19 18       		.byte	0x18
 2050 0f1a 6C01     		.2byte	0x16c
 2051 0f1c 4F0F0000 		.4byte	0xf4f
 2052 0f20 04       		.byte	0x4
ARM GAS  /var/folders/vd/czx34qs52cd_f3nb04sxmghc0000gn/T//ccMYOG2x.s 			page 37


 2053 0f21 0B       		.uleb128 0xb
 2054 0f22 C0020000 		.4byte	.LASF198
 2055 0f26 18       		.byte	0x18
 2056 0f27 6D01     		.2byte	0x16d
 2057 0f29 B9000000 		.4byte	0xb9
 2058 0f2d 08       		.byte	0x8
 2059 0f2e 0B       		.uleb128 0xb
 2060 0f2f AB060000 		.4byte	.LASF199
 2061 0f33 18       		.byte	0x18
 2062 0f34 6F01     		.2byte	0x16f
 2063 0f36 B9000000 		.4byte	0xb9
 2064 0f3a 09       		.byte	0x9
 2065 0f3b 0B       		.uleb128 0xb
 2066 0f3c 35080000 		.4byte	.LASF200
 2067 0f40 18       		.byte	0x18
 2068 0f41 7001     		.2byte	0x170
 2069 0f43 B9000000 		.4byte	0xb9
 2070 0f47 0A       		.byte	0xa
 2071 0f48 00       		.byte	0
 2072 0f49 0C       		.uleb128 0xc
 2073 0f4a 04       		.byte	0x4
 2074 0f4b F1070000 		.4byte	0x7f1
 2075 0f4f 0C       		.uleb128 0xc
 2076 0f50 04       		.byte	0x4
 2077 0f51 F4000000 		.4byte	0xf4
 2078 0f55 17       		.uleb128 0x17
 2079 0f56 16000000 		.4byte	.LASF201
 2080 0f5a 18       		.byte	0x18
 2081 0f5b 7101     		.2byte	0x171
 2082 0f5d FE0E0000 		.4byte	0xefe
 2083 0f61 06       		.uleb128 0x6
 2084 0f62 550F0000 		.4byte	0xf55
 2085 0f66 14       		.uleb128 0x14
 2086 0f67 610F0000 		.4byte	0xf61
 2087 0f6b 760F0000 		.4byte	0xf76
 2088 0f6f 15       		.uleb128 0x15
 2089 0f70 3C000000 		.4byte	0x3c
 2090 0f74 0F       		.byte	0xf
 2091 0f75 00       		.byte	0
 2092 0f76 06       		.uleb128 0x6
 2093 0f77 660F0000 		.4byte	0xf66
 2094 0f7b 19       		.uleb128 0x19
 2095 0f7c 9E040000 		.4byte	.LASF202
 2096 0f80 18       		.byte	0x18
 2097 0f81 5C02     		.2byte	0x25c
 2098 0f83 760F0000 		.4byte	0xf76
 2099 0f87 21       		.uleb128 0x21
 2100 0f88 2C000000 		.4byte	0x2c
 2101 0f8c A00F0000 		.4byte	0xfa0
 2102 0f90 0F       		.uleb128 0xf
 2103 0f91 48030000 		.4byte	0x348
 2104 0f95 0F       		.uleb128 0xf
 2105 0f96 A00F0000 		.4byte	0xfa0
 2106 0f9a 0F       		.uleb128 0xf
 2107 0f9b 2C000000 		.4byte	0x2c
 2108 0f9f 00       		.byte	0
 2109 0fa0 0C       		.uleb128 0xc
ARM GAS  /var/folders/vd/czx34qs52cd_f3nb04sxmghc0000gn/T//ccMYOG2x.s 			page 38


 2110 0fa1 04       		.byte	0x4
 2111 0fa2 C9000000 		.4byte	0xc9
 2112 0fa6 0C       		.uleb128 0xc
 2113 0fa7 04       		.byte	0x4
 2114 0fa8 870F0000 		.4byte	0xf87
 2115 0fac 21       		.uleb128 0x21
 2116 0fad 2C000000 		.4byte	0x2c
 2117 0fb1 C50F0000 		.4byte	0xfc5
 2118 0fb5 0F       		.uleb128 0xf
 2119 0fb6 48030000 		.4byte	0x348
 2120 0fba 0F       		.uleb128 0xf
 2121 0fbb 750D0000 		.4byte	0xd75
 2122 0fbf 0F       		.uleb128 0xf
 2123 0fc0 2C000000 		.4byte	0x2c
 2124 0fc4 00       		.byte	0
 2125 0fc5 0C       		.uleb128 0xc
 2126 0fc6 04       		.byte	0x4
 2127 0fc7 AC0F0000 		.4byte	0xfac
 2128 0fcb 21       		.uleb128 0x21
 2129 0fcc 40010000 		.4byte	0x140
 2130 0fd0 DF0F0000 		.4byte	0xfdf
 2131 0fd4 0F       		.uleb128 0xf
 2132 0fd5 48030000 		.4byte	0x348
 2133 0fd9 0F       		.uleb128 0xf
 2134 0fda B9000000 		.4byte	0xb9
 2135 0fde 00       		.byte	0
 2136 0fdf 0C       		.uleb128 0xc
 2137 0fe0 04       		.byte	0x4
 2138 0fe1 CB0F0000 		.4byte	0xfcb
 2139 0fe5 21       		.uleb128 0x21
 2140 0fe6 40010000 		.4byte	0x140
 2141 0fea F40F0000 		.4byte	0xff4
 2142 0fee 0F       		.uleb128 0xf
 2143 0fef 48030000 		.4byte	0x348
 2144 0ff3 00       		.byte	0
 2145 0ff4 0C       		.uleb128 0xc
 2146 0ff5 04       		.byte	0x4
 2147 0ff6 E50F0000 		.4byte	0xfe5
 2148 0ffa 21       		.uleb128 0x21
 2149 0ffb 40010000 		.4byte	0x140
 2150 0fff 13100000 		.4byte	0x1013
 2151 1003 0F       		.uleb128 0xf
 2152 1004 48030000 		.4byte	0x348
 2153 1008 0F       		.uleb128 0xf
 2154 1009 B9000000 		.4byte	0xb9
 2155 100d 0F       		.uleb128 0xf
 2156 100e 7B040000 		.4byte	0x47b
 2157 1012 00       		.byte	0
 2158 1013 0C       		.uleb128 0xc
 2159 1014 04       		.byte	0x4
 2160 1015 FA0F0000 		.4byte	0xffa
 2161 1019 21       		.uleb128 0x21
 2162 101a 40010000 		.4byte	0x140
 2163 101e 2D100000 		.4byte	0x102d
 2164 1022 0F       		.uleb128 0xf
 2165 1023 48030000 		.4byte	0x348
 2166 1027 0F       		.uleb128 0xf
ARM GAS  /var/folders/vd/czx34qs52cd_f3nb04sxmghc0000gn/T//ccMYOG2x.s 			page 39


 2167 1028 7B040000 		.4byte	0x47b
 2168 102c 00       		.byte	0
 2169 102d 0C       		.uleb128 0xc
 2170 102e 04       		.byte	0x4
 2171 102f 19100000 		.4byte	0x1019
 2172 1033 21       		.uleb128 0x21
 2173 1034 2C000000 		.4byte	0x2c
 2174 1038 51100000 		.4byte	0x1051
 2175 103c 0F       		.uleb128 0xf
 2176 103d 48030000 		.4byte	0x348
 2177 1041 0F       		.uleb128 0xf
 2178 1042 A00F0000 		.4byte	0xfa0
 2179 1046 0F       		.uleb128 0xf
 2180 1047 2C000000 		.4byte	0x2c
 2181 104b 0F       		.uleb128 0xf
 2182 104c 7B040000 		.4byte	0x47b
 2183 1050 00       		.byte	0
 2184 1051 0C       		.uleb128 0xc
 2185 1052 04       		.byte	0x4
 2186 1053 33100000 		.4byte	0x1033
 2187 1057 21       		.uleb128 0x21
 2188 1058 2C000000 		.4byte	0x2c
 2189 105c 75100000 		.4byte	0x1075
 2190 1060 0F       		.uleb128 0xf
 2191 1061 48030000 		.4byte	0x348
 2192 1065 0F       		.uleb128 0xf
 2193 1066 750D0000 		.4byte	0xd75
 2194 106a 0F       		.uleb128 0xf
 2195 106b 2C000000 		.4byte	0x2c
 2196 106f 0F       		.uleb128 0xf
 2197 1070 7B040000 		.4byte	0x47b
 2198 1074 00       		.byte	0
 2199 1075 0C       		.uleb128 0xc
 2200 1076 04       		.byte	0x4
 2201 1077 57100000 		.4byte	0x1057
 2202 107b 21       		.uleb128 0x21
 2203 107c 40010000 		.4byte	0x140
 2204 1080 94100000 		.4byte	0x1094
 2205 1084 0F       		.uleb128 0xf
 2206 1085 48030000 		.4byte	0x348
 2207 1089 0F       		.uleb128 0xf
 2208 108a 3C000000 		.4byte	0x3c
 2209 108e 0F       		.uleb128 0xf
 2210 108f 48030000 		.4byte	0x348
 2211 1093 00       		.byte	0
 2212 1094 0C       		.uleb128 0xc
 2213 1095 04       		.byte	0x4
 2214 1096 7B100000 		.4byte	0x107b
 2215 109a 03       		.uleb128 0x3
 2216 109b 7D090000 		.4byte	.LASF203
 2217 109f 19       		.byte	0x19
 2218 10a0 3A       		.byte	0x3a
 2219 10a1 A5100000 		.4byte	0x10a5
 2220 10a5 07       		.uleb128 0x7
 2221 10a6 EA010000 		.4byte	.LASF204
 2222 10aa 24       		.byte	0x24
 2223 10ab 19       		.byte	0x19
ARM GAS  /var/folders/vd/czx34qs52cd_f3nb04sxmghc0000gn/T//ccMYOG2x.s 			page 40


 2224 10ac 4B       		.byte	0x4b
 2225 10ad 12110000 		.4byte	0x1112
 2226 10b1 08       		.uleb128 0x8
 2227 10b2 A3080000 		.4byte	.LASF205
 2228 10b6 19       		.byte	0x19
 2229 10b7 4C       		.byte	0x4c
 2230 10b8 95020000 		.4byte	0x295
 2231 10bc 00       		.byte	0
 2232 10bd 08       		.uleb128 0x8
 2233 10be E9030000 		.4byte	.LASF206
 2234 10c2 19       		.byte	0x19
 2235 10c3 4D       		.byte	0x4d
 2236 10c4 37000000 		.4byte	0x37
 2237 10c8 08       		.byte	0x8
 2238 10c9 08       		.uleb128 0x8
 2239 10ca 55010000 		.4byte	.LASF207
 2240 10ce 19       		.byte	0x19
 2241 10cf 4E       		.byte	0x4e
 2242 10d0 750D0000 		.4byte	0xd75
 2243 10d4 0C       		.byte	0xc
 2244 10d5 08       		.uleb128 0x8
 2245 10d6 43010000 		.4byte	.LASF208
 2246 10da 19       		.byte	0x19
 2247 10db 4F       		.byte	0x4f
 2248 10dc 750D0000 		.4byte	0xd75
 2249 10e0 10       		.byte	0x10
 2250 10e1 08       		.uleb128 0x8
 2251 10e2 770A0000 		.4byte	.LASF209
 2252 10e6 19       		.byte	0x19
 2253 10e7 51       		.byte	0x51
 2254 10e8 750D0000 		.4byte	0xd75
 2255 10ec 14       		.byte	0x14
 2256 10ed 08       		.uleb128 0x8
 2257 10ee 79010000 		.4byte	.LASF210
 2258 10f2 19       		.byte	0x19
 2259 10f3 52       		.byte	0x52
 2260 10f4 750D0000 		.4byte	0xd75
 2261 10f8 18       		.byte	0x18
 2262 10f9 08       		.uleb128 0x8
 2263 10fa 5E010000 		.4byte	.LASF211
 2264 10fe 19       		.byte	0x19
 2265 10ff 53       		.byte	0x53
 2266 1100 12110000 		.4byte	0x1112
 2267 1104 1C       		.byte	0x1c
 2268 1105 08       		.uleb128 0x8
 2269 1106 BE010000 		.4byte	.LASF212
 2270 110a 19       		.byte	0x19
 2271 110b 54       		.byte	0x54
 2272 110c 48030000 		.4byte	0x348
 2273 1110 20       		.byte	0x20
 2274 1111 00       		.byte	0
 2275 1112 03       		.uleb128 0x3
 2276 1113 8C060000 		.4byte	.LASF213
 2277 1117 19       		.byte	0x19
 2278 1118 41       		.byte	0x41
 2279 1119 1D110000 		.4byte	0x111d
 2280 111d 0C       		.uleb128 0xc
ARM GAS  /var/folders/vd/czx34qs52cd_f3nb04sxmghc0000gn/T//ccMYOG2x.s 			page 41


 2281 111e 04       		.byte	0x4
 2282 111f 23110000 		.4byte	0x1123
 2283 1123 0E       		.uleb128 0xe
 2284 1124 2E110000 		.4byte	0x112e
 2285 1128 0F       		.uleb128 0xf
 2286 1129 2E110000 		.4byte	0x112e
 2287 112d 00       		.byte	0
 2288 112e 0C       		.uleb128 0xc
 2289 112f 04       		.byte	0x4
 2290 1130 9A100000 		.4byte	0x109a
 2291 1134 03       		.uleb128 0x3
 2292 1135 530A0000 		.4byte	.LASF214
 2293 1139 19       		.byte	0x19
 2294 113a 61       		.byte	0x61
 2295 113b 9A100000 		.4byte	0x109a
 2296 113f 03       		.uleb128 0x3
 2297 1140 AE0A0000 		.4byte	.LASF215
 2298 1144 19       		.byte	0x19
 2299 1145 6D       		.byte	0x6d
 2300 1146 9A100000 		.4byte	0x109a
 2301 114a 22       		.uleb128 0x22
 2302 114b 00       		.byte	0
 2303 114c 1A       		.byte	0x1a
 2304 114d 99       		.byte	0x99
 2305 114e 03       		.uleb128 0x3
 2306 114f 22030000 		.4byte	.LASF216
 2307 1153 1A       		.byte	0x1a
 2308 1154 AA       		.byte	0xaa
 2309 1155 4A110000 		.4byte	0x114a
 2310 1159 14       		.uleb128 0x14
 2311 115a 4E110000 		.4byte	0x114e
 2312 115e 69110000 		.4byte	0x1169
 2313 1162 15       		.uleb128 0x15
 2314 1163 3C000000 		.4byte	0x3c
 2315 1167 0F       		.byte	0xf
 2316 1168 00       		.byte	0
 2317 1169 19       		.uleb128 0x19
 2318 116a 1A070000 		.4byte	.LASF217
 2319 116e 1B       		.byte	0x1b
 2320 116f DA01     		.2byte	0x1da
 2321 1171 59110000 		.4byte	0x1159
 2322 1175 23       		.uleb128 0x23
 2323 1176 07       		.byte	0x7
 2324 1177 01       		.byte	0x1
 2325 1178 63000000 		.4byte	0x63
 2326 117c 1C       		.byte	0x1c
 2327 117d 4A       		.byte	0x4a
 2328 117e 95110000 		.4byte	0x1195
 2329 1182 24       		.uleb128 0x24
 2330 1183 16010000 		.4byte	.LASF218
 2331 1187 00       		.byte	0
 2332 1188 24       		.uleb128 0x24
 2333 1189 E0070000 		.4byte	.LASF219
 2334 118d 01       		.byte	0x1
 2335 118e 24       		.uleb128 0x24
 2336 118f 0A090000 		.4byte	.LASF220
 2337 1193 02       		.byte	0x2
ARM GAS  /var/folders/vd/czx34qs52cd_f3nb04sxmghc0000gn/T//ccMYOG2x.s 			page 42


 2338 1194 00       		.byte	0
 2339 1195 03       		.uleb128 0x3
 2340 1196 E9090000 		.4byte	.LASF221
 2341 119a 1C       		.byte	0x1c
 2342 119b 4E       		.byte	0x4e
 2343 119c 75110000 		.4byte	0x1175
 2344 11a0 03       		.uleb128 0x3
 2345 11a1 E9060000 		.4byte	.LASF222
 2346 11a5 1C       		.byte	0x1c
 2347 11a6 53       		.byte	0x53
 2348 11a7 AB110000 		.4byte	0x11ab
 2349 11ab 0D       		.uleb128 0xd
 2350 11ac E9060000 		.4byte	.LASF222
 2351 11b0 1C       		.byte	0x1c
 2352 11b1 1D       		.byte	0x1d
 2353 11b2 B201     		.2byte	0x1b2
 2354 11b4 14120000 		.4byte	0x1214
 2355 11b8 0B       		.uleb128 0xb
 2356 11b9 E2000000 		.4byte	.LASF38
 2357 11bd 1D       		.byte	0x1d
 2358 11be B601     		.2byte	0x1b6
 2359 11c0 95110000 		.4byte	0x1195
 2360 11c4 00       		.byte	0
 2361 11c5 0B       		.uleb128 0xb
 2362 11c6 DB000000 		.4byte	.LASF223
 2363 11ca 1D       		.byte	0x1d
 2364 11cb BA01     		.2byte	0x1ba
 2365 11cd 0F130000 		.4byte	0x130f
 2366 11d1 04       		.byte	0x4
 2367 11d2 0B       		.uleb128 0xb
 2368 11d3 65080000 		.4byte	.LASF224
 2369 11d7 1D       		.byte	0x1d
 2370 11d8 BE01     		.2byte	0x1be
 2371 11da 5A120000 		.4byte	0x125a
 2372 11de 08       		.byte	0x8
 2373 11df 0B       		.uleb128 0xb
 2374 11e0 F3030000 		.4byte	.LASF225
 2375 11e4 1D       		.byte	0x1d
 2376 11e5 C201     		.2byte	0x1c2
 2377 11e7 4E120000 		.4byte	0x124e
 2378 11eb 0C       		.byte	0xc
 2379 11ec 0B       		.uleb128 0xb
 2380 11ed CA060000 		.4byte	.LASF226
 2381 11f1 1D       		.byte	0x1d
 2382 11f2 C601     		.2byte	0x1c6
 2383 11f4 42120000 		.4byte	0x1242
 2384 11f8 10       		.byte	0x10
 2385 11f9 0B       		.uleb128 0xb
 2386 11fa 0A050000 		.4byte	.LASF227
 2387 11fe 1D       		.byte	0x1d
 2388 11ff CE01     		.2byte	0x1ce
 2389 1201 E9000000 		.4byte	0xe9
 2390 1205 14       		.byte	0x14
 2391 1206 0A       		.uleb128 0xa
 2392 1207 74696D00 		.ascii	"tim\000"
 2393 120b 1D       		.byte	0x1d
 2394 120c D201     		.2byte	0x1d2
ARM GAS  /var/folders/vd/czx34qs52cd_f3nb04sxmghc0000gn/T//ccMYOG2x.s 			page 43


 2395 120e 15130000 		.4byte	0x1315
 2396 1212 18       		.byte	0x18
 2397 1213 00       		.byte	0
 2398 1214 03       		.uleb128 0x3
 2399 1215 D3060000 		.4byte	.LASF228
 2400 1219 1C       		.byte	0x1c
 2401 121a 5A       		.byte	0x5a
 2402 121b 1F120000 		.4byte	0x121f
 2403 121f 0C       		.uleb128 0xc
 2404 1220 04       		.byte	0x4
 2405 1221 25120000 		.4byte	0x1225
 2406 1225 0E       		.uleb128 0xe
 2407 1226 30120000 		.4byte	0x1230
 2408 122a 0F       		.uleb128 0xf
 2409 122b 30120000 		.4byte	0x1230
 2410 122f 00       		.byte	0
 2411 1230 0C       		.uleb128 0xc
 2412 1231 04       		.byte	0x4
 2413 1232 A0110000 		.4byte	0x11a0
 2414 1236 17       		.uleb128 0x17
 2415 1237 99030000 		.4byte	.LASF229
 2416 123b 1D       		.byte	0x1d
 2417 123c 5E01     		.2byte	0x15e
 2418 123e E9000000 		.4byte	0xe9
 2419 1242 17       		.uleb128 0x17
 2420 1243 C5010000 		.4byte	.LASF230
 2421 1247 1D       		.byte	0x1d
 2422 1248 6301     		.2byte	0x163
 2423 124a B9000000 		.4byte	0xb9
 2424 124e 17       		.uleb128 0x17
 2425 124f CF000000 		.4byte	.LASF231
 2426 1253 1D       		.byte	0x1d
 2427 1254 6801     		.2byte	0x168
 2428 1256 E9000000 		.4byte	0xe9
 2429 125a 17       		.uleb128 0x17
 2430 125b 20020000 		.4byte	.LASF232
 2431 125f 1D       		.byte	0x1d
 2432 1260 6D01     		.2byte	0x16d
 2433 1262 E9000000 		.4byte	0xe9
 2434 1266 18       		.uleb128 0x18
 2435 1267 08       		.byte	0x8
 2436 1268 1D       		.byte	0x1d
 2437 1269 7201     		.2byte	0x172
 2438 126b 8A120000 		.4byte	0x128a
 2439 126f 0B       		.uleb128 0xb
 2440 1270 3A090000 		.4byte	.LASF233
 2441 1274 1D       		.byte	0x1d
 2442 1275 7601     		.2byte	0x176
 2443 1277 36120000 		.4byte	0x1236
 2444 127b 00       		.byte	0
 2445 127c 0B       		.uleb128 0xb
 2446 127d 67010000 		.4byte	.LASF234
 2447 1281 1D       		.byte	0x1d
 2448 1282 7C01     		.2byte	0x17c
 2449 1284 14120000 		.4byte	0x1214
 2450 1288 04       		.byte	0x4
 2451 1289 00       		.byte	0
ARM GAS  /var/folders/vd/czx34qs52cd_f3nb04sxmghc0000gn/T//ccMYOG2x.s 			page 44


 2452 128a 17       		.uleb128 0x17
 2453 128b ED000000 		.4byte	.LASF235
 2454 128f 1D       		.byte	0x1d
 2455 1290 7E01     		.2byte	0x17e
 2456 1292 66120000 		.4byte	0x1266
 2457 1296 18       		.uleb128 0x18
 2458 1297 34       		.byte	0x34
 2459 1298 1D       		.byte	0x1d
 2460 1299 8301     		.2byte	0x183
 2461 129b EE120000 		.4byte	0x12ee
 2462 129f 0B       		.uleb128 0xb
 2463 12a0 82060000 		.4byte	.LASF236
 2464 12a4 1D       		.byte	0x1d
 2465 12a5 8901     		.2byte	0x189
 2466 12a7 E9000000 		.4byte	0xe9
 2467 12ab 00       		.byte	0
 2468 12ac 0B       		.uleb128 0xb
 2469 12ad 65080000 		.4byte	.LASF224
 2470 12b1 1D       		.byte	0x1d
 2471 12b2 8F01     		.2byte	0x18f
 2472 12b4 5A120000 		.4byte	0x125a
 2473 12b8 04       		.byte	0x4
 2474 12b9 0B       		.uleb128 0xb
 2475 12ba 67010000 		.4byte	.LASF234
 2476 12be 1D       		.byte	0x1d
 2477 12bf 9501     		.2byte	0x195
 2478 12c1 14120000 		.4byte	0x1214
 2479 12c5 08       		.byte	0x8
 2480 12c6 0B       		.uleb128 0xb
 2481 12c7 CA060000 		.4byte	.LASF226
 2482 12cb 1D       		.byte	0x1d
 2483 12cc 9901     		.2byte	0x199
 2484 12ce EE120000 		.4byte	0x12ee
 2485 12d2 0C       		.byte	0xc
 2486 12d3 0A       		.uleb128 0xa
 2487 12d4 63723200 		.ascii	"cr2\000"
 2488 12d8 1D       		.byte	0x1d
 2489 12d9 9F01     		.2byte	0x19f
 2490 12db E9000000 		.4byte	0xe9
 2491 12df 2C       		.byte	0x2c
 2492 12e0 0B       		.uleb128 0xb
 2493 12e1 11010000 		.4byte	.LASF237
 2494 12e5 1D       		.byte	0x1d
 2495 12e6 AC01     		.2byte	0x1ac
 2496 12e8 E9000000 		.4byte	0xe9
 2497 12ec 30       		.byte	0x30
 2498 12ed 00       		.byte	0
 2499 12ee 14       		.uleb128 0x14
 2500 12ef 8A120000 		.4byte	0x128a
 2501 12f3 FE120000 		.4byte	0x12fe
 2502 12f7 15       		.uleb128 0x15
 2503 12f8 3C000000 		.4byte	0x3c
 2504 12fc 03       		.byte	0x3
 2505 12fd 00       		.byte	0
 2506 12fe 17       		.uleb128 0x17
 2507 12ff A3090000 		.4byte	.LASF238
 2508 1303 1D       		.byte	0x1d
ARM GAS  /var/folders/vd/czx34qs52cd_f3nb04sxmghc0000gn/T//ccMYOG2x.s 			page 45


 2509 1304 AD01     		.2byte	0x1ad
 2510 1306 96120000 		.4byte	0x1296
 2511 130a 06       		.uleb128 0x6
 2512 130b FE120000 		.4byte	0x12fe
 2513 130f 0C       		.uleb128 0xc
 2514 1310 04       		.byte	0x4
 2515 1311 0A130000 		.4byte	0x130a
 2516 1315 0C       		.uleb128 0xc
 2517 1316 04       		.byte	0x4
 2518 1317 520A0000 		.4byte	0xa52
 2519 131b 19       		.uleb128 0x19
 2520 131c D9090000 		.4byte	.LASF239
 2521 1320 1D       		.byte	0x1d
 2522 1321 FD01     		.2byte	0x1fd
 2523 1323 A0110000 		.4byte	0x11a0
 2524 1327 23       		.uleb128 0x23
 2525 1328 07       		.byte	0x7
 2526 1329 01       		.byte	0x1
 2527 132a 63000000 		.4byte	0x63
 2528 132e 1E       		.byte	0x1e
 2529 132f 58       		.byte	0x58
 2530 1330 47130000 		.4byte	0x1347
 2531 1334 24       		.uleb128 0x24
 2532 1335 86020000 		.4byte	.LASF240
 2533 1339 00       		.byte	0
 2534 133a 24       		.uleb128 0x24
 2535 133b D00A0000 		.4byte	.LASF241
 2536 133f 01       		.byte	0x1
 2537 1340 24       		.uleb128 0x24
 2538 1341 CA080000 		.4byte	.LASF242
 2539 1345 02       		.byte	0x2
 2540 1346 00       		.byte	0
 2541 1347 03       		.uleb128 0x3
 2542 1348 C0080000 		.4byte	.LASF243
 2543 134c 1E       		.byte	0x1e
 2544 134d 5C       		.byte	0x5c
 2545 134e 27130000 		.4byte	0x1327
 2546 1352 03       		.uleb128 0x3
 2547 1353 7B080000 		.4byte	.LASF244
 2548 1357 1E       		.byte	0x1e
 2549 1358 61       		.byte	0x61
 2550 1359 5D130000 		.4byte	0x135d
 2551 135d 07       		.uleb128 0x7
 2552 135e 7B080000 		.4byte	.LASF244
 2553 1362 7C       		.byte	0x7c
 2554 1363 1E       		.byte	0x1e
 2555 1364 7B       		.byte	0x7b
 2556 1365 D4130000 		.4byte	0x13d4
 2557 1369 09       		.uleb128 0x9
 2558 136a 766D7400 		.ascii	"vmt\000"
 2559 136e 1E       		.byte	0x1e
 2560 136f 7D       		.byte	0x7d
 2561 1370 6A140000 		.4byte	0x146a
 2562 1374 00       		.byte	0
 2563 1375 08       		.uleb128 0x8
 2564 1376 96060000 		.4byte	.LASF245
 2565 137a 1E       		.byte	0x1e
ARM GAS  /var/folders/vd/czx34qs52cd_f3nb04sxmghc0000gn/T//ccMYOG2x.s 			page 46


 2566 137b 7E       		.byte	0x7e
 2567 137c 1D0D0000 		.4byte	0xd1d
 2568 1380 04       		.byte	0x4
 2569 1381 08       		.uleb128 0x8
 2570 1382 E2000000 		.4byte	.LASF38
 2571 1386 1E       		.byte	0x1e
 2572 1387 7E       		.byte	0x7e
 2573 1388 47130000 		.4byte	0x1347
 2574 138c 08       		.byte	0x8
 2575 138d 08       		.uleb128 0x8
 2576 138e 56090000 		.4byte	.LASF246
 2577 1392 1E       		.byte	0x1e
 2578 1393 7E       		.byte	0x7e
 2579 1394 34110000 		.4byte	0x1134
 2580 1398 0C       		.byte	0xc
 2581 1399 08       		.uleb128 0x8
 2582 139a AE010000 		.4byte	.LASF247
 2583 139e 1E       		.byte	0x1e
 2584 139f 7E       		.byte	0x7e
 2585 13a0 3F110000 		.4byte	0x113f
 2586 13a4 30       		.byte	0x30
 2587 13a5 09       		.uleb128 0x9
 2588 13a6 696200   		.ascii	"ib\000"
 2589 13a9 1E       		.byte	0x1e
 2590 13aa 7E       		.byte	0x7e
 2591 13ab 70140000 		.4byte	0x1470
 2592 13af 54       		.byte	0x54
 2593 13b0 09       		.uleb128 0x9
 2594 13b1 6F6200   		.ascii	"ob\000"
 2595 13b4 1E       		.byte	0x1e
 2596 13b5 7E       		.byte	0x7e
 2597 13b6 70140000 		.4byte	0x1470
 2598 13ba 64       		.byte	0x64
 2599 13bb 08       		.uleb128 0x8
 2600 13bc 39050000 		.4byte	.LASF248
 2601 13c0 1E       		.byte	0x1e
 2602 13c1 7E       		.byte	0x7e
 2603 13c2 80140000 		.4byte	0x1480
 2604 13c6 74       		.byte	0x74
 2605 13c7 08       		.uleb128 0x8
 2606 13c8 A9030000 		.4byte	.LASF249
 2607 13cc 1E       		.byte	0x1e
 2608 13cd 7E       		.byte	0x7e
 2609 13ce B9000000 		.4byte	0xb9
 2610 13d2 78       		.byte	0x78
 2611 13d3 00       		.byte	0
 2612 13d4 1F       		.uleb128 0x1f
 2613 13d5 53443100 		.ascii	"SD1\000"
 2614 13d9 1F       		.byte	0x1f
 2615 13da 4401     		.2byte	0x144
 2616 13dc 52130000 		.4byte	0x1352
 2617 13e0 07       		.uleb128 0x7
 2618 13e1 DE040000 		.4byte	.LASF250
 2619 13e5 28       		.byte	0x28
 2620 13e6 1E       		.byte	0x1e
 2621 13e7 70       		.byte	0x70
 2622 13e8 65140000 		.4byte	0x1465
ARM GAS  /var/folders/vd/czx34qs52cd_f3nb04sxmghc0000gn/T//ccMYOG2x.s 			page 47


 2623 13ec 08       		.uleb128 0x8
 2624 13ed 430A0000 		.4byte	.LASF251
 2625 13f1 1E       		.byte	0x1e
 2626 13f2 71       		.byte	0x71
 2627 13f3 2C000000 		.4byte	0x2c
 2628 13f7 00       		.byte	0
 2629 13f8 08       		.uleb128 0x8
 2630 13f9 B5000000 		.4byte	.LASF252
 2631 13fd 1E       		.byte	0x1e
 2632 13fe 71       		.byte	0x71
 2633 13ff A60F0000 		.4byte	0xfa6
 2634 1403 04       		.byte	0x4
 2635 1404 08       		.uleb128 0x8
 2636 1405 9C060000 		.4byte	.LASF253
 2637 1409 1E       		.byte	0x1e
 2638 140a 71       		.byte	0x71
 2639 140b C50F0000 		.4byte	0xfc5
 2640 140f 08       		.byte	0x8
 2641 1410 09       		.uleb128 0x9
 2642 1411 70757400 		.ascii	"put\000"
 2643 1415 1E       		.byte	0x1e
 2644 1416 71       		.byte	0x71
 2645 1417 DF0F0000 		.4byte	0xfdf
 2646 141b 0C       		.byte	0xc
 2647 141c 09       		.uleb128 0x9
 2648 141d 67657400 		.ascii	"get\000"
 2649 1421 1E       		.byte	0x1e
 2650 1422 71       		.byte	0x71
 2651 1423 F40F0000 		.4byte	0xff4
 2652 1427 10       		.byte	0x10
 2653 1428 08       		.uleb128 0x8
 2654 1429 E8000000 		.4byte	.LASF254
 2655 142d 1E       		.byte	0x1e
 2656 142e 71       		.byte	0x71
 2657 142f 13100000 		.4byte	0x1013
 2658 1433 14       		.byte	0x14
 2659 1434 08       		.uleb128 0x8
 2660 1435 3C030000 		.4byte	.LASF255
 2661 1439 1E       		.byte	0x1e
 2662 143a 71       		.byte	0x71
 2663 143b 2D100000 		.4byte	0x102d
 2664 143f 18       		.byte	0x18
 2665 1440 08       		.uleb128 0x8
 2666 1441 85000000 		.4byte	.LASF256
 2667 1445 1E       		.byte	0x1e
 2668 1446 71       		.byte	0x71
 2669 1447 51100000 		.4byte	0x1051
 2670 144b 1C       		.byte	0x1c
 2671 144c 08       		.uleb128 0x8
 2672 144d 49010000 		.4byte	.LASF257
 2673 1451 1E       		.byte	0x1e
 2674 1452 71       		.byte	0x71
 2675 1453 75100000 		.4byte	0x1075
 2676 1457 20       		.byte	0x20
 2677 1458 09       		.uleb128 0x9
 2678 1459 63746C00 		.ascii	"ctl\000"
 2679 145d 1E       		.byte	0x1e
ARM GAS  /var/folders/vd/czx34qs52cd_f3nb04sxmghc0000gn/T//ccMYOG2x.s 			page 48


 2680 145e 71       		.byte	0x71
 2681 145f 94100000 		.4byte	0x1094
 2682 1463 24       		.byte	0x24
 2683 1464 00       		.byte	0
 2684 1465 06       		.uleb128 0x6
 2685 1466 E0130000 		.4byte	0x13e0
 2686 146a 0C       		.uleb128 0xc
 2687 146b 04       		.byte	0x4
 2688 146c 65140000 		.4byte	0x1465
 2689 1470 14       		.uleb128 0x14
 2690 1471 B9000000 		.4byte	0xb9
 2691 1475 80140000 		.4byte	0x1480
 2692 1479 15       		.uleb128 0x15
 2693 147a 3C000000 		.4byte	0x3c
 2694 147e 0F       		.byte	0xf
 2695 147f 00       		.byte	0
 2696 1480 0C       		.uleb128 0xc
 2697 1481 04       		.byte	0x4
 2698 1482 8A080000 		.4byte	0x88a
 2699 1486 25       		.uleb128 0x25
 2700 1487 E0020000 		.4byte	.LASF258
 2701 148b 01       		.byte	0x1
 2702 148c 6D       		.byte	0x6d
 2703 148d 00000000 		.4byte	.LFB316
 2704 1491 1C000000 		.4byte	.LFE316-.LFB316
 2705 1495 01       		.uleb128 0x1
 2706 1496 9C       		.byte	0x9c
 2707 1497 A9140000 		.4byte	0x14a9
 2708 149b 26       		.uleb128 0x26
 2709 149c 6E00     		.ascii	"n\000"
 2710 149e 01       		.byte	0x1
 2711 149f 6D       		.byte	0x6d
 2712 14a0 E9000000 		.4byte	0xe9
 2713 14a4 00000000 		.4byte	.LLST5
 2714 14a8 00       		.byte	0
 2715 14a9 25       		.uleb128 0x25
 2716 14aa 6F040000 		.4byte	.LASF259
 2717 14ae 01       		.byte	0x1
 2718 14af 5A       		.byte	0x5a
 2719 14b0 00000000 		.4byte	.LFB315
 2720 14b4 10000000 		.4byte	.LFE315-.LFB315
 2721 14b8 01       		.uleb128 0x1
 2722 14b9 9C       		.byte	0x9c
 2723 14ba E6140000 		.4byte	0x14e6
 2724 14be 27       		.uleb128 0x27
 2725 14bf 9B080000 		.4byte	.LASF260
 2726 14c3 01       		.byte	0x1
 2727 14c4 5A       		.byte	0x5a
 2728 14c5 E9000000 		.4byte	0xe9
 2729 14c9 21000000 		.4byte	.LLST3
 2730 14cd 27       		.uleb128 0x27
 2731 14ce 2B010000 		.4byte	.LASF33
 2732 14d2 01       		.byte	0x1
 2733 14d3 5A       		.byte	0x5a
 2734 14d4 E9000000 		.4byte	0xe9
 2735 14d8 56000000 		.4byte	.LLST4
 2736 14dc 28       		.uleb128 0x28
ARM GAS  /var/folders/vd/czx34qs52cd_f3nb04sxmghc0000gn/T//ccMYOG2x.s 			page 49


 2737 14dd AC000000 		.4byte	.LASF265
 2738 14e1 F6140000 		.4byte	0x14f6
 2739 14e5 00       		.byte	0
 2740 14e6 14       		.uleb128 0x14
 2741 14e7 5A0B0000 		.4byte	0xb5a
 2742 14eb F6140000 		.4byte	0x14f6
 2743 14ef 15       		.uleb128 0x15
 2744 14f0 3C000000 		.4byte	0x3c
 2745 14f4 1C       		.byte	0x1c
 2746 14f5 00       		.byte	0
 2747 14f6 06       		.uleb128 0x6
 2748 14f7 E6140000 		.4byte	0x14e6
 2749 14fb 25       		.uleb128 0x25
 2750 14fc 42070000 		.4byte	.LASF261
 2751 1500 01       		.byte	0x1
 2752 1501 4A       		.byte	0x4a
 2753 1502 00000000 		.4byte	.LFB314
 2754 1506 24000000 		.4byte	.LFE314-.LFB314
 2755 150a 01       		.uleb128 0x1
 2756 150b 9C       		.byte	0x9c
 2757 150c 1E150000 		.4byte	0x151e
 2758 1510 26       		.uleb128 0x26
 2759 1511 6E00     		.ascii	"n\000"
 2760 1513 01       		.byte	0x1
 2761 1514 4A       		.byte	0x4a
 2762 1515 E9000000 		.4byte	0xe9
 2763 1519 77000000 		.4byte	.LLST2
 2764 151d 00       		.byte	0
 2765 151e 29       		.uleb128 0x29
 2766 151f FF090000 		.4byte	.LASF266
 2767 1523 01       		.byte	0x1
 2768 1524 39       		.byte	0x39
 2769 1525 00000000 		.4byte	.LFB313
 2770 1529 32000000 		.4byte	.LFE313-.LFB313
 2771 152d 01       		.uleb128 0x1
 2772 152e 9C       		.byte	0x9c
 2773 152f 26       		.uleb128 0x26
 2774 1530 6E00     		.ascii	"n\000"
 2775 1532 01       		.byte	0x1
 2776 1533 39       		.byte	0x39
 2777 1534 E9000000 		.4byte	0xe9
 2778 1538 9B000000 		.4byte	.LLST0
 2779 153c 27       		.uleb128 0x27
 2780 153d 2B010000 		.4byte	.LASF33
 2781 1541 01       		.byte	0x1
 2782 1542 39       		.byte	0x39
 2783 1543 E9000000 		.4byte	0xe9
 2784 1547 CD000000 		.4byte	.LLST1
 2785 154b 00       		.byte	0
 2786 154c 00       		.byte	0
 2787              		.section	.debug_abbrev,"",%progbits
 2788              	.Ldebug_abbrev0:
 2789 0000 01       		.uleb128 0x1
 2790 0001 11       		.uleb128 0x11
 2791 0002 01       		.byte	0x1
 2792 0003 25       		.uleb128 0x25
 2793 0004 0E       		.uleb128 0xe
ARM GAS  /var/folders/vd/czx34qs52cd_f3nb04sxmghc0000gn/T//ccMYOG2x.s 			page 50


 2794 0005 13       		.uleb128 0x13
 2795 0006 0B       		.uleb128 0xb
 2796 0007 03       		.uleb128 0x3
 2797 0008 0E       		.uleb128 0xe
 2798 0009 1B       		.uleb128 0x1b
 2799 000a 0E       		.uleb128 0xe
 2800 000b 55       		.uleb128 0x55
 2801 000c 17       		.uleb128 0x17
 2802 000d 11       		.uleb128 0x11
 2803 000e 01       		.uleb128 0x1
 2804 000f 10       		.uleb128 0x10
 2805 0010 17       		.uleb128 0x17
 2806 0011 00       		.byte	0
 2807 0012 00       		.byte	0
 2808 0013 02       		.uleb128 0x2
 2809 0014 24       		.uleb128 0x24
 2810 0015 00       		.byte	0
 2811 0016 0B       		.uleb128 0xb
 2812 0017 0B       		.uleb128 0xb
 2813 0018 3E       		.uleb128 0x3e
 2814 0019 0B       		.uleb128 0xb
 2815 001a 03       		.uleb128 0x3
 2816 001b 08       		.uleb128 0x8
 2817 001c 00       		.byte	0
 2818 001d 00       		.byte	0
 2819 001e 03       		.uleb128 0x3
 2820 001f 16       		.uleb128 0x16
 2821 0020 00       		.byte	0
 2822 0021 03       		.uleb128 0x3
 2823 0022 0E       		.uleb128 0xe
 2824 0023 3A       		.uleb128 0x3a
 2825 0024 0B       		.uleb128 0xb
 2826 0025 3B       		.uleb128 0x3b
 2827 0026 0B       		.uleb128 0xb
 2828 0027 49       		.uleb128 0x49
 2829 0028 13       		.uleb128 0x13
 2830 0029 00       		.byte	0
 2831 002a 00       		.byte	0
 2832 002b 04       		.uleb128 0x4
 2833 002c 35       		.uleb128 0x35
 2834 002d 00       		.byte	0
 2835 002e 49       		.uleb128 0x49
 2836 002f 13       		.uleb128 0x13
 2837 0030 00       		.byte	0
 2838 0031 00       		.byte	0
 2839 0032 05       		.uleb128 0x5
 2840 0033 24       		.uleb128 0x24
 2841 0034 00       		.byte	0
 2842 0035 0B       		.uleb128 0xb
 2843 0036 0B       		.uleb128 0xb
 2844 0037 3E       		.uleb128 0x3e
 2845 0038 0B       		.uleb128 0xb
 2846 0039 03       		.uleb128 0x3
 2847 003a 0E       		.uleb128 0xe
 2848 003b 00       		.byte	0
 2849 003c 00       		.byte	0
 2850 003d 06       		.uleb128 0x6
ARM GAS  /var/folders/vd/czx34qs52cd_f3nb04sxmghc0000gn/T//ccMYOG2x.s 			page 51


 2851 003e 26       		.uleb128 0x26
 2852 003f 00       		.byte	0
 2853 0040 49       		.uleb128 0x49
 2854 0041 13       		.uleb128 0x13
 2855 0042 00       		.byte	0
 2856 0043 00       		.byte	0
 2857 0044 07       		.uleb128 0x7
 2858 0045 13       		.uleb128 0x13
 2859 0046 01       		.byte	0x1
 2860 0047 03       		.uleb128 0x3
 2861 0048 0E       		.uleb128 0xe
 2862 0049 0B       		.uleb128 0xb
 2863 004a 0B       		.uleb128 0xb
 2864 004b 3A       		.uleb128 0x3a
 2865 004c 0B       		.uleb128 0xb
 2866 004d 3B       		.uleb128 0x3b
 2867 004e 0B       		.uleb128 0xb
 2868 004f 01       		.uleb128 0x1
 2869 0050 13       		.uleb128 0x13
 2870 0051 00       		.byte	0
 2871 0052 00       		.byte	0
 2872 0053 08       		.uleb128 0x8
 2873 0054 0D       		.uleb128 0xd
 2874 0055 00       		.byte	0
 2875 0056 03       		.uleb128 0x3
 2876 0057 0E       		.uleb128 0xe
 2877 0058 3A       		.uleb128 0x3a
 2878 0059 0B       		.uleb128 0xb
 2879 005a 3B       		.uleb128 0x3b
 2880 005b 0B       		.uleb128 0xb
 2881 005c 49       		.uleb128 0x49
 2882 005d 13       		.uleb128 0x13
 2883 005e 38       		.uleb128 0x38
 2884 005f 0B       		.uleb128 0xb
 2885 0060 00       		.byte	0
 2886 0061 00       		.byte	0
 2887 0062 09       		.uleb128 0x9
 2888 0063 0D       		.uleb128 0xd
 2889 0064 00       		.byte	0
 2890 0065 03       		.uleb128 0x3
 2891 0066 08       		.uleb128 0x8
 2892 0067 3A       		.uleb128 0x3a
 2893 0068 0B       		.uleb128 0xb
 2894 0069 3B       		.uleb128 0x3b
 2895 006a 0B       		.uleb128 0xb
 2896 006b 49       		.uleb128 0x49
 2897 006c 13       		.uleb128 0x13
 2898 006d 38       		.uleb128 0x38
 2899 006e 0B       		.uleb128 0xb
 2900 006f 00       		.byte	0
 2901 0070 00       		.byte	0
 2902 0071 0A       		.uleb128 0xa
 2903 0072 0D       		.uleb128 0xd
 2904 0073 00       		.byte	0
 2905 0074 03       		.uleb128 0x3
 2906 0075 08       		.uleb128 0x8
 2907 0076 3A       		.uleb128 0x3a
ARM GAS  /var/folders/vd/czx34qs52cd_f3nb04sxmghc0000gn/T//ccMYOG2x.s 			page 52


 2908 0077 0B       		.uleb128 0xb
 2909 0078 3B       		.uleb128 0x3b
 2910 0079 05       		.uleb128 0x5
 2911 007a 49       		.uleb128 0x49
 2912 007b 13       		.uleb128 0x13
 2913 007c 38       		.uleb128 0x38
 2914 007d 0B       		.uleb128 0xb
 2915 007e 00       		.byte	0
 2916 007f 00       		.byte	0
 2917 0080 0B       		.uleb128 0xb
 2918 0081 0D       		.uleb128 0xd
 2919 0082 00       		.byte	0
 2920 0083 03       		.uleb128 0x3
 2921 0084 0E       		.uleb128 0xe
 2922 0085 3A       		.uleb128 0x3a
 2923 0086 0B       		.uleb128 0xb
 2924 0087 3B       		.uleb128 0x3b
 2925 0088 05       		.uleb128 0x5
 2926 0089 49       		.uleb128 0x49
 2927 008a 13       		.uleb128 0x13
 2928 008b 38       		.uleb128 0x38
 2929 008c 0B       		.uleb128 0xb
 2930 008d 00       		.byte	0
 2931 008e 00       		.byte	0
 2932 008f 0C       		.uleb128 0xc
 2933 0090 0F       		.uleb128 0xf
 2934 0091 00       		.byte	0
 2935 0092 0B       		.uleb128 0xb
 2936 0093 0B       		.uleb128 0xb
 2937 0094 49       		.uleb128 0x49
 2938 0095 13       		.uleb128 0x13
 2939 0096 00       		.byte	0
 2940 0097 00       		.byte	0
 2941 0098 0D       		.uleb128 0xd
 2942 0099 13       		.uleb128 0x13
 2943 009a 01       		.byte	0x1
 2944 009b 03       		.uleb128 0x3
 2945 009c 0E       		.uleb128 0xe
 2946 009d 0B       		.uleb128 0xb
 2947 009e 0B       		.uleb128 0xb
 2948 009f 3A       		.uleb128 0x3a
 2949 00a0 0B       		.uleb128 0xb
 2950 00a1 3B       		.uleb128 0x3b
 2951 00a2 05       		.uleb128 0x5
 2952 00a3 01       		.uleb128 0x1
 2953 00a4 13       		.uleb128 0x13
 2954 00a5 00       		.byte	0
 2955 00a6 00       		.byte	0
 2956 00a7 0E       		.uleb128 0xe
 2957 00a8 15       		.uleb128 0x15
 2958 00a9 01       		.byte	0x1
 2959 00aa 27       		.uleb128 0x27
 2960 00ab 19       		.uleb128 0x19
 2961 00ac 01       		.uleb128 0x1
 2962 00ad 13       		.uleb128 0x13
 2963 00ae 00       		.byte	0
 2964 00af 00       		.byte	0
ARM GAS  /var/folders/vd/czx34qs52cd_f3nb04sxmghc0000gn/T//ccMYOG2x.s 			page 53


 2965 00b0 0F       		.uleb128 0xf
 2966 00b1 05       		.uleb128 0x5
 2967 00b2 00       		.byte	0
 2968 00b3 49       		.uleb128 0x49
 2969 00b4 13       		.uleb128 0x13
 2970 00b5 00       		.byte	0
 2971 00b6 00       		.byte	0
 2972 00b7 10       		.uleb128 0x10
 2973 00b8 0F       		.uleb128 0xf
 2974 00b9 00       		.byte	0
 2975 00ba 0B       		.uleb128 0xb
 2976 00bb 0B       		.uleb128 0xb
 2977 00bc 00       		.byte	0
 2978 00bd 00       		.byte	0
 2979 00be 11       		.uleb128 0x11
 2980 00bf 13       		.uleb128 0x13
 2981 00c0 01       		.byte	0x1
 2982 00c1 0B       		.uleb128 0xb
 2983 00c2 05       		.uleb128 0x5
 2984 00c3 3A       		.uleb128 0x3a
 2985 00c4 0B       		.uleb128 0xb
 2986 00c5 3B       		.uleb128 0x3b
 2987 00c6 05       		.uleb128 0x5
 2988 00c7 01       		.uleb128 0x1
 2989 00c8 13       		.uleb128 0x13
 2990 00c9 00       		.byte	0
 2991 00ca 00       		.byte	0
 2992 00cb 12       		.uleb128 0x12
 2993 00cc 0D       		.uleb128 0xd
 2994 00cd 00       		.byte	0
 2995 00ce 03       		.uleb128 0x3
 2996 00cf 0E       		.uleb128 0xe
 2997 00d0 3A       		.uleb128 0x3a
 2998 00d1 0B       		.uleb128 0xb
 2999 00d2 3B       		.uleb128 0x3b
 3000 00d3 05       		.uleb128 0x5
 3001 00d4 49       		.uleb128 0x49
 3002 00d5 13       		.uleb128 0x13
 3003 00d6 38       		.uleb128 0x38
 3004 00d7 05       		.uleb128 0x5
 3005 00d8 00       		.byte	0
 3006 00d9 00       		.byte	0
 3007 00da 13       		.uleb128 0x13
 3008 00db 0D       		.uleb128 0xd
 3009 00dc 00       		.byte	0
 3010 00dd 03       		.uleb128 0x3
 3011 00de 08       		.uleb128 0x8
 3012 00df 3A       		.uleb128 0x3a
 3013 00e0 0B       		.uleb128 0xb
 3014 00e1 3B       		.uleb128 0x3b
 3015 00e2 05       		.uleb128 0x5
 3016 00e3 49       		.uleb128 0x49
 3017 00e4 13       		.uleb128 0x13
 3018 00e5 38       		.uleb128 0x38
 3019 00e6 05       		.uleb128 0x5
 3020 00e7 00       		.byte	0
 3021 00e8 00       		.byte	0
ARM GAS  /var/folders/vd/czx34qs52cd_f3nb04sxmghc0000gn/T//ccMYOG2x.s 			page 54


 3022 00e9 14       		.uleb128 0x14
 3023 00ea 01       		.uleb128 0x1
 3024 00eb 01       		.byte	0x1
 3025 00ec 49       		.uleb128 0x49
 3026 00ed 13       		.uleb128 0x13
 3027 00ee 01       		.uleb128 0x1
 3028 00ef 13       		.uleb128 0x13
 3029 00f0 00       		.byte	0
 3030 00f1 00       		.byte	0
 3031 00f2 15       		.uleb128 0x15
 3032 00f3 21       		.uleb128 0x21
 3033 00f4 00       		.byte	0
 3034 00f5 49       		.uleb128 0x49
 3035 00f6 13       		.uleb128 0x13
 3036 00f7 2F       		.uleb128 0x2f
 3037 00f8 0B       		.uleb128 0xb
 3038 00f9 00       		.byte	0
 3039 00fa 00       		.byte	0
 3040 00fb 16       		.uleb128 0x16
 3041 00fc 21       		.uleb128 0x21
 3042 00fd 00       		.byte	0
 3043 00fe 49       		.uleb128 0x49
 3044 00ff 13       		.uleb128 0x13
 3045 0100 2F       		.uleb128 0x2f
 3046 0101 05       		.uleb128 0x5
 3047 0102 00       		.byte	0
 3048 0103 00       		.byte	0
 3049 0104 17       		.uleb128 0x17
 3050 0105 16       		.uleb128 0x16
 3051 0106 00       		.byte	0
 3052 0107 03       		.uleb128 0x3
 3053 0108 0E       		.uleb128 0xe
 3054 0109 3A       		.uleb128 0x3a
 3055 010a 0B       		.uleb128 0xb
 3056 010b 3B       		.uleb128 0x3b
 3057 010c 05       		.uleb128 0x5
 3058 010d 49       		.uleb128 0x49
 3059 010e 13       		.uleb128 0x13
 3060 010f 00       		.byte	0
 3061 0110 00       		.byte	0
 3062 0111 18       		.uleb128 0x18
 3063 0112 13       		.uleb128 0x13
 3064 0113 01       		.byte	0x1
 3065 0114 0B       		.uleb128 0xb
 3066 0115 0B       		.uleb128 0xb
 3067 0116 3A       		.uleb128 0x3a
 3068 0117 0B       		.uleb128 0xb
 3069 0118 3B       		.uleb128 0x3b
 3070 0119 05       		.uleb128 0x5
 3071 011a 01       		.uleb128 0x1
 3072 011b 13       		.uleb128 0x13
 3073 011c 00       		.byte	0
 3074 011d 00       		.byte	0
 3075 011e 19       		.uleb128 0x19
 3076 011f 34       		.uleb128 0x34
 3077 0120 00       		.byte	0
 3078 0121 03       		.uleb128 0x3
ARM GAS  /var/folders/vd/czx34qs52cd_f3nb04sxmghc0000gn/T//ccMYOG2x.s 			page 55


 3079 0122 0E       		.uleb128 0xe
 3080 0123 3A       		.uleb128 0x3a
 3081 0124 0B       		.uleb128 0xb
 3082 0125 3B       		.uleb128 0x3b
 3083 0126 05       		.uleb128 0x5
 3084 0127 49       		.uleb128 0x49
 3085 0128 13       		.uleb128 0x13
 3086 0129 3F       		.uleb128 0x3f
 3087 012a 19       		.uleb128 0x19
 3088 012b 3C       		.uleb128 0x3c
 3089 012c 19       		.uleb128 0x19
 3090 012d 00       		.byte	0
 3091 012e 00       		.byte	0
 3092 012f 1A       		.uleb128 0x1a
 3093 0130 34       		.uleb128 0x34
 3094 0131 00       		.byte	0
 3095 0132 03       		.uleb128 0x3
 3096 0133 0E       		.uleb128 0xe
 3097 0134 3A       		.uleb128 0x3a
 3098 0135 0B       		.uleb128 0xb
 3099 0136 3B       		.uleb128 0x3b
 3100 0137 0B       		.uleb128 0xb
 3101 0138 49       		.uleb128 0x49
 3102 0139 13       		.uleb128 0x13
 3103 013a 3F       		.uleb128 0x3f
 3104 013b 19       		.uleb128 0x19
 3105 013c 3C       		.uleb128 0x3c
 3106 013d 19       		.uleb128 0x19
 3107 013e 00       		.byte	0
 3108 013f 00       		.byte	0
 3109 0140 1B       		.uleb128 0x1b
 3110 0141 13       		.uleb128 0x13
 3111 0142 01       		.byte	0x1
 3112 0143 0B       		.uleb128 0xb
 3113 0144 0B       		.uleb128 0xb
 3114 0145 3A       		.uleb128 0x3a
 3115 0146 0B       		.uleb128 0xb
 3116 0147 3B       		.uleb128 0x3b
 3117 0148 0B       		.uleb128 0xb
 3118 0149 01       		.uleb128 0x1
 3119 014a 13       		.uleb128 0x13
 3120 014b 00       		.byte	0
 3121 014c 00       		.byte	0
 3122 014d 1C       		.uleb128 0x1c
 3123 014e 17       		.uleb128 0x17
 3124 014f 01       		.byte	0x1
 3125 0150 0B       		.uleb128 0xb
 3126 0151 0B       		.uleb128 0xb
 3127 0152 3A       		.uleb128 0x3a
 3128 0153 0B       		.uleb128 0xb
 3129 0154 3B       		.uleb128 0x3b
 3130 0155 0B       		.uleb128 0xb
 3131 0156 01       		.uleb128 0x1
 3132 0157 13       		.uleb128 0x13
 3133 0158 00       		.byte	0
 3134 0159 00       		.byte	0
 3135 015a 1D       		.uleb128 0x1d
ARM GAS  /var/folders/vd/czx34qs52cd_f3nb04sxmghc0000gn/T//ccMYOG2x.s 			page 56


 3136 015b 0D       		.uleb128 0xd
 3137 015c 00       		.byte	0
 3138 015d 03       		.uleb128 0x3
 3139 015e 0E       		.uleb128 0xe
 3140 015f 3A       		.uleb128 0x3a
 3141 0160 0B       		.uleb128 0xb
 3142 0161 3B       		.uleb128 0x3b
 3143 0162 0B       		.uleb128 0xb
 3144 0163 49       		.uleb128 0x49
 3145 0164 13       		.uleb128 0x13
 3146 0165 00       		.byte	0
 3147 0166 00       		.byte	0
 3148 0167 1E       		.uleb128 0x1e
 3149 0168 0D       		.uleb128 0xd
 3150 0169 00       		.byte	0
 3151 016a 03       		.uleb128 0x3
 3152 016b 0E       		.uleb128 0xe
 3153 016c 3A       		.uleb128 0x3a
 3154 016d 0B       		.uleb128 0xb
 3155 016e 3B       		.uleb128 0x3b
 3156 016f 05       		.uleb128 0x5
 3157 0170 49       		.uleb128 0x49
 3158 0171 13       		.uleb128 0x13
 3159 0172 00       		.byte	0
 3160 0173 00       		.byte	0
 3161 0174 1F       		.uleb128 0x1f
 3162 0175 34       		.uleb128 0x34
 3163 0176 00       		.byte	0
 3164 0177 03       		.uleb128 0x3
 3165 0178 08       		.uleb128 0x8
 3166 0179 3A       		.uleb128 0x3a
 3167 017a 0B       		.uleb128 0xb
 3168 017b 3B       		.uleb128 0x3b
 3169 017c 05       		.uleb128 0x5
 3170 017d 49       		.uleb128 0x49
 3171 017e 13       		.uleb128 0x13
 3172 017f 3F       		.uleb128 0x3f
 3173 0180 19       		.uleb128 0x19
 3174 0181 3C       		.uleb128 0x3c
 3175 0182 19       		.uleb128 0x19
 3176 0183 00       		.byte	0
 3177 0184 00       		.byte	0
 3178 0185 20       		.uleb128 0x20
 3179 0186 21       		.uleb128 0x21
 3180 0187 00       		.byte	0
 3181 0188 00       		.byte	0
 3182 0189 00       		.byte	0
 3183 018a 21       		.uleb128 0x21
 3184 018b 15       		.uleb128 0x15
 3185 018c 01       		.byte	0x1
 3186 018d 27       		.uleb128 0x27
 3187 018e 19       		.uleb128 0x19
 3188 018f 49       		.uleb128 0x49
 3189 0190 13       		.uleb128 0x13
 3190 0191 01       		.uleb128 0x1
 3191 0192 13       		.uleb128 0x13
 3192 0193 00       		.byte	0
ARM GAS  /var/folders/vd/czx34qs52cd_f3nb04sxmghc0000gn/T//ccMYOG2x.s 			page 57


 3193 0194 00       		.byte	0
 3194 0195 22       		.uleb128 0x22
 3195 0196 13       		.uleb128 0x13
 3196 0197 00       		.byte	0
 3197 0198 0B       		.uleb128 0xb
 3198 0199 0B       		.uleb128 0xb
 3199 019a 3A       		.uleb128 0x3a
 3200 019b 0B       		.uleb128 0xb
 3201 019c 3B       		.uleb128 0x3b
 3202 019d 0B       		.uleb128 0xb
 3203 019e 00       		.byte	0
 3204 019f 00       		.byte	0
 3205 01a0 23       		.uleb128 0x23
 3206 01a1 04       		.uleb128 0x4
 3207 01a2 01       		.byte	0x1
 3208 01a3 3E       		.uleb128 0x3e
 3209 01a4 0B       		.uleb128 0xb
 3210 01a5 0B       		.uleb128 0xb
 3211 01a6 0B       		.uleb128 0xb
 3212 01a7 49       		.uleb128 0x49
 3213 01a8 13       		.uleb128 0x13
 3214 01a9 3A       		.uleb128 0x3a
 3215 01aa 0B       		.uleb128 0xb
 3216 01ab 3B       		.uleb128 0x3b
 3217 01ac 0B       		.uleb128 0xb
 3218 01ad 01       		.uleb128 0x1
 3219 01ae 13       		.uleb128 0x13
 3220 01af 00       		.byte	0
 3221 01b0 00       		.byte	0
 3222 01b1 24       		.uleb128 0x24
 3223 01b2 28       		.uleb128 0x28
 3224 01b3 00       		.byte	0
 3225 01b4 03       		.uleb128 0x3
 3226 01b5 0E       		.uleb128 0xe
 3227 01b6 1C       		.uleb128 0x1c
 3228 01b7 0B       		.uleb128 0xb
 3229 01b8 00       		.byte	0
 3230 01b9 00       		.byte	0
 3231 01ba 25       		.uleb128 0x25
 3232 01bb 2E       		.uleb128 0x2e
 3233 01bc 01       		.byte	0x1
 3234 01bd 3F       		.uleb128 0x3f
 3235 01be 19       		.uleb128 0x19
 3236 01bf 03       		.uleb128 0x3
 3237 01c0 0E       		.uleb128 0xe
 3238 01c1 3A       		.uleb128 0x3a
 3239 01c2 0B       		.uleb128 0xb
 3240 01c3 3B       		.uleb128 0x3b
 3241 01c4 0B       		.uleb128 0xb
 3242 01c5 27       		.uleb128 0x27
 3243 01c6 19       		.uleb128 0x19
 3244 01c7 11       		.uleb128 0x11
 3245 01c8 01       		.uleb128 0x1
 3246 01c9 12       		.uleb128 0x12
 3247 01ca 06       		.uleb128 0x6
 3248 01cb 40       		.uleb128 0x40
 3249 01cc 18       		.uleb128 0x18
ARM GAS  /var/folders/vd/czx34qs52cd_f3nb04sxmghc0000gn/T//ccMYOG2x.s 			page 58


 3250 01cd 9742     		.uleb128 0x2117
 3251 01cf 19       		.uleb128 0x19
 3252 01d0 01       		.uleb128 0x1
 3253 01d1 13       		.uleb128 0x13
 3254 01d2 00       		.byte	0
 3255 01d3 00       		.byte	0
 3256 01d4 26       		.uleb128 0x26
 3257 01d5 05       		.uleb128 0x5
 3258 01d6 00       		.byte	0
 3259 01d7 03       		.uleb128 0x3
 3260 01d8 08       		.uleb128 0x8
 3261 01d9 3A       		.uleb128 0x3a
 3262 01da 0B       		.uleb128 0xb
 3263 01db 3B       		.uleb128 0x3b
 3264 01dc 0B       		.uleb128 0xb
 3265 01dd 49       		.uleb128 0x49
 3266 01de 13       		.uleb128 0x13
 3267 01df 02       		.uleb128 0x2
 3268 01e0 17       		.uleb128 0x17
 3269 01e1 00       		.byte	0
 3270 01e2 00       		.byte	0
 3271 01e3 27       		.uleb128 0x27
 3272 01e4 05       		.uleb128 0x5
 3273 01e5 00       		.byte	0
 3274 01e6 03       		.uleb128 0x3
 3275 01e7 0E       		.uleb128 0xe
 3276 01e8 3A       		.uleb128 0x3a
 3277 01e9 0B       		.uleb128 0xb
 3278 01ea 3B       		.uleb128 0x3b
 3279 01eb 0B       		.uleb128 0xb
 3280 01ec 49       		.uleb128 0x49
 3281 01ed 13       		.uleb128 0x13
 3282 01ee 02       		.uleb128 0x2
 3283 01ef 17       		.uleb128 0x17
 3284 01f0 00       		.byte	0
 3285 01f1 00       		.byte	0
 3286 01f2 28       		.uleb128 0x28
 3287 01f3 34       		.uleb128 0x34
 3288 01f4 00       		.byte	0
 3289 01f5 03       		.uleb128 0x3
 3290 01f6 0E       		.uleb128 0xe
 3291 01f7 49       		.uleb128 0x49
 3292 01f8 13       		.uleb128 0x13
 3293 01f9 34       		.uleb128 0x34
 3294 01fa 19       		.uleb128 0x19
 3295 01fb 00       		.byte	0
 3296 01fc 00       		.byte	0
 3297 01fd 29       		.uleb128 0x29
 3298 01fe 2E       		.uleb128 0x2e
 3299 01ff 01       		.byte	0x1
 3300 0200 3F       		.uleb128 0x3f
 3301 0201 19       		.uleb128 0x19
 3302 0202 03       		.uleb128 0x3
 3303 0203 0E       		.uleb128 0xe
 3304 0204 3A       		.uleb128 0x3a
 3305 0205 0B       		.uleb128 0xb
 3306 0206 3B       		.uleb128 0x3b
ARM GAS  /var/folders/vd/czx34qs52cd_f3nb04sxmghc0000gn/T//ccMYOG2x.s 			page 59


 3307 0207 0B       		.uleb128 0xb
 3308 0208 27       		.uleb128 0x27
 3309 0209 19       		.uleb128 0x19
 3310 020a 11       		.uleb128 0x11
 3311 020b 01       		.uleb128 0x1
 3312 020c 12       		.uleb128 0x12
 3313 020d 06       		.uleb128 0x6
 3314 020e 40       		.uleb128 0x40
 3315 020f 18       		.uleb128 0x18
 3316 0210 9742     		.uleb128 0x2117
 3317 0212 19       		.uleb128 0x19
 3318 0213 00       		.byte	0
 3319 0214 00       		.byte	0
 3320 0215 00       		.byte	0
 3321              		.section	.debug_loc,"",%progbits
 3322              	.Ldebug_loc0:
 3323              	.LLST5:
 3324 0000 00000000 		.4byte	.LVL10
 3325 0004 08000000 		.4byte	.LVL11
 3326 0008 0100     		.2byte	0x1
 3327 000a 50       		.byte	0x50
 3328 000b 08000000 		.4byte	.LVL11
 3329 000f 1C000000 		.4byte	.LFE316
 3330 0013 0400     		.2byte	0x4
 3331 0015 F3       		.byte	0xf3
 3332 0016 01       		.uleb128 0x1
 3333 0017 50       		.byte	0x50
 3334 0018 9F       		.byte	0x9f
 3335 0019 00000000 		.4byte	0
 3336 001d 00000000 		.4byte	0
 3337              	.LLST3:
 3338 0021 00000000 		.4byte	.LVL6
 3339 0025 04000000 		.4byte	.LVL7
 3340 0029 0100     		.2byte	0x1
 3341 002b 50       		.byte	0x50
 3342 002c 04000000 		.4byte	.LVL7
 3343 0030 08000000 		.4byte	.LVL8
 3344 0034 0700     		.2byte	0x7
 3345 0036 70       		.byte	0x70
 3346 0037 80808080 		.sleb128 536870912
 3346      02
 3347 003c 9F       		.byte	0x9f
 3348 003d 08000000 		.4byte	.LVL8
 3349 0041 10000000 		.4byte	.LFE315
 3350 0045 0700     		.2byte	0x7
 3351 0047 70       		.byte	0x70
 3352 0048 80A6FCFF 		.sleb128 536810240
 3352      01
 3353 004d 9F       		.byte	0x9f
 3354 004e 00000000 		.4byte	0
 3355 0052 00000000 		.4byte	0
 3356              	.LLST4:
 3357 0056 00000000 		.4byte	.LVL6
 3358 005a 0A000000 		.4byte	.LVL9
 3359 005e 0100     		.2byte	0x1
 3360 0060 51       		.byte	0x51
 3361 0061 0A000000 		.4byte	.LVL9
ARM GAS  /var/folders/vd/czx34qs52cd_f3nb04sxmghc0000gn/T//ccMYOG2x.s 			page 60


 3362 0065 10000000 		.4byte	.LFE315
 3363 0069 0400     		.2byte	0x4
 3364 006b F3       		.byte	0xf3
 3365 006c 01       		.uleb128 0x1
 3366 006d 51       		.byte	0x51
 3367 006e 9F       		.byte	0x9f
 3368 006f 00000000 		.4byte	0
 3369 0073 00000000 		.4byte	0
 3370              	.LLST2:
 3371 0077 00000000 		.4byte	.LVL4
 3372 007b 10000000 		.4byte	.LVL5
 3373 007f 0100     		.2byte	0x1
 3374 0081 50       		.byte	0x50
 3375 0082 10000000 		.4byte	.LVL5
 3376 0086 24000000 		.4byte	.LFE314
 3377 008a 0700     		.2byte	0x7
 3378 008c 70       		.byte	0x70
 3379 008d 80BEFCFF 		.sleb128 536813312
 3379      01
 3380 0092 9F       		.byte	0x9f
 3381 0093 00000000 		.4byte	0
 3382 0097 00000000 		.4byte	0
 3383              	.LLST0:
 3384 009b 00000000 		.4byte	.LVL0
 3385 009f 1C000000 		.4byte	.LVL2
 3386 00a3 0100     		.2byte	0x1
 3387 00a5 50       		.byte	0x50
 3388 00a6 1C000000 		.4byte	.LVL2
 3389 00aa 2E000000 		.4byte	.LVL3
 3390 00ae 0700     		.2byte	0x7
 3391 00b0 74       		.byte	0x74
 3392 00b1 80BEFCFF 		.sleb128 536813312
 3392      01
 3393 00b6 9F       		.byte	0x9f
 3394 00b7 2E000000 		.4byte	.LVL3
 3395 00bb 32000000 		.4byte	.LFE313
 3396 00bf 0400     		.2byte	0x4
 3397 00c1 F3       		.byte	0xf3
 3398 00c2 01       		.uleb128 0x1
 3399 00c3 50       		.byte	0x50
 3400 00c4 9F       		.byte	0x9f
 3401 00c5 00000000 		.4byte	0
 3402 00c9 00000000 		.4byte	0
 3403              	.LLST1:
 3404 00cd 00000000 		.4byte	.LVL0
 3405 00d1 14000000 		.4byte	.LVL1
 3406 00d5 0100     		.2byte	0x1
 3407 00d7 51       		.byte	0x51
 3408 00d8 14000000 		.4byte	.LVL1
 3409 00dc 32000000 		.4byte	.LFE313
 3410 00e0 0400     		.2byte	0x4
 3411 00e2 F3       		.byte	0xf3
 3412 00e3 01       		.uleb128 0x1
 3413 00e4 51       		.byte	0x51
 3414 00e5 9F       		.byte	0x9f
 3415 00e6 00000000 		.4byte	0
 3416 00ea 00000000 		.4byte	0
ARM GAS  /var/folders/vd/czx34qs52cd_f3nb04sxmghc0000gn/T//ccMYOG2x.s 			page 61


 3417              		.section	.debug_aranges,"",%progbits
 3418 0000 34000000 		.4byte	0x34
 3419 0004 0200     		.2byte	0x2
 3420 0006 00000000 		.4byte	.Ldebug_info0
 3421 000a 04       		.byte	0x4
 3422 000b 00       		.byte	0
 3423 000c 0000     		.2byte	0
 3424 000e 0000     		.2byte	0
 3425 0010 00000000 		.4byte	.LFB313
 3426 0014 32000000 		.4byte	.LFE313-.LFB313
 3427 0018 00000000 		.4byte	.LFB314
 3428 001c 24000000 		.4byte	.LFE314-.LFB314
 3429 0020 00000000 		.4byte	.LFB315
 3430 0024 10000000 		.4byte	.LFE315-.LFB315
 3431 0028 00000000 		.4byte	.LFB316
 3432 002c 1C000000 		.4byte	.LFE316-.LFB316
 3433 0030 00000000 		.4byte	0
 3434 0034 00000000 		.4byte	0
 3435              		.section	.debug_ranges,"",%progbits
 3436              	.Ldebug_ranges0:
 3437 0000 00000000 		.4byte	.LFB313
 3438 0004 32000000 		.4byte	.LFE313
 3439 0008 00000000 		.4byte	.LFB314
 3440 000c 24000000 		.4byte	.LFE314
 3441 0010 00000000 		.4byte	.LFB315
 3442 0014 10000000 		.4byte	.LFE315
 3443 0018 00000000 		.4byte	.LFB316
 3444 001c 1C000000 		.4byte	.LFE316
 3445 0020 00000000 		.4byte	0
 3446 0024 00000000 		.4byte	0
 3447              		.section	.debug_line,"",%progbits
 3448              	.Ldebug_line0:
 3449 0000 7E040000 		.section	.debug_str,"MS",%progbits,1
 3449      02001F04 
 3449      00000201 
 3449      FB0E0D00 
 3449      01010101 
 3450              	.LASF151:
 3451 0000 6F66665F 		.ascii	"off_ctx\000"
 3451      63747800 
 3452              	.LASF110:
 3453 0008 4D314152 		.ascii	"M1AR\000"
 3453      00
 3454              	.LASF79:
 3455 000d 52534552 		.ascii	"RSERVED1\000"
 3455      56454431 
 3455      00
 3456              	.LASF201:
 3457 0016 73746D33 		.ascii	"stm32_dma_stream_t\000"
 3457      325F646D 
 3457      615F7374 
 3457      7265616D 
 3457      5F7400
 3458              	.LASF4:
 3459 0029 73697A65 		.ascii	"size_t\000"
 3459      5F7400
 3460              	.LASF150:
ARM GAS  /var/folders/vd/czx34qs52cd_f3nb04sxmghc0000gn/T//ccMYOG2x.s 			page 62


 3461 0030 6F66665F 		.ascii	"off_prio\000"
 3461      7072696F 
 3461      00
 3462              	.LASF174:
 3463 0039 656E646D 		.ascii	"endmem\000"
 3463      656D00
 3464              	.LASF135:
 3465 0040 77747365 		.ascii	"wtsemp\000"
 3465      6D7000
 3466              	.LASF74:
 3467 0047 73797374 		.ascii	"systime_t\000"
 3467      696D655F 
 3467      7400
 3468              	.LASF159:
 3469 0051 6F66665F 		.ascii	"off_preempt\000"
 3469      70726565 
 3469      6D707400 
 3470              	.LASF140:
 3471 005d 6F776E65 		.ascii	"owner\000"
 3471      7200
 3472              	.LASF25:
 3473 0063 74707269 		.ascii	"tprio_t\000"
 3473      6F5F7400 
 3474              	.LASF162:
 3475 006b 63685F64 		.ascii	"ch_debug\000"
 3475      65627567 
 3475      00
 3476              	.LASF180:
 3477 0074 70726F76 		.ascii	"provider\000"
 3477      69646572 
 3477      00
 3478              	.LASF18:
 3479 007d 696E7433 		.ascii	"int32_t\000"
 3479      325F7400 
 3480              	.LASF256:
 3481 0085 77726974 		.ascii	"writet\000"
 3481      657400
 3482              	.LASF58:
 3483 008c 76746675 		.ascii	"vtfunc_t\000"
 3483      6E635F74 
 3483      00
 3484              	.LASF64:
 3485 0095 63685F76 		.ascii	"ch_virtual_timers_list\000"
 3485      69727475 
 3485      616C5F74 
 3485      696D6572 
 3485      735F6C69 
 3486              	.LASF265:
 3487 00ac 5F5F6675 		.ascii	"__func__\000"
 3487      6E635F5F 
 3487      00
 3488              	.LASF252:
 3489 00b5 77726974 		.ascii	"write\000"
 3489      6500
 3490              	.LASF91:
 3491 00bb 56544F52 		.ascii	"VTOR\000"
 3491      00
ARM GAS  /var/folders/vd/czx34qs52cd_f3nb04sxmghc0000gn/T//ccMYOG2x.s 			page 63


 3492              	.LASF182:
 3493 00c0 63685F64 		.ascii	"ch_dyn_element\000"
 3493      796E5F65 
 3493      6C656D65 
 3493      6E7400
 3494              	.LASF231:
 3495 00cf 70776D63 		.ascii	"pwmchnmsk_t\000"
 3495      686E6D73 
 3495      6B5F7400 
 3496              	.LASF223:
 3497 00db 636F6E66 		.ascii	"config\000"
 3497      696700
 3498              	.LASF38:
 3499 00e2 73746174 		.ascii	"state\000"
 3499      6500
 3500              	.LASF254:
 3501 00e8 70757474 		.ascii	"putt\000"
 3501      00
 3502              	.LASF235:
 3503 00ed 50574D43 		.ascii	"PWMChannelConfig\000"
 3503      68616E6E 
 3503      656C436F 
 3503      6E666967 
 3503      00
 3504              	.LASF187:
 3505 00fe 6F626A5F 		.ascii	"obj_list\000"
 3505      6C697374 
 3505      00
 3506              	.LASF124:
 3507 0107 444D4152 		.ascii	"DMAR\000"
 3507      00
 3508              	.LASF82:
 3509 010c 49435052 		.ascii	"ICPR\000"
 3509      00
 3510              	.LASF237:
 3511 0111 64696572 		.ascii	"dier\000"
 3511      00
 3512              	.LASF218:
 3513 0116 50574D5F 		.ascii	"PWM_UNINIT\000"
 3513      554E494E 
 3513      495400
 3514              	.LASF153:
 3515 0121 6F66665F 		.ascii	"off_older\000"
 3515      6F6C6465 
 3515      7200
 3516              	.LASF33:
 3517 012b 7072696F 		.ascii	"prio\000"
 3517      00
 3518              	.LASF131:
 3519 0130 65786974 		.ascii	"exitcode\000"
 3519      636F6465 
 3519      00
 3520              	.LASF5:
 3521 0139 5F5F7569 		.ascii	"__uint8_t\000"
 3521      6E74385F 
 3521      7400
 3522              	.LASF208:
ARM GAS  /var/folders/vd/czx34qs52cd_f3nb04sxmghc0000gn/T//ccMYOG2x.s 			page 64


 3523 0143 715F746F 		.ascii	"q_top\000"
 3523      7000
 3524              	.LASF257:
 3525 0149 72656164 		.ascii	"readt\000"
 3525      7400
 3526              	.LASF92:
 3527 014f 41495243 		.ascii	"AIRCR\000"
 3527      5200
 3528              	.LASF207:
 3529 0155 715F6275 		.ascii	"q_buffer\000"
 3529      66666572 
 3529      00
 3530              	.LASF211:
 3531 015e 715F6E6F 		.ascii	"q_notify\000"
 3531      74696679 
 3531      00
 3532              	.LASF234:
 3533 0167 63616C6C 		.ascii	"callback\000"
 3533      6261636B 
 3533      00
 3534              	.LASF11:
 3535 0170 6C6F6E67 		.ascii	"long int\000"
 3535      20696E74 
 3535      00
 3536              	.LASF210:
 3537 0179 715F7264 		.ascii	"q_rdptr\000"
 3537      70747200 
 3538              	.LASF89:
 3539 0181 43505549 		.ascii	"CPUID\000"
 3539      4400
 3540              	.LASF144:
 3541 0187 7A65726F 		.ascii	"zero\000"
 3541      00
 3542              	.LASF23:
 3543 018c 74737461 		.ascii	"tstate_t\000"
 3543      74655F74 
 3543      00
 3544              	.LASF43:
 3545 0195 6570656E 		.ascii	"epending\000"
 3545      64696E67 
 3545      00
 3546              	.LASF52:
 3547 019e 74687265 		.ascii	"threads_queue_t\000"
 3547      6164735F 
 3547      71756575 
 3547      655F7400 
 3548              	.LASF247:
 3549 01ae 6F717565 		.ascii	"oqueue\000"
 3549      756500
 3550              	.LASF114:
 3551 01b5 72656761 		.ascii	"regarm_t\000"
 3551      726D5F74 
 3551      00
 3552              	.LASF212:
 3553 01be 715F6C69 		.ascii	"q_link\000"
 3553      6E6B00
 3554              	.LASF230:
ARM GAS  /var/folders/vd/czx34qs52cd_f3nb04sxmghc0000gn/T//ccMYOG2x.s 			page 65


 3555 01c5 70776D63 		.ascii	"pwmchannel_t\000"
 3555      68616E6E 
 3555      656C5F74 
 3555      00
 3556              	.LASF188:
 3557 01d2 6F626A5F 		.ascii	"obj_pool\000"
 3557      706F6F6C 
 3557      00
 3558              	.LASF90:
 3559 01db 49435352 		.ascii	"ICSR\000"
 3559      00
 3560              	.LASF175:
 3561 01e0 6D656D63 		.ascii	"memcore_t\000"
 3561      6F72655F 
 3561      7400
 3562              	.LASF204:
 3563 01ea 696F5F71 		.ascii	"io_queue\000"
 3563      75657565 
 3563      00
 3564              	.LASF3:
 3565 01f3 7369676E 		.ascii	"signed char\000"
 3565      65642063 
 3565      68617200 
 3566              	.LASF137:
 3567 01ff 65776D61 		.ascii	"ewmask\000"
 3567      736B00
 3568              	.LASF16:
 3569 0206 75696E74 		.ascii	"uint8_t\000"
 3569      385F7400 
 3570              	.LASF27:
 3571 020e 6576656E 		.ascii	"eventmask_t\000"
 3571      746D6173 
 3571      6B5F7400 
 3572              	.LASF133:
 3573 021a 77747472 		.ascii	"wttrp\000"
 3573      7000
 3574              	.LASF232:
 3575 0220 70776D63 		.ascii	"pwmcnt_t\000"
 3575      6E745F74 
 3575      00
 3576              	.LASF77:
 3577 0229 52455345 		.ascii	"RESERVED0\000"
 3577      52564544 
 3577      3000
 3578              	.LASF6:
 3579 0233 756E7369 		.ascii	"unsigned char\000"
 3579      676E6564 
 3579      20636861 
 3579      7200
 3580              	.LASF83:
 3581 0241 52455345 		.ascii	"RESERVED3\000"
 3581      52564544 
 3581      3300
 3582              	.LASF85:
 3583 024b 52455345 		.ascii	"RESERVED4\000"
 3583      52564544 
 3583      3400
ARM GAS  /var/folders/vd/czx34qs52cd_f3nb04sxmghc0000gn/T//ccMYOG2x.s 			page 66


 3584              	.LASF86:
 3585 0255 52455345 		.ascii	"RESERVED5\000"
 3585      52564544 
 3585      3500
 3586              	.LASF65:
 3587 025f 6C617374 		.ascii	"lasttime\000"
 3587      74696D65 
 3587      00
 3588              	.LASF68:
 3589 0268 70616E69 		.ascii	"panic_msg\000"
 3589      635F6D73 
 3589      6700
 3590              	.LASF84:
 3591 0272 49414252 		.ascii	"IABR\000"
 3591      00
 3592              	.LASF66:
 3593 0277 73797374 		.ascii	"system_debug_t\000"
 3593      656D5F64 
 3593      65627567 
 3593      5F7400
 3594              	.LASF240:
 3595 0286 53445F55 		.ascii	"SD_UNINIT\000"
 3595      4E494E49 
 3595      5400
 3596              	.LASF171:
 3597 0290 5F426F6F 		.ascii	"_Bool\000"
 3597      6C00
 3598              	.LASF81:
 3599 0296 52455345 		.ascii	"RESERVED2\000"
 3599      52564544 
 3599      3200
 3600              	.LASF120:
 3601 02a0 43434D52 		.ascii	"CCMR1\000"
 3601      3100
 3602              	.LASF121:
 3603 02a6 43434D52 		.ascii	"CCMR2\000"
 3603      3200
 3604              	.LASF125:
 3605 02ac 43434D52 		.ascii	"CCMR3\000"
 3605      3300
 3606              	.LASF141:
 3607 02b2 63686172 		.ascii	"char\000"
 3607      00
 3608              	.LASF103:
 3609 02b7 5343425F 		.ascii	"SCB_Type\000"
 3609      54797065 
 3609      00
 3610              	.LASF198:
 3611 02c0 69736869 		.ascii	"ishift\000"
 3611      667400
 3612              	.LASF96:
 3613 02c7 44465352 		.ascii	"DFSR\000"
 3613      00
 3614              	.LASF190:
 3615 02cc 73656D5F 		.ascii	"sem_list\000"
 3615      6C697374 
 3615      00
ARM GAS  /var/folders/vd/czx34qs52cd_f3nb04sxmghc0000gn/T//ccMYOG2x.s 			page 67


 3616              	.LASF8:
 3617 02d5 5F5F7569 		.ascii	"__uint16_t\000"
 3617      6E743136 
 3617      5F7400
 3618              	.LASF258:
 3619 02e0 6E766963 		.ascii	"nvicClearPending\000"
 3619      436C6561 
 3619      7250656E 
 3619      64696E67 
 3619      00
 3620              	.LASF132:
 3621 02f1 77746F62 		.ascii	"wtobjp\000"
 3621      6A7000
 3622              	.LASF263:
 3623 02f8 2E2E2F6F 		.ascii	"../os/hal/ports/common/ARMCMx/nvic.c\000"
 3623      732F6861 
 3623      6C2F706F 
 3623      7274732F 
 3623      636F6D6D 
 3624              	.LASF95:
 3625 031d 48465352 		.ascii	"HFSR\000"
 3625      00
 3626              	.LASF216:
 3627 0322 70616C65 		.ascii	"palevent_t\000"
 3627      76656E74 
 3627      5F7400
 3628              	.LASF158:
 3629 032d 6F66665F 		.ascii	"off_refs\000"
 3629      72656673 
 3629      00
 3630              	.LASF39:
 3631 0336 666C6167 		.ascii	"flags\000"
 3631      7300
 3632              	.LASF255:
 3633 033c 67657474 		.ascii	"gett\000"
 3633      00
 3634              	.LASF115:
 3635 0341 73746B61 		.ascii	"stkalign_t\000"
 3635      6C69676E 
 3635      5F7400
 3636              	.LASF113:
 3637 034c 55534152 		.ascii	"USART_TypeDef\000"
 3637      545F5479 
 3637      70654465 
 3637      6600
 3638              	.LASF46:
 3639 035a 6D706F6F 		.ascii	"mpool\000"
 3639      6C00
 3640              	.LASF80:
 3641 0360 49535052 		.ascii	"ISPR\000"
 3641      00
 3642              	.LASF196:
 3643 0365 73747265 		.ascii	"stream\000"
 3643      616D00
 3644              	.LASF164:
 3645 036c 6576656E 		.ascii	"event_listener_t\000"
 3645      745F6C69 
ARM GAS  /var/folders/vd/czx34qs52cd_f3nb04sxmghc0000gn/T//ccMYOG2x.s 			page 68


 3645      7374656E 
 3645      65725F74 
 3645      00
 3646              	.LASF147:
 3647 037d 70747273 		.ascii	"ptrsize\000"
 3647      697A6500 
 3648              	.LASF126:
 3649 0385 43435852 		.ascii	"CCXR\000"
 3649      00
 3650              	.LASF93:
 3651 038a 53484353 		.ascii	"SHCSR\000"
 3651      5200
 3652              	.LASF160:
 3653 0390 6F66665F 		.ascii	"off_time\000"
 3653      74696D65 
 3653      00
 3654              	.LASF229:
 3655 0399 70776D6D 		.ascii	"pwmmode_t\000"
 3655      6F64655F 
 3655      7400
 3656              	.LASF29:
 3657 03a3 636E745F 		.ascii	"cnt_t\000"
 3657      7400
 3658              	.LASF249:
 3659 03a9 72786D61 		.ascii	"rxmask\000"
 3659      736B00
 3660              	.LASF87:
 3661 03b0 53544952 		.ascii	"STIR\000"
 3661      00
 3662              	.LASF183:
 3663 03b5 64796E5F 		.ascii	"dyn_element_t\000"
 3663      656C656D 
 3663      656E745F 
 3663      7400
 3664              	.LASF136:
 3665 03c3 77746D74 		.ascii	"wtmtxp\000"
 3665      787000
 3666              	.LASF56:
 3667 03ca 63685F72 		.ascii	"ch_ready_list\000"
 3667      65616479 
 3667      5F6C6973 
 3667      7400
 3668              	.LASF191:
 3669 03d8 73656D5F 		.ascii	"sem_pool\000"
 3669      706F6F6C 
 3669      00
 3670              	.LASF173:
 3671 03e1 6E657874 		.ascii	"nextmem\000"
 3671      6D656D00 
 3672              	.LASF206:
 3673 03e9 715F636F 		.ascii	"q_counter\000"
 3673      756E7465 
 3673      7200
 3674              	.LASF225:
 3675 03f3 656E6162 		.ascii	"enabled\000"
 3675      6C656400 
 3676              	.LASF14:
ARM GAS  /var/folders/vd/czx34qs52cd_f3nb04sxmghc0000gn/T//ccMYOG2x.s 			page 69


 3677 03fb 5F5F7569 		.ascii	"__uint64_t\000"
 3677      6E743634 
 3677      5F7400
 3678              	.LASF156:
 3679 0406 6F66665F 		.ascii	"off_state\000"
 3679      73746174 
 3679      6500
 3680              	.LASF13:
 3681 0410 6C6F6E67 		.ascii	"long unsigned int\000"
 3681      20756E73 
 3681      69676E65 
 3681      6420696E 
 3681      7400
 3682              	.LASF149:
 3683 0422 74687265 		.ascii	"threadsize\000"
 3683      61647369 
 3683      7A6500
 3684              	.LASF119:
 3685 042d 44494552 		.ascii	"DIER\000"
 3685      00
 3686              	.LASF105:
 3687 0432 53797374 		.ascii	"SystemCoreClock\000"
 3687      656D436F 
 3687      7265436C 
 3687      6F636B00 
 3688              	.LASF138:
 3689 0442 63685F73 		.ascii	"ch_semaphore\000"
 3689      656D6170 
 3689      686F7265 
 3689      00
 3690              	.LASF49:
 3691 044f 63685F74 		.ascii	"ch_thread\000"
 3691      68726561 
 3691      6400
 3692              	.LASF63:
 3693 0459 76697274 		.ascii	"virtual_timers_list_t\000"
 3693      75616C5F 
 3693      74696D65 
 3693      72735F6C 
 3693      6973745F 
 3694              	.LASF259:
 3695 046f 6E766963 		.ascii	"nvicSetSystemHandlerPriority\000"
 3695      53657453 
 3695      79737465 
 3695      6D48616E 
 3695      646C6572 
 3696              	.LASF142:
 3697 048c 63685F69 		.ascii	"ch_idle_thread_wa\000"
 3697      646C655F 
 3697      74687265 
 3697      61645F77 
 3697      6100
 3698              	.LASF202:
 3699 049e 5F73746D 		.ascii	"_stm32_dma_streams\000"
 3699      33325F64 
 3699      6D615F73 
 3699      74726561 
ARM GAS  /var/folders/vd/czx34qs52cd_f3nb04sxmghc0000gn/T//ccMYOG2x.s 			page 70


 3699      6D7300
 3700              	.LASF193:
 3701 04b1 6669666F 		.ascii	"fifo_list\000"
 3701      5F6C6973 
 3701      7400
 3702              	.LASF59:
 3703 04bb 76697274 		.ascii	"virtual_timer_t\000"
 3703      75616C5F 
 3703      74696D65 
 3703      725F7400 
 3704              	.LASF55:
 3705 04cb 72656164 		.ascii	"ready_list_t\000"
 3705      795F6C69 
 3705      73745F74 
 3705      00
 3706              	.LASF35:
 3707 04d8 6F6C6465 		.ascii	"older\000"
 3707      7200
 3708              	.LASF250:
 3709 04de 53657269 		.ascii	"SerialDriverVMT\000"
 3709      616C4472 
 3709      69766572 
 3709      564D5400 
 3710              	.LASF45:
 3711 04ee 7265616C 		.ascii	"realprio\000"
 3711      7072696F 
 3711      00
 3712              	.LASF127:
 3713 04f7 73746D33 		.ascii	"stm32_tim_t\000"
 3713      325F7469 
 3713      6D5F7400 
 3714              	.LASF30:
 3715 0503 75636E74 		.ascii	"ucnt_t\000"
 3715      5F7400
 3716              	.LASF227:
 3717 050a 636C6F63 		.ascii	"clock\000"
 3717      6B00
 3718              	.LASF155:
 3719 0510 6F66665F 		.ascii	"off_stklimit\000"
 3719      73746B6C 
 3719      696D6974 
 3719      00
 3720              	.LASF177:
 3721 051d 706F6F6C 		.ascii	"pool_header\000"
 3721      5F686561 
 3721      64657200 
 3722              	.LASF50:
 3723 0529 63685F74 		.ascii	"ch_threads_list\000"
 3723      68726561 
 3723      64735F6C 
 3723      69737400 
 3724              	.LASF248:
 3725 0539 75736172 		.ascii	"usart\000"
 3725      7400
 3726              	.LASF262:
 3727 053f 474E5520 		.ascii	"GNU C11 7.2.1 20170904 (release) [ARM/embedded-7-br"
 3727      43313120 
ARM GAS  /var/folders/vd/czx34qs52cd_f3nb04sxmghc0000gn/T//ccMYOG2x.s 			page 71


 3727      372E322E 
 3727      31203230 
 3727      31373039 
 3728 0572 616E6368 		.ascii	"anch revision 255204] -mcpu=cortex-m4 -mno-thumb-in"
 3728      20726576 
 3728      6973696F 
 3728      6E203235 
 3728      35323034 
 3729 05a5 74657277 		.ascii	"terwork -mthumb -ggdb -O2 -fomit-frame-pointer -fal"
 3729      6F726B20 
 3729      2D6D7468 
 3729      756D6220 
 3729      2D676764 
 3730 05d8 69676E2D 		.ascii	"ign-functions=16 -ffunction-sections -fdata-section"
 3730      66756E63 
 3730      74696F6E 
 3730      733D3136 
 3730      202D6666 
 3731 060b 73202D66 		.ascii	"s -fno-common\000"
 3731      6E6F2D63 
 3731      6F6D6D6F 
 3731      6E00
 3732              	.LASF12:
 3733 0619 5F5F7569 		.ascii	"__uint32_t\000"
 3733      6E743332 
 3733      5F7400
 3734              	.LASF44:
 3735 0624 6D74786C 		.ascii	"mtxlist\000"
 3735      69737400 
 3736              	.LASF1:
 3737 062c 6C6F6E67 		.ascii	"long long int\000"
 3737      206C6F6E 
 3737      6720696E 
 3737      7400
 3738              	.LASF75:
 3739 063a 73797369 		.ascii	"sysinterval_t\000"
 3739      6E746572 
 3739      76616C5F 
 3739      7400
 3740              	.LASF186:
 3741 0648 63685F6F 		.ascii	"ch_objects_factory\000"
 3741      626A6563 
 3741      74735F66 
 3741      6163746F 
 3741      727900
 3742              	.LASF112:
 3743 065b 47545052 		.ascii	"GTPR\000"
 3743      00
 3744              	.LASF170:
 3745 0660 6576656E 		.ascii	"event_source_t\000"
 3745      745F736F 
 3745      75726365 
 3745      5F7400
 3746              	.LASF179:
 3747 066f 616C6967 		.ascii	"align\000"
 3747      6E00
 3748              	.LASF104:
ARM GAS  /var/folders/vd/czx34qs52cd_f3nb04sxmghc0000gn/T//ccMYOG2x.s 			page 72


 3749 0675 49544D5F 		.ascii	"ITM_RxBuffer\000"
 3749      52784275 
 3749      66666572 
 3749      00
 3750              	.LASF236:
 3751 0682 66726571 		.ascii	"frequency\000"
 3751      75656E63 
 3751      7900
 3752              	.LASF213:
 3753 068c 716E6F74 		.ascii	"qnotify_t\000"
 3753      6966795F 
 3753      7400
 3754              	.LASF245:
 3755 0696 6576656E 		.ascii	"event\000"
 3755      7400
 3756              	.LASF253:
 3757 069c 72656164 		.ascii	"read\000"
 3757      00
 3758              	.LASF152:
 3759 06a1 6F66665F 		.ascii	"off_newer\000"
 3759      6E657765 
 3759      7200
 3760              	.LASF199:
 3761 06ab 73656C66 		.ascii	"selfindex\000"
 3761      696E6465 
 3761      7800
 3762              	.LASF0:
 3763 06b5 756E7369 		.ascii	"unsigned int\000"
 3763      676E6564 
 3763      20696E74 
 3763      00
 3764              	.LASF21:
 3765 06c2 7274636E 		.ascii	"rtcnt_t\000"
 3765      745F7400 
 3766              	.LASF226:
 3767 06ca 6368616E 		.ascii	"channels\000"
 3767      6E656C73 
 3767      00
 3768              	.LASF228:
 3769 06d3 70776D63 		.ascii	"pwmcallback_t\000"
 3769      616C6C62 
 3769      61636B5F 
 3769      7400
 3770              	.LASF57:
 3771 06e1 63757272 		.ascii	"current\000"
 3771      656E7400 
 3772              	.LASF222:
 3773 06e9 50574D44 		.ascii	"PWMDriver\000"
 3773      72697665 
 3773      7200
 3774              	.LASF128:
 3775 06f3 6F666673 		.ascii	"offset\000"
 3775      657400
 3776              	.LASF111:
 3777 06fa 444D415F 		.ascii	"DMA_Stream_TypeDef\000"
 3777      53747265 
 3777      616D5F54 
ARM GAS  /var/folders/vd/czx34qs52cd_f3nb04sxmghc0000gn/T//ccMYOG2x.s 			page 73


 3777      79706544 
 3777      656600
 3778              	.LASF172:
 3779 070d 6D656D67 		.ascii	"memgetfunc_t\000"
 3779      65746675 
 3779      6E635F74 
 3779      00
 3780              	.LASF217:
 3781 071a 5F70616C 		.ascii	"_pal_events\000"
 3781      5F657665 
 3781      6E747300 
 3782              	.LASF31:
 3783 0726 74687265 		.ascii	"thread_t\000"
 3783      61645F74 
 3783      00
 3784              	.LASF2:
 3785 072f 6C6F6E67 		.ascii	"long double\000"
 3785      20646F75 
 3785      626C6500 
 3786              	.LASF168:
 3787 073b 77666C61 		.ascii	"wflags\000"
 3787      677300
 3788              	.LASF261:
 3789 0742 6E766963 		.ascii	"nvicDisableVector\000"
 3789      44697361 
 3789      626C6556 
 3789      6563746F 
 3789      7200
 3790              	.LASF47:
 3791 0754 74687265 		.ascii	"thread_reference_t\000"
 3791      61645F72 
 3791      65666572 
 3791      656E6365 
 3791      5F7400
 3792              	.LASF134:
 3793 0767 73656E74 		.ascii	"sentmsg\000"
 3793      6D736700 
 3794              	.LASF117:
 3795 076f 706F7274 		.ascii	"port_intctx\000"
 3795      5F696E74 
 3795      63747800 
 3796              	.LASF194:
 3797 077b 6F626A65 		.ascii	"objects_factory_t\000"
 3797      6374735F 
 3797      66616374 
 3797      6F72795F 
 3797      7400
 3798              	.LASF189:
 3799 078d 6275665F 		.ascii	"buf_list\000"
 3799      6C697374 
 3799      00
 3800              	.LASF106:
 3801 0796 41484250 		.ascii	"AHBPrescTable\000"
 3801      72657363 
 3801      5461626C 
 3801      6500
 3802              	.LASF60:
ARM GAS  /var/folders/vd/czx34qs52cd_f3nb04sxmghc0000gn/T//ccMYOG2x.s 			page 74


 3803 07a4 63685F76 		.ascii	"ch_virtual_timer\000"
 3803      69727475 
 3803      616C5F74 
 3803      696D6572 
 3803      00
 3804              	.LASF98:
 3805 07b5 42464152 		.ascii	"BFAR\000"
 3805      00
 3806              	.LASF88:
 3807 07ba 4E564943 		.ascii	"NVIC_Type\000"
 3807      5F547970 
 3807      6500
 3808              	.LASF145:
 3809 07c4 73697A65 		.ascii	"size\000"
 3809      00
 3810              	.LASF15:
 3811 07c9 6C6F6E67 		.ascii	"long long unsigned int\000"
 3811      206C6F6E 
 3811      6720756E 
 3811      7369676E 
 3811      65642069 
 3812              	.LASF219:
 3813 07e0 50574D5F 		.ascii	"PWM_STOP\000"
 3813      53544F50 
 3813      00
 3814              	.LASF17:
 3815 07e9 75696E74 		.ascii	"uint16_t\000"
 3815      31365F74 
 3815      00
 3816              	.LASF154:
 3817 07f2 6F66665F 		.ascii	"off_name\000"
 3817      6E616D65 
 3817      00
 3818              	.LASF26:
 3819 07fb 6D73675F 		.ascii	"msg_t\000"
 3819      7400
 3820              	.LASF53:
 3821 0801 63685F74 		.ascii	"ch_threads_queue\000"
 3821      68726561 
 3821      64735F71 
 3821      75657565 
 3821      00
 3822              	.LASF28:
 3823 0812 6576656E 		.ascii	"eventflags_t\000"
 3823      74666C61 
 3823      67735F74 
 3823      00
 3824              	.LASF122:
 3825 081f 43434552 		.ascii	"CCER\000"
 3825      00
 3826              	.LASF61:
 3827 0824 64656C74 		.ascii	"delta\000"
 3827      6100
 3828              	.LASF40:
 3829 082a 72656673 		.ascii	"refs\000"
 3829      00
 3830              	.LASF32:
ARM GAS  /var/folders/vd/czx34qs52cd_f3nb04sxmghc0000gn/T//ccMYOG2x.s 			page 75


 3831 082f 71756575 		.ascii	"queue\000"
 3831      6500
 3832              	.LASF200:
 3833 0835 76656374 		.ascii	"vector\000"
 3833      6F7200
 3834              	.LASF195:
 3835 083c 63685F66 		.ascii	"ch_factory\000"
 3835      6163746F 
 3835      727900
 3836              	.LASF192:
 3837 0847 6D62785F 		.ascii	"mbx_list\000"
 3837      6C697374 
 3837      00
 3838              	.LASF73:
 3839 0850 6D61696E 		.ascii	"mainthread\000"
 3839      74687265 
 3839      616400
 3840              	.LASF78:
 3841 085b 49434552 		.ascii	"ICER\000"
 3841      00
 3842              	.LASF118:
 3843 0860 534D4352 		.ascii	"SMCR\000"
 3843      00
 3844              	.LASF224:
 3845 0865 70657269 		.ascii	"period\000"
 3845      6F6400
 3846              	.LASF146:
 3847 086c 76657273 		.ascii	"version\000"
 3847      696F6E00 
 3848              	.LASF37:
 3849 0874 77616261 		.ascii	"wabase\000"
 3849      736500
 3850              	.LASF244:
 3851 087b 53657269 		.ascii	"SerialDriver\000"
 3851      616C4472 
 3851      69766572 
 3851      00
 3852              	.LASF181:
 3853 0888 6D656D6F 		.ascii	"memory_pool_t\000"
 3853      72795F70 
 3853      6F6F6C5F 
 3853      7400
 3854              	.LASF99:
 3855 0896 41465352 		.ascii	"AFSR\000"
 3855      00
 3856              	.LASF260:
 3857 089b 68616E64 		.ascii	"handler\000"
 3857      6C657200 
 3858              	.LASF205:
 3859 08a3 715F7761 		.ascii	"q_waiting\000"
 3859      6974696E 
 3859      6700
 3860              	.LASF94:
 3861 08ad 43465352 		.ascii	"CFSR\000"
 3861      00
 3862              	.LASF71:
 3863 08b2 726C6973 		.ascii	"rlist\000"
ARM GAS  /var/folders/vd/czx34qs52cd_f3nb04sxmghc0000gn/T//ccMYOG2x.s 			page 76


 3863      7400
 3864              	.LASF22:
 3865 08b8 746D6F64 		.ascii	"tmode_t\000"
 3865      655F7400 
 3866              	.LASF243:
 3867 08c0 73647374 		.ascii	"sdstate_t\000"
 3867      6174655F 
 3867      7400
 3868              	.LASF242:
 3869 08ca 53445F52 		.ascii	"SD_READY\000"
 3869      45414459 
 3869      00
 3870              	.LASF129:
 3871 08d3 746D5F63 		.ascii	"tm_calibration_t\000"
 3871      616C6962 
 3871      72617469 
 3871      6F6E5F74 
 3871      00
 3872              	.LASF109:
 3873 08e4 4D304152 		.ascii	"M0AR\000"
 3873      00
 3874              	.LASF36:
 3875 08e9 6E616D65 		.ascii	"name\000"
 3875      00
 3876              	.LASF166:
 3877 08ee 6C697374 		.ascii	"listener\000"
 3877      656E6572 
 3877      00
 3878              	.LASF107:
 3879 08f7 41504250 		.ascii	"APBPrescTable\000"
 3879      72657363 
 3879      5461626C 
 3879      6500
 3880              	.LASF100:
 3881 0905 4D4D4652 		.ascii	"MMFR\000"
 3881      00
 3882              	.LASF220:
 3883 090a 50574D5F 		.ascii	"PWM_READY\000"
 3883      52454144 
 3883      5900
 3884              	.LASF97:
 3885 0914 4D4D4641 		.ascii	"MMFAR\000"
 3885      5200
 3886              	.LASF7:
 3887 091a 73686F72 		.ascii	"short int\000"
 3887      7420696E 
 3887      7400
 3888              	.LASF169:
 3889 0924 6576656E 		.ascii	"event_source\000"
 3889      745F736F 
 3889      75726365 
 3889      00
 3890              	.LASF20:
 3891 0931 75696E74 		.ascii	"uint64_t\000"
 3891      36345F74 
 3891      00
 3892              	.LASF233:
ARM GAS  /var/folders/vd/czx34qs52cd_f3nb04sxmghc0000gn/T//ccMYOG2x.s 			page 77


 3893 093a 6D6F6465 		.ascii	"mode\000"
 3893      00
 3894              	.LASF62:
 3895 093f 66756E63 		.ascii	"func\000"
 3895      00
 3896              	.LASF139:
 3897 0944 63685F6D 		.ascii	"ch_mutex\000"
 3897      75746578 
 3897      00
 3898              	.LASF42:
 3899 094d 6D736771 		.ascii	"msgqueue\000"
 3899      75657565 
 3899      00
 3900              	.LASF246:
 3901 0956 69717565 		.ascii	"iqueue\000"
 3901      756500
 3902              	.LASF101:
 3903 095d 49534152 		.ascii	"ISAR\000"
 3903      00
 3904              	.LASF67:
 3905 0962 63685F73 		.ascii	"ch_system_debug\000"
 3905      79737465 
 3905      6D5F6465 
 3905      62756700 
 3906              	.LASF185:
 3907 0972 64796E5F 		.ascii	"dyn_list_t\000"
 3907      6C697374 
 3907      5F7400
 3908              	.LASF203:
 3909 097d 696F5F71 		.ascii	"io_queue_t\000"
 3909      75657565 
 3909      5F7400
 3910              	.LASF178:
 3911 0988 6F626A65 		.ascii	"object_size\000"
 3911      63745F73 
 3911      697A6500 
 3912              	.LASF72:
 3913 0994 76746C69 		.ascii	"vtlist\000"
 3913      737400
 3914              	.LASF41:
 3915 099b 77616974 		.ascii	"waiting\000"
 3915      696E6700 
 3916              	.LASF238:
 3917 09a3 50574D43 		.ascii	"PWMConfig\000"
 3917      6F6E6669 
 3917      6700
 3918              	.LASF163:
 3919 09ad 6D757465 		.ascii	"mutex_t\000"
 3919      785F7400 
 3920              	.LASF24:
 3921 09b5 74726566 		.ascii	"trefs_t\000"
 3921      735F7400 
 3922              	.LASF116:
 3923 09bd 706F7274 		.ascii	"port_context\000"
 3923      5F636F6E 
 3923      74657874 
 3923      00
ARM GAS  /var/folders/vd/czx34qs52cd_f3nb04sxmghc0000gn/T//ccMYOG2x.s 			page 78


 3924              	.LASF48:
 3925 09ca 74687265 		.ascii	"threads_list_t\000"
 3925      6164735F 
 3925      6C697374 
 3925      5F7400
 3926              	.LASF239:
 3927 09d9 50574D44 		.ascii	"PWMD4\000"
 3927      3400
 3928              	.LASF70:
 3929 09df 63685F73 		.ascii	"ch_system\000"
 3929      79737465 
 3929      6D00
 3930              	.LASF221:
 3931 09e9 70776D73 		.ascii	"pwmstate_t\000"
 3931      74617465 
 3931      5F7400
 3932              	.LASF34:
 3933 09f4 6E657765 		.ascii	"newer\000"
 3933      7200
 3934              	.LASF123:
 3935 09fa 42445452 		.ascii	"BDTR\000"
 3935      00
 3936              	.LASF266:
 3937 09ff 6E766963 		.ascii	"nvicEnableVector\000"
 3937      456E6162 
 3937      6C655665 
 3937      63746F72 
 3937      00
 3938              	.LASF19:
 3939 0a10 75696E74 		.ascii	"uint32_t\000"
 3939      33325F74 
 3939      00
 3940              	.LASF264:
 3941 0a19 2F557365 		.ascii	"/Users/lantian/Projects/stm32f407vet6/dev\000"
 3941      72732F6C 
 3941      616E7469 
 3941      616E2F50 
 3941      726F6A65 
 3942              	.LASF251:
 3943 0a43 696E7374 		.ascii	"instance_offset\000"
 3943      616E6365 
 3943      5F6F6666 
 3943      73657400 
 3944              	.LASF214:
 3945 0a53 696E7075 		.ascii	"input_queue_t\000"
 3945      745F7175 
 3945      6575655F 
 3945      7400
 3946              	.LASF165:
 3947 0a61 6576656E 		.ascii	"event_listener\000"
 3947      745F6C69 
 3947      7374656E 
 3947      657200
 3948              	.LASF130:
 3949 0a70 7264796D 		.ascii	"rdymsg\000"
 3949      736700
 3950              	.LASF209:
ARM GAS  /var/folders/vd/czx34qs52cd_f3nb04sxmghc0000gn/T//ccMYOG2x.s 			page 79


 3951 0a77 715F7772 		.ascii	"q_wrptr\000"
 3951      70747200 
 3952              	.LASF9:
 3953 0a7f 73686F72 		.ascii	"short unsigned int\000"
 3953      7420756E 
 3953      7369676E 
 3953      65642069 
 3953      6E7400
 3954              	.LASF102:
 3955 0a92 43504143 		.ascii	"CPACR\000"
 3955      5200
 3956              	.LASF69:
 3957 0a98 63685F73 		.ascii	"ch_system_t\000"
 3957      79737465 
 3957      6D5F7400 
 3958              	.LASF161:
 3959 0aa4 63686465 		.ascii	"chdebug_t\000"
 3959      6275675F 
 3959      7400
 3960              	.LASF215:
 3961 0aae 6F757470 		.ascii	"output_queue_t\000"
 3961      75745F71 
 3961      75657565 
 3961      5F7400
 3962              	.LASF148:
 3963 0abd 74696D65 		.ascii	"timesize\000"
 3963      73697A65 
 3963      00
 3964              	.LASF10:
 3965 0ac6 5F5F696E 		.ascii	"__int32_t\000"
 3965      7433325F 
 3965      7400
 3966              	.LASF241:
 3967 0ad0 53445F53 		.ascii	"SD_STOP\000"
 3967      544F5000 
 3968              	.LASF108:
 3969 0ad8 4E445452 		.ascii	"NDTR\000"
 3969      00
 3970              	.LASF197:
 3971 0add 69666372 		.ascii	"ifcr\000"
 3971      00
 3972              	.LASF176:
 3973 0ae2 63685F6D 		.ascii	"ch_memcore\000"
 3973      656D636F 
 3973      726500
 3974              	.LASF76:
 3975 0aed 49534552 		.ascii	"ISER\000"
 3975      00
 3976              	.LASF157:
 3977 0af2 6F66665F 		.ascii	"off_flags\000"
 3977      666C6167 
 3977      7300
 3978              	.LASF167:
 3979 0afc 6576656E 		.ascii	"events\000"
 3979      747300
 3980              	.LASF51:
 3981 0b03 6E657874 		.ascii	"next\000"
ARM GAS  /var/folders/vd/czx34qs52cd_f3nb04sxmghc0000gn/T//ccMYOG2x.s 			page 80


 3981      00
 3982              	.LASF54:
 3983 0b08 70726576 		.ascii	"prev\000"
 3983      00
 3984              	.LASF184:
 3985 0b0d 63685F64 		.ascii	"ch_dyn_list\000"
 3985      796E5F6C 
 3985      69737400 
 3986              	.LASF143:
 3987 0b19 6964656E 		.ascii	"identifier\000"
 3987      74696669 
 3987      657200
 3988              		.ident	"GCC: (GNU Tools for Arm Embedded Processors 7-2017-q4-major) 7.2.1 20170904 (release) [ARM
ARM GAS  /var/folders/vd/czx34qs52cd_f3nb04sxmghc0000gn/T//ccMYOG2x.s 			page 81


DEFINED SYMBOLS
                            *ABS*:0000000000000000 nvic.c
/var/folders/vd/czx34qs52cd_f3nb04sxmghc0000gn/T//ccMYOG2x.s:16     .text.nvicEnableVector:0000000000000000 $t
/var/folders/vd/czx34qs52cd_f3nb04sxmghc0000gn/T//ccMYOG2x.s:24     .text.nvicEnableVector:0000000000000000 nvicEnableVector
/var/folders/vd/czx34qs52cd_f3nb04sxmghc0000gn/T//ccMYOG2x.s:70     .text.nvicDisableVector:0000000000000000 $t
/var/folders/vd/czx34qs52cd_f3nb04sxmghc0000gn/T//ccMYOG2x.s:78     .text.nvicDisableVector:0000000000000000 nvicDisableVector
/var/folders/vd/czx34qs52cd_f3nb04sxmghc0000gn/T//ccMYOG2x.s:116    .text.nvicDisableVector:0000000000000020 $d
/var/folders/vd/czx34qs52cd_f3nb04sxmghc0000gn/T//ccMYOG2x.s:121    .text.nvicSetSystemHandlerPriority:0000000000000000 $t
/var/folders/vd/czx34qs52cd_f3nb04sxmghc0000gn/T//ccMYOG2x.s:129    .text.nvicSetSystemHandlerPriority:0000000000000000 nvicSetSystemHandlerPriority
/var/folders/vd/czx34qs52cd_f3nb04sxmghc0000gn/T//ccMYOG2x.s:152    .text.nvicClearPending:0000000000000000 $t
/var/folders/vd/czx34qs52cd_f3nb04sxmghc0000gn/T//ccMYOG2x.s:160    .text.nvicClearPending:0000000000000000 nvicClearPending
/var/folders/vd/czx34qs52cd_f3nb04sxmghc0000gn/T//ccMYOG2x.s:182    .text.nvicClearPending:0000000000000018 $d

NO UNDEFINED SYMBOLS
