ARM GAS  /var/folders/vd/czx34qs52cd_f3nb04sxmghc0000gn/T//ccA2UiKd.s 			page 1


   1              		.cpu cortex-m4
   2              		.eabi_attribute 20, 1
   3              		.eabi_attribute 21, 1
   4              		.eabi_attribute 23, 3
   5              		.eabi_attribute 24, 1
   6              		.eabi_attribute 25, 1
   7              		.eabi_attribute 26, 1
   8              		.eabi_attribute 30, 2
   9              		.eabi_attribute 34, 1
  10              		.eabi_attribute 18, 4
  11              		.file	"port_to_string.cpp"
  12              		.text
  13              	.Ltext0:
  14              		.cfi_sections	.debug_frame
  15              		.section	.text._Z12portToStringP12stm32_gpio_tmPc,"ax",%progbits
  16              		.align	1
  17              		.p2align 4,,15
  18              		.global	_Z12portToStringP12stm32_gpio_tmPc
  19              		.syntax unified
  20              		.thumb
  21              		.thumb_func
  22              		.fpu softvfp
  23              		.type	_Z12portToStringP12stm32_gpio_tmPc, %function
  24              	_Z12portToStringP12stm32_gpio_tmPc:
  25              	.LFB506:
  26              		.file 1 "../dev/common/port_to_string.cpp"
  27              		.loc 1 3 0
  28              		.cfi_startproc
  29              		@ args = 0, pretend = 0, frame = 0
  30              		@ frame_needed = 0, uses_anonymous_args = 0
  31              		@ link register save eliminated.
  32              	.LVL0:
  33              		.loc 1 5 0
  34 0000 224B     		ldr	r3, .L21
  35              		.loc 1 3 0
  36 0002 10B4     		push	{r4}
  37              		.cfi_def_cfa_offset 4
  38              		.cfi_offset 4, -4
  39              		.loc 1 5 0
  40 0004 9842     		cmp	r0, r3
  41              		.loc 1 4 0
  42 0006 4FF05004 		mov	r4, #80
  43 000a 1470     		strb	r4, [r2]
  44              		.loc 1 5 0
  45 000c 2BD0     		beq	.L14
  46              		.loc 1 7 0
  47 000e 204B     		ldr	r3, .L21+4
  48 0010 9842     		cmp	r0, r3
  49 0012 14D0     		beq	.L15
  50              		.loc 1 9 0
  51 0014 1F4B     		ldr	r3, .L21+8
  52 0016 9842     		cmp	r0, r3
  53 0018 2BD0     		beq	.L16
  54              		.loc 1 11 0
  55 001a 1F4B     		ldr	r3, .L21+12
  56 001c 9842     		cmp	r0, r3
  57 001e 2BD0     		beq	.L17
ARM GAS  /var/folders/vd/czx34qs52cd_f3nb04sxmghc0000gn/T//ccA2UiKd.s 			page 2


  58              		.loc 1 13 0
  59 0020 1E4B     		ldr	r3, .L21+16
  60 0022 9842     		cmp	r0, r3
  61 0024 22D0     		beq	.L18
  62              		.loc 1 15 0
  63 0026 1E4B     		ldr	r3, .L21+20
  64 0028 9842     		cmp	r0, r3
  65 002a 28D0     		beq	.L19
  66              		.loc 1 17 0
  67 002c 1D4B     		ldr	r3, .L21+24
  68 002e 9842     		cmp	r0, r3
  69 0030 28D0     		beq	.L20
  70              		.loc 1 19 0
  71 0032 1D4B     		ldr	r3, .L21+28
  72 0034 9842     		cmp	r0, r3
  73              		.loc 1 20 0
  74 0036 04BF     		itt	eq
  75 0038 4823     		moveq	r3, #72
  76 003a 5370     		strbeq	r3, [r2, #1]
  77 003c 01E0     		b	.L3
  78              	.L15:
  79              		.loc 1 8 0
  80 003e 4223     		movs	r3, #66
  81 0040 5370     		strb	r3, [r2, #1]
  82              	.L3:
  83              		.loc 1 23 0
  84 0042 1A4B     		ldr	r3, .L21+32
  85              		.loc 1 24 0
  86 0044 10BC     		pop	{r4}
  87              		.cfi_remember_state
  88              		.cfi_restore 4
  89              		.cfi_def_cfa_offset 0
  90              		.loc 1 23 0
  91 0046 A3FB0103 		umull	r0, r3, r3, r1
  92              	.LVL1:
  93 004a DB08     		lsrs	r3, r3, #3
  94 004c 03EB8303 		add	r3, r3, r3, lsl #2
  95 0050 A1EB4303 		sub	r3, r1, r3, lsl #1
  96              		.loc 1 22 0
  97 0054 0929     		cmp	r1, #9
  98              		.loc 1 23 0
  99 0056 03F13003 		add	r3, r3, #48
 100              		.loc 1 22 0
 101 005a 8CBF     		ite	hi
 102 005c 3121     		movhi	r1, #49
 103              	.LVL2:
 104 005e 3021     		movls	r1, #48
 105              		.loc 1 23 0
 106 0060 D370     		strb	r3, [r2, #3]
 107              		.loc 1 22 0
 108 0062 9170     		strb	r1, [r2, #2]
 109              		.loc 1 24 0
 110 0064 7047     		bx	lr
 111              	.LVL3:
 112              	.L14:
 113              		.cfi_restore_state
 114              		.loc 1 6 0
ARM GAS  /var/folders/vd/czx34qs52cd_f3nb04sxmghc0000gn/T//ccA2UiKd.s 			page 3


 115 0066 4123     		movs	r3, #65
 116 0068 5370     		strb	r3, [r2, #1]
 117 006a EAE7     		b	.L3
 118              	.L18:
 119              		.loc 1 14 0
 120 006c 4523     		movs	r3, #69
 121 006e 5370     		strb	r3, [r2, #1]
 122 0070 E7E7     		b	.L3
 123              	.L16:
 124              		.loc 1 10 0
 125 0072 4323     		movs	r3, #67
 126 0074 5370     		strb	r3, [r2, #1]
 127 0076 E4E7     		b	.L3
 128              	.L17:
 129              		.loc 1 12 0
 130 0078 4423     		movs	r3, #68
 131 007a 5370     		strb	r3, [r2, #1]
 132 007c E1E7     		b	.L3
 133              	.L19:
 134              		.loc 1 16 0
 135 007e 4623     		movs	r3, #70
 136 0080 5370     		strb	r3, [r2, #1]
 137 0082 DEE7     		b	.L3
 138              	.L20:
 139              		.loc 1 18 0
 140 0084 4723     		movs	r3, #71
 141 0086 5370     		strb	r3, [r2, #1]
 142 0088 DBE7     		b	.L3
 143              	.L22:
 144 008a 00BF     		.align	2
 145              	.L21:
 146 008c 00000240 		.word	1073872896
 147 0090 00040240 		.word	1073873920
 148 0094 00080240 		.word	1073874944
 149 0098 000C0240 		.word	1073875968
 150 009c 00100240 		.word	1073876992
 151 00a0 00140240 		.word	1073878016
 152 00a4 00180240 		.word	1073879040
 153 00a8 001C0240 		.word	1073880064
 154 00ac CDCCCCCC 		.word	-858993459
 155              		.cfi_endproc
 156              	.LFE506:
 157              		.size	_Z12portToStringP12stm32_gpio_tmPc, .-_Z12portToStringP12stm32_gpio_tmPc
 158              		.text
 159              	.Letext0:
 160              		.file 2 "/usr/local/Cellar/gcc-arm-none-eabi/20171218/lib/gcc/arm-none-eabi/7.2.1/include/stddef.h
 161              		.file 3 "/usr/local/Cellar/gcc-arm-none-eabi/20171218/arm-none-eabi/include/machine/_default_types
 162              		.file 4 "/usr/local/Cellar/gcc-arm-none-eabi/20171218/arm-none-eabi/include/sys/_stdint.h"
 163              		.file 5 "../os/common/ports/ARMCMx/compilers/GCC/chtypes.h"
 164              		.file 6 "../os/rt/include/chsystypes.h"
 165              		.file 7 "../os/rt/include/chschd.h"
 166              		.file 8 "../os/rt/include/chtime.h"
 167              		.file 9 "../os/common/ext/ARM/CMSIS/Core/Include/core_cm4.h"
 168              		.file 10 "../os/common/ext/ST/STM32F4xx/system_stm32f4xx.h"
 169              		.file 11 "../os/common/ext/ST/STM32F4xx/stm32f407xx.h"
 170              		.file 12 "../os/common/ports/ARMCMx/chcore.h"
 171              		.file 13 "../os/common/ports/ARMCMx/chcore_v7m.h"
ARM GAS  /var/folders/vd/czx34qs52cd_f3nb04sxmghc0000gn/T//ccA2UiKd.s 			page 4


 172              		.file 14 "../os/hal/ports/STM32/LLD/TIMv1/stm32_tim.h"
 173              		.file 15 "../os/rt/include/chtm.h"
 174              		.file 16 "../os/rt/include/chsem.h"
 175              		.file 17 "../os/rt/include/chmtx.h"
 176              		.file 18 "../os/rt/include/chsys.h"
 177              		.file 19 "../os/rt/include/chregistry.h"
 178              		.file 20 "../os/rt/include/chevents.h"
 179              		.file 21 "../os/common/oslib/include/chmemcore.h"
 180              		.file 22 "../os/common/oslib/include/chmempools.h"
 181              		.file 23 "../os/common/oslib/include/chfactory.h"
 182              		.file 24 "../os/various/cpp_wrappers/ch.hpp"
 183              		.file 25 "../os/hal/ports/STM32/LLD/DMAv2/stm32_dma.h"
 184              		.file 26 "../os/hal/include/hal_queues.h"
 185              		.file 27 "../os/hal/include/hal_pal.h"
 186              		.file 28 "../os/hal/ports/STM32/LLD/GPIOv2/stm32_gpio.h"
 187              		.file 29 "../os/hal/ports/STM32/LLD/GPIOv2/hal_pal_lld.h"
 188              		.file 30 "../os/hal/include/hal_pwm.h"
 189              		.file 31 "../os/hal/ports/STM32/LLD/TIMv1/hal_pwm_lld.h"
 190              		.file 32 "../os/hal/include/hal_serial.h"
 191              		.file 33 "../os/hal/ports/STM32/LLD/USARTv1/hal_serial_lld.h"
 192              		.section	.debug_info,"",%progbits
 193              	.Ldebug_info0:
 194 0000 18150000 		.4byte	0x1518
 195 0004 0400     		.2byte	0x4
 196 0006 00000000 		.4byte	.Ldebug_abbrev0
 197 000a 04       		.byte	0x4
 198 000b 01       		.uleb128 0x1
 199 000c D60D0000 		.4byte	.LASF285
 200 0010 04       		.byte	0x4
 201 0011 A90D0000 		.4byte	.LASF286
 202 0015 A20C0000 		.4byte	.LASF287
 203 0019 00000000 		.4byte	.Ldebug_ranges0+0
 204 001d 00000000 		.4byte	0
 205 0021 00000000 		.4byte	.Ldebug_line0
 206 0025 02       		.uleb128 0x2
 207 0026 04       		.byte	0x4
 208 0027 05       		.byte	0x5
 209 0028 696E7400 		.ascii	"int\000"
 210 002c 03       		.uleb128 0x3
 211 002d 27000000 		.4byte	.LASF4
 212 0031 02       		.byte	0x2
 213 0032 D8       		.byte	0xd8
 214 0033 3C000000 		.4byte	0x3c
 215 0037 04       		.uleb128 0x4
 216 0038 2C000000 		.4byte	0x2c
 217 003c 05       		.uleb128 0x5
 218 003d 04       		.byte	0x4
 219 003e 07       		.byte	0x7
 220 003f 64080000 		.4byte	.LASF0
 221 0043 05       		.uleb128 0x5
 222 0044 08       		.byte	0x8
 223 0045 05       		.byte	0x5
 224 0046 E7060000 		.4byte	.LASF1
 225 004a 05       		.uleb128 0x5
 226 004b 08       		.byte	0x8
 227 004c 04       		.byte	0x4
 228 004d 1E090000 		.4byte	.LASF2
ARM GAS  /var/folders/vd/czx34qs52cd_f3nb04sxmghc0000gn/T//ccA2UiKd.s 			page 5


 229 0051 06       		.uleb128 0x6
 230 0052 71040000 		.4byte	.LASF288
 231 0056 05       		.uleb128 0x5
 232 0057 01       		.byte	0x1
 233 0058 06       		.byte	0x6
 234 0059 06030000 		.4byte	.LASF3
 235 005d 03       		.uleb128 0x3
 236 005e A5010000 		.4byte	.LASF5
 237 0062 03       		.byte	0x3
 238 0063 2B       		.byte	0x2b
 239 0064 68000000 		.4byte	0x68
 240 0068 05       		.uleb128 0x5
 241 0069 01       		.byte	0x1
 242 006a 08       		.byte	0x8
 243 006b 6B030000 		.4byte	.LASF6
 244 006f 05       		.uleb128 0x5
 245 0070 02       		.byte	0x2
 246 0071 05       		.byte	0x5
 247 0072 A70B0000 		.4byte	.LASF7
 248 0076 03       		.uleb128 0x3
 249 0077 27040000 		.4byte	.LASF8
 250 007b 03       		.byte	0x3
 251 007c 39       		.byte	0x39
 252 007d 81000000 		.4byte	0x81
 253 0081 05       		.uleb128 0x5
 254 0082 02       		.byte	0x2
 255 0083 07       		.byte	0x7
 256 0084 240D0000 		.4byte	.LASF9
 257 0088 03       		.uleb128 0x3
 258 0089 650D0000 		.4byte	.LASF10
 259 008d 03       		.byte	0x3
 260 008e 4D       		.byte	0x4d
 261 008f 93000000 		.4byte	0x93
 262 0093 05       		.uleb128 0x5
 263 0094 04       		.byte	0x4
 264 0095 05       		.byte	0x5
 265 0096 02020000 		.4byte	.LASF11
 266 009a 03       		.uleb128 0x3
 267 009b C9060000 		.4byte	.LASF12
 268 009f 03       		.byte	0x3
 269 00a0 4F       		.byte	0x4f
 270 00a1 A5000000 		.4byte	0xa5
 271 00a5 05       		.uleb128 0x5
 272 00a6 04       		.byte	0x4
 273 00a7 07       		.byte	0x7
 274 00a8 78050000 		.4byte	.LASF13
 275 00ac 03       		.uleb128 0x3
 276 00ad 63050000 		.4byte	.LASF14
 277 00b1 03       		.byte	0x3
 278 00b2 69       		.byte	0x69
 279 00b3 B7000000 		.4byte	0xb7
 280 00b7 05       		.uleb128 0x5
 281 00b8 08       		.byte	0x8
 282 00b9 07       		.byte	0x7
 283 00ba CA090000 		.4byte	.LASF15
 284 00be 03       		.uleb128 0x3
 285 00bf 19030000 		.4byte	.LASF16
ARM GAS  /var/folders/vd/czx34qs52cd_f3nb04sxmghc0000gn/T//ccA2UiKd.s 			page 6


 286 00c3 04       		.byte	0x4
 287 00c4 18       		.byte	0x18
 288 00c5 5D000000 		.4byte	0x5d
 289 00c9 07       		.uleb128 0x7
 290 00ca BE000000 		.4byte	0xbe
 291 00ce 03       		.uleb128 0x3
 292 00cf EA090000 		.4byte	.LASF17
 293 00d3 04       		.byte	0x4
 294 00d4 24       		.byte	0x24
 295 00d5 76000000 		.4byte	0x76
 296 00d9 03       		.uleb128 0x3
 297 00da 7B000000 		.4byte	.LASF18
 298 00de 04       		.byte	0x4
 299 00df 2C       		.byte	0x2c
 300 00e0 88000000 		.4byte	0x88
 301 00e4 04       		.uleb128 0x4
 302 00e5 D9000000 		.4byte	0xd9
 303 00e9 03       		.uleb128 0x3
 304 00ea 990C0000 		.4byte	.LASF19
 305 00ee 04       		.byte	0x4
 306 00ef 30       		.byte	0x30
 307 00f0 9A000000 		.4byte	0x9a
 308 00f4 04       		.uleb128 0x4
 309 00f5 E9000000 		.4byte	0xe9
 310 00f9 03       		.uleb128 0x3
 311 00fa BE0B0000 		.4byte	.LASF20
 312 00fe 04       		.byte	0x4
 313 00ff 3C       		.byte	0x3c
 314 0100 AC000000 		.4byte	0xac
 315 0104 03       		.uleb128 0x3
 316 0105 71080000 		.4byte	.LASF21
 317 0109 05       		.byte	0x5
 318 010a 39       		.byte	0x39
 319 010b E9000000 		.4byte	0xe9
 320 010f 03       		.uleb128 0x3
 321 0110 210B0000 		.4byte	.LASF22
 322 0114 05       		.byte	0x5
 323 0115 3C       		.byte	0x3c
 324 0116 BE000000 		.4byte	0xbe
 325 011a 03       		.uleb128 0x3
 326 011b 66020000 		.4byte	.LASF23
 327 011f 05       		.byte	0x5
 328 0120 3D       		.byte	0x3d
 329 0121 BE000000 		.4byte	0xbe
 330 0125 03       		.uleb128 0x3
 331 0126 4F0C0000 		.4byte	.LASF24
 332 012a 05       		.byte	0x5
 333 012b 3E       		.byte	0x3e
 334 012c BE000000 		.4byte	0xbe
 335 0130 03       		.uleb128 0x3
 336 0131 61000000 		.4byte	.LASF25
 337 0135 05       		.byte	0x5
 338 0136 40       		.byte	0x40
 339 0137 E9000000 		.4byte	0xe9
 340 013b 03       		.uleb128 0x3
 341 013c 0B0A0000 		.4byte	.LASF26
 342 0140 05       		.byte	0x5
ARM GAS  /var/folders/vd/czx34qs52cd_f3nb04sxmghc0000gn/T//ccA2UiKd.s 			page 7


 343 0141 41       		.byte	0x41
 344 0142 D9000000 		.4byte	0xd9
 345 0146 03       		.uleb128 0x3
 346 0147 50030000 		.4byte	.LASF27
 347 014b 05       		.byte	0x5
 348 014c 43       		.byte	0x43
 349 014d E9000000 		.4byte	0xe9
 350 0151 03       		.uleb128 0x3
 351 0152 530A0000 		.4byte	.LASF28
 352 0156 05       		.byte	0x5
 353 0157 44       		.byte	0x44
 354 0158 E9000000 		.4byte	0xe9
 355 015c 03       		.uleb128 0x3
 356 015d FA040000 		.4byte	.LASF29
 357 0161 05       		.byte	0x5
 358 0162 45       		.byte	0x45
 359 0163 D9000000 		.4byte	0xd9
 360 0167 03       		.uleb128 0x3
 361 0168 8B060000 		.4byte	.LASF30
 362 016c 05       		.byte	0x5
 363 016d 46       		.byte	0x46
 364 016e E9000000 		.4byte	0xe9
 365 0172 03       		.uleb128 0x3
 366 0173 15090000 		.4byte	.LASF31
 367 0177 06       		.byte	0x6
 368 0178 34       		.byte	0x34
 369 0179 7D010000 		.4byte	0x17d
 370 017d 08       		.uleb128 0x8
 371 017e B7050000 		.4byte	.LASF57
 372 0182 44       		.byte	0x44
 373 0183 07       		.byte	0x7
 374 0184 8E       		.byte	0x8e
 375 0185 BD020000 		.4byte	0x2bd
 376 0189 09       		.uleb128 0x9
 377 018a 04       		.byte	0x4
 378 018b 07       		.byte	0x7
 379 018c C6       		.byte	0xc6
 380 018d EB010000 		.4byte	0x1eb
 381 0191 0A       		.uleb128 0xa
 382 0192 150D0000 		.4byte	.LASF32
 383 0196 07       		.byte	0x7
 384 0197 CD       		.byte	0xcd
 385 0198 3B010000 		.4byte	0x13b
 386 019c 0A       		.uleb128 0xa
 387 019d 9C010000 		.4byte	.LASF33
 388 01a1 07       		.byte	0x7
 389 01a2 D4       		.byte	0xd4
 390 01a3 3B010000 		.4byte	0x13b
 391 01a7 0A       		.uleb128 0xa
 392 01a8 32040000 		.4byte	.LASF34
 393 01ac 07       		.byte	0x7
 394 01ad DB       		.byte	0xdb
 395 01ae A5030000 		.4byte	0x3a5
 396 01b2 0A       		.uleb128 0xa
 397 01b3 5C030000 		.4byte	.LASF35
 398 01b7 07       		.byte	0x7
 399 01b8 E2       		.byte	0xe2
ARM GAS  /var/folders/vd/czx34qs52cd_f3nb04sxmghc0000gn/T//ccA2UiKd.s 			page 8


 400 01b9 2E080000 		.4byte	0x82e
 401 01bd 0A       		.uleb128 0xa
 402 01be 4F090000 		.4byte	.LASF36
 403 01c2 07       		.byte	0x7
 404 01c3 E7       		.byte	0xe7
 405 01c4 3B010000 		.4byte	0x13b
 406 01c8 0A       		.uleb128 0xa
 407 01c9 3E000000 		.4byte	.LASF37
 408 01cd 07       		.byte	0x7
 409 01ce F0       		.byte	0xf0
 410 01cf 59080000 		.4byte	0x859
 411 01d3 0A       		.uleb128 0xa
 412 01d4 15050000 		.4byte	.LASF38
 413 01d8 07       		.byte	0x7
 414 01d9 F9       		.byte	0xf9
 415 01da 90080000 		.4byte	0x890
 416 01de 0B       		.uleb128 0xb
 417 01df 12030000 		.4byte	.LASF39
 418 01e3 07       		.byte	0x7
 419 01e4 0101     		.2byte	0x101
 420 01e6 46010000 		.4byte	0x146
 421 01ea 00       		.byte	0
 422 01eb 0C       		.uleb128 0xc
 423 01ec 750A0000 		.4byte	.LASF40
 424 01f0 07       		.byte	0x7
 425 01f1 8F       		.byte	0x8f
 426 01f2 F2020000 		.4byte	0x2f2
 427 01f6 00       		.byte	0
 428 01f7 0C       		.uleb128 0xc
 429 01f8 97010000 		.4byte	.LASF41
 430 01fc 07       		.byte	0x7
 431 01fd 90       		.byte	0x90
 432 01fe 30010000 		.4byte	0x130
 433 0202 08       		.byte	0x8
 434 0203 0D       		.uleb128 0xd
 435 0204 63747800 		.ascii	"ctx\000"
 436 0208 07       		.byte	0x7
 437 0209 91       		.byte	0x91
 438 020a 54060000 		.4byte	0x654
 439 020e 0C       		.byte	0xc
 440 020f 0C       		.uleb128 0xc
 441 0210 8E0C0000 		.4byte	.LASF42
 442 0214 07       		.byte	0x7
 443 0215 93       		.byte	0x93
 444 0216 C8020000 		.4byte	0x2c8
 445 021a 10       		.byte	0x10
 446 021b 0C       		.uleb128 0xc
 447 021c 60060000 		.4byte	.LASF43
 448 0220 07       		.byte	0x7
 449 0221 94       		.byte	0x94
 450 0222 C8020000 		.4byte	0x2c8
 451 0226 14       		.byte	0x14
 452 0227 0C       		.uleb128 0xc
 453 0228 520B0000 		.4byte	.LASF44
 454 022c 07       		.byte	0x7
 455 022d 9B       		.byte	0x9b
 456 022e 96080000 		.4byte	0x896
ARM GAS  /var/folders/vd/czx34qs52cd_f3nb04sxmghc0000gn/T//ccA2UiKd.s 			page 9


 457 0232 18       		.byte	0x18
 458 0233 0C       		.uleb128 0xc
 459 0234 E80A0000 		.4byte	.LASF45
 460 0238 07       		.byte	0x7
 461 0239 A4       		.byte	0xa4
 462 023a AD080000 		.4byte	0x8ad
 463 023e 1C       		.byte	0x1c
 464 023f 0C       		.uleb128 0xc
 465 0240 20010000 		.4byte	.LASF46
 466 0244 07       		.byte	0x7
 467 0245 A9       		.byte	0xa9
 468 0246 1A010000 		.4byte	0x11a
 469 024a 20       		.byte	0x20
 470 024b 0C       		.uleb128 0xc
 471 024c 6B040000 		.4byte	.LASF47
 472 0250 07       		.byte	0x7
 473 0251 AD       		.byte	0xad
 474 0252 0F010000 		.4byte	0x10f
 475 0256 21       		.byte	0x21
 476 0257 0C       		.uleb128 0xc
 477 0258 700A0000 		.4byte	.LASF48
 478 025c 07       		.byte	0x7
 479 025d B2       		.byte	0xb2
 480 025e 25010000 		.4byte	0x125
 481 0262 22       		.byte	0x22
 482 0263 0E       		.uleb128 0xe
 483 0264 7500     		.ascii	"u\000"
 484 0266 07       		.byte	0x7
 485 0267 0301     		.2byte	0x103
 486 0269 89010000 		.4byte	0x189
 487 026d 24       		.byte	0x24
 488 026e 0F       		.uleb128 0xf
 489 026f 350C0000 		.4byte	.LASF49
 490 0273 07       		.byte	0x7
 491 0274 0801     		.2byte	0x108
 492 0276 CE020000 		.4byte	0x2ce
 493 027a 28       		.byte	0x28
 494 027b 0F       		.uleb128 0xf
 495 027c DA0B0000 		.4byte	.LASF50
 496 0280 07       		.byte	0x7
 497 0281 0E01     		.2byte	0x10e
 498 0283 F2020000 		.4byte	0x2f2
 499 0287 2C       		.byte	0x2c
 500 0288 0F       		.uleb128 0xf
 501 0289 6F020000 		.4byte	.LASF51
 502 028d 07       		.byte	0x7
 503 028e 1401     		.2byte	0x114
 504 0290 46010000 		.4byte	0x146
 505 0294 34       		.byte	0x34
 506 0295 0F       		.uleb128 0xf
 507 0296 D4060000 		.4byte	.LASF52
 508 029a 07       		.byte	0x7
 509 029b 1B01     		.2byte	0x11b
 510 029d 90080000 		.4byte	0x890
 511 02a1 38       		.byte	0x38
 512 02a2 0F       		.uleb128 0xf
 513 02a3 76060000 		.4byte	.LASF53
ARM GAS  /var/folders/vd/czx34qs52cd_f3nb04sxmghc0000gn/T//ccA2UiKd.s 			page 10


 514 02a7 07       		.byte	0x7
 515 02a8 1F01     		.2byte	0x11f
 516 02aa 30010000 		.4byte	0x130
 517 02ae 3C       		.byte	0x3c
 518 02af 0F       		.uleb128 0xf
 519 02b0 AF040000 		.4byte	.LASF54
 520 02b4 07       		.byte	0x7
 521 02b5 2601     		.2byte	0x126
 522 02b7 A5030000 		.4byte	0x3a5
 523 02bb 40       		.byte	0x40
 524 02bc 00       		.byte	0
 525 02bd 03       		.uleb128 0x3
 526 02be 31090000 		.4byte	.LASF55
 527 02c2 06       		.byte	0x6
 528 02c3 39       		.byte	0x39
 529 02c4 C8020000 		.4byte	0x2c8
 530 02c8 10       		.uleb128 0x10
 531 02c9 04       		.byte	0x4
 532 02ca 72010000 		.4byte	0x172
 533 02ce 03       		.uleb128 0x3
 534 02cf 640C0000 		.4byte	.LASF56
 535 02d3 06       		.byte	0x6
 536 02d4 3E       		.byte	0x3e
 537 02d5 D9020000 		.4byte	0x2d9
 538 02d9 08       		.uleb128 0x8
 539 02da B1060000 		.4byte	.LASF58
 540 02de 04       		.byte	0x4
 541 02df 07       		.byte	0x7
 542 02e0 7C       		.byte	0x7c
 543 02e1 F2020000 		.4byte	0x2f2
 544 02e5 0C       		.uleb128 0xc
 545 02e6 D10D0000 		.4byte	.LASF59
 546 02ea 07       		.byte	0x7
 547 02eb 7D       		.byte	0x7d
 548 02ec C8020000 		.4byte	0x2c8
 549 02f0 00       		.byte	0
 550 02f1 00       		.byte	0
 551 02f2 03       		.uleb128 0x3
 552 02f3 78020000 		.4byte	.LASF60
 553 02f7 06       		.byte	0x6
 554 02f8 45       		.byte	0x45
 555 02f9 FD020000 		.4byte	0x2fd
 556 02fd 08       		.uleb128 0x8
 557 02fe 110A0000 		.4byte	.LASF61
 558 0302 08       		.byte	0x8
 559 0303 07       		.byte	0x7
 560 0304 83       		.byte	0x83
 561 0305 22030000 		.4byte	0x322
 562 0309 0C       		.uleb128 0xc
 563 030a D10D0000 		.4byte	.LASF59
 564 030e 07       		.byte	0x7
 565 030f 84       		.byte	0x84
 566 0310 C8020000 		.4byte	0x2c8
 567 0314 00       		.byte	0
 568 0315 0C       		.uleb128 0xc
 569 0316 D90E0000 		.4byte	.LASF62
 570 031a 07       		.byte	0x7
ARM GAS  /var/folders/vd/czx34qs52cd_f3nb04sxmghc0000gn/T//ccA2UiKd.s 			page 11


 571 031b 85       		.byte	0x85
 572 031c C8020000 		.4byte	0x2c8
 573 0320 04       		.byte	0x4
 574 0321 00       		.byte	0
 575 0322 03       		.uleb128 0x3
 576 0323 53060000 		.4byte	.LASF63
 577 0327 06       		.byte	0x6
 578 0328 4C       		.byte	0x4c
 579 0329 2D030000 		.4byte	0x32d
 580 032d 11       		.uleb128 0x11
 581 032e 1C050000 		.4byte	.LASF64
 582 0332 1C       		.byte	0x1c
 583 0333 07       		.byte	0x7
 584 0334 5E01     		.2byte	0x15e
 585 0336 89030000 		.4byte	0x389
 586 033a 0F       		.uleb128 0xf
 587 033b 750A0000 		.4byte	.LASF40
 588 033f 07       		.byte	0x7
 589 0340 5F01     		.2byte	0x15f
 590 0342 F2020000 		.4byte	0x2f2
 591 0346 00       		.byte	0
 592 0347 0F       		.uleb128 0xf
 593 0348 97010000 		.4byte	.LASF41
 594 034c 07       		.byte	0x7
 595 034d 6001     		.2byte	0x160
 596 034f 30010000 		.4byte	0x130
 597 0353 08       		.byte	0x8
 598 0354 0E       		.uleb128 0xe
 599 0355 63747800 		.ascii	"ctx\000"
 600 0359 07       		.byte	0x7
 601 035a 6201     		.2byte	0x162
 602 035c 54060000 		.4byte	0x654
 603 0360 0C       		.byte	0xc
 604 0361 0F       		.uleb128 0xf
 605 0362 8E0C0000 		.4byte	.LASF42
 606 0366 07       		.byte	0x7
 607 0367 6501     		.2byte	0x165
 608 0369 C8020000 		.4byte	0x2c8
 609 036d 10       		.byte	0x10
 610 036e 0F       		.uleb128 0xf
 611 036f 60060000 		.4byte	.LASF43
 612 0373 07       		.byte	0x7
 613 0374 6601     		.2byte	0x166
 614 0376 C8020000 		.4byte	0x2c8
 615 037a 14       		.byte	0x14
 616 037b 0F       		.uleb128 0xf
 617 037c 9B080000 		.4byte	.LASF65
 618 0380 07       		.byte	0x7
 619 0381 6901     		.2byte	0x169
 620 0383 C8020000 		.4byte	0x2c8
 621 0387 18       		.byte	0x18
 622 0388 00       		.byte	0
 623 0389 03       		.uleb128 0x3
 624 038a 8A000000 		.4byte	.LASF66
 625 038e 06       		.byte	0x6
 626 038f 51       		.byte	0x51
 627 0390 94030000 		.4byte	0x394
ARM GAS  /var/folders/vd/czx34qs52cd_f3nb04sxmghc0000gn/T//ccA2UiKd.s 			page 12


 628 0394 10       		.uleb128 0x10
 629 0395 04       		.byte	0x4
 630 0396 9A030000 		.4byte	0x39a
 631 039a 12       		.uleb128 0x12
 632 039b A5030000 		.4byte	0x3a5
 633 039f 13       		.uleb128 0x13
 634 03a0 A5030000 		.4byte	0x3a5
 635 03a4 00       		.byte	0
 636 03a5 14       		.uleb128 0x14
 637 03a6 04       		.byte	0x4
 638 03a7 03       		.uleb128 0x3
 639 03a8 43060000 		.4byte	.LASF67
 640 03ac 06       		.byte	0x6
 641 03ad 56       		.byte	0x56
 642 03ae B2030000 		.4byte	0x3b2
 643 03b2 11       		.uleb128 0x11
 644 03b3 A1090000 		.4byte	.LASF68
 645 03b7 14       		.byte	0x14
 646 03b8 07       		.byte	0x7
 647 03b9 3901     		.2byte	0x139
 648 03bb 01040000 		.4byte	0x401
 649 03bf 0F       		.uleb128 0xf
 650 03c0 D10D0000 		.4byte	.LASF59
 651 03c4 07       		.byte	0x7
 652 03c5 3A01     		.2byte	0x13a
 653 03c7 B3080000 		.4byte	0x8b3
 654 03cb 00       		.byte	0
 655 03cc 0F       		.uleb128 0xf
 656 03cd D90E0000 		.4byte	.LASF62
 657 03d1 07       		.byte	0x7
 658 03d2 3B01     		.2byte	0x13b
 659 03d4 B3080000 		.4byte	0x8b3
 660 03d8 04       		.byte	0x4
 661 03d9 0F       		.uleb128 0xf
 662 03da 650A0000 		.4byte	.LASF69
 663 03de 07       		.byte	0x7
 664 03df 3C01     		.2byte	0x13c
 665 03e1 D8040000 		.4byte	0x4d8
 666 03e5 08       		.byte	0x8
 667 03e6 0F       		.uleb128 0xf
 668 03e7 CC0B0000 		.4byte	.LASF70
 669 03eb 07       		.byte	0x7
 670 03ec 3D01     		.2byte	0x13d
 671 03ee 89030000 		.4byte	0x389
 672 03f2 0C       		.byte	0xc
 673 03f3 0E       		.uleb128 0xe
 674 03f4 70617200 		.ascii	"par\000"
 675 03f8 07       		.byte	0x7
 676 03f9 3F01     		.2byte	0x13f
 677 03fb A5030000 		.4byte	0x3a5
 678 03ff 10       		.byte	0x10
 679 0400 00       		.byte	0
 680 0401 03       		.uleb128 0x3
 681 0402 F3050000 		.4byte	.LASF71
 682 0406 06       		.byte	0x6
 683 0407 5B       		.byte	0x5b
 684 0408 0C040000 		.4byte	0x40c
ARM GAS  /var/folders/vd/czx34qs52cd_f3nb04sxmghc0000gn/T//ccA2UiKd.s 			page 13


 685 040c 11       		.uleb128 0x11
 686 040d 93000000 		.4byte	.LASF72
 687 0411 10       		.byte	0x10
 688 0412 07       		.byte	0x7
 689 0413 4901     		.2byte	0x149
 690 0415 4E040000 		.4byte	0x44e
 691 0419 0F       		.uleb128 0xf
 692 041a D10D0000 		.4byte	.LASF59
 693 041e 07       		.byte	0x7
 694 041f 4A01     		.2byte	0x14a
 695 0421 B3080000 		.4byte	0x8b3
 696 0425 00       		.byte	0
 697 0426 0F       		.uleb128 0xf
 698 0427 D90E0000 		.4byte	.LASF62
 699 042b 07       		.byte	0x7
 700 042c 4C01     		.2byte	0x14c
 701 042e B3080000 		.4byte	0x8b3
 702 0432 04       		.byte	0x4
 703 0433 0F       		.uleb128 0xf
 704 0434 650A0000 		.4byte	.LASF69
 705 0438 07       		.byte	0x7
 706 0439 4E01     		.2byte	0x14e
 707 043b D8040000 		.4byte	0x4d8
 708 043f 08       		.byte	0x8
 709 0440 0F       		.uleb128 0xf
 710 0441 80030000 		.4byte	.LASF73
 711 0445 07       		.byte	0x7
 712 0446 5601     		.2byte	0x156
 713 0448 CD040000 		.4byte	0x4cd
 714 044c 0C       		.byte	0xc
 715 044d 00       		.byte	0
 716 044e 03       		.uleb128 0x3
 717 044f BB030000 		.4byte	.LASF74
 718 0453 06       		.byte	0x6
 719 0454 60       		.byte	0x60
 720 0455 59040000 		.4byte	0x459
 721 0459 11       		.uleb128 0x11
 722 045a EA0B0000 		.4byte	.LASF75
 723 045e 04       		.byte	0x4
 724 045f 07       		.byte	0x7
 725 0460 7001     		.2byte	0x170
 726 0462 74040000 		.4byte	0x474
 727 0466 0F       		.uleb128 0xf
 728 0467 A1030000 		.4byte	.LASF76
 729 046b 07       		.byte	0x7
 730 046c 7801     		.2byte	0x178
 731 046e 9C080000 		.4byte	0x89c
 732 0472 00       		.byte	0
 733 0473 00       		.byte	0
 734 0474 03       		.uleb128 0x3
 735 0475 370D0000 		.4byte	.LASF77
 736 0479 06       		.byte	0x6
 737 047a 65       		.byte	0x65
 738 047b 7F040000 		.4byte	0x47f
 739 047f 11       		.uleb128 0x11
 740 0480 790C0000 		.4byte	.LASF78
 741 0484 78       		.byte	0x78
ARM GAS  /var/folders/vd/czx34qs52cd_f3nb04sxmghc0000gn/T//ccA2UiKd.s 			page 14


 742 0485 07       		.byte	0x7
 743 0486 9001     		.2byte	0x190
 744 0488 CD040000 		.4byte	0x4cd
 745 048c 0F       		.uleb128 0xf
 746 048d 1B0B0000 		.4byte	.LASF79
 747 0491 07       		.byte	0x7
 748 0492 9401     		.2byte	0x194
 749 0494 22030000 		.4byte	0x322
 750 0498 00       		.byte	0
 751 0499 0F       		.uleb128 0xf
 752 049a 2E0C0000 		.4byte	.LASF80
 753 049e 07       		.byte	0x7
 754 049f 9801     		.2byte	0x198
 755 04a1 01040000 		.4byte	0x401
 756 04a5 1C       		.byte	0x1c
 757 04a6 0E       		.uleb128 0xe
 758 04a7 64626700 		.ascii	"dbg\000"
 759 04ab 07       		.byte	0x7
 760 04ac 9C01     		.2byte	0x19c
 761 04ae 4E040000 		.4byte	0x44e
 762 04b2 2C       		.byte	0x2c
 763 04b3 0F       		.uleb128 0xf
 764 04b4 960A0000 		.4byte	.LASF81
 765 04b8 07       		.byte	0x7
 766 04b9 A001     		.2byte	0x1a0
 767 04bb 72010000 		.4byte	0x172
 768 04bf 30       		.byte	0x30
 769 04c0 0E       		.uleb128 0xe
 770 04c1 746D00   		.ascii	"tm\000"
 771 04c4 07       		.byte	0x7
 772 04c5 A501     		.2byte	0x1a5
 773 04c7 23080000 		.4byte	0x823
 774 04cb 74       		.byte	0x74
 775 04cc 00       		.byte	0
 776 04cd 03       		.uleb128 0x3
 777 04ce 45000000 		.4byte	.LASF82
 778 04d2 08       		.byte	0x8
 779 04d3 8C       		.byte	0x8c
 780 04d4 E9000000 		.4byte	0xe9
 781 04d8 03       		.uleb128 0x3
 782 04d9 20070000 		.4byte	.LASF83
 783 04dd 08       		.byte	0x8
 784 04de 98       		.byte	0x98
 785 04df E9000000 		.4byte	0xe9
 786 04e3 15       		.uleb128 0x15
 787 04e4 E3070000 		.4byte	.LASF84
 788 04e8 09       		.byte	0x9
 789 04e9 F407     		.2byte	0x7f4
 790 04eb E4000000 		.4byte	0xe4
 791 04ef 16       		.uleb128 0x16
 792 04f0 9A050000 		.4byte	.LASF85
 793 04f4 0A       		.byte	0xa
 794 04f5 4C       		.byte	0x4c
 795 04f6 E9000000 		.4byte	0xe9
 796 04fa 17       		.uleb128 0x17
 797 04fb C9000000 		.4byte	0xc9
 798 04ff 0A050000 		.4byte	0x50a
ARM GAS  /var/folders/vd/czx34qs52cd_f3nb04sxmghc0000gn/T//ccA2UiKd.s 			page 15


 799 0503 18       		.uleb128 0x18
 800 0504 3C000000 		.4byte	0x3c
 801 0508 0F       		.byte	0xf
 802 0509 00       		.byte	0
 803 050a 07       		.uleb128 0x7
 804 050b FA040000 		.4byte	0x4fa
 805 050f 16       		.uleb128 0x16
 806 0510 93090000 		.4byte	.LASF86
 807 0514 0A       		.byte	0xa
 808 0515 4E       		.byte	0x4e
 809 0516 0A050000 		.4byte	0x50a
 810 051a 17       		.uleb128 0x17
 811 051b C9000000 		.4byte	0xc9
 812 051f 2A050000 		.4byte	0x52a
 813 0523 18       		.uleb128 0x18
 814 0524 3C000000 		.4byte	0x3c
 815 0528 07       		.byte	0x7
 816 0529 00       		.byte	0
 817 052a 07       		.uleb128 0x7
 818 052b 1A050000 		.4byte	0x51a
 819 052f 16       		.uleb128 0x16
 820 0530 700B0000 		.4byte	.LASF87
 821 0534 0A       		.byte	0xa
 822 0535 4F       		.byte	0x4f
 823 0536 2A050000 		.4byte	0x52a
 824 053a 19       		.uleb128 0x19
 825 053b 18       		.byte	0x18
 826 053c 0B       		.byte	0xb
 827 053d 6B01     		.2byte	0x16b
 828 053f 81070000 		.4byte	.LASF92
 829 0543 95050000 		.4byte	0x595
 830 0547 0E       		.uleb128 0xe
 831 0548 435200   		.ascii	"CR\000"
 832 054b 0B       		.byte	0xb
 833 054c 6C01     		.2byte	0x16c
 834 054e F4000000 		.4byte	0xf4
 835 0552 00       		.byte	0
 836 0553 0F       		.uleb128 0xf
 837 0554 770D0000 		.4byte	.LASF88
 838 0558 0B       		.byte	0xb
 839 0559 6D01     		.2byte	0x16d
 840 055b F4000000 		.4byte	0xf4
 841 055f 04       		.byte	0x4
 842 0560 0E       		.uleb128 0xe
 843 0561 50415200 		.ascii	"PAR\000"
 844 0565 0B       		.byte	0xb
 845 0566 6E01     		.2byte	0x16e
 846 0568 F4000000 		.4byte	0xf4
 847 056c 08       		.byte	0x8
 848 056d 0F       		.uleb128 0xf
 849 056e 4D0B0000 		.4byte	.LASF89
 850 0572 0B       		.byte	0xb
 851 0573 6F01     		.2byte	0x16f
 852 0575 F4000000 		.4byte	0xf4
 853 0579 0C       		.byte	0xc
 854 057a 0F       		.uleb128 0xf
 855 057b 08000000 		.4byte	.LASF90
ARM GAS  /var/folders/vd/czx34qs52cd_f3nb04sxmghc0000gn/T//ccA2UiKd.s 			page 16


 856 057f 0B       		.byte	0xb
 857 0580 7001     		.2byte	0x170
 858 0582 F4000000 		.4byte	0xf4
 859 0586 10       		.byte	0x10
 860 0587 0E       		.uleb128 0xe
 861 0588 46435200 		.ascii	"FCR\000"
 862 058c 0B       		.byte	0xb
 863 058d 7101     		.2byte	0x171
 864 058f F4000000 		.4byte	0xf4
 865 0593 14       		.byte	0x14
 866 0594 00       		.byte	0
 867 0595 1A       		.uleb128 0x1a
 868 0596 E4080000 		.4byte	.LASF91
 869 059a 0B       		.byte	0xb
 870 059b 7201     		.2byte	0x172
 871 059d 3A050000 		.4byte	0x53a
 872 05a1 17       		.uleb128 0x17
 873 05a2 F4000000 		.4byte	0xf4
 874 05a6 B1050000 		.4byte	0x5b1
 875 05aa 18       		.uleb128 0x18
 876 05ab 3C000000 		.4byte	0x3c
 877 05af 01       		.byte	0x1
 878 05b0 00       		.byte	0
 879 05b1 04       		.uleb128 0x4
 880 05b2 A1050000 		.4byte	0x5a1
 881 05b6 17       		.uleb128 0x17
 882 05b7 F4000000 		.4byte	0xf4
 883 05bb C6050000 		.4byte	0x5c6
 884 05bf 18       		.uleb128 0x18
 885 05c0 3C000000 		.4byte	0x3c
 886 05c4 03       		.byte	0x3
 887 05c5 00       		.byte	0
 888 05c6 04       		.uleb128 0x4
 889 05c7 B6050000 		.4byte	0x5b6
 890 05cb 19       		.uleb128 0x19
 891 05cc 1C       		.byte	0x1c
 892 05cd 0B       		.byte	0xb
 893 05ce 0703     		.2byte	0x307
 894 05d0 600B0000 		.4byte	.LASF93
 895 05d4 32060000 		.4byte	0x632
 896 05d8 0E       		.uleb128 0xe
 897 05d9 535200   		.ascii	"SR\000"
 898 05dc 0B       		.byte	0xb
 899 05dd 0803     		.2byte	0x308
 900 05df F4000000 		.4byte	0xf4
 901 05e3 00       		.byte	0
 902 05e4 0E       		.uleb128 0xe
 903 05e5 445200   		.ascii	"DR\000"
 904 05e8 0B       		.byte	0xb
 905 05e9 0903     		.2byte	0x309
 906 05eb F4000000 		.4byte	0xf4
 907 05ef 04       		.byte	0x4
 908 05f0 0E       		.uleb128 0xe
 909 05f1 42525200 		.ascii	"BRR\000"
 910 05f5 0B       		.byte	0xb
 911 05f6 0A03     		.2byte	0x30a
 912 05f8 F4000000 		.4byte	0xf4
ARM GAS  /var/folders/vd/czx34qs52cd_f3nb04sxmghc0000gn/T//ccA2UiKd.s 			page 17


 913 05fc 08       		.byte	0x8
 914 05fd 0E       		.uleb128 0xe
 915 05fe 43523100 		.ascii	"CR1\000"
 916 0602 0B       		.byte	0xb
 917 0603 0B03     		.2byte	0x30b
 918 0605 F4000000 		.4byte	0xf4
 919 0609 0C       		.byte	0xc
 920 060a 0E       		.uleb128 0xe
 921 060b 43523200 		.ascii	"CR2\000"
 922 060f 0B       		.byte	0xb
 923 0610 0C03     		.2byte	0x30c
 924 0612 F4000000 		.4byte	0xf4
 925 0616 10       		.byte	0x10
 926 0617 0E       		.uleb128 0xe
 927 0618 43523300 		.ascii	"CR3\000"
 928 061c 0B       		.byte	0xb
 929 061d 0D03     		.2byte	0x30d
 930 061f F4000000 		.4byte	0xf4
 931 0623 14       		.byte	0x14
 932 0624 0F       		.uleb128 0xf
 933 0625 96070000 		.4byte	.LASF94
 934 0629 0B       		.byte	0xb
 935 062a 0E03     		.2byte	0x30e
 936 062c F4000000 		.4byte	0xf4
 937 0630 18       		.byte	0x18
 938 0631 00       		.byte	0
 939 0632 1A       		.uleb128 0x1a
 940 0633 93040000 		.4byte	.LASF95
 941 0637 0B       		.byte	0xb
 942 0638 0F03     		.2byte	0x30f
 943 063a CB050000 		.4byte	0x5cb
 944 063e 03       		.uleb128 0x3
 945 063f 8F020000 		.4byte	.LASF96
 946 0643 0C       		.byte	0xc
 947 0644 65       		.byte	0x65
 948 0645 A5030000 		.4byte	0x3a5
 949 0649 03       		.uleb128 0x3
 950 064a 88040000 		.4byte	.LASF97
 951 064e 0C       		.byte	0xc
 952 064f 6D       		.byte	0x6d
 953 0650 F9000000 		.4byte	0xf9
 954 0654 08       		.uleb128 0x8
 955 0655 570C0000 		.4byte	.LASF98
 956 0659 04       		.byte	0x4
 957 065a 0C       		.byte	0xc
 958 065b 89       		.byte	0x89
 959 065c 6C060000 		.4byte	0x66c
 960 0660 0D       		.uleb128 0xd
 961 0661 737000   		.ascii	"sp\000"
 962 0664 0C       		.byte	0xc
 963 0665 8A       		.byte	0x8a
 964 0666 E8060000 		.4byte	0x6e8
 965 066a 00       		.byte	0
 966 066b 00       		.byte	0
 967 066c 11       		.uleb128 0x11
 968 066d 57090000 		.4byte	.LASF99
 969 0671 24       		.byte	0x24
ARM GAS  /var/folders/vd/czx34qs52cd_f3nb04sxmghc0000gn/T//ccA2UiKd.s 			page 18


 970 0672 0D       		.byte	0xd
 971 0673 5901     		.2byte	0x159
 972 0675 E8060000 		.4byte	0x6e8
 973 0679 0E       		.uleb128 0xe
 974 067a 723400   		.ascii	"r4\000"
 975 067d 0D       		.byte	0xd
 976 067e 6C01     		.2byte	0x16c
 977 0680 3E060000 		.4byte	0x63e
 978 0684 00       		.byte	0
 979 0685 0E       		.uleb128 0xe
 980 0686 723500   		.ascii	"r5\000"
 981 0689 0D       		.byte	0xd
 982 068a 6D01     		.2byte	0x16d
 983 068c 3E060000 		.4byte	0x63e
 984 0690 04       		.byte	0x4
 985 0691 0E       		.uleb128 0xe
 986 0692 723600   		.ascii	"r6\000"
 987 0695 0D       		.byte	0xd
 988 0696 6E01     		.2byte	0x16e
 989 0698 3E060000 		.4byte	0x63e
 990 069c 08       		.byte	0x8
 991 069d 0E       		.uleb128 0xe
 992 069e 723700   		.ascii	"r7\000"
 993 06a1 0D       		.byte	0xd
 994 06a2 6F01     		.2byte	0x16f
 995 06a4 3E060000 		.4byte	0x63e
 996 06a8 0C       		.byte	0xc
 997 06a9 0E       		.uleb128 0xe
 998 06aa 723800   		.ascii	"r8\000"
 999 06ad 0D       		.byte	0xd
 1000 06ae 7001     		.2byte	0x170
 1001 06b0 3E060000 		.4byte	0x63e
 1002 06b4 10       		.byte	0x10
 1003 06b5 0E       		.uleb128 0xe
 1004 06b6 723900   		.ascii	"r9\000"
 1005 06b9 0D       		.byte	0xd
 1006 06ba 7101     		.2byte	0x171
 1007 06bc 3E060000 		.4byte	0x63e
 1008 06c0 14       		.byte	0x14
 1009 06c1 0E       		.uleb128 0xe
 1010 06c2 72313000 		.ascii	"r10\000"
 1011 06c6 0D       		.byte	0xd
 1012 06c7 7201     		.2byte	0x172
 1013 06c9 3E060000 		.4byte	0x63e
 1014 06cd 18       		.byte	0x18
 1015 06ce 0E       		.uleb128 0xe
 1016 06cf 72313100 		.ascii	"r11\000"
 1017 06d3 0D       		.byte	0xd
 1018 06d4 7301     		.2byte	0x173
 1019 06d6 3E060000 		.4byte	0x63e
 1020 06da 1C       		.byte	0x1c
 1021 06db 0E       		.uleb128 0xe
 1022 06dc 6C7200   		.ascii	"lr\000"
 1023 06df 0D       		.byte	0xd
 1024 06e0 7401     		.2byte	0x174
 1025 06e2 3E060000 		.4byte	0x63e
 1026 06e6 20       		.byte	0x20
ARM GAS  /var/folders/vd/czx34qs52cd_f3nb04sxmghc0000gn/T//ccA2UiKd.s 			page 19


 1027 06e7 00       		.byte	0
 1028 06e8 10       		.uleb128 0x10
 1029 06e9 04       		.byte	0x4
 1030 06ea 6C060000 		.4byte	0x66c
 1031 06ee 19       		.uleb128 0x19
 1032 06ef 60       		.byte	0x60
 1033 06f0 0E       		.byte	0xe
 1034 06f1 F501     		.2byte	0x1f5
 1035 06f3 990B0000 		.4byte	.LASF100
 1036 06f7 FE070000 		.4byte	0x7fe
 1037 06fb 0E       		.uleb128 0xe
 1038 06fc 43523100 		.ascii	"CR1\000"
 1039 0700 0E       		.byte	0xe
 1040 0701 F601     		.2byte	0x1f6
 1041 0703 F4000000 		.4byte	0xf4
 1042 0707 00       		.byte	0
 1043 0708 0E       		.uleb128 0xe
 1044 0709 43523200 		.ascii	"CR2\000"
 1045 070d 0E       		.byte	0xe
 1046 070e F701     		.2byte	0x1f7
 1047 0710 F4000000 		.4byte	0xf4
 1048 0714 04       		.byte	0x4
 1049 0715 0F       		.uleb128 0xf
 1050 0716 A10A0000 		.4byte	.LASF101
 1051 071a 0E       		.byte	0xe
 1052 071b F801     		.2byte	0x1f8
 1053 071d F4000000 		.4byte	0xf4
 1054 0721 08       		.byte	0x8
 1055 0722 0F       		.uleb128 0xf
 1056 0723 95050000 		.4byte	.LASF102
 1057 0727 0E       		.byte	0xe
 1058 0728 F901     		.2byte	0x1f9
 1059 072a F4000000 		.4byte	0xf4
 1060 072e 0C       		.byte	0xc
 1061 072f 0E       		.uleb128 0xe
 1062 0730 535200   		.ascii	"SR\000"
 1063 0733 0E       		.byte	0xe
 1064 0734 FA01     		.2byte	0x1fa
 1065 0736 F4000000 		.4byte	0xf4
 1066 073a 10       		.byte	0x10
 1067 073b 0E       		.uleb128 0xe
 1068 073c 45475200 		.ascii	"EGR\000"
 1069 0740 0E       		.byte	0xe
 1070 0741 FB01     		.2byte	0x1fb
 1071 0743 F4000000 		.4byte	0xf4
 1072 0747 14       		.byte	0x14
 1073 0748 0F       		.uleb128 0xf
 1074 0749 00040000 		.4byte	.LASF103
 1075 074d 0E       		.byte	0xe
 1076 074e FC01     		.2byte	0x1fc
 1077 0750 F4000000 		.4byte	0xf4
 1078 0754 18       		.byte	0x18
 1079 0755 0F       		.uleb128 0xf
 1080 0756 06040000 		.4byte	.LASF104
 1081 075a 0E       		.byte	0xe
 1082 075b FD01     		.2byte	0x1fd
 1083 075d F4000000 		.4byte	0xf4
ARM GAS  /var/folders/vd/czx34qs52cd_f3nb04sxmghc0000gn/T//ccA2UiKd.s 			page 20


 1084 0761 1C       		.byte	0x1c
 1085 0762 0F       		.uleb128 0xf
 1086 0763 600A0000 		.4byte	.LASF105
 1087 0767 0E       		.byte	0xe
 1088 0768 FE01     		.2byte	0x1fe
 1089 076a F4000000 		.4byte	0xf4
 1090 076e 20       		.byte	0x20
 1091 076f 0E       		.uleb128 0xe
 1092 0770 434E5400 		.ascii	"CNT\000"
 1093 0774 0E       		.byte	0xe
 1094 0775 FF01     		.2byte	0x1ff
 1095 0777 F4000000 		.4byte	0xf4
 1096 077b 24       		.byte	0x24
 1097 077c 0E       		.uleb128 0xe
 1098 077d 50534300 		.ascii	"PSC\000"
 1099 0781 0E       		.byte	0xe
 1100 0782 0002     		.2byte	0x200
 1101 0784 F4000000 		.4byte	0xf4
 1102 0788 28       		.byte	0x28
 1103 0789 0E       		.uleb128 0xe
 1104 078a 41525200 		.ascii	"ARR\000"
 1105 078e 0E       		.byte	0xe
 1106 078f 0102     		.2byte	0x201
 1107 0791 F4000000 		.4byte	0xf4
 1108 0795 2C       		.byte	0x2c
 1109 0796 0E       		.uleb128 0xe
 1110 0797 52435200 		.ascii	"RCR\000"
 1111 079b 0E       		.byte	0xe
 1112 079c 0202     		.2byte	0x202
 1113 079e F4000000 		.4byte	0xf4
 1114 07a2 30       		.byte	0x30
 1115 07a3 0E       		.uleb128 0xe
 1116 07a4 43435200 		.ascii	"CCR\000"
 1117 07a8 0E       		.byte	0xe
 1118 07a9 0302     		.2byte	0x203
 1119 07ab C6050000 		.4byte	0x5c6
 1120 07af 34       		.byte	0x34
 1121 07b0 0F       		.uleb128 0xf
 1122 07b1 940C0000 		.4byte	.LASF106
 1123 07b5 0E       		.byte	0xe
 1124 07b6 0402     		.2byte	0x204
 1125 07b8 F4000000 		.4byte	0xf4
 1126 07bc 44       		.byte	0x44
 1127 07bd 0E       		.uleb128 0xe
 1128 07be 44435200 		.ascii	"DCR\000"
 1129 07c2 0E       		.byte	0xe
 1130 07c3 0502     		.2byte	0x205
 1131 07c5 F4000000 		.4byte	0xf4
 1132 07c9 48       		.byte	0x48
 1133 07ca 0F       		.uleb128 0xf
 1134 07cb 45010000 		.4byte	.LASF107
 1135 07cf 0E       		.byte	0xe
 1136 07d0 0602     		.2byte	0x206
 1137 07d2 F4000000 		.4byte	0xf4
 1138 07d6 4C       		.byte	0x4c
 1139 07d7 0E       		.uleb128 0xe
 1140 07d8 4F5200   		.ascii	"OR\000"
ARM GAS  /var/folders/vd/czx34qs52cd_f3nb04sxmghc0000gn/T//ccA2UiKd.s 			page 21


 1141 07db 0E       		.byte	0xe
 1142 07dc 0702     		.2byte	0x207
 1143 07de F4000000 		.4byte	0xf4
 1144 07e2 50       		.byte	0x50
 1145 07e3 0F       		.uleb128 0xf
 1146 07e4 0C040000 		.4byte	.LASF108
 1147 07e8 0E       		.byte	0xe
 1148 07e9 0802     		.2byte	0x208
 1149 07eb F4000000 		.4byte	0xf4
 1150 07ef 54       		.byte	0x54
 1151 07f0 0F       		.uleb128 0xf
 1152 07f1 D5040000 		.4byte	.LASF109
 1153 07f5 0E       		.byte	0xe
 1154 07f6 0902     		.2byte	0x209
 1155 07f8 B1050000 		.4byte	0x5b1
 1156 07fc 58       		.byte	0x58
 1157 07fd 00       		.byte	0
 1158 07fe 1A       		.uleb128 0x1a
 1159 07ff 7F060000 		.4byte	.LASF110
 1160 0803 0E       		.byte	0xe
 1161 0804 0A02     		.2byte	0x20a
 1162 0806 EE060000 		.4byte	0x6ee
 1163 080a 1B       		.uleb128 0x1b
 1164 080b 04       		.byte	0x4
 1165 080c 0F       		.byte	0xf
 1166 080d 38       		.byte	0x38
 1167 080e B2090000 		.4byte	.LASF118
 1168 0812 23080000 		.4byte	0x823
 1169 0816 0C       		.uleb128 0xc
 1170 0817 AD080000 		.4byte	.LASF111
 1171 081b 0F       		.byte	0xf
 1172 081c 3C       		.byte	0x3c
 1173 081d 04010000 		.4byte	0x104
 1174 0821 00       		.byte	0
 1175 0822 00       		.byte	0
 1176 0823 03       		.uleb128 0x3
 1177 0824 3C0B0000 		.4byte	.LASF112
 1178 0828 0F       		.byte	0xf
 1179 0829 3D       		.byte	0x3d
 1180 082a 0A080000 		.4byte	0x80a
 1181 082e 10       		.uleb128 0x10
 1182 082f 04       		.byte	0x4
 1183 0830 BD020000 		.4byte	0x2bd
 1184 0834 08       		.uleb128 0x8
 1185 0835 AA050000 		.4byte	.LASF113
 1186 0839 0C       		.byte	0xc
 1187 083a 10       		.byte	0x10
 1188 083b 34       		.byte	0x34
 1189 083c 59080000 		.4byte	0x859
 1190 0840 0C       		.uleb128 0xc
 1191 0841 750A0000 		.4byte	.LASF40
 1192 0845 10       		.byte	0x10
 1193 0846 35       		.byte	0x35
 1194 0847 F2020000 		.4byte	0x2f2
 1195 084b 00       		.byte	0
 1196 084c 0D       		.uleb128 0xd
 1197 084d 636E7400 		.ascii	"cnt\000"
ARM GAS  /var/folders/vd/czx34qs52cd_f3nb04sxmghc0000gn/T//ccA2UiKd.s 			page 22


 1198 0851 10       		.byte	0x10
 1199 0852 37       		.byte	0x37
 1200 0853 5C010000 		.4byte	0x15c
 1201 0857 08       		.byte	0x8
 1202 0858 00       		.byte	0
 1203 0859 10       		.uleb128 0x10
 1204 085a 04       		.byte	0x4
 1205 085b 34080000 		.4byte	0x834
 1206 085f 08       		.uleb128 0x8
 1207 0860 D10B0000 		.4byte	.LASF114
 1208 0864 10       		.byte	0x10
 1209 0865 11       		.byte	0x11
 1210 0866 39       		.byte	0x39
 1211 0867 90080000 		.4byte	0x890
 1212 086b 0C       		.uleb128 0xc
 1213 086c 750A0000 		.4byte	.LASF40
 1214 0870 11       		.byte	0x11
 1215 0871 3A       		.byte	0x3a
 1216 0872 F2020000 		.4byte	0x2f2
 1217 0876 00       		.byte	0
 1218 0877 0C       		.uleb128 0xc
 1219 0878 5B000000 		.4byte	.LASF115
 1220 087c 11       		.byte	0x11
 1221 087d 3C       		.byte	0x3c
 1222 087e C8020000 		.4byte	0x2c8
 1223 0882 08       		.byte	0x8
 1224 0883 0C       		.uleb128 0xc
 1225 0884 D10D0000 		.4byte	.LASF59
 1226 0888 11       		.byte	0x11
 1227 0889 3E       		.byte	0x3e
 1228 088a F6090000 		.4byte	0x9f6
 1229 088e 0C       		.byte	0xc
 1230 088f 00       		.byte	0
 1231 0890 10       		.uleb128 0x10
 1232 0891 04       		.byte	0x4
 1233 0892 5F080000 		.4byte	0x85f
 1234 0896 10       		.uleb128 0x10
 1235 0897 04       		.byte	0x4
 1236 0898 A8080000 		.4byte	0x8a8
 1237 089c 04       		.uleb128 0x4
 1238 089d 96080000 		.4byte	0x896
 1239 08a1 05       		.uleb128 0x5
 1240 08a2 01       		.byte	0x1
 1241 08a3 08       		.byte	0x8
 1242 08a4 12040000 		.4byte	.LASF116
 1243 08a8 07       		.uleb128 0x7
 1244 08a9 A1080000 		.4byte	0x8a1
 1245 08ad 10       		.uleb128 0x10
 1246 08ae 04       		.byte	0x4
 1247 08af 49060000 		.4byte	0x649
 1248 08b3 10       		.uleb128 0x10
 1249 08b4 04       		.byte	0x4
 1250 08b5 A7030000 		.4byte	0x3a7
 1251 08b9 1C       		.uleb128 0x1c
 1252 08ba 636800   		.ascii	"ch\000"
 1253 08bd 07       		.byte	0x7
 1254 08be C701     		.2byte	0x1c7
ARM GAS  /var/folders/vd/czx34qs52cd_f3nb04sxmghc0000gn/T//ccA2UiKd.s 			page 23


 1255 08c0 74040000 		.4byte	0x474
 1256 08c4 17       		.uleb128 0x17
 1257 08c5 49060000 		.4byte	0x649
 1258 08c9 CF080000 		.4byte	0x8cf
 1259 08cd 1D       		.uleb128 0x1d
 1260 08ce 00       		.byte	0
 1261 08cf 15       		.uleb128 0x15
 1262 08d0 14060000 		.4byte	.LASF117
 1263 08d4 12       		.byte	0x12
 1264 08d5 1701     		.2byte	0x117
 1265 08d7 C4080000 		.4byte	0x8c4
 1266 08db 1B       		.uleb128 0x1b
 1267 08dc 16       		.byte	0x16
 1268 08dd 13       		.byte	0x13
 1269 08de 34       		.byte	0x34
 1270 08df 44090000 		.4byte	.LASF119
 1271 08e3 C0090000 		.4byte	0x9c0
 1272 08e7 0C       		.uleb128 0xc
 1273 08e8 EA0E0000 		.4byte	.LASF120
 1274 08ec 13       		.byte	0x13
 1275 08ed 35       		.byte	0x35
 1276 08ee C0090000 		.4byte	0x9c0
 1277 08f2 00       		.byte	0
 1278 08f3 0C       		.uleb128 0xc
 1279 08f4 20020000 		.4byte	.LASF121
 1280 08f8 13       		.byte	0x13
 1281 08f9 36       		.byte	0x36
 1282 08fa BE000000 		.4byte	0xbe
 1283 08fe 04       		.byte	0x4
 1284 08ff 0C       		.uleb128 0xc
 1285 0900 C5090000 		.4byte	.LASF122
 1286 0904 13       		.byte	0x13
 1287 0905 37       		.byte	0x37
 1288 0906 BE000000 		.4byte	0xbe
 1289 090a 05       		.byte	0x5
 1290 090b 0C       		.uleb128 0xc
 1291 090c AD0A0000 		.4byte	.LASF123
 1292 0910 13       		.byte	0x13
 1293 0911 38       		.byte	0x38
 1294 0912 CE000000 		.4byte	0xce
 1295 0916 06       		.byte	0x6
 1296 0917 0C       		.uleb128 0xc
 1297 0918 CD040000 		.4byte	.LASF124
 1298 091c 13       		.byte	0x13
 1299 091d 39       		.byte	0x39
 1300 091e BE000000 		.4byte	0xbe
 1301 0922 08       		.byte	0x8
 1302 0923 0C       		.uleb128 0xc
 1303 0924 5C0D0000 		.4byte	.LASF125
 1304 0928 13       		.byte	0x13
 1305 0929 3A       		.byte	0x3a
 1306 092a BE000000 		.4byte	0xbe
 1307 092e 09       		.byte	0x9
 1308 092f 0C       		.uleb128 0xc
 1309 0930 8A050000 		.4byte	.LASF126
 1310 0934 13       		.byte	0x13
 1311 0935 3B       		.byte	0x3b
ARM GAS  /var/folders/vd/czx34qs52cd_f3nb04sxmghc0000gn/T//ccA2UiKd.s 			page 24


 1312 0936 BE000000 		.4byte	0xbe
 1313 093a 0A       		.byte	0xa
 1314 093b 0C       		.uleb128 0xc
 1315 093c 2E000000 		.4byte	.LASF127
 1316 0940 13       		.byte	0x13
 1317 0941 3C       		.byte	0x3c
 1318 0942 BE000000 		.4byte	0xbe
 1319 0946 0B       		.byte	0xb
 1320 0947 0C       		.uleb128 0xc
 1321 0948 00000000 		.4byte	.LASF128
 1322 094c 13       		.byte	0x13
 1323 094d 3D       		.byte	0x3d
 1324 094e BE000000 		.4byte	0xbe
 1325 0952 0C       		.byte	0xc
 1326 0953 0C       		.uleb128 0xc
 1327 0954 50080000 		.4byte	.LASF129
 1328 0958 13       		.byte	0x13
 1329 0959 3E       		.byte	0x3e
 1330 095a BE000000 		.4byte	0xbe
 1331 095e 0D       		.byte	0xd
 1332 095f 0C       		.uleb128 0xc
 1333 0960 8D010000 		.4byte	.LASF130
 1334 0964 13       		.byte	0x13
 1335 0965 3F       		.byte	0x3f
 1336 0966 BE000000 		.4byte	0xbe
 1337 096a 0E       		.byte	0xe
 1338 096b 0C       		.uleb128 0xc
 1339 096c FC090000 		.4byte	.LASF131
 1340 0970 13       		.byte	0x13
 1341 0971 40       		.byte	0x40
 1342 0972 BE000000 		.4byte	0xbe
 1343 0976 0F       		.byte	0xf
 1344 0977 0C       		.uleb128 0xc
 1345 0978 98060000 		.4byte	.LASF132
 1346 097c 13       		.byte	0x13
 1347 097d 41       		.byte	0x41
 1348 097e BE000000 		.4byte	0xbe
 1349 0982 10       		.byte	0x10
 1350 0983 0C       		.uleb128 0xc
 1351 0984 6E050000 		.4byte	.LASF133
 1352 0988 13       		.byte	0x13
 1353 0989 42       		.byte	0x42
 1354 098a BE000000 		.4byte	0xbe
 1355 098e 11       		.byte	0x11
 1356 098f 0C       		.uleb128 0xc
 1357 0990 8C0D0000 		.4byte	.LASF134
 1358 0994 13       		.byte	0x13
 1359 0995 43       		.byte	0x43
 1360 0996 BE000000 		.4byte	0xbe
 1361 099a 12       		.byte	0x12
 1362 099b 0C       		.uleb128 0xc
 1363 099c 62040000 		.4byte	.LASF135
 1364 09a0 13       		.byte	0x13
 1365 09a1 44       		.byte	0x44
 1366 09a2 BE000000 		.4byte	0xbe
 1367 09a6 13       		.byte	0x13
 1368 09a7 0C       		.uleb128 0xc
ARM GAS  /var/folders/vd/czx34qs52cd_f3nb04sxmghc0000gn/T//ccA2UiKd.s 			page 25


 1369 09a8 4F000000 		.4byte	.LASF136
 1370 09ac 13       		.byte	0x13
 1371 09ad 45       		.byte	0x45
 1372 09ae BE000000 		.4byte	0xbe
 1373 09b2 14       		.byte	0x14
 1374 09b3 0C       		.uleb128 0xc
 1375 09b4 E7040000 		.4byte	.LASF137
 1376 09b8 13       		.byte	0x13
 1377 09b9 46       		.byte	0x46
 1378 09ba BE000000 		.4byte	0xbe
 1379 09be 15       		.byte	0x15
 1380 09bf 00       		.byte	0
 1381 09c0 17       		.uleb128 0x17
 1382 09c1 A1080000 		.4byte	0x8a1
 1383 09c5 D0090000 		.4byte	0x9d0
 1384 09c9 18       		.uleb128 0x18
 1385 09ca 3C000000 		.4byte	0x3c
 1386 09ce 03       		.byte	0x3
 1387 09cf 00       		.byte	0
 1388 09d0 03       		.uleb128 0x3
 1389 09d1 430D0000 		.4byte	.LASF138
 1390 09d5 13       		.byte	0x13
 1391 09d6 47       		.byte	0x47
 1392 09d7 DB080000 		.4byte	0x8db
 1393 09db 07       		.uleb128 0x7
 1394 09dc D0090000 		.4byte	0x9d0
 1395 09e0 16       		.uleb128 0x16
 1396 09e1 69000000 		.4byte	.LASF139
 1397 09e5 13       		.byte	0x13
 1398 09e6 6C       		.byte	0x6c
 1399 09e7 DB090000 		.4byte	0x9db
 1400 09eb 03       		.uleb128 0x3
 1401 09ec 470C0000 		.4byte	.LASF140
 1402 09f0 11       		.byte	0x11
 1403 09f1 34       		.byte	0x34
 1404 09f2 5F080000 		.4byte	0x85f
 1405 09f6 10       		.uleb128 0x10
 1406 09f7 04       		.byte	0x4
 1407 09f8 EB090000 		.4byte	0x9eb
 1408 09fc 03       		.uleb128 0x3
 1409 09fd BC040000 		.4byte	.LASF141
 1410 0a01 14       		.byte	0x14
 1411 0a02 34       		.byte	0x34
 1412 0a03 070A0000 		.4byte	0xa07
 1413 0a07 08       		.uleb128 0x8
 1414 0a08 FD0C0000 		.4byte	.LASF142
 1415 0a0c 14       		.byte	0x14
 1416 0a0d 14       		.byte	0x14
 1417 0a0e 39       		.byte	0x39
 1418 0a0f 500A0000 		.4byte	0xa50
 1419 0a13 0C       		.uleb128 0xc
 1420 0a14 D10D0000 		.4byte	.LASF59
 1421 0a18 14       		.byte	0x14
 1422 0a19 3A       		.byte	0x3a
 1423 0a1a 500A0000 		.4byte	0xa50
 1424 0a1e 00       		.byte	0
 1425 0a1f 0C       		.uleb128 0xc
ARM GAS  /var/folders/vd/czx34qs52cd_f3nb04sxmghc0000gn/T//ccA2UiKd.s 			page 26


 1426 0a20 570B0000 		.4byte	.LASF143
 1427 0a24 14       		.byte	0x14
 1428 0a25 3D       		.byte	0x3d
 1429 0a26 C8020000 		.4byte	0x2c8
 1430 0a2a 04       		.byte	0x4
 1431 0a2b 0C       		.uleb128 0xc
 1432 0a2c CA0D0000 		.4byte	.LASF144
 1433 0a30 14       		.byte	0x14
 1434 0a31 3F       		.byte	0x3f
 1435 0a32 46010000 		.4byte	0x146
 1436 0a36 08       		.byte	0x8
 1437 0a37 0C       		.uleb128 0xc
 1438 0a38 6B040000 		.4byte	.LASF47
 1439 0a3c 14       		.byte	0x14
 1440 0a3d 41       		.byte	0x41
 1441 0a3e 51010000 		.4byte	0x151
 1442 0a42 0C       		.byte	0xc
 1443 0a43 0C       		.uleb128 0xc
 1444 0a44 2A090000 		.4byte	.LASF145
 1445 0a48 14       		.byte	0x14
 1446 0a49 43       		.byte	0x43
 1447 0a4a 51010000 		.4byte	0x151
 1448 0a4e 10       		.byte	0x10
 1449 0a4f 00       		.byte	0
 1450 0a50 10       		.uleb128 0x10
 1451 0a51 04       		.byte	0x4
 1452 0a52 FC090000 		.4byte	0x9fc
 1453 0a56 08       		.uleb128 0x8
 1454 0a57 B10B0000 		.4byte	.LASF146
 1455 0a5b 04       		.byte	0x4
 1456 0a5c 14       		.byte	0x14
 1457 0a5d 4A       		.byte	0x4a
 1458 0a5e 6F0A0000 		.4byte	0xa6f
 1459 0a62 0C       		.uleb128 0xc
 1460 0a63 D10D0000 		.4byte	.LASF59
 1461 0a67 14       		.byte	0x14
 1462 0a68 4B       		.byte	0x4b
 1463 0a69 500A0000 		.4byte	0xa50
 1464 0a6d 00       		.byte	0
 1465 0a6e 00       		.byte	0
 1466 0a6f 03       		.uleb128 0x3
 1467 0a70 9B070000 		.4byte	.LASF147
 1468 0a74 14       		.byte	0x14
 1469 0a75 4E       		.byte	0x4e
 1470 0a76 560A0000 		.4byte	0xa56
 1471 0a7a 05       		.uleb128 0x5
 1472 0a7b 01       		.byte	0x1
 1473 0a7c 02       		.byte	0x2
 1474 0a7d F7080000 		.4byte	.LASF148
 1475 0a81 03       		.uleb128 0x3
 1476 0a82 FC080000 		.4byte	.LASF149
 1477 0a86 15       		.byte	0x15
 1478 0a87 4B       		.byte	0x4b
 1479 0a88 8C0A0000 		.4byte	0xa8c
 1480 0a8c 10       		.uleb128 0x10
 1481 0a8d 04       		.byte	0x4
 1482 0a8e 920A0000 		.4byte	0xa92
ARM GAS  /var/folders/vd/czx34qs52cd_f3nb04sxmghc0000gn/T//ccA2UiKd.s 			page 27


 1483 0a92 1E       		.uleb128 0x1e
 1484 0a93 A5030000 		.4byte	0x3a5
 1485 0a97 A60A0000 		.4byte	0xaa6
 1486 0a9b 13       		.uleb128 0x13
 1487 0a9c 2C000000 		.4byte	0x2c
 1488 0aa0 13       		.uleb128 0x13
 1489 0aa1 3C000000 		.4byte	0x3c
 1490 0aa5 00       		.byte	0
 1491 0aa6 1B       		.uleb128 0x1b
 1492 0aa7 08       		.byte	0x8
 1493 0aa8 15       		.byte	0x15
 1494 0aa9 55       		.byte	0x55
 1495 0aaa F20C0000 		.4byte	.LASF150
 1496 0aae CB0A0000 		.4byte	0xacb
 1497 0ab2 0C       		.uleb128 0xc
 1498 0ab3 3E050000 		.4byte	.LASF151
 1499 0ab7 15       		.byte	0x15
 1500 0ab8 59       		.byte	0x59
 1501 0ab9 CB0A0000 		.4byte	0xacb
 1502 0abd 00       		.byte	0
 1503 0abe 0C       		.uleb128 0xc
 1504 0abf 37000000 		.4byte	.LASF152
 1505 0ac3 15       		.byte	0x15
 1506 0ac4 5D       		.byte	0x5d
 1507 0ac5 CB0A0000 		.4byte	0xacb
 1508 0ac9 04       		.byte	0x4
 1509 0aca 00       		.byte	0
 1510 0acb 10       		.uleb128 0x10
 1511 0acc 04       		.byte	0x4
 1512 0acd BE000000 		.4byte	0xbe
 1513 0ad1 03       		.uleb128 0x3
 1514 0ad2 F3020000 		.4byte	.LASF153
 1515 0ad6 15       		.byte	0x15
 1516 0ad7 5E       		.byte	0x5e
 1517 0ad8 A60A0000 		.4byte	0xaa6
 1518 0adc 16       		.uleb128 0x16
 1519 0add 810D0000 		.4byte	.LASF154
 1520 0ae1 15       		.byte	0x15
 1521 0ae2 69       		.byte	0x69
 1522 0ae3 D10A0000 		.4byte	0xad1
 1523 0ae7 08       		.uleb128 0x8
 1524 0ae8 A5060000 		.4byte	.LASF155
 1525 0aec 04       		.byte	0x4
 1526 0aed 16       		.byte	0x16
 1527 0aee 3C       		.byte	0x3c
 1528 0aef 000B0000 		.4byte	0xb00
 1529 0af3 0C       		.uleb128 0xc
 1530 0af4 D10D0000 		.4byte	.LASF59
 1531 0af8 16       		.byte	0x16
 1532 0af9 3D       		.byte	0x3d
 1533 0afa 000B0000 		.4byte	0xb00
 1534 0afe 00       		.byte	0
 1535 0aff 00       		.byte	0
 1536 0b00 10       		.uleb128 0x10
 1537 0b01 04       		.byte	0x4
 1538 0b02 E70A0000 		.4byte	0xae7
 1539 0b06 1B       		.uleb128 0x1b
ARM GAS  /var/folders/vd/czx34qs52cd_f3nb04sxmghc0000gn/T//ccA2UiKd.s 			page 28


 1540 0b07 10       		.byte	0x10
 1541 0b08 16       		.byte	0x16
 1542 0b09 44       		.byte	0x44
 1543 0b0a D4030000 		.4byte	.LASF156
 1544 0b0e 430B0000 		.4byte	0xb43
 1545 0b12 0C       		.uleb128 0xc
 1546 0b13 D10D0000 		.4byte	.LASF59
 1547 0b17 16       		.byte	0x16
 1548 0b18 45       		.byte	0x45
 1549 0b19 000B0000 		.4byte	0xb00
 1550 0b1d 00       		.byte	0
 1551 0b1e 0C       		.uleb128 0xc
 1552 0b1f 220C0000 		.4byte	.LASF157
 1553 0b23 16       		.byte	0x16
 1554 0b24 46       		.byte	0x46
 1555 0b25 2C000000 		.4byte	0x2c
 1556 0b29 04       		.byte	0x4
 1557 0b2a 0C       		.uleb128 0xc
 1558 0b2b AA070000 		.4byte	.LASF158
 1559 0b2f 16       		.byte	0x16
 1560 0b30 48       		.byte	0x48
 1561 0b31 3C000000 		.4byte	0x3c
 1562 0b35 08       		.byte	0x8
 1563 0b36 0C       		.uleb128 0xc
 1564 0b37 72000000 		.4byte	.LASF159
 1565 0b3b 16       		.byte	0x16
 1566 0b3c 49       		.byte	0x49
 1567 0b3d 810A0000 		.4byte	0xa81
 1568 0b41 0C       		.byte	0xc
 1569 0b42 00       		.byte	0
 1570 0b43 03       		.uleb128 0x3
 1571 0b44 FC0A0000 		.4byte	.LASF160
 1572 0b48 16       		.byte	0x16
 1573 0b49 4B       		.byte	0x4b
 1574 0b4a 060B0000 		.4byte	0xb06
 1575 0b4e 08       		.uleb128 0x8
 1576 0b4f FE000000 		.4byte	.LASF161
 1577 0b53 10       		.byte	0x10
 1578 0b54 17       		.byte	0x17
 1579 0b55 97       		.byte	0x97
 1580 0b56 7F0B0000 		.4byte	0xb7f
 1581 0b5a 0C       		.uleb128 0xc
 1582 0b5b D10D0000 		.4byte	.LASF59
 1583 0b5f 17       		.byte	0x17
 1584 0b60 9B       		.byte	0x9b
 1585 0b61 7F0B0000 		.4byte	0xb7f
 1586 0b65 00       		.byte	0
 1587 0b66 0C       		.uleb128 0xc
 1588 0b67 700A0000 		.4byte	.LASF48
 1589 0b6b 17       		.byte	0x17
 1590 0b6c 9F       		.byte	0x9f
 1591 0b6d 67010000 		.4byte	0x167
 1592 0b71 04       		.byte	0x4
 1593 0b72 0C       		.uleb128 0xc
 1594 0b73 520B0000 		.4byte	.LASF44
 1595 0b77 17       		.byte	0x17
 1596 0b78 A1       		.byte	0xa1
ARM GAS  /var/folders/vd/czx34qs52cd_f3nb04sxmghc0000gn/T//ccA2UiKd.s 			page 29


 1597 0b79 850B0000 		.4byte	0xb85
 1598 0b7d 08       		.byte	0x8
 1599 0b7e 00       		.byte	0
 1600 0b7f 10       		.uleb128 0x10
 1601 0b80 04       		.byte	0x4
 1602 0b81 4E0B0000 		.4byte	0xb4e
 1603 0b85 17       		.uleb128 0x17
 1604 0b86 A1080000 		.4byte	0x8a1
 1605 0b8a 950B0000 		.4byte	0xb95
 1606 0b8e 18       		.uleb128 0x18
 1607 0b8f 3C000000 		.4byte	0x3c
 1608 0b93 07       		.byte	0x7
 1609 0b94 00       		.byte	0
 1610 0b95 03       		.uleb128 0x3
 1611 0b96 07050000 		.4byte	.LASF162
 1612 0b9a 17       		.byte	0x17
 1613 0b9b A5       		.byte	0xa5
 1614 0b9c 4E0B0000 		.4byte	0xb4e
 1615 0ba0 08       		.uleb128 0x8
 1616 0ba1 DE0E0000 		.4byte	.LASF163
 1617 0ba5 04       		.byte	0x4
 1618 0ba6 17       		.byte	0x17
 1619 0ba7 AA       		.byte	0xaa
 1620 0ba8 B90B0000 		.4byte	0xbb9
 1621 0bac 0C       		.uleb128 0xc
 1622 0bad D10D0000 		.4byte	.LASF59
 1623 0bb1 17       		.byte	0x17
 1624 0bb2 AB       		.byte	0xab
 1625 0bb3 B90B0000 		.4byte	0xbb9
 1626 0bb7 00       		.byte	0
 1627 0bb8 00       		.byte	0
 1628 0bb9 10       		.uleb128 0x10
 1629 0bba 04       		.byte	0x4
 1630 0bbb 950B0000 		.4byte	0xb95
 1631 0bbf 03       		.uleb128 0x3
 1632 0bc0 FA0B0000 		.4byte	.LASF164
 1633 0bc4 17       		.byte	0x17
 1634 0bc5 AC       		.byte	0xac
 1635 0bc6 A00B0000 		.4byte	0xba0
 1636 0bca 11       		.uleb128 0x11
 1637 0bcb 6E070000 		.4byte	.LASF165
 1638 0bcf 44       		.byte	0x44
 1639 0bd0 17       		.byte	0x17
 1640 0bd1 1501     		.2byte	0x115
 1641 0bd3 400C0000 		.4byte	0xc40
 1642 0bd7 0E       		.uleb128 0xe
 1643 0bd8 6D747800 		.ascii	"mtx\000"
 1644 0bdc 17       		.byte	0x17
 1645 0bdd 1A01     		.2byte	0x11a
 1646 0bdf EB090000 		.4byte	0x9eb
 1647 0be3 00       		.byte	0
 1648 0be4 0F       		.uleb128 0xf
 1649 0be5 3C010000 		.4byte	.LASF166
 1650 0be9 17       		.byte	0x17
 1651 0bea 2101     		.2byte	0x121
 1652 0bec BF0B0000 		.4byte	0xbbf
 1653 0bf0 10       		.byte	0x10
ARM GAS  /var/folders/vd/czx34qs52cd_f3nb04sxmghc0000gn/T//ccA2UiKd.s 			page 30


 1654 0bf1 0F       		.uleb128 0xf
 1655 0bf2 A5020000 		.4byte	.LASF167
 1656 0bf6 17       		.byte	0x17
 1657 0bf7 2501     		.2byte	0x125
 1658 0bf9 430B0000 		.4byte	0xb43
 1659 0bfd 14       		.byte	0x14
 1660 0bfe 0F       		.uleb128 0xf
 1661 0bff 75090000 		.4byte	.LASF168
 1662 0c03 17       		.byte	0x17
 1663 0c04 2A01     		.2byte	0x12a
 1664 0c06 BF0B0000 		.4byte	0xbbf
 1665 0c0a 24       		.byte	0x24
 1666 0c0b 0F       		.uleb128 0xf
 1667 0c0c 1E040000 		.4byte	.LASF169
 1668 0c10 17       		.byte	0x17
 1669 0c11 3001     		.2byte	0x130
 1670 0c13 BF0B0000 		.4byte	0xbbf
 1671 0c17 28       		.byte	0x28
 1672 0c18 0F       		.uleb128 0xf
 1673 0c19 2A050000 		.4byte	.LASF170
 1674 0c1d 17       		.byte	0x17
 1675 0c1e 3401     		.2byte	0x134
 1676 0c20 430B0000 		.4byte	0xb43
 1677 0c24 2C       		.byte	0x2c
 1678 0c25 0F       		.uleb128 0xf
 1679 0c26 8D0A0000 		.4byte	.LASF171
 1680 0c2a 17       		.byte	0x17
 1681 0c2b 3A01     		.2byte	0x13a
 1682 0c2d BF0B0000 		.4byte	0xbbf
 1683 0c31 3C       		.byte	0x3c
 1684 0c32 0F       		.uleb128 0xf
 1685 0c33 39060000 		.4byte	.LASF172
 1686 0c37 17       		.byte	0x17
 1687 0c38 4001     		.2byte	0x140
 1688 0c3a BF0B0000 		.4byte	0xbbf
 1689 0c3e 40       		.byte	0x40
 1690 0c3f 00       		.byte	0
 1691 0c40 1A       		.uleb128 0x1a
 1692 0c41 63090000 		.4byte	.LASF173
 1693 0c45 17       		.byte	0x17
 1694 0c46 4201     		.2byte	0x142
 1695 0c48 CA0B0000 		.4byte	0xbca
 1696 0c4c 15       		.uleb128 0x15
 1697 0c4d 820A0000 		.4byte	.LASF174
 1698 0c51 17       		.byte	0x17
 1699 0c52 4D01     		.2byte	0x14d
 1700 0c54 400C0000 		.4byte	0xc40
 1701 0c58 1F       		.uleb128 0x1f
 1702 0c59 E8020000 		.4byte	.LASF289
 1703 0c5d 18       		.byte	0x18
 1704 0c5e 21       		.byte	0x21
 1705 0c5f 370E0000 		.4byte	0xe37
 1706 0c63 20       		.uleb128 0x20
 1707 0c64 AB030000 		.4byte	.LASF176
 1708 0c68 04       		.byte	0x4
 1709 0c69 18       		.byte	0x18
 1710 0c6a 5002     		.2byte	0x250
ARM GAS  /var/folders/vd/czx34qs52cd_f3nb04sxmghc0000gn/T//ccA2UiKd.s 			page 31


 1711 0c6c 310E0000 		.4byte	0xe31
 1712 0c70 0F       		.uleb128 0xf
 1713 0c71 09060000 		.4byte	.LASF175
 1714 0c75 18       		.byte	0x18
 1715 0c76 5402     		.2byte	0x254
 1716 0c78 C8020000 		.4byte	0x2c8
 1717 0c7c 00       		.byte	0
 1718 0c7d 21       		.uleb128 0x21
 1719 0c7e AB030000 		.4byte	.LASF176
 1720 0c82 18       		.byte	0x18
 1721 0c83 6302     		.2byte	0x263
 1722 0c85 D4010000 		.4byte	.LASF177
 1723 0c89 370E0000 		.4byte	0xe37
 1724 0c8d 01       		.byte	0x1
 1725 0c8e 960C0000 		.4byte	0xc96
 1726 0c92 9C0C0000 		.4byte	0xc9c
 1727 0c96 22       		.uleb128 0x22
 1728 0c97 370E0000 		.4byte	0xe37
 1729 0c9b 00       		.byte	0
 1730 0c9c 21       		.uleb128 0x21
 1731 0c9d AB030000 		.4byte	.LASF176
 1732 0ca1 18       		.byte	0x18
 1733 0ca2 6E02     		.2byte	0x26e
 1734 0ca4 21030000 		.4byte	.LASF178
 1735 0ca8 370E0000 		.4byte	0xe37
 1736 0cac 01       		.byte	0x1
 1737 0cad B50C0000 		.4byte	0xcb5
 1738 0cb1 C00C0000 		.4byte	0xcc0
 1739 0cb5 22       		.uleb128 0x22
 1740 0cb6 370E0000 		.4byte	0xe37
 1741 0cba 13       		.uleb128 0x13
 1742 0cbb C8020000 		.4byte	0x2c8
 1743 0cbf 00       		.byte	0
 1744 0cc0 21       		.uleb128 0x21
 1745 0cc1 E10A0000 		.4byte	.LASF179
 1746 0cc5 18       		.byte	0x18
 1747 0cc6 7902     		.2byte	0x279
 1748 0cc8 F5060000 		.4byte	.LASF180
 1749 0ccc 7A0A0000 		.4byte	0xa7a
 1750 0cd0 01       		.byte	0x1
 1751 0cd1 D90C0000 		.4byte	0xcd9
 1752 0cd5 DF0C0000 		.4byte	0xcdf
 1753 0cd9 22       		.uleb128 0x22
 1754 0cda 3D0E0000 		.4byte	0xe3d
 1755 0cde 00       		.byte	0
 1756 0cdf 21       		.uleb128 0x21
 1757 0ce0 0C0D0000 		.4byte	.LASF181
 1758 0ce4 18       		.byte	0x18
 1759 0ce5 8102     		.2byte	0x281
 1760 0ce7 B50A0000 		.4byte	.LASF182
 1761 0ceb C8020000 		.4byte	0x2c8
 1762 0cef 01       		.byte	0x1
 1763 0cf0 F80C0000 		.4byte	0xcf8
 1764 0cf4 FE0C0000 		.4byte	0xcfe
 1765 0cf8 22       		.uleb128 0x22
 1766 0cf9 370E0000 		.4byte	0xe37
 1767 0cfd 00       		.byte	0
ARM GAS  /var/folders/vd/czx34qs52cd_f3nb04sxmghc0000gn/T//ccA2UiKd.s 			page 32


 1768 0cfe 23       		.uleb128 0x23
 1769 0cff 880B0000 		.4byte	.LASF185
 1770 0d03 18       		.byte	0x18
 1771 0d04 9002     		.2byte	0x290
 1772 0d06 1A080000 		.4byte	.LASF187
 1773 0d0a 01       		.byte	0x1
 1774 0d0b 130D0000 		.4byte	0xd13
 1775 0d0f 190D0000 		.4byte	0xd19
 1776 0d13 22       		.uleb128 0x22
 1777 0d14 3D0E0000 		.4byte	0xe3d
 1778 0d18 00       		.byte	0
 1779 0d19 21       		.uleb128 0x21
 1780 0d1a 20000000 		.4byte	.LASF183
 1781 0d1e 18       		.byte	0x18
 1782 0d1f 9F02     		.2byte	0x29f
 1783 0d21 43070000 		.4byte	.LASF184
 1784 0d25 630C0000 		.4byte	0xc63
 1785 0d29 01       		.byte	0x1
 1786 0d2a 320D0000 		.4byte	0xd32
 1787 0d2e 380D0000 		.4byte	0xd38
 1788 0d32 22       		.uleb128 0x22
 1789 0d33 3D0E0000 		.4byte	0xe3d
 1790 0d37 00       		.byte	0
 1791 0d38 23       		.uleb128 0x23
 1792 0d39 EA0C0000 		.4byte	.LASF186
 1793 0d3d 18       		.byte	0x18
 1794 0d3e B302     		.2byte	0x2b3
 1795 0d40 CD000000 		.4byte	.LASF188
 1796 0d44 01       		.byte	0x1
 1797 0d45 4D0D0000 		.4byte	0xd4d
 1798 0d49 530D0000 		.4byte	0xd53
 1799 0d4d 22       		.uleb128 0x22
 1800 0d4e 370E0000 		.4byte	0xe37
 1801 0d52 00       		.byte	0
 1802 0d53 21       		.uleb128 0x21
 1803 0d54 FA070000 		.4byte	.LASF189
 1804 0d58 18       		.byte	0x18
 1805 0d59 DA02     		.2byte	0x2da
 1806 0d5b B4020000 		.4byte	.LASF190
 1807 0d5f 3B010000 		.4byte	0x13b
 1808 0d63 01       		.byte	0x1
 1809 0d64 6C0D0000 		.4byte	0xd6c
 1810 0d68 720D0000 		.4byte	0xd72
 1811 0d6c 22       		.uleb128 0x22
 1812 0d6d 370E0000 		.4byte	0xe37
 1813 0d71 00       		.byte	0
 1814 0d72 21       		.uleb128 0x21
 1815 0d73 DC020000 		.4byte	.LASF191
 1816 0d77 18       		.byte	0x18
 1817 0d78 EC02     		.2byte	0x2ec
 1818 0d7a 220A0000 		.4byte	.LASF192
 1819 0d7e 3B010000 		.4byte	0x13b
 1820 0d82 01       		.byte	0x1
 1821 0d83 8B0D0000 		.4byte	0xd8b
 1822 0d87 960D0000 		.4byte	0xd96
 1823 0d8b 22       		.uleb128 0x22
 1824 0d8c 3D0E0000 		.4byte	0xe3d
ARM GAS  /var/folders/vd/czx34qs52cd_f3nb04sxmghc0000gn/T//ccA2UiKd.s 			page 33


 1825 0d90 13       		.uleb128 0x13
 1826 0d91 3B010000 		.4byte	0x13b
 1827 0d95 00       		.byte	0
 1828 0d96 21       		.uleb128 0x21
 1829 0d97 39040000 		.4byte	.LASF193
 1830 0d9b 18       		.byte	0x18
 1831 0d9c F902     		.2byte	0x2f9
 1832 0d9e 25020000 		.4byte	.LASF194
 1833 0da2 7A0A0000 		.4byte	0xa7a
 1834 0da6 01       		.byte	0x1
 1835 0da7 AF0D0000 		.4byte	0xdaf
 1836 0dab B50D0000 		.4byte	0xdb5
 1837 0daf 22       		.uleb128 0x22
 1838 0db0 3D0E0000 		.4byte	0xe3d
 1839 0db4 00       		.byte	0
 1840 0db5 21       		.uleb128 0x21
 1841 0db6 46050000 		.4byte	.LASF195
 1842 0dba 18       		.byte	0x18
 1843 0dbb 0503     		.2byte	0x305
 1844 0dbd B4080000 		.4byte	.LASF196
 1845 0dc1 3B010000 		.4byte	0x13b
 1846 0dc5 01       		.byte	0x1
 1847 0dc6 CE0D0000 		.4byte	0xdce
 1848 0dca D40D0000 		.4byte	0xdd4
 1849 0dce 22       		.uleb128 0x22
 1850 0dcf 3D0E0000 		.4byte	0xe3d
 1851 0dd3 00       		.byte	0
 1852 0dd4 23       		.uleb128 0x23
 1853 0dd5 2E070000 		.4byte	.LASF197
 1854 0dd9 18       		.byte	0x18
 1855 0dda 1203     		.2byte	0x312
 1856 0ddc 4A010000 		.4byte	.LASF198
 1857 0de0 01       		.byte	0x1
 1858 0de1 E90D0000 		.4byte	0xde9
 1859 0de5 F40D0000 		.4byte	0xdf4
 1860 0de9 22       		.uleb128 0x22
 1861 0dea 370E0000 		.4byte	0xe37
 1862 0dee 13       		.uleb128 0x13
 1863 0def 3B010000 		.4byte	0x13b
 1864 0df3 00       		.byte	0
 1865 0df4 23       		.uleb128 0x23
 1866 0df5 13020000 		.4byte	.LASF199
 1867 0df9 18       		.byte	0x18
 1868 0dfa 2203     		.2byte	0x322
 1869 0dfc C1050000 		.4byte	.LASF200
 1870 0e00 01       		.byte	0x1
 1871 0e01 090E0000 		.4byte	0xe09
 1872 0e05 140E0000 		.4byte	0xe14
 1873 0e09 22       		.uleb128 0x22
 1874 0e0a 3D0E0000 		.4byte	0xe3d
 1875 0e0e 13       		.uleb128 0x13
 1876 0e0f 46010000 		.4byte	0x146
 1877 0e13 00       		.byte	0
 1878 0e14 24       		.uleb128 0x24
 1879 0e15 A1040000 		.4byte	.LASF290
 1880 0e19 18       		.byte	0x18
 1881 0e1a 2E03     		.2byte	0x32e
ARM GAS  /var/folders/vd/czx34qs52cd_f3nb04sxmghc0000gn/T//ccA2UiKd.s 			page 34


 1882 0e1c B0070000 		.4byte	.LASF291
 1883 0e20 01       		.byte	0x1
 1884 0e21 250E0000 		.4byte	0xe25
 1885 0e25 22       		.uleb128 0x22
 1886 0e26 3D0E0000 		.4byte	0xe3d
 1887 0e2a 13       		.uleb128 0x13
 1888 0e2b 46010000 		.4byte	0x146
 1889 0e2f 00       		.byte	0
 1890 0e30 00       		.byte	0
 1891 0e31 07       		.uleb128 0x7
 1892 0e32 630C0000 		.4byte	0xc63
 1893 0e36 00       		.byte	0
 1894 0e37 10       		.uleb128 0x10
 1895 0e38 04       		.byte	0x4
 1896 0e39 630C0000 		.4byte	0xc63
 1897 0e3d 10       		.uleb128 0x10
 1898 0e3e 04       		.byte	0x4
 1899 0e3f 310E0000 		.4byte	0xe31
 1900 0e43 19       		.uleb128 0x19
 1901 0e44 0C       		.byte	0xc
 1902 0e45 19       		.byte	0x19
 1903 0e46 6A01     		.2byte	0x16a
 1904 0e48 7E090000 		.4byte	.LASF201
 1905 0e4c 920E0000 		.4byte	0xe92
 1906 0e50 0F       		.uleb128 0xf
 1907 0e51 B5040000 		.4byte	.LASF202
 1908 0e55 19       		.byte	0x19
 1909 0e56 6B01     		.2byte	0x16b
 1910 0e58 920E0000 		.4byte	0xe92
 1911 0e5c 00       		.byte	0
 1912 0e5d 0F       		.uleb128 0xf
 1913 0e5e 7C0D0000 		.4byte	.LASF203
 1914 0e62 19       		.byte	0x19
 1915 0e63 6C01     		.2byte	0x16c
 1916 0e65 980E0000 		.4byte	0xe98
 1917 0e69 04       		.byte	0x4
 1918 0e6a 0F       		.uleb128 0xf
 1919 0e6b 17040000 		.4byte	.LASF204
 1920 0e6f 19       		.byte	0x19
 1921 0e70 6D01     		.2byte	0x16d
 1922 0e72 BE000000 		.4byte	0xbe
 1923 0e76 08       		.byte	0x8
 1924 0e77 0F       		.uleb128 0xf
 1925 0e78 5A080000 		.4byte	.LASF205
 1926 0e7c 19       		.byte	0x19
 1927 0e7d 6F01     		.2byte	0x16f
 1928 0e7f BE000000 		.4byte	0xbe
 1929 0e83 09       		.byte	0x9
 1930 0e84 0F       		.uleb128 0xf
 1931 0e85 7B0A0000 		.4byte	.LASF206
 1932 0e89 19       		.byte	0x19
 1933 0e8a 7001     		.2byte	0x170
 1934 0e8c BE000000 		.4byte	0xbe
 1935 0e90 0A       		.byte	0xa
 1936 0e91 00       		.byte	0
 1937 0e92 10       		.uleb128 0x10
 1938 0e93 04       		.byte	0x4
ARM GAS  /var/folders/vd/czx34qs52cd_f3nb04sxmghc0000gn/T//ccA2UiKd.s 			page 35


 1939 0e94 95050000 		.4byte	0x595
 1940 0e98 10       		.uleb128 0x10
 1941 0e99 04       		.byte	0x4
 1942 0e9a F4000000 		.4byte	0xf4
 1943 0e9e 1A       		.uleb128 0x1a
 1944 0e9f 0D000000 		.4byte	.LASF207
 1945 0ea3 19       		.byte	0x19
 1946 0ea4 7101     		.2byte	0x171
 1947 0ea6 430E0000 		.4byte	0xe43
 1948 0eaa 07       		.uleb128 0x7
 1949 0eab 9E0E0000 		.4byte	0xe9e
 1950 0eaf 17       		.uleb128 0x17
 1951 0eb0 AA0E0000 		.4byte	0xeaa
 1952 0eb4 BF0E0000 		.4byte	0xebf
 1953 0eb8 18       		.uleb128 0x18
 1954 0eb9 3C000000 		.4byte	0x3c
 1955 0ebd 0F       		.byte	0xf
 1956 0ebe 00       		.byte	0
 1957 0ebf 07       		.uleb128 0x7
 1958 0ec0 AF0E0000 		.4byte	0xeaf
 1959 0ec4 15       		.uleb128 0x15
 1960 0ec5 26060000 		.4byte	.LASF208
 1961 0ec9 19       		.byte	0x19
 1962 0eca 5C02     		.2byte	0x25c
 1963 0ecc BF0E0000 		.4byte	0xebf
 1964 0ed0 1E       		.uleb128 0x1e
 1965 0ed1 2C000000 		.4byte	0x2c
 1966 0ed5 E90E0000 		.4byte	0xee9
 1967 0ed9 13       		.uleb128 0x13
 1968 0eda A5030000 		.4byte	0x3a5
 1969 0ede 13       		.uleb128 0x13
 1970 0edf E90E0000 		.4byte	0xee9
 1971 0ee3 13       		.uleb128 0x13
 1972 0ee4 2C000000 		.4byte	0x2c
 1973 0ee8 00       		.byte	0
 1974 0ee9 10       		.uleb128 0x10
 1975 0eea 04       		.byte	0x4
 1976 0eeb C9000000 		.4byte	0xc9
 1977 0eef 10       		.uleb128 0x10
 1978 0ef0 04       		.byte	0x4
 1979 0ef1 D00E0000 		.4byte	0xed0
 1980 0ef5 1E       		.uleb128 0x1e
 1981 0ef6 2C000000 		.4byte	0x2c
 1982 0efa 0E0F0000 		.4byte	0xf0e
 1983 0efe 13       		.uleb128 0x13
 1984 0eff A5030000 		.4byte	0x3a5
 1985 0f03 13       		.uleb128 0x13
 1986 0f04 CB0A0000 		.4byte	0xacb
 1987 0f08 13       		.uleb128 0x13
 1988 0f09 2C000000 		.4byte	0x2c
 1989 0f0d 00       		.byte	0
 1990 0f0e 10       		.uleb128 0x10
 1991 0f0f 04       		.byte	0x4
 1992 0f10 F50E0000 		.4byte	0xef5
 1993 0f14 1E       		.uleb128 0x1e
 1994 0f15 3B010000 		.4byte	0x13b
 1995 0f19 280F0000 		.4byte	0xf28
ARM GAS  /var/folders/vd/czx34qs52cd_f3nb04sxmghc0000gn/T//ccA2UiKd.s 			page 36


 1996 0f1d 13       		.uleb128 0x13
 1997 0f1e A5030000 		.4byte	0x3a5
 1998 0f22 13       		.uleb128 0x13
 1999 0f23 BE000000 		.4byte	0xbe
 2000 0f27 00       		.byte	0
 2001 0f28 10       		.uleb128 0x10
 2002 0f29 04       		.byte	0x4
 2003 0f2a 140F0000 		.4byte	0xf14
 2004 0f2e 1E       		.uleb128 0x1e
 2005 0f2f 3B010000 		.4byte	0x13b
 2006 0f33 3D0F0000 		.4byte	0xf3d
 2007 0f37 13       		.uleb128 0x13
 2008 0f38 A5030000 		.4byte	0x3a5
 2009 0f3c 00       		.byte	0
 2010 0f3d 10       		.uleb128 0x10
 2011 0f3e 04       		.byte	0x4
 2012 0f3f 2E0F0000 		.4byte	0xf2e
 2013 0f43 1E       		.uleb128 0x1e
 2014 0f44 3B010000 		.4byte	0x13b
 2015 0f48 5C0F0000 		.4byte	0xf5c
 2016 0f4c 13       		.uleb128 0x13
 2017 0f4d A5030000 		.4byte	0x3a5
 2018 0f51 13       		.uleb128 0x13
 2019 0f52 BE000000 		.4byte	0xbe
 2020 0f56 13       		.uleb128 0x13
 2021 0f57 D8040000 		.4byte	0x4d8
 2022 0f5b 00       		.byte	0
 2023 0f5c 10       		.uleb128 0x10
 2024 0f5d 04       		.byte	0x4
 2025 0f5e 430F0000 		.4byte	0xf43
 2026 0f62 1E       		.uleb128 0x1e
 2027 0f63 3B010000 		.4byte	0x13b
 2028 0f67 760F0000 		.4byte	0xf76
 2029 0f6b 13       		.uleb128 0x13
 2030 0f6c A5030000 		.4byte	0x3a5
 2031 0f70 13       		.uleb128 0x13
 2032 0f71 D8040000 		.4byte	0x4d8
 2033 0f75 00       		.byte	0
 2034 0f76 10       		.uleb128 0x10
 2035 0f77 04       		.byte	0x4
 2036 0f78 620F0000 		.4byte	0xf62
 2037 0f7c 1E       		.uleb128 0x1e
 2038 0f7d 2C000000 		.4byte	0x2c
 2039 0f81 9A0F0000 		.4byte	0xf9a
 2040 0f85 13       		.uleb128 0x13
 2041 0f86 A5030000 		.4byte	0x3a5
 2042 0f8a 13       		.uleb128 0x13
 2043 0f8b E90E0000 		.4byte	0xee9
 2044 0f8f 13       		.uleb128 0x13
 2045 0f90 2C000000 		.4byte	0x2c
 2046 0f94 13       		.uleb128 0x13
 2047 0f95 D8040000 		.4byte	0x4d8
 2048 0f99 00       		.byte	0
 2049 0f9a 10       		.uleb128 0x10
 2050 0f9b 04       		.byte	0x4
 2051 0f9c 7C0F0000 		.4byte	0xf7c
 2052 0fa0 1E       		.uleb128 0x1e
ARM GAS  /var/folders/vd/czx34qs52cd_f3nb04sxmghc0000gn/T//ccA2UiKd.s 			page 37


 2053 0fa1 2C000000 		.4byte	0x2c
 2054 0fa5 BE0F0000 		.4byte	0xfbe
 2055 0fa9 13       		.uleb128 0x13
 2056 0faa A5030000 		.4byte	0x3a5
 2057 0fae 13       		.uleb128 0x13
 2058 0faf CB0A0000 		.4byte	0xacb
 2059 0fb3 13       		.uleb128 0x13
 2060 0fb4 2C000000 		.4byte	0x2c
 2061 0fb8 13       		.uleb128 0x13
 2062 0fb9 D8040000 		.4byte	0x4d8
 2063 0fbd 00       		.byte	0
 2064 0fbe 10       		.uleb128 0x10
 2065 0fbf 04       		.byte	0x4
 2066 0fc0 A00F0000 		.4byte	0xfa0
 2067 0fc4 1E       		.uleb128 0x1e
 2068 0fc5 3B010000 		.4byte	0x13b
 2069 0fc9 DD0F0000 		.4byte	0xfdd
 2070 0fcd 13       		.uleb128 0x13
 2071 0fce A5030000 		.4byte	0x3a5
 2072 0fd2 13       		.uleb128 0x13
 2073 0fd3 3C000000 		.4byte	0x3c
 2074 0fd7 13       		.uleb128 0x13
 2075 0fd8 A5030000 		.4byte	0x3a5
 2076 0fdc 00       		.byte	0
 2077 0fdd 10       		.uleb128 0x10
 2078 0fde 04       		.byte	0x4
 2079 0fdf C40F0000 		.4byte	0xfc4
 2080 0fe3 03       		.uleb128 0x3
 2081 0fe4 050C0000 		.4byte	.LASF209
 2082 0fe8 1A       		.byte	0x1a
 2083 0fe9 3A       		.byte	0x3a
 2084 0fea EE0F0000 		.4byte	0xfee
 2085 0fee 08       		.uleb128 0x8
 2086 0fef FD020000 		.4byte	.LASF210
 2087 0ff3 24       		.byte	0x24
 2088 0ff4 1A       		.byte	0x1a
 2089 0ff5 4B       		.byte	0x4b
 2090 0ff6 5B100000 		.4byte	0x105b
 2091 0ffa 0C       		.uleb128 0xc
 2092 0ffb 110B0000 		.4byte	.LASF211
 2093 0fff 1A       		.byte	0x1a
 2094 1000 4C       		.byte	0x4c
 2095 1001 F2020000 		.4byte	0x2f2
 2096 1005 00       		.byte	0
 2097 1006 0C       		.uleb128 0xc
 2098 1007 51050000 		.4byte	.LASF212
 2099 100b 1A       		.byte	0x1a
 2100 100c 4D       		.byte	0x4d
 2101 100d 37000000 		.4byte	0x37
 2102 1011 08       		.byte	0x8
 2103 1012 0C       		.uleb128 0xc
 2104 1013 C2010000 		.4byte	.LASF213
 2105 1017 1A       		.byte	0x1a
 2106 1018 4E       		.byte	0x4e
 2107 1019 CB0A0000 		.4byte	0xacb
 2108 101d 0C       		.byte	0xc
 2109 101e 0C       		.uleb128 0xc
ARM GAS  /var/folders/vd/czx34qs52cd_f3nb04sxmghc0000gn/T//ccA2UiKd.s 			page 38


 2110 101f AF010000 		.4byte	.LASF214
 2111 1023 1A       		.byte	0x1a
 2112 1024 4F       		.byte	0x4f
 2113 1025 CB0A0000 		.4byte	0xacb
 2114 1029 10       		.byte	0x10
 2115 102a 0C       		.uleb128 0xc
 2116 102b 1C0D0000 		.4byte	.LASF215
 2117 102f 1A       		.byte	0x1a
 2118 1030 51       		.byte	0x51
 2119 1031 CB0A0000 		.4byte	0xacb
 2120 1035 14       		.byte	0x14
 2121 1036 0C       		.uleb128 0xc
 2122 1037 0B020000 		.4byte	.LASF216
 2123 103b 1A       		.byte	0x1a
 2124 103c 52       		.byte	0x52
 2125 103d CB0A0000 		.4byte	0xacb
 2126 1041 18       		.byte	0x18
 2127 1042 0C       		.uleb128 0xc
 2128 1043 CB010000 		.4byte	.LASF217
 2129 1047 1A       		.byte	0x1a
 2130 1048 53       		.byte	0x53
 2131 1049 5B100000 		.4byte	0x105b
 2132 104d 1C       		.byte	0x1c
 2133 104e 0C       		.uleb128 0xc
 2134 104f 79030000 		.4byte	.LASF218
 2135 1053 1A       		.byte	0x1a
 2136 1054 54       		.byte	0x54
 2137 1055 A5030000 		.4byte	0x3a5
 2138 1059 20       		.byte	0x20
 2139 105a 00       		.byte	0
 2140 105b 03       		.uleb128 0x3
 2141 105c FF070000 		.4byte	.LASF219
 2142 1060 1A       		.byte	0x1a
 2143 1061 41       		.byte	0x41
 2144 1062 66100000 		.4byte	0x1066
 2145 1066 10       		.uleb128 0x10
 2146 1067 04       		.byte	0x4
 2147 1068 6C100000 		.4byte	0x106c
 2148 106c 12       		.uleb128 0x12
 2149 106d 77100000 		.4byte	0x1077
 2150 1071 13       		.uleb128 0x13
 2151 1072 77100000 		.4byte	0x1077
 2152 1076 00       		.byte	0
 2153 1077 10       		.uleb128 0x10
 2154 1078 04       		.byte	0x4
 2155 1079 E30F0000 		.4byte	0xfe3
 2156 107d 03       		.uleb128 0x3
 2157 107e DC0C0000 		.4byte	.LASF220
 2158 1082 1A       		.byte	0x1a
 2159 1083 61       		.byte	0x61
 2160 1084 E30F0000 		.4byte	0xfe3
 2161 1088 03       		.uleb128 0x3
 2162 1089 4D0D0000 		.4byte	.LASF221
 2163 108d 1A       		.byte	0x1a
 2164 108e 6D       		.byte	0x6d
 2165 108f E30F0000 		.4byte	0xfe3
 2166 1093 25       		.uleb128 0x25
ARM GAS  /var/folders/vd/czx34qs52cd_f3nb04sxmghc0000gn/T//ccA2UiKd.s 			page 39


 2167 1094 01       		.byte	0x1
 2168 1095 1B       		.byte	0x1b
 2169 1096 99       		.byte	0x99
 2170 1097 F3030000 		.4byte	.LASF292
 2171 109b 03       		.uleb128 0x3
 2172 109c 4A040000 		.4byte	.LASF222
 2173 10a0 1B       		.byte	0x1b
 2174 10a1 AA       		.byte	0xaa
 2175 10a2 93100000 		.4byte	0x1093
 2176 10a6 1B       		.uleb128 0x1b
 2177 10a7 28       		.byte	0x28
 2178 10a8 1C       		.byte	0x1c
 2179 10a9 51       		.byte	0x51
 2180 10aa E4030000 		.4byte	.LASF223
 2181 10ae 6C110000 		.4byte	0x116c
 2182 10b2 09       		.uleb128 0x9
 2183 10b3 04       		.byte	0x4
 2184 10b4 1C       		.byte	0x1c
 2185 10b5 59       		.byte	0x59
 2186 10b6 EE100000 		.4byte	0x10ee
 2187 10ba 26       		.uleb128 0x26
 2188 10bb 04       		.byte	0x4
 2189 10bc 1C       		.byte	0x1c
 2190 10bd 5B       		.byte	0x5b
 2191 10be DB100000 		.4byte	0x10db
 2192 10c2 0D       		.uleb128 0xd
 2193 10c3 73657400 		.ascii	"set\000"
 2194 10c7 1C       		.byte	0x1c
 2195 10c8 5C       		.byte	0x5c
 2196 10c9 CE000000 		.4byte	0xce
 2197 10cd 00       		.byte	0
 2198 10ce 0C       		.uleb128 0xc
 2199 10cf 33050000 		.4byte	.LASF224
 2200 10d3 1C       		.byte	0x1c
 2201 10d4 5D       		.byte	0x5d
 2202 10d5 CE000000 		.4byte	0xce
 2203 10d9 02       		.byte	0x2
 2204 10da 00       		.byte	0
 2205 10db 27       		.uleb128 0x27
 2206 10dc 5700     		.ascii	"W\000"
 2207 10de 1C       		.byte	0x1c
 2208 10df 5A       		.byte	0x5a
 2209 10e0 E9000000 		.4byte	0xe9
 2210 10e4 27       		.uleb128 0x27
 2211 10e5 4800     		.ascii	"H\000"
 2212 10e7 1C       		.byte	0x1c
 2213 10e8 5E       		.byte	0x5e
 2214 10e9 BA100000 		.4byte	0x10ba
 2215 10ed 00       		.byte	0
 2216 10ee 04       		.uleb128 0x4
 2217 10ef B2100000 		.4byte	0x10b2
 2218 10f3 0C       		.uleb128 0xc
 2219 10f4 0F080000 		.4byte	.LASF225
 2220 10f8 1C       		.byte	0x1c
 2221 10f9 53       		.byte	0x53
 2222 10fa F4000000 		.4byte	0xf4
 2223 10fe 00       		.byte	0
ARM GAS  /var/folders/vd/czx34qs52cd_f3nb04sxmghc0000gn/T//ccA2UiKd.s 			page 40


 2224 10ff 0C       		.uleb128 0xc
 2225 1100 0A0B0000 		.4byte	.LASF226
 2226 1104 1C       		.byte	0x1c
 2227 1105 54       		.byte	0x54
 2228 1106 F4000000 		.4byte	0xf4
 2229 110a 04       		.byte	0x4
 2230 110b 0C       		.uleb128 0xc
 2231 110c C1060000 		.4byte	.LASF227
 2232 1110 1C       		.byte	0x1c
 2233 1111 55       		.byte	0x55
 2234 1112 F4000000 		.4byte	0xf4
 2235 1116 08       		.byte	0x8
 2236 1117 0C       		.uleb128 0xc
 2237 1118 3D070000 		.4byte	.LASF228
 2238 111c 1C       		.byte	0x1c
 2239 111d 56       		.byte	0x56
 2240 111e F4000000 		.4byte	0xf4
 2241 1122 0C       		.byte	0xc
 2242 1123 0D       		.uleb128 0xd
 2243 1124 49445200 		.ascii	"IDR\000"
 2244 1128 1C       		.byte	0x1c
 2245 1129 57       		.byte	0x57
 2246 112a F4000000 		.4byte	0xf4
 2247 112e 10       		.byte	0x10
 2248 112f 0D       		.uleb128 0xd
 2249 1130 4F445200 		.ascii	"ODR\000"
 2250 1134 1C       		.byte	0x1c
 2251 1135 58       		.byte	0x58
 2252 1136 F4000000 		.4byte	0xf4
 2253 113a 14       		.byte	0x14
 2254 113b 0C       		.uleb128 0xc
 2255 113c 100C0000 		.4byte	.LASF229
 2256 1140 1C       		.byte	0x1c
 2257 1141 5F       		.byte	0x5f
 2258 1142 EE100000 		.4byte	0x10ee
 2259 1146 18       		.byte	0x18
 2260 1147 0C       		.uleb128 0xc
 2261 1148 050A0000 		.4byte	.LASF230
 2262 114c 1C       		.byte	0x1c
 2263 114d 60       		.byte	0x60
 2264 114e F4000000 		.4byte	0xf4
 2265 1152 1C       		.byte	0x1c
 2266 1153 0C       		.uleb128 0xc
 2267 1154 39050000 		.4byte	.LASF231
 2268 1158 1C       		.byte	0x1c
 2269 1159 61       		.byte	0x61
 2270 115a F4000000 		.4byte	0xf4
 2271 115e 20       		.byte	0x20
 2272 115f 0C       		.uleb128 0xc
 2273 1160 6B0A0000 		.4byte	.LASF232
 2274 1164 1C       		.byte	0x1c
 2275 1165 62       		.byte	0x62
 2276 1166 F4000000 		.4byte	0xf4
 2277 116a 24       		.byte	0x24
 2278 116b 00       		.byte	0
 2279 116c 03       		.uleb128 0x3
 2280 116d 89030000 		.4byte	.LASF233
ARM GAS  /var/folders/vd/czx34qs52cd_f3nb04sxmghc0000gn/T//ccA2UiKd.s 			page 41


 2281 1171 1C       		.byte	0x1c
 2282 1172 63       		.byte	0x63
 2283 1173 A6100000 		.4byte	0x10a6
 2284 1177 03       		.uleb128 0x3
 2285 1178 DA040000 		.4byte	.LASF234
 2286 117c 1D       		.byte	0x1d
 2287 117d C2       		.byte	0xc2
 2288 117e E9000000 		.4byte	0xe9
 2289 1182 03       		.uleb128 0x3
 2290 1183 5B020000 		.4byte	.LASF235
 2291 1187 1D       		.byte	0x1d
 2292 1188 D9       		.byte	0xd9
 2293 1189 8D110000 		.4byte	0x118d
 2294 118d 10       		.uleb128 0x10
 2295 118e 04       		.byte	0x4
 2296 118f 6C110000 		.4byte	0x116c
 2297 1193 17       		.uleb128 0x17
 2298 1194 9B100000 		.4byte	0x109b
 2299 1198 A3110000 		.4byte	0x11a3
 2300 119c 18       		.uleb128 0x18
 2301 119d 3C000000 		.4byte	0x3c
 2302 11a1 0F       		.byte	0xf
 2303 11a2 00       		.byte	0
 2304 11a3 15       		.uleb128 0x15
 2305 11a4 09090000 		.4byte	.LASF236
 2306 11a8 1D       		.byte	0x1d
 2307 11a9 DA01     		.2byte	0x1da
 2308 11ab 93110000 		.4byte	0x1193
 2309 11af 28       		.uleb128 0x28
 2310 11b0 07       		.byte	0x7
 2311 11b1 01       		.byte	0x1
 2312 11b2 68000000 		.4byte	0x68
 2313 11b6 1E       		.byte	0x1e
 2314 11b7 4A       		.byte	0x4a
 2315 11b8 55040000 		.4byte	.LASF261
 2316 11bc D3110000 		.4byte	0x11d3
 2317 11c0 29       		.uleb128 0x29
 2318 11c1 82010000 		.4byte	.LASF237
 2319 11c5 00       		.byte	0
 2320 11c6 29       		.uleb128 0x29
 2321 11c7 E1090000 		.4byte	.LASF238
 2322 11cb 01       		.byte	0x1
 2323 11cc 29       		.uleb128 0x29
 2324 11cd 7E0B0000 		.4byte	.LASF239
 2325 11d1 02       		.byte	0x2
 2326 11d2 00       		.byte	0
 2327 11d3 03       		.uleb128 0x3
 2328 11d4 830C0000 		.4byte	.LASF240
 2329 11d8 1E       		.byte	0x1e
 2330 11d9 4E       		.byte	0x4e
 2331 11da AF110000 		.4byte	0x11af
 2332 11de 03       		.uleb128 0x3
 2333 11df A3080000 		.4byte	.LASF241
 2334 11e3 1E       		.byte	0x1e
 2335 11e4 53       		.byte	0x53
 2336 11e5 E9110000 		.4byte	0x11e9
 2337 11e9 11       		.uleb128 0x11
ARM GAS  /var/folders/vd/czx34qs52cd_f3nb04sxmghc0000gn/T//ccA2UiKd.s 			page 42


 2338 11ea A3080000 		.4byte	.LASF241
 2339 11ee 1C       		.byte	0x1c
 2340 11ef 1F       		.byte	0x1f
 2341 11f0 B201     		.2byte	0x1b2
 2342 11f2 52120000 		.4byte	0x1252
 2343 11f6 0F       		.uleb128 0xf
 2344 11f7 20010000 		.4byte	.LASF46
 2345 11fb 1F       		.byte	0x1f
 2346 11fc B601     		.2byte	0x1b6
 2347 11fe D3110000 		.4byte	0x11d3
 2348 1202 00       		.byte	0
 2349 1203 0F       		.uleb128 0xf
 2350 1204 19010000 		.4byte	.LASF242
 2351 1208 1F       		.byte	0x1f
 2352 1209 BA01     		.2byte	0x1ba
 2353 120b 55130000 		.4byte	0x1355
 2354 120f 04       		.byte	0x4
 2355 1210 0F       		.uleb128 0xf
 2356 1211 A60A0000 		.4byte	.LASF243
 2357 1215 1F       		.byte	0x1f
 2358 1216 BE01     		.2byte	0x1be
 2359 1218 98120000 		.4byte	0x1298
 2360 121c 08       		.byte	0x8
 2361 121d 0F       		.uleb128 0xf
 2362 121e 5B050000 		.4byte	.LASF244
 2363 1222 1F       		.byte	0x1f
 2364 1223 C201     		.2byte	0x1c2
 2365 1225 8C120000 		.4byte	0x128c
 2366 1229 0C       		.byte	0xc
 2367 122a 0F       		.uleb128 0xf
 2368 122b 79080000 		.4byte	.LASF245
 2369 122f 1F       		.byte	0x1f
 2370 1230 C601     		.2byte	0x1c6
 2371 1232 80120000 		.4byte	0x1280
 2372 1236 10       		.byte	0x10
 2373 1237 0F       		.uleb128 0xf
 2374 1238 92060000 		.4byte	.LASF246
 2375 123c 1F       		.byte	0x1f
 2376 123d CE01     		.2byte	0x1ce
 2377 123f E9000000 		.4byte	0xe9
 2378 1243 14       		.byte	0x14
 2379 1244 0E       		.uleb128 0xe
 2380 1245 74696D00 		.ascii	"tim\000"
 2381 1249 1F       		.byte	0x1f
 2382 124a D201     		.2byte	0x1d2
 2383 124c 5B130000 		.4byte	0x135b
 2384 1250 18       		.byte	0x18
 2385 1251 00       		.byte	0
 2386 1252 03       		.uleb128 0x3
 2387 1253 8D080000 		.4byte	.LASF247
 2388 1257 1E       		.byte	0x1e
 2389 1258 5A       		.byte	0x5a
 2390 1259 5D120000 		.4byte	0x125d
 2391 125d 10       		.uleb128 0x10
 2392 125e 04       		.byte	0x4
 2393 125f 63120000 		.4byte	0x1263
 2394 1263 12       		.uleb128 0x12
ARM GAS  /var/folders/vd/czx34qs52cd_f3nb04sxmghc0000gn/T//ccA2UiKd.s 			page 43


 2395 1264 6E120000 		.4byte	0x126e
 2396 1268 13       		.uleb128 0x13
 2397 1269 6E120000 		.4byte	0x126e
 2398 126d 00       		.byte	0
 2399 126e 10       		.uleb128 0x10
 2400 126f 04       		.byte	0x4
 2401 1270 DE110000 		.4byte	0x11de
 2402 1274 1A       		.uleb128 0x1a
 2403 1275 F0040000 		.4byte	.LASF248
 2404 1279 1F       		.byte	0x1f
 2405 127a 5E01     		.2byte	0x15e
 2406 127c E9000000 		.4byte	0xe9
 2407 1280 1A       		.uleb128 0x1a
 2408 1281 98020000 		.4byte	.LASF249
 2409 1285 1F       		.byte	0x1f
 2410 1286 6301     		.2byte	0x163
 2411 1288 BE000000 		.4byte	0xbe
 2412 128c 1A       		.uleb128 0x1a
 2413 128d 0D010000 		.4byte	.LASF250
 2414 1291 1F       		.byte	0x1f
 2415 1292 6801     		.2byte	0x168
 2416 1294 E9000000 		.4byte	0xe9
 2417 1298 1A       		.uleb128 0x1a
 2418 1299 62030000 		.4byte	.LASF251
 2419 129d 1F       		.byte	0x1f
 2420 129e 6D01     		.2byte	0x16d
 2421 12a0 E9000000 		.4byte	0xe9
 2422 12a4 19       		.uleb128 0x19
 2423 12a5 08       		.byte	0x8
 2424 12a6 1F       		.byte	0x1f
 2425 12a7 7201     		.2byte	0x172
 2426 12a9 960D0000 		.4byte	.LASF252
 2427 12ad CC120000 		.4byte	0x12cc
 2428 12b1 0F       		.uleb128 0xf
 2429 12b2 C70B0000 		.4byte	.LASF253
 2430 12b6 1F       		.byte	0x1f
 2431 12b7 7601     		.2byte	0x176
 2432 12b9 74120000 		.4byte	0x1274
 2433 12bd 00       		.byte	0
 2434 12be 0F       		.uleb128 0xf
 2435 12bf F9010000 		.4byte	.LASF254
 2436 12c3 1F       		.byte	0x1f
 2437 12c4 7C01     		.2byte	0x17c
 2438 12c6 52120000 		.4byte	0x1252
 2439 12ca 04       		.byte	0x4
 2440 12cb 00       		.byte	0
 2441 12cc 1A       		.uleb128 0x1a
 2442 12cd 2B010000 		.4byte	.LASF255
 2443 12d1 1F       		.byte	0x1f
 2444 12d2 7E01     		.2byte	0x17e
 2445 12d4 A4120000 		.4byte	0x12a4
 2446 12d8 19       		.uleb128 0x19
 2447 12d9 34       		.byte	0x34
 2448 12da 1F       		.byte	0x1f
 2449 12db 8301     		.2byte	0x183
 2450 12dd 82080000 		.4byte	.LASF256
 2451 12e1 34130000 		.4byte	0x1334
ARM GAS  /var/folders/vd/czx34qs52cd_f3nb04sxmghc0000gn/T//ccA2UiKd.s 			page 44


 2452 12e5 0F       		.uleb128 0xf
 2453 12e6 F0070000 		.4byte	.LASF257
 2454 12ea 1F       		.byte	0x1f
 2455 12eb 8901     		.2byte	0x189
 2456 12ed E9000000 		.4byte	0xe9
 2457 12f1 00       		.byte	0
 2458 12f2 0F       		.uleb128 0xf
 2459 12f3 A60A0000 		.4byte	.LASF243
 2460 12f7 1F       		.byte	0x1f
 2461 12f8 8F01     		.2byte	0x18f
 2462 12fa 98120000 		.4byte	0x1298
 2463 12fe 04       		.byte	0x4
 2464 12ff 0F       		.uleb128 0xf
 2465 1300 F9010000 		.4byte	.LASF254
 2466 1304 1F       		.byte	0x1f
 2467 1305 9501     		.2byte	0x195
 2468 1307 52120000 		.4byte	0x1252
 2469 130b 08       		.byte	0x8
 2470 130c 0F       		.uleb128 0xf
 2471 130d 79080000 		.4byte	.LASF245
 2472 1311 1F       		.byte	0x1f
 2473 1312 9901     		.2byte	0x199
 2474 1314 34130000 		.4byte	0x1334
 2475 1318 0C       		.byte	0xc
 2476 1319 0E       		.uleb128 0xe
 2477 131a 63723200 		.ascii	"cr2\000"
 2478 131e 1F       		.byte	0x1f
 2479 131f 9F01     		.2byte	0x19f
 2480 1321 E9000000 		.4byte	0xe9
 2481 1325 2C       		.byte	0x2c
 2482 1326 0F       		.uleb128 0xf
 2483 1327 7D010000 		.4byte	.LASF258
 2484 132b 1F       		.byte	0x1f
 2485 132c AC01     		.2byte	0x1ac
 2486 132e E9000000 		.4byte	0xe9
 2487 1332 30       		.byte	0x30
 2488 1333 00       		.byte	0
 2489 1334 17       		.uleb128 0x17
 2490 1335 CC120000 		.4byte	0x12cc
 2491 1339 44130000 		.4byte	0x1344
 2492 133d 18       		.uleb128 0x18
 2493 133e 3C000000 		.4byte	0x3c
 2494 1342 03       		.byte	0x3
 2495 1343 00       		.byte	0
 2496 1344 1A       		.uleb128 0x1a
 2497 1345 3D0C0000 		.4byte	.LASF259
 2498 1349 1F       		.byte	0x1f
 2499 134a AD01     		.2byte	0x1ad
 2500 134c D8120000 		.4byte	0x12d8
 2501 1350 07       		.uleb128 0x7
 2502 1351 44130000 		.4byte	0x1344
 2503 1355 10       		.uleb128 0x10
 2504 1356 04       		.byte	0x4
 2505 1357 50130000 		.4byte	0x1350
 2506 135b 10       		.uleb128 0x10
 2507 135c 04       		.byte	0x4
 2508 135d FE070000 		.4byte	0x7fe
ARM GAS  /var/folders/vd/czx34qs52cd_f3nb04sxmghc0000gn/T//ccA2UiKd.s 			page 45


 2509 1361 15       		.uleb128 0x15
 2510 1362 730C0000 		.4byte	.LASF260
 2511 1366 1F       		.byte	0x1f
 2512 1367 FD01     		.2byte	0x1fd
 2513 1369 DE110000 		.4byte	0x11de
 2514 136d 28       		.uleb128 0x28
 2515 136e 07       		.byte	0x7
 2516 136f 01       		.byte	0x1
 2517 1370 68000000 		.4byte	0x68
 2518 1374 20       		.byte	0x20
 2519 1375 58       		.byte	0x58
 2520 1376 DC060000 		.4byte	.LASF262
 2521 137a 91130000 		.4byte	0x1391
 2522 137e 29       		.uleb128 0x29
 2523 137f CA030000 		.4byte	.LASF263
 2524 1383 00       		.byte	0
 2525 1384 29       		.uleb128 0x29
 2526 1385 6F0D0000 		.4byte	.LASF264
 2527 1389 01       		.byte	0x1
 2528 138a 29       		.uleb128 0x29
 2529 138b 330B0000 		.4byte	.LASF265
 2530 138f 02       		.byte	0x2
 2531 1390 00       		.byte	0
 2532 1391 03       		.uleb128 0x3
 2533 1392 290B0000 		.4byte	.LASF266
 2534 1396 20       		.byte	0x20
 2535 1397 5C       		.byte	0x5c
 2536 1398 6D130000 		.4byte	0x136d
 2537 139c 03       		.uleb128 0x3
 2538 139d EF0A0000 		.4byte	.LASF267
 2539 13a1 20       		.byte	0x20
 2540 13a2 61       		.byte	0x61
 2541 13a3 A7130000 		.4byte	0x13a7
 2542 13a7 08       		.uleb128 0x8
 2543 13a8 EF0A0000 		.4byte	.LASF267
 2544 13ac 7C       		.byte	0x7c
 2545 13ad 20       		.byte	0x20
 2546 13ae 7B       		.byte	0x7b
 2547 13af 1E140000 		.4byte	0x141e
 2548 13b3 0D       		.uleb128 0xd
 2549 13b4 766D7400 		.ascii	"vmt\000"
 2550 13b8 20       		.byte	0x20
 2551 13b9 7D       		.byte	0x7d
 2552 13ba B4140000 		.4byte	0x14b4
 2553 13be 00       		.byte	0
 2554 13bf 0C       		.uleb128 0xc
 2555 13c0 09080000 		.4byte	.LASF268
 2556 13c4 20       		.byte	0x20
 2557 13c5 7E       		.byte	0x7e
 2558 13c6 6F0A0000 		.4byte	0xa6f
 2559 13ca 04       		.byte	0x4
 2560 13cb 0C       		.uleb128 0xc
 2561 13cc 20010000 		.4byte	.LASF46
 2562 13d0 20       		.byte	0x20
 2563 13d1 7E       		.byte	0x7e
 2564 13d2 91130000 		.4byte	0x1391
 2565 13d6 08       		.byte	0x8
ARM GAS  /var/folders/vd/czx34qs52cd_f3nb04sxmghc0000gn/T//ccA2UiKd.s 			page 46


 2566 13d7 0C       		.uleb128 0xc
 2567 13d8 E30B0000 		.4byte	.LASF269
 2568 13dc 20       		.byte	0x20
 2569 13dd 7E       		.byte	0x7e
 2570 13de 7D100000 		.4byte	0x107d
 2571 13e2 0C       		.byte	0xc
 2572 13e3 0C       		.uleb128 0xc
 2573 13e4 88020000 		.4byte	.LASF270
 2574 13e8 20       		.byte	0x20
 2575 13e9 7E       		.byte	0x7e
 2576 13ea 88100000 		.4byte	0x1088
 2577 13ee 30       		.byte	0x30
 2578 13ef 0D       		.uleb128 0xd
 2579 13f0 696200   		.ascii	"ib\000"
 2580 13f3 20       		.byte	0x20
 2581 13f4 7E       		.byte	0x7e
 2582 13f5 BA140000 		.4byte	0x14ba
 2583 13f9 54       		.byte	0x54
 2584 13fa 0D       		.uleb128 0xd
 2585 13fb 6F6200   		.ascii	"ob\000"
 2586 13fe 20       		.byte	0x20
 2587 13ff 7E       		.byte	0x7e
 2588 1400 BA140000 		.4byte	0x14ba
 2589 1404 64       		.byte	0x64
 2590 1405 0C       		.uleb128 0xc
 2591 1406 AE020000 		.4byte	.LASF271
 2592 140a 20       		.byte	0x20
 2593 140b 7E       		.byte	0x7e
 2594 140c CA140000 		.4byte	0x14ca
 2595 1410 74       		.byte	0x74
 2596 1411 0C       		.uleb128 0xc
 2597 1412 00050000 		.4byte	.LASF272
 2598 1416 20       		.byte	0x20
 2599 1417 7E       		.byte	0x7e
 2600 1418 BE000000 		.4byte	0xbe
 2601 141c 78       		.byte	0x78
 2602 141d 00       		.byte	0
 2603 141e 1C       		.uleb128 0x1c
 2604 141f 53443100 		.ascii	"SD1\000"
 2605 1423 21       		.byte	0x21
 2606 1424 4401     		.2byte	0x144
 2607 1426 9C130000 		.4byte	0x139c
 2608 142a 08       		.uleb128 0x8
 2609 142b 66060000 		.4byte	.LASF273
 2610 142f 28       		.byte	0x28
 2611 1430 20       		.byte	0x20
 2612 1431 70       		.byte	0x70
 2613 1432 AF140000 		.4byte	0x14af
 2614 1436 0C       		.uleb128 0xc
 2615 1437 CC0C0000 		.4byte	.LASF274
 2616 143b 20       		.byte	0x20
 2617 143c 71       		.byte	0x71
 2618 143d 2C000000 		.4byte	0x2c
 2619 1441 00       		.byte	0
 2620 1442 0C       		.uleb128 0xc
 2621 1443 F8000000 		.4byte	.LASF275
 2622 1447 20       		.byte	0x20
ARM GAS  /var/folders/vd/czx34qs52cd_f3nb04sxmghc0000gn/T//ccA2UiKd.s 			page 47


 2623 1448 71       		.byte	0x71
 2624 1449 EF0E0000 		.4byte	0xeef
 2625 144d 04       		.byte	0x4
 2626 144e 0C       		.uleb128 0xc
 2627 144f 15080000 		.4byte	.LASF276
 2628 1453 20       		.byte	0x20
 2629 1454 71       		.byte	0x71
 2630 1455 0E0F0000 		.4byte	0xf0e
 2631 1459 08       		.byte	0x8
 2632 145a 0D       		.uleb128 0xd
 2633 145b 70757400 		.ascii	"put\000"
 2634 145f 20       		.byte	0x20
 2635 1460 71       		.byte	0x71
 2636 1461 280F0000 		.4byte	0xf28
 2637 1465 0C       		.byte	0xc
 2638 1466 0D       		.uleb128 0xd
 2639 1467 67657400 		.ascii	"get\000"
 2640 146b 20       		.byte	0x20
 2641 146c 71       		.byte	0x71
 2642 146d 3D0F0000 		.4byte	0xf3d
 2643 1471 10       		.byte	0x10
 2644 1472 0C       		.uleb128 0xc
 2645 1473 26010000 		.4byte	.LASF277
 2646 1477 20       		.byte	0x20
 2647 1478 71       		.byte	0x71
 2648 1479 5C0F0000 		.4byte	0xf5c
 2649 147d 14       		.byte	0x14
 2650 147e 0C       		.uleb128 0xc
 2651 147f 83040000 		.4byte	.LASF278
 2652 1483 20       		.byte	0x20
 2653 1484 71       		.byte	0x71
 2654 1485 760F0000 		.4byte	0xf76
 2655 1489 18       		.byte	0x18
 2656 148a 0C       		.uleb128 0xc
 2657 148b 83000000 		.4byte	.LASF279
 2658 148f 20       		.byte	0x20
 2659 1490 71       		.byte	0x71
 2660 1491 9A0F0000 		.4byte	0xf9a
 2661 1495 1C       		.byte	0x1c
 2662 1496 0C       		.uleb128 0xc
 2663 1497 BC010000 		.4byte	.LASF280
 2664 149b 20       		.byte	0x20
 2665 149c 71       		.byte	0x71
 2666 149d BE0F0000 		.4byte	0xfbe
 2667 14a1 20       		.byte	0x20
 2668 14a2 0D       		.uleb128 0xd
 2669 14a3 63746C00 		.ascii	"ctl\000"
 2670 14a7 20       		.byte	0x20
 2671 14a8 71       		.byte	0x71
 2672 14a9 DD0F0000 		.4byte	0xfdd
 2673 14ad 24       		.byte	0x24
 2674 14ae 00       		.byte	0
 2675 14af 07       		.uleb128 0x7
 2676 14b0 2A140000 		.4byte	0x142a
 2677 14b4 10       		.uleb128 0x10
 2678 14b5 04       		.byte	0x4
 2679 14b6 AF140000 		.4byte	0x14af
ARM GAS  /var/folders/vd/czx34qs52cd_f3nb04sxmghc0000gn/T//ccA2UiKd.s 			page 48


 2680 14ba 17       		.uleb128 0x17
 2681 14bb BE000000 		.4byte	0xbe
 2682 14bf CA140000 		.4byte	0x14ca
 2683 14c3 18       		.uleb128 0x18
 2684 14c4 3C000000 		.4byte	0x3c
 2685 14c8 0F       		.byte	0xf
 2686 14c9 00       		.byte	0
 2687 14ca 10       		.uleb128 0x10
 2688 14cb 04       		.byte	0x4
 2689 14cc 32060000 		.4byte	0x632
 2690 14d0 2A       		.uleb128 0x2a
 2691 14d1 150C0000 		.4byte	.LASF281
 2692 14d5 01       		.byte	0x1
 2693 14d6 03       		.byte	0x3
 2694 14d7 AA000000 		.4byte	.LASF293
 2695 14db 00000000 		.4byte	.LFB506
 2696 14df B0000000 		.4byte	.LFE506-.LFB506
 2697 14e3 01       		.uleb128 0x1
 2698 14e4 9C       		.byte	0x9c
 2699 14e5 15150000 		.4byte	0x1515
 2700 14e9 2B       		.uleb128 0x2b
 2701 14ea F3090000 		.4byte	.LASF282
 2702 14ee 01       		.byte	0x1
 2703 14ef 03       		.byte	0x3
 2704 14f0 82110000 		.4byte	0x1182
 2705 14f4 00000000 		.4byte	.LLST0
 2706 14f8 2B       		.uleb128 0x2b
 2707 14f9 96030000 		.4byte	.LASF283
 2708 14fd 01       		.byte	0x1
 2709 14fe 03       		.byte	0x3
 2710 14ff 77110000 		.4byte	0x1177
 2711 1503 2C000000 		.4byte	.LLST1
 2712 1507 2C       		.uleb128 0x2c
 2713 1508 B5010000 		.4byte	.LASF284
 2714 150c 01       		.byte	0x1
 2715 150d 03       		.byte	0x3
 2716 150e 15150000 		.4byte	0x1515
 2717 1512 01       		.uleb128 0x1
 2718 1513 52       		.byte	0x52
 2719 1514 00       		.byte	0
 2720 1515 10       		.uleb128 0x10
 2721 1516 04       		.byte	0x4
 2722 1517 A1080000 		.4byte	0x8a1
 2723 151b 00       		.byte	0
 2724              		.section	.debug_abbrev,"",%progbits
 2725              	.Ldebug_abbrev0:
 2726 0000 01       		.uleb128 0x1
 2727 0001 11       		.uleb128 0x11
 2728 0002 01       		.byte	0x1
 2729 0003 25       		.uleb128 0x25
 2730 0004 0E       		.uleb128 0xe
 2731 0005 13       		.uleb128 0x13
 2732 0006 0B       		.uleb128 0xb
 2733 0007 03       		.uleb128 0x3
 2734 0008 0E       		.uleb128 0xe
 2735 0009 1B       		.uleb128 0x1b
 2736 000a 0E       		.uleb128 0xe
ARM GAS  /var/folders/vd/czx34qs52cd_f3nb04sxmghc0000gn/T//ccA2UiKd.s 			page 49


 2737 000b 55       		.uleb128 0x55
 2738 000c 17       		.uleb128 0x17
 2739 000d 11       		.uleb128 0x11
 2740 000e 01       		.uleb128 0x1
 2741 000f 10       		.uleb128 0x10
 2742 0010 17       		.uleb128 0x17
 2743 0011 00       		.byte	0
 2744 0012 00       		.byte	0
 2745 0013 02       		.uleb128 0x2
 2746 0014 24       		.uleb128 0x24
 2747 0015 00       		.byte	0
 2748 0016 0B       		.uleb128 0xb
 2749 0017 0B       		.uleb128 0xb
 2750 0018 3E       		.uleb128 0x3e
 2751 0019 0B       		.uleb128 0xb
 2752 001a 03       		.uleb128 0x3
 2753 001b 08       		.uleb128 0x8
 2754 001c 00       		.byte	0
 2755 001d 00       		.byte	0
 2756 001e 03       		.uleb128 0x3
 2757 001f 16       		.uleb128 0x16
 2758 0020 00       		.byte	0
 2759 0021 03       		.uleb128 0x3
 2760 0022 0E       		.uleb128 0xe
 2761 0023 3A       		.uleb128 0x3a
 2762 0024 0B       		.uleb128 0xb
 2763 0025 3B       		.uleb128 0x3b
 2764 0026 0B       		.uleb128 0xb
 2765 0027 49       		.uleb128 0x49
 2766 0028 13       		.uleb128 0x13
 2767 0029 00       		.byte	0
 2768 002a 00       		.byte	0
 2769 002b 04       		.uleb128 0x4
 2770 002c 35       		.uleb128 0x35
 2771 002d 00       		.byte	0
 2772 002e 49       		.uleb128 0x49
 2773 002f 13       		.uleb128 0x13
 2774 0030 00       		.byte	0
 2775 0031 00       		.byte	0
 2776 0032 05       		.uleb128 0x5
 2777 0033 24       		.uleb128 0x24
 2778 0034 00       		.byte	0
 2779 0035 0B       		.uleb128 0xb
 2780 0036 0B       		.uleb128 0xb
 2781 0037 3E       		.uleb128 0x3e
 2782 0038 0B       		.uleb128 0xb
 2783 0039 03       		.uleb128 0x3
 2784 003a 0E       		.uleb128 0xe
 2785 003b 00       		.byte	0
 2786 003c 00       		.byte	0
 2787 003d 06       		.uleb128 0x6
 2788 003e 3B       		.uleb128 0x3b
 2789 003f 00       		.byte	0
 2790 0040 03       		.uleb128 0x3
 2791 0041 0E       		.uleb128 0xe
 2792 0042 00       		.byte	0
 2793 0043 00       		.byte	0
ARM GAS  /var/folders/vd/czx34qs52cd_f3nb04sxmghc0000gn/T//ccA2UiKd.s 			page 50


 2794 0044 07       		.uleb128 0x7
 2795 0045 26       		.uleb128 0x26
 2796 0046 00       		.byte	0
 2797 0047 49       		.uleb128 0x49
 2798 0048 13       		.uleb128 0x13
 2799 0049 00       		.byte	0
 2800 004a 00       		.byte	0
 2801 004b 08       		.uleb128 0x8
 2802 004c 13       		.uleb128 0x13
 2803 004d 01       		.byte	0x1
 2804 004e 03       		.uleb128 0x3
 2805 004f 0E       		.uleb128 0xe
 2806 0050 0B       		.uleb128 0xb
 2807 0051 0B       		.uleb128 0xb
 2808 0052 3A       		.uleb128 0x3a
 2809 0053 0B       		.uleb128 0xb
 2810 0054 3B       		.uleb128 0x3b
 2811 0055 0B       		.uleb128 0xb
 2812 0056 01       		.uleb128 0x1
 2813 0057 13       		.uleb128 0x13
 2814 0058 00       		.byte	0
 2815 0059 00       		.byte	0
 2816 005a 09       		.uleb128 0x9
 2817 005b 17       		.uleb128 0x17
 2818 005c 01       		.byte	0x1
 2819 005d 0B       		.uleb128 0xb
 2820 005e 0B       		.uleb128 0xb
 2821 005f 3A       		.uleb128 0x3a
 2822 0060 0B       		.uleb128 0xb
 2823 0061 3B       		.uleb128 0x3b
 2824 0062 0B       		.uleb128 0xb
 2825 0063 01       		.uleb128 0x1
 2826 0064 13       		.uleb128 0x13
 2827 0065 00       		.byte	0
 2828 0066 00       		.byte	0
 2829 0067 0A       		.uleb128 0xa
 2830 0068 0D       		.uleb128 0xd
 2831 0069 00       		.byte	0
 2832 006a 03       		.uleb128 0x3
 2833 006b 0E       		.uleb128 0xe
 2834 006c 3A       		.uleb128 0x3a
 2835 006d 0B       		.uleb128 0xb
 2836 006e 3B       		.uleb128 0x3b
 2837 006f 0B       		.uleb128 0xb
 2838 0070 49       		.uleb128 0x49
 2839 0071 13       		.uleb128 0x13
 2840 0072 00       		.byte	0
 2841 0073 00       		.byte	0
 2842 0074 0B       		.uleb128 0xb
 2843 0075 0D       		.uleb128 0xd
 2844 0076 00       		.byte	0
 2845 0077 03       		.uleb128 0x3
 2846 0078 0E       		.uleb128 0xe
 2847 0079 3A       		.uleb128 0x3a
 2848 007a 0B       		.uleb128 0xb
 2849 007b 3B       		.uleb128 0x3b
 2850 007c 05       		.uleb128 0x5
ARM GAS  /var/folders/vd/czx34qs52cd_f3nb04sxmghc0000gn/T//ccA2UiKd.s 			page 51


 2851 007d 49       		.uleb128 0x49
 2852 007e 13       		.uleb128 0x13
 2853 007f 00       		.byte	0
 2854 0080 00       		.byte	0
 2855 0081 0C       		.uleb128 0xc
 2856 0082 0D       		.uleb128 0xd
 2857 0083 00       		.byte	0
 2858 0084 03       		.uleb128 0x3
 2859 0085 0E       		.uleb128 0xe
 2860 0086 3A       		.uleb128 0x3a
 2861 0087 0B       		.uleb128 0xb
 2862 0088 3B       		.uleb128 0x3b
 2863 0089 0B       		.uleb128 0xb
 2864 008a 49       		.uleb128 0x49
 2865 008b 13       		.uleb128 0x13
 2866 008c 38       		.uleb128 0x38
 2867 008d 0B       		.uleb128 0xb
 2868 008e 00       		.byte	0
 2869 008f 00       		.byte	0
 2870 0090 0D       		.uleb128 0xd
 2871 0091 0D       		.uleb128 0xd
 2872 0092 00       		.byte	0
 2873 0093 03       		.uleb128 0x3
 2874 0094 08       		.uleb128 0x8
 2875 0095 3A       		.uleb128 0x3a
 2876 0096 0B       		.uleb128 0xb
 2877 0097 3B       		.uleb128 0x3b
 2878 0098 0B       		.uleb128 0xb
 2879 0099 49       		.uleb128 0x49
 2880 009a 13       		.uleb128 0x13
 2881 009b 38       		.uleb128 0x38
 2882 009c 0B       		.uleb128 0xb
 2883 009d 00       		.byte	0
 2884 009e 00       		.byte	0
 2885 009f 0E       		.uleb128 0xe
 2886 00a0 0D       		.uleb128 0xd
 2887 00a1 00       		.byte	0
 2888 00a2 03       		.uleb128 0x3
 2889 00a3 08       		.uleb128 0x8
 2890 00a4 3A       		.uleb128 0x3a
 2891 00a5 0B       		.uleb128 0xb
 2892 00a6 3B       		.uleb128 0x3b
 2893 00a7 05       		.uleb128 0x5
 2894 00a8 49       		.uleb128 0x49
 2895 00a9 13       		.uleb128 0x13
 2896 00aa 38       		.uleb128 0x38
 2897 00ab 0B       		.uleb128 0xb
 2898 00ac 00       		.byte	0
 2899 00ad 00       		.byte	0
 2900 00ae 0F       		.uleb128 0xf
 2901 00af 0D       		.uleb128 0xd
 2902 00b0 00       		.byte	0
 2903 00b1 03       		.uleb128 0x3
 2904 00b2 0E       		.uleb128 0xe
 2905 00b3 3A       		.uleb128 0x3a
 2906 00b4 0B       		.uleb128 0xb
 2907 00b5 3B       		.uleb128 0x3b
ARM GAS  /var/folders/vd/czx34qs52cd_f3nb04sxmghc0000gn/T//ccA2UiKd.s 			page 52


 2908 00b6 05       		.uleb128 0x5
 2909 00b7 49       		.uleb128 0x49
 2910 00b8 13       		.uleb128 0x13
 2911 00b9 38       		.uleb128 0x38
 2912 00ba 0B       		.uleb128 0xb
 2913 00bb 00       		.byte	0
 2914 00bc 00       		.byte	0
 2915 00bd 10       		.uleb128 0x10
 2916 00be 0F       		.uleb128 0xf
 2917 00bf 00       		.byte	0
 2918 00c0 0B       		.uleb128 0xb
 2919 00c1 0B       		.uleb128 0xb
 2920 00c2 49       		.uleb128 0x49
 2921 00c3 13       		.uleb128 0x13
 2922 00c4 00       		.byte	0
 2923 00c5 00       		.byte	0
 2924 00c6 11       		.uleb128 0x11
 2925 00c7 13       		.uleb128 0x13
 2926 00c8 01       		.byte	0x1
 2927 00c9 03       		.uleb128 0x3
 2928 00ca 0E       		.uleb128 0xe
 2929 00cb 0B       		.uleb128 0xb
 2930 00cc 0B       		.uleb128 0xb
 2931 00cd 3A       		.uleb128 0x3a
 2932 00ce 0B       		.uleb128 0xb
 2933 00cf 3B       		.uleb128 0x3b
 2934 00d0 05       		.uleb128 0x5
 2935 00d1 01       		.uleb128 0x1
 2936 00d2 13       		.uleb128 0x13
 2937 00d3 00       		.byte	0
 2938 00d4 00       		.byte	0
 2939 00d5 12       		.uleb128 0x12
 2940 00d6 15       		.uleb128 0x15
 2941 00d7 01       		.byte	0x1
 2942 00d8 01       		.uleb128 0x1
 2943 00d9 13       		.uleb128 0x13
 2944 00da 00       		.byte	0
 2945 00db 00       		.byte	0
 2946 00dc 13       		.uleb128 0x13
 2947 00dd 05       		.uleb128 0x5
 2948 00de 00       		.byte	0
 2949 00df 49       		.uleb128 0x49
 2950 00e0 13       		.uleb128 0x13
 2951 00e1 00       		.byte	0
 2952 00e2 00       		.byte	0
 2953 00e3 14       		.uleb128 0x14
 2954 00e4 0F       		.uleb128 0xf
 2955 00e5 00       		.byte	0
 2956 00e6 0B       		.uleb128 0xb
 2957 00e7 0B       		.uleb128 0xb
 2958 00e8 00       		.byte	0
 2959 00e9 00       		.byte	0
 2960 00ea 15       		.uleb128 0x15
 2961 00eb 34       		.uleb128 0x34
 2962 00ec 00       		.byte	0
 2963 00ed 03       		.uleb128 0x3
 2964 00ee 0E       		.uleb128 0xe
ARM GAS  /var/folders/vd/czx34qs52cd_f3nb04sxmghc0000gn/T//ccA2UiKd.s 			page 53


 2965 00ef 3A       		.uleb128 0x3a
 2966 00f0 0B       		.uleb128 0xb
 2967 00f1 3B       		.uleb128 0x3b
 2968 00f2 05       		.uleb128 0x5
 2969 00f3 49       		.uleb128 0x49
 2970 00f4 13       		.uleb128 0x13
 2971 00f5 3F       		.uleb128 0x3f
 2972 00f6 19       		.uleb128 0x19
 2973 00f7 3C       		.uleb128 0x3c
 2974 00f8 19       		.uleb128 0x19
 2975 00f9 00       		.byte	0
 2976 00fa 00       		.byte	0
 2977 00fb 16       		.uleb128 0x16
 2978 00fc 34       		.uleb128 0x34
 2979 00fd 00       		.byte	0
 2980 00fe 03       		.uleb128 0x3
 2981 00ff 0E       		.uleb128 0xe
 2982 0100 3A       		.uleb128 0x3a
 2983 0101 0B       		.uleb128 0xb
 2984 0102 3B       		.uleb128 0x3b
 2985 0103 0B       		.uleb128 0xb
 2986 0104 49       		.uleb128 0x49
 2987 0105 13       		.uleb128 0x13
 2988 0106 3F       		.uleb128 0x3f
 2989 0107 19       		.uleb128 0x19
 2990 0108 3C       		.uleb128 0x3c
 2991 0109 19       		.uleb128 0x19
 2992 010a 00       		.byte	0
 2993 010b 00       		.byte	0
 2994 010c 17       		.uleb128 0x17
 2995 010d 01       		.uleb128 0x1
 2996 010e 01       		.byte	0x1
 2997 010f 49       		.uleb128 0x49
 2998 0110 13       		.uleb128 0x13
 2999 0111 01       		.uleb128 0x1
 3000 0112 13       		.uleb128 0x13
 3001 0113 00       		.byte	0
 3002 0114 00       		.byte	0
 3003 0115 18       		.uleb128 0x18
 3004 0116 21       		.uleb128 0x21
 3005 0117 00       		.byte	0
 3006 0118 49       		.uleb128 0x49
 3007 0119 13       		.uleb128 0x13
 3008 011a 2F       		.uleb128 0x2f
 3009 011b 0B       		.uleb128 0xb
 3010 011c 00       		.byte	0
 3011 011d 00       		.byte	0
 3012 011e 19       		.uleb128 0x19
 3013 011f 13       		.uleb128 0x13
 3014 0120 01       		.byte	0x1
 3015 0121 0B       		.uleb128 0xb
 3016 0122 0B       		.uleb128 0xb
 3017 0123 3A       		.uleb128 0x3a
 3018 0124 0B       		.uleb128 0xb
 3019 0125 3B       		.uleb128 0x3b
 3020 0126 05       		.uleb128 0x5
 3021 0127 6E       		.uleb128 0x6e
ARM GAS  /var/folders/vd/czx34qs52cd_f3nb04sxmghc0000gn/T//ccA2UiKd.s 			page 54


 3022 0128 0E       		.uleb128 0xe
 3023 0129 01       		.uleb128 0x1
 3024 012a 13       		.uleb128 0x13
 3025 012b 00       		.byte	0
 3026 012c 00       		.byte	0
 3027 012d 1A       		.uleb128 0x1a
 3028 012e 16       		.uleb128 0x16
 3029 012f 00       		.byte	0
 3030 0130 03       		.uleb128 0x3
 3031 0131 0E       		.uleb128 0xe
 3032 0132 3A       		.uleb128 0x3a
 3033 0133 0B       		.uleb128 0xb
 3034 0134 3B       		.uleb128 0x3b
 3035 0135 05       		.uleb128 0x5
 3036 0136 49       		.uleb128 0x49
 3037 0137 13       		.uleb128 0x13
 3038 0138 00       		.byte	0
 3039 0139 00       		.byte	0
 3040 013a 1B       		.uleb128 0x1b
 3041 013b 13       		.uleb128 0x13
 3042 013c 01       		.byte	0x1
 3043 013d 0B       		.uleb128 0xb
 3044 013e 0B       		.uleb128 0xb
 3045 013f 3A       		.uleb128 0x3a
 3046 0140 0B       		.uleb128 0xb
 3047 0141 3B       		.uleb128 0x3b
 3048 0142 0B       		.uleb128 0xb
 3049 0143 6E       		.uleb128 0x6e
 3050 0144 0E       		.uleb128 0xe
 3051 0145 01       		.uleb128 0x1
 3052 0146 13       		.uleb128 0x13
 3053 0147 00       		.byte	0
 3054 0148 00       		.byte	0
 3055 0149 1C       		.uleb128 0x1c
 3056 014a 34       		.uleb128 0x34
 3057 014b 00       		.byte	0
 3058 014c 03       		.uleb128 0x3
 3059 014d 08       		.uleb128 0x8
 3060 014e 3A       		.uleb128 0x3a
 3061 014f 0B       		.uleb128 0xb
 3062 0150 3B       		.uleb128 0x3b
 3063 0151 05       		.uleb128 0x5
 3064 0152 49       		.uleb128 0x49
 3065 0153 13       		.uleb128 0x13
 3066 0154 3F       		.uleb128 0x3f
 3067 0155 19       		.uleb128 0x19
 3068 0156 3C       		.uleb128 0x3c
 3069 0157 19       		.uleb128 0x19
 3070 0158 00       		.byte	0
 3071 0159 00       		.byte	0
 3072 015a 1D       		.uleb128 0x1d
 3073 015b 21       		.uleb128 0x21
 3074 015c 00       		.byte	0
 3075 015d 00       		.byte	0
 3076 015e 00       		.byte	0
 3077 015f 1E       		.uleb128 0x1e
 3078 0160 15       		.uleb128 0x15
ARM GAS  /var/folders/vd/czx34qs52cd_f3nb04sxmghc0000gn/T//ccA2UiKd.s 			page 55


 3079 0161 01       		.byte	0x1
 3080 0162 49       		.uleb128 0x49
 3081 0163 13       		.uleb128 0x13
 3082 0164 01       		.uleb128 0x1
 3083 0165 13       		.uleb128 0x13
 3084 0166 00       		.byte	0
 3085 0167 00       		.byte	0
 3086 0168 1F       		.uleb128 0x1f
 3087 0169 39       		.uleb128 0x39
 3088 016a 01       		.byte	0x1
 3089 016b 03       		.uleb128 0x3
 3090 016c 0E       		.uleb128 0xe
 3091 016d 3A       		.uleb128 0x3a
 3092 016e 0B       		.uleb128 0xb
 3093 016f 3B       		.uleb128 0x3b
 3094 0170 0B       		.uleb128 0xb
 3095 0171 01       		.uleb128 0x1
 3096 0172 13       		.uleb128 0x13
 3097 0173 00       		.byte	0
 3098 0174 00       		.byte	0
 3099 0175 20       		.uleb128 0x20
 3100 0176 02       		.uleb128 0x2
 3101 0177 01       		.byte	0x1
 3102 0178 03       		.uleb128 0x3
 3103 0179 0E       		.uleb128 0xe
 3104 017a 0B       		.uleb128 0xb
 3105 017b 0B       		.uleb128 0xb
 3106 017c 3A       		.uleb128 0x3a
 3107 017d 0B       		.uleb128 0xb
 3108 017e 3B       		.uleb128 0x3b
 3109 017f 05       		.uleb128 0x5
 3110 0180 01       		.uleb128 0x1
 3111 0181 13       		.uleb128 0x13
 3112 0182 00       		.byte	0
 3113 0183 00       		.byte	0
 3114 0184 21       		.uleb128 0x21
 3115 0185 2E       		.uleb128 0x2e
 3116 0186 01       		.byte	0x1
 3117 0187 3F       		.uleb128 0x3f
 3118 0188 19       		.uleb128 0x19
 3119 0189 03       		.uleb128 0x3
 3120 018a 0E       		.uleb128 0xe
 3121 018b 3A       		.uleb128 0x3a
 3122 018c 0B       		.uleb128 0xb
 3123 018d 3B       		.uleb128 0x3b
 3124 018e 05       		.uleb128 0x5
 3125 018f 6E       		.uleb128 0x6e
 3126 0190 0E       		.uleb128 0xe
 3127 0191 49       		.uleb128 0x49
 3128 0192 13       		.uleb128 0x13
 3129 0193 32       		.uleb128 0x32
 3130 0194 0B       		.uleb128 0xb
 3131 0195 3C       		.uleb128 0x3c
 3132 0196 19       		.uleb128 0x19
 3133 0197 64       		.uleb128 0x64
 3134 0198 13       		.uleb128 0x13
 3135 0199 01       		.uleb128 0x1
ARM GAS  /var/folders/vd/czx34qs52cd_f3nb04sxmghc0000gn/T//ccA2UiKd.s 			page 56


 3136 019a 13       		.uleb128 0x13
 3137 019b 00       		.byte	0
 3138 019c 00       		.byte	0
 3139 019d 22       		.uleb128 0x22
 3140 019e 05       		.uleb128 0x5
 3141 019f 00       		.byte	0
 3142 01a0 49       		.uleb128 0x49
 3143 01a1 13       		.uleb128 0x13
 3144 01a2 34       		.uleb128 0x34
 3145 01a3 19       		.uleb128 0x19
 3146 01a4 00       		.byte	0
 3147 01a5 00       		.byte	0
 3148 01a6 23       		.uleb128 0x23
 3149 01a7 2E       		.uleb128 0x2e
 3150 01a8 01       		.byte	0x1
 3151 01a9 3F       		.uleb128 0x3f
 3152 01aa 19       		.uleb128 0x19
 3153 01ab 03       		.uleb128 0x3
 3154 01ac 0E       		.uleb128 0xe
 3155 01ad 3A       		.uleb128 0x3a
 3156 01ae 0B       		.uleb128 0xb
 3157 01af 3B       		.uleb128 0x3b
 3158 01b0 05       		.uleb128 0x5
 3159 01b1 6E       		.uleb128 0x6e
 3160 01b2 0E       		.uleb128 0xe
 3161 01b3 32       		.uleb128 0x32
 3162 01b4 0B       		.uleb128 0xb
 3163 01b5 3C       		.uleb128 0x3c
 3164 01b6 19       		.uleb128 0x19
 3165 01b7 64       		.uleb128 0x64
 3166 01b8 13       		.uleb128 0x13
 3167 01b9 01       		.uleb128 0x1
 3168 01ba 13       		.uleb128 0x13
 3169 01bb 00       		.byte	0
 3170 01bc 00       		.byte	0
 3171 01bd 24       		.uleb128 0x24
 3172 01be 2E       		.uleb128 0x2e
 3173 01bf 01       		.byte	0x1
 3174 01c0 3F       		.uleb128 0x3f
 3175 01c1 19       		.uleb128 0x19
 3176 01c2 03       		.uleb128 0x3
 3177 01c3 0E       		.uleb128 0xe
 3178 01c4 3A       		.uleb128 0x3a
 3179 01c5 0B       		.uleb128 0xb
 3180 01c6 3B       		.uleb128 0x3b
 3181 01c7 05       		.uleb128 0x5
 3182 01c8 6E       		.uleb128 0x6e
 3183 01c9 0E       		.uleb128 0xe
 3184 01ca 32       		.uleb128 0x32
 3185 01cb 0B       		.uleb128 0xb
 3186 01cc 3C       		.uleb128 0x3c
 3187 01cd 19       		.uleb128 0x19
 3188 01ce 64       		.uleb128 0x64
 3189 01cf 13       		.uleb128 0x13
 3190 01d0 00       		.byte	0
 3191 01d1 00       		.byte	0
 3192 01d2 25       		.uleb128 0x25
ARM GAS  /var/folders/vd/czx34qs52cd_f3nb04sxmghc0000gn/T//ccA2UiKd.s 			page 57


 3193 01d3 13       		.uleb128 0x13
 3194 01d4 00       		.byte	0
 3195 01d5 0B       		.uleb128 0xb
 3196 01d6 0B       		.uleb128 0xb
 3197 01d7 3A       		.uleb128 0x3a
 3198 01d8 0B       		.uleb128 0xb
 3199 01d9 3B       		.uleb128 0x3b
 3200 01da 0B       		.uleb128 0xb
 3201 01db 6E       		.uleb128 0x6e
 3202 01dc 0E       		.uleb128 0xe
 3203 01dd 00       		.byte	0
 3204 01de 00       		.byte	0
 3205 01df 26       		.uleb128 0x26
 3206 01e0 13       		.uleb128 0x13
 3207 01e1 01       		.byte	0x1
 3208 01e2 0B       		.uleb128 0xb
 3209 01e3 0B       		.uleb128 0xb
 3210 01e4 3A       		.uleb128 0x3a
 3211 01e5 0B       		.uleb128 0xb
 3212 01e6 3B       		.uleb128 0x3b
 3213 01e7 0B       		.uleb128 0xb
 3214 01e8 01       		.uleb128 0x1
 3215 01e9 13       		.uleb128 0x13
 3216 01ea 00       		.byte	0
 3217 01eb 00       		.byte	0
 3218 01ec 27       		.uleb128 0x27
 3219 01ed 0D       		.uleb128 0xd
 3220 01ee 00       		.byte	0
 3221 01ef 03       		.uleb128 0x3
 3222 01f0 08       		.uleb128 0x8
 3223 01f1 3A       		.uleb128 0x3a
 3224 01f2 0B       		.uleb128 0xb
 3225 01f3 3B       		.uleb128 0x3b
 3226 01f4 0B       		.uleb128 0xb
 3227 01f5 49       		.uleb128 0x49
 3228 01f6 13       		.uleb128 0x13
 3229 01f7 00       		.byte	0
 3230 01f8 00       		.byte	0
 3231 01f9 28       		.uleb128 0x28
 3232 01fa 04       		.uleb128 0x4
 3233 01fb 01       		.byte	0x1
 3234 01fc 3E       		.uleb128 0x3e
 3235 01fd 0B       		.uleb128 0xb
 3236 01fe 0B       		.uleb128 0xb
 3237 01ff 0B       		.uleb128 0xb
 3238 0200 49       		.uleb128 0x49
 3239 0201 13       		.uleb128 0x13
 3240 0202 3A       		.uleb128 0x3a
 3241 0203 0B       		.uleb128 0xb
 3242 0204 3B       		.uleb128 0x3b
 3243 0205 0B       		.uleb128 0xb
 3244 0206 6E       		.uleb128 0x6e
 3245 0207 0E       		.uleb128 0xe
 3246 0208 01       		.uleb128 0x1
 3247 0209 13       		.uleb128 0x13
 3248 020a 00       		.byte	0
 3249 020b 00       		.byte	0
ARM GAS  /var/folders/vd/czx34qs52cd_f3nb04sxmghc0000gn/T//ccA2UiKd.s 			page 58


 3250 020c 29       		.uleb128 0x29
 3251 020d 28       		.uleb128 0x28
 3252 020e 00       		.byte	0
 3253 020f 03       		.uleb128 0x3
 3254 0210 0E       		.uleb128 0xe
 3255 0211 1C       		.uleb128 0x1c
 3256 0212 0B       		.uleb128 0xb
 3257 0213 00       		.byte	0
 3258 0214 00       		.byte	0
 3259 0215 2A       		.uleb128 0x2a
 3260 0216 2E       		.uleb128 0x2e
 3261 0217 01       		.byte	0x1
 3262 0218 3F       		.uleb128 0x3f
 3263 0219 19       		.uleb128 0x19
 3264 021a 03       		.uleb128 0x3
 3265 021b 0E       		.uleb128 0xe
 3266 021c 3A       		.uleb128 0x3a
 3267 021d 0B       		.uleb128 0xb
 3268 021e 3B       		.uleb128 0x3b
 3269 021f 0B       		.uleb128 0xb
 3270 0220 6E       		.uleb128 0x6e
 3271 0221 0E       		.uleb128 0xe
 3272 0222 11       		.uleb128 0x11
 3273 0223 01       		.uleb128 0x1
 3274 0224 12       		.uleb128 0x12
 3275 0225 06       		.uleb128 0x6
 3276 0226 40       		.uleb128 0x40
 3277 0227 18       		.uleb128 0x18
 3278 0228 9742     		.uleb128 0x2117
 3279 022a 19       		.uleb128 0x19
 3280 022b 01       		.uleb128 0x1
 3281 022c 13       		.uleb128 0x13
 3282 022d 00       		.byte	0
 3283 022e 00       		.byte	0
 3284 022f 2B       		.uleb128 0x2b
 3285 0230 05       		.uleb128 0x5
 3286 0231 00       		.byte	0
 3287 0232 03       		.uleb128 0x3
 3288 0233 0E       		.uleb128 0xe
 3289 0234 3A       		.uleb128 0x3a
 3290 0235 0B       		.uleb128 0xb
 3291 0236 3B       		.uleb128 0x3b
 3292 0237 0B       		.uleb128 0xb
 3293 0238 49       		.uleb128 0x49
 3294 0239 13       		.uleb128 0x13
 3295 023a 02       		.uleb128 0x2
 3296 023b 17       		.uleb128 0x17
 3297 023c 00       		.byte	0
 3298 023d 00       		.byte	0
 3299 023e 2C       		.uleb128 0x2c
 3300 023f 05       		.uleb128 0x5
 3301 0240 00       		.byte	0
 3302 0241 03       		.uleb128 0x3
 3303 0242 0E       		.uleb128 0xe
 3304 0243 3A       		.uleb128 0x3a
 3305 0244 0B       		.uleb128 0xb
 3306 0245 3B       		.uleb128 0x3b
ARM GAS  /var/folders/vd/czx34qs52cd_f3nb04sxmghc0000gn/T//ccA2UiKd.s 			page 59


 3307 0246 0B       		.uleb128 0xb
 3308 0247 49       		.uleb128 0x49
 3309 0248 13       		.uleb128 0x13
 3310 0249 02       		.uleb128 0x2
 3311 024a 18       		.uleb128 0x18
 3312 024b 00       		.byte	0
 3313 024c 00       		.byte	0
 3314 024d 00       		.byte	0
 3315              		.section	.debug_loc,"",%progbits
 3316              	.Ldebug_loc0:
 3317              	.LLST0:
 3318 0000 00000000 		.4byte	.LVL0
 3319 0004 4A000000 		.4byte	.LVL1
 3320 0008 0100     		.2byte	0x1
 3321 000a 50       		.byte	0x50
 3322 000b 4A000000 		.4byte	.LVL1
 3323 000f 66000000 		.4byte	.LVL3
 3324 0013 0400     		.2byte	0x4
 3325 0015 F3       		.byte	0xf3
 3326 0016 01       		.uleb128 0x1
 3327 0017 50       		.byte	0x50
 3328 0018 9F       		.byte	0x9f
 3329 0019 66000000 		.4byte	.LVL3
 3330 001d B0000000 		.4byte	.LFE506
 3331 0021 0100     		.2byte	0x1
 3332 0023 50       		.byte	0x50
 3333 0024 00000000 		.4byte	0
 3334 0028 00000000 		.4byte	0
 3335              	.LLST1:
 3336 002c 00000000 		.4byte	.LVL0
 3337 0030 5E000000 		.4byte	.LVL2
 3338 0034 0100     		.2byte	0x1
 3339 0036 51       		.byte	0x51
 3340 0037 5E000000 		.4byte	.LVL2
 3341 003b 66000000 		.4byte	.LVL3
 3342 003f 0400     		.2byte	0x4
 3343 0041 F3       		.byte	0xf3
 3344 0042 01       		.uleb128 0x1
 3345 0043 51       		.byte	0x51
 3346 0044 9F       		.byte	0x9f
 3347 0045 66000000 		.4byte	.LVL3
 3348 0049 B0000000 		.4byte	.LFE506
 3349 004d 0100     		.2byte	0x1
 3350 004f 51       		.byte	0x51
 3351 0050 00000000 		.4byte	0
 3352 0054 00000000 		.4byte	0
 3353              		.section	.debug_aranges,"",%progbits
 3354 0000 1C000000 		.4byte	0x1c
 3355 0004 0200     		.2byte	0x2
 3356 0006 00000000 		.4byte	.Ldebug_info0
 3357 000a 04       		.byte	0x4
 3358 000b 00       		.byte	0
 3359 000c 0000     		.2byte	0
 3360 000e 0000     		.2byte	0
 3361 0010 00000000 		.4byte	.LFB506
 3362 0014 B0000000 		.4byte	.LFE506-.LFB506
 3363 0018 00000000 		.4byte	0
ARM GAS  /var/folders/vd/czx34qs52cd_f3nb04sxmghc0000gn/T//ccA2UiKd.s 			page 60


 3364 001c 00000000 		.4byte	0
 3365              		.section	.debug_ranges,"",%progbits
 3366              	.Ldebug_ranges0:
 3367 0000 00000000 		.4byte	.LFB506
 3368 0004 B0000000 		.4byte	.LFE506
 3369 0008 00000000 		.4byte	0
 3370 000c 00000000 		.4byte	0
 3371              		.section	.debug_line,"",%progbits
 3372              	.Ldebug_line0:
 3373 0000 86040000 		.section	.debug_str,"MS",%progbits,1
 3373      02005004 
 3373      00000201 
 3373      FB0E0D00 
 3373      01010101 
 3374              	.LASF128:
 3375 0000 6F66665F 		.ascii	"off_ctx\000"
 3375      63747800 
 3376              	.LASF90:
 3377 0008 4D314152 		.ascii	"M1AR\000"
 3377      00
 3378              	.LASF207:
 3379 000d 73746D33 		.ascii	"stm32_dma_stream_t\000"
 3379      325F646D 
 3379      615F7374 
 3379      7265616D 
 3379      5F7400
 3380              	.LASF183:
 3381 0020 61646452 		.ascii	"addRef\000"
 3381      656600
 3382              	.LASF4:
 3383 0027 73697A65 		.ascii	"size_t\000"
 3383      5F7400
 3384              	.LASF127:
 3385 002e 6F66665F 		.ascii	"off_prio\000"
 3385      7072696F 
 3385      00
 3386              	.LASF152:
 3387 0037 656E646D 		.ascii	"endmem\000"
 3387      656D00
 3388              	.LASF37:
 3389 003e 77747365 		.ascii	"wtsemp\000"
 3389      6D7000
 3390              	.LASF82:
 3391 0045 73797374 		.ascii	"systime_t\000"
 3391      696D655F 
 3391      7400
 3392              	.LASF136:
 3393 004f 6F66665F 		.ascii	"off_preempt\000"
 3393      70726565 
 3393      6D707400 
 3394              	.LASF115:
 3395 005b 6F776E65 		.ascii	"owner\000"
 3395      7200
 3396              	.LASF25:
 3397 0061 74707269 		.ascii	"tprio_t\000"
 3397      6F5F7400 
 3398              	.LASF139:
ARM GAS  /var/folders/vd/czx34qs52cd_f3nb04sxmghc0000gn/T//ccA2UiKd.s 			page 61


 3399 0069 63685F64 		.ascii	"ch_debug\000"
 3399      65627567 
 3399      00
 3400              	.LASF159:
 3401 0072 70726F76 		.ascii	"provider\000"
 3401      69646572 
 3401      00
 3402              	.LASF18:
 3403 007b 696E7433 		.ascii	"int32_t\000"
 3403      325F7400 
 3404              	.LASF279:
 3405 0083 77726974 		.ascii	"writet\000"
 3405      657400
 3406              	.LASF66:
 3407 008a 76746675 		.ascii	"vtfunc_t\000"
 3407      6E635F74 
 3407      00
 3408              	.LASF72:
 3409 0093 63685F76 		.ascii	"ch_virtual_timers_list\000"
 3409      69727475 
 3409      616C5F74 
 3409      696D6572 
 3409      735F6C69 
 3410              	.LASF293:
 3411 00aa 5F5A3132 		.ascii	"_Z12portToStringP12stm32_gpio_tmPc\000"
 3411      706F7274 
 3411      546F5374 
 3411      72696E67 
 3411      50313273 
 3412              	.LASF188:
 3413 00cd 5F5A4E31 		.ascii	"_ZN10chibios_rt15ThreadReference7releaseEv\000"
 3413      30636869 
 3413      62696F73 
 3413      5F727431 
 3413      35546872 
 3414              	.LASF275:
 3415 00f8 77726974 		.ascii	"write\000"
 3415      6500
 3416              	.LASF161:
 3417 00fe 63685F64 		.ascii	"ch_dyn_element\000"
 3417      796E5F65 
 3417      6C656D65 
 3417      6E7400
 3418              	.LASF250:
 3419 010d 70776D63 		.ascii	"pwmchnmsk_t\000"
 3419      686E6D73 
 3419      6B5F7400 
 3420              	.LASF242:
 3421 0119 636F6E66 		.ascii	"config\000"
 3421      696700
 3422              	.LASF46:
 3423 0120 73746174 		.ascii	"state\000"
 3423      6500
 3424              	.LASF277:
 3425 0126 70757474 		.ascii	"putt\000"
 3425      00
 3426              	.LASF255:
ARM GAS  /var/folders/vd/czx34qs52cd_f3nb04sxmghc0000gn/T//ccA2UiKd.s 			page 62


 3427 012b 50574D43 		.ascii	"PWMChannelConfig\000"
 3427      68616E6E 
 3427      656C436F 
 3427      6E666967 
 3427      00
 3428              	.LASF166:
 3429 013c 6F626A5F 		.ascii	"obj_list\000"
 3429      6C697374 
 3429      00
 3430              	.LASF107:
 3431 0145 444D4152 		.ascii	"DMAR\000"
 3431      00
 3432              	.LASF198:
 3433 014a 5F5A4E31 		.ascii	"_ZN10chibios_rt15ThreadReference14releaseMessageEl\000"
 3433      30636869 
 3433      62696F73 
 3433      5F727431 
 3433      35546872 
 3434              	.LASF258:
 3435 017d 64696572 		.ascii	"dier\000"
 3435      00
 3436              	.LASF237:
 3437 0182 50574D5F 		.ascii	"PWM_UNINIT\000"
 3437      554E494E 
 3437      495400
 3438              	.LASF130:
 3439 018d 6F66665F 		.ascii	"off_older\000"
 3439      6F6C6465 
 3439      7200
 3440              	.LASF41:
 3441 0197 7072696F 		.ascii	"prio\000"
 3441      00
 3442              	.LASF33:
 3443 019c 65786974 		.ascii	"exitcode\000"
 3443      636F6465 
 3443      00
 3444              	.LASF5:
 3445 01a5 5F5F7569 		.ascii	"__uint8_t\000"
 3445      6E74385F 
 3445      7400
 3446              	.LASF214:
 3447 01af 715F746F 		.ascii	"q_top\000"
 3447      7000
 3448              	.LASF284:
 3449 01b5 72657375 		.ascii	"result\000"
 3449      6C7400
 3450              	.LASF280:
 3451 01bc 72656164 		.ascii	"readt\000"
 3451      7400
 3452              	.LASF213:
 3453 01c2 715F6275 		.ascii	"q_buffer\000"
 3453      66666572 
 3453      00
 3454              	.LASF217:
 3455 01cb 715F6E6F 		.ascii	"q_notify\000"
 3455      74696679 
 3455      00
ARM GAS  /var/folders/vd/czx34qs52cd_f3nb04sxmghc0000gn/T//ccA2UiKd.s 			page 63


 3456              	.LASF177:
 3457 01d4 5F5A4E31 		.ascii	"_ZN10chibios_rt15ThreadReferenceC4Ev\000"
 3457      30636869 
 3457      62696F73 
 3457      5F727431 
 3457      35546872 
 3458              	.LASF254:
 3459 01f9 63616C6C 		.ascii	"callback\000"
 3459      6261636B 
 3459      00
 3460              	.LASF11:
 3461 0202 6C6F6E67 		.ascii	"long int\000"
 3461      20696E74 
 3461      00
 3462              	.LASF216:
 3463 020b 715F7264 		.ascii	"q_rdptr\000"
 3463      70747200 
 3464              	.LASF199:
 3465 0213 7369676E 		.ascii	"signalEvents\000"
 3465      616C4576 
 3465      656E7473 
 3465      00
 3466              	.LASF121:
 3467 0220 7A65726F 		.ascii	"zero\000"
 3467      00
 3468              	.LASF194:
 3469 0225 5F5A4E4B 		.ascii	"_ZNK10chibios_rt15ThreadReference16isPendingMessage"
 3469      31306368 
 3469      6962696F 
 3469      735F7274 
 3469      31355468 
 3470 0258 457600   		.ascii	"Ev\000"
 3471              	.LASF235:
 3472 025b 696F706F 		.ascii	"ioportid_t\000"
 3472      72746964 
 3472      5F7400
 3473              	.LASF23:
 3474 0266 74737461 		.ascii	"tstate_t\000"
 3474      74655F74 
 3474      00
 3475              	.LASF51:
 3476 026f 6570656E 		.ascii	"epending\000"
 3476      64696E67 
 3476      00
 3477              	.LASF60:
 3478 0278 74687265 		.ascii	"threads_queue_t\000"
 3478      6164735F 
 3478      71756575 
 3478      655F7400 
 3479              	.LASF270:
 3480 0288 6F717565 		.ascii	"oqueue\000"
 3480      756500
 3481              	.LASF96:
 3482 028f 72656761 		.ascii	"regarm_t\000"
 3482      726D5F74 
 3482      00
 3483              	.LASF249:
ARM GAS  /var/folders/vd/czx34qs52cd_f3nb04sxmghc0000gn/T//ccA2UiKd.s 			page 64


 3484 0298 70776D63 		.ascii	"pwmchannel_t\000"
 3484      68616E6E 
 3484      656C5F74 
 3484      00
 3485              	.LASF167:
 3486 02a5 6F626A5F 		.ascii	"obj_pool\000"
 3486      706F6F6C 
 3486      00
 3487              	.LASF271:
 3488 02ae 75736172 		.ascii	"usart\000"
 3488      7400
 3489              	.LASF190:
 3490 02b4 5F5A4E31 		.ascii	"_ZN10chibios_rt15ThreadReference4waitEv\000"
 3490      30636869 
 3490      62696F73 
 3490      5F727431 
 3490      35546872 
 3491              	.LASF191:
 3492 02dc 73656E64 		.ascii	"sendMessage\000"
 3492      4D657373 
 3492      61676500 
 3493              	.LASF289:
 3494 02e8 63686962 		.ascii	"chibios_rt\000"
 3494      696F735F 
 3494      727400
 3495              	.LASF153:
 3496 02f3 6D656D63 		.ascii	"memcore_t\000"
 3496      6F72655F 
 3496      7400
 3497              	.LASF210:
 3498 02fd 696F5F71 		.ascii	"io_queue\000"
 3498      75657565 
 3498      00
 3499              	.LASF3:
 3500 0306 7369676E 		.ascii	"signed char\000"
 3500      65642063 
 3500      68617200 
 3501              	.LASF39:
 3502 0312 65776D61 		.ascii	"ewmask\000"
 3502      736B00
 3503              	.LASF16:
 3504 0319 75696E74 		.ascii	"uint8_t\000"
 3504      385F7400 
 3505              	.LASF178:
 3506 0321 5F5A4E31 		.ascii	"_ZN10chibios_rt15ThreadReferenceC4EP9ch_thread\000"
 3506      30636869 
 3506      62696F73 
 3506      5F727431 
 3506      35546872 
 3507              	.LASF27:
 3508 0350 6576656E 		.ascii	"eventmask_t\000"
 3508      746D6173 
 3508      6B5F7400 
 3509              	.LASF35:
 3510 035c 77747472 		.ascii	"wttrp\000"
 3510      7000
 3511              	.LASF251:
ARM GAS  /var/folders/vd/czx34qs52cd_f3nb04sxmghc0000gn/T//ccA2UiKd.s 			page 65


 3512 0362 70776D63 		.ascii	"pwmcnt_t\000"
 3512      6E745F74 
 3512      00
 3513              	.LASF6:
 3514 036b 756E7369 		.ascii	"unsigned char\000"
 3514      676E6564 
 3514      20636861 
 3514      7200
 3515              	.LASF218:
 3516 0379 715F6C69 		.ascii	"q_link\000"
 3516      6E6B00
 3517              	.LASF73:
 3518 0380 6C617374 		.ascii	"lasttime\000"
 3518      74696D65 
 3518      00
 3519              	.LASF233:
 3520 0389 73746D33 		.ascii	"stm32_gpio_t\000"
 3520      325F6770 
 3520      696F5F74 
 3520      00
 3521              	.LASF283:
 3522 0396 696F706F 		.ascii	"ioportmask\000"
 3522      72746D61 
 3522      736B00
 3523              	.LASF76:
 3524 03a1 70616E69 		.ascii	"panic_msg\000"
 3524      635F6D73 
 3524      6700
 3525              	.LASF176:
 3526 03ab 54687265 		.ascii	"ThreadReference\000"
 3526      61645265 
 3526      66657265 
 3526      6E636500 
 3527              	.LASF74:
 3528 03bb 73797374 		.ascii	"system_debug_t\000"
 3528      656D5F64 
 3528      65627567 
 3528      5F7400
 3529              	.LASF263:
 3530 03ca 53445F55 		.ascii	"SD_UNINIT\000"
 3530      4E494E49 
 3530      5400
 3531              	.LASF156:
 3532 03d4 31336D65 		.ascii	"13memory_pool_t\000"
 3532      6D6F7279 
 3532      5F706F6F 
 3532      6C5F7400 
 3533              	.LASF223:
 3534 03e4 31327374 		.ascii	"12stm32_gpio_t\000"
 3534      6D33325F 
 3534      6770696F 
 3534      5F7400
 3535              	.LASF292:
 3536 03f3 31307061 		.ascii	"10palevent_t\000"
 3536      6C657665 
 3536      6E745F74 
 3536      00
ARM GAS  /var/folders/vd/czx34qs52cd_f3nb04sxmghc0000gn/T//ccA2UiKd.s 			page 66


 3537              	.LASF103:
 3538 0400 43434D52 		.ascii	"CCMR1\000"
 3538      3100
 3539              	.LASF104:
 3540 0406 43434D52 		.ascii	"CCMR2\000"
 3540      3200
 3541              	.LASF108:
 3542 040c 43434D52 		.ascii	"CCMR3\000"
 3542      3300
 3543              	.LASF116:
 3544 0412 63686172 		.ascii	"char\000"
 3544      00
 3545              	.LASF204:
 3546 0417 69736869 		.ascii	"ishift\000"
 3546      667400
 3547              	.LASF169:
 3548 041e 73656D5F 		.ascii	"sem_list\000"
 3548      6C697374 
 3548      00
 3549              	.LASF8:
 3550 0427 5F5F7569 		.ascii	"__uint16_t\000"
 3550      6E743136 
 3550      5F7400
 3551              	.LASF34:
 3552 0432 77746F62 		.ascii	"wtobjp\000"
 3552      6A7000
 3553              	.LASF193:
 3554 0439 69735065 		.ascii	"isPendingMessage\000"
 3554      6E64696E 
 3554      674D6573 
 3554      73616765 
 3554      00
 3555              	.LASF222:
 3556 044a 70616C65 		.ascii	"palevent_t\000"
 3556      76656E74 
 3556      5F7400
 3557              	.LASF261:
 3558 0455 31307077 		.ascii	"10pwmstate_t\000"
 3558      6D737461 
 3558      74655F74 
 3558      00
 3559              	.LASF135:
 3560 0462 6F66665F 		.ascii	"off_refs\000"
 3560      72656673 
 3560      00
 3561              	.LASF47:
 3562 046b 666C6167 		.ascii	"flags\000"
 3562      7300
 3563              	.LASF288:
 3564 0471 6465636C 		.ascii	"decltype(nullptr)\000"
 3564      74797065 
 3564      286E756C 
 3564      6C707472 
 3564      2900
 3565              	.LASF278:
 3566 0483 67657474 		.ascii	"gett\000"
 3566      00
ARM GAS  /var/folders/vd/czx34qs52cd_f3nb04sxmghc0000gn/T//ccA2UiKd.s 			page 67


 3567              	.LASF97:
 3568 0488 73746B61 		.ascii	"stkalign_t\000"
 3568      6C69676E 
 3568      5F7400
 3569              	.LASF95:
 3570 0493 55534152 		.ascii	"USART_TypeDef\000"
 3570      545F5479 
 3570      70654465 
 3570      6600
 3571              	.LASF290:
 3572 04a1 7369676E 		.ascii	"signalEventsI\000"
 3572      616C4576 
 3572      656E7473 
 3572      4900
 3573              	.LASF54:
 3574 04af 6D706F6F 		.ascii	"mpool\000"
 3574      6C00
 3575              	.LASF202:
 3576 04b5 73747265 		.ascii	"stream\000"
 3576      616D00
 3577              	.LASF141:
 3578 04bc 6576656E 		.ascii	"event_listener_t\000"
 3578      745F6C69 
 3578      7374656E 
 3578      65725F74 
 3578      00
 3579              	.LASF124:
 3580 04cd 70747273 		.ascii	"ptrsize\000"
 3580      697A6500 
 3581              	.LASF109:
 3582 04d5 43435852 		.ascii	"CCXR\000"
 3582      00
 3583              	.LASF234:
 3584 04da 696F706F 		.ascii	"ioportmask_t\000"
 3584      72746D61 
 3584      736B5F74 
 3584      00
 3585              	.LASF137:
 3586 04e7 6F66665F 		.ascii	"off_time\000"
 3586      74696D65 
 3586      00
 3587              	.LASF248:
 3588 04f0 70776D6D 		.ascii	"pwmmode_t\000"
 3588      6F64655F 
 3588      7400
 3589              	.LASF29:
 3590 04fa 636E745F 		.ascii	"cnt_t\000"
 3590      7400
 3591              	.LASF272:
 3592 0500 72786D61 		.ascii	"rxmask\000"
 3592      736B00
 3593              	.LASF162:
 3594 0507 64796E5F 		.ascii	"dyn_element_t\000"
 3594      656C656D 
 3594      656E745F 
 3594      7400
 3595              	.LASF38:
ARM GAS  /var/folders/vd/czx34qs52cd_f3nb04sxmghc0000gn/T//ccA2UiKd.s 			page 68


 3596 0515 77746D74 		.ascii	"wtmtxp\000"
 3596      787000
 3597              	.LASF64:
 3598 051c 63685F72 		.ascii	"ch_ready_list\000"
 3598      65616479 
 3598      5F6C6973 
 3598      7400
 3599              	.LASF170:
 3600 052a 73656D5F 		.ascii	"sem_pool\000"
 3600      706F6F6C 
 3600      00
 3601              	.LASF224:
 3602 0533 636C6561 		.ascii	"clear\000"
 3602      7200
 3603              	.LASF231:
 3604 0539 4146524C 		.ascii	"AFRL\000"
 3604      00
 3605              	.LASF151:
 3606 053e 6E657874 		.ascii	"nextmem\000"
 3606      6D656D00 
 3607              	.LASF195:
 3608 0546 6765744D 		.ascii	"getMessage\000"
 3608      65737361 
 3608      676500
 3609              	.LASF212:
 3610 0551 715F636F 		.ascii	"q_counter\000"
 3610      756E7465 
 3610      7200
 3611              	.LASF244:
 3612 055b 656E6162 		.ascii	"enabled\000"
 3612      6C656400 
 3613              	.LASF14:
 3614 0563 5F5F7569 		.ascii	"__uint64_t\000"
 3614      6E743634 
 3614      5F7400
 3615              	.LASF133:
 3616 056e 6F66665F 		.ascii	"off_state\000"
 3616      73746174 
 3616      6500
 3617              	.LASF13:
 3618 0578 6C6F6E67 		.ascii	"long unsigned int\000"
 3618      20756E73 
 3618      69676E65 
 3618      6420696E 
 3618      7400
 3619              	.LASF126:
 3620 058a 74687265 		.ascii	"threadsize\000"
 3620      61647369 
 3620      7A6500
 3621              	.LASF102:
 3622 0595 44494552 		.ascii	"DIER\000"
 3622      00
 3623              	.LASF85:
 3624 059a 53797374 		.ascii	"SystemCoreClock\000"
 3624      656D436F 
 3624      7265436C 
 3624      6F636B00 
ARM GAS  /var/folders/vd/czx34qs52cd_f3nb04sxmghc0000gn/T//ccA2UiKd.s 			page 69


 3625              	.LASF113:
 3626 05aa 63685F73 		.ascii	"ch_semaphore\000"
 3626      656D6170 
 3626      686F7265 
 3626      00
 3627              	.LASF57:
 3628 05b7 63685F74 		.ascii	"ch_thread\000"
 3628      68726561 
 3628      6400
 3629              	.LASF200:
 3630 05c1 5F5A4E4B 		.ascii	"_ZNK10chibios_rt15ThreadReference12signalEventsEm\000"
 3630      31306368 
 3630      6962696F 
 3630      735F7274 
 3630      31355468 
 3631              	.LASF71:
 3632 05f3 76697274 		.ascii	"virtual_timers_list_t\000"
 3632      75616C5F 
 3632      74696D65 
 3632      72735F6C 
 3632      6973745F 
 3633              	.LASF175:
 3634 0609 74687265 		.ascii	"thread_ref\000"
 3634      61645F72 
 3634      656600
 3635              	.LASF117:
 3636 0614 63685F69 		.ascii	"ch_idle_thread_wa\000"
 3636      646C655F 
 3636      74687265 
 3636      61645F77 
 3636      6100
 3637              	.LASF208:
 3638 0626 5F73746D 		.ascii	"_stm32_dma_streams\000"
 3638      33325F64 
 3638      6D615F73 
 3638      74726561 
 3638      6D7300
 3639              	.LASF172:
 3640 0639 6669666F 		.ascii	"fifo_list\000"
 3640      5F6C6973 
 3640      7400
 3641              	.LASF67:
 3642 0643 76697274 		.ascii	"virtual_timer_t\000"
 3642      75616C5F 
 3642      74696D65 
 3642      725F7400 
 3643              	.LASF63:
 3644 0653 72656164 		.ascii	"ready_list_t\000"
 3644      795F6C69 
 3644      73745F74 
 3644      00
 3645              	.LASF43:
 3646 0660 6F6C6465 		.ascii	"older\000"
 3646      7200
 3647              	.LASF273:
 3648 0666 53657269 		.ascii	"SerialDriverVMT\000"
 3648      616C4472 
ARM GAS  /var/folders/vd/czx34qs52cd_f3nb04sxmghc0000gn/T//ccA2UiKd.s 			page 70


 3648      69766572 
 3648      564D5400 
 3649              	.LASF53:
 3650 0676 7265616C 		.ascii	"realprio\000"
 3650      7072696F 
 3650      00
 3651              	.LASF110:
 3652 067f 73746D33 		.ascii	"stm32_tim_t\000"
 3652      325F7469 
 3652      6D5F7400 
 3653              	.LASF30:
 3654 068b 75636E74 		.ascii	"ucnt_t\000"
 3654      5F7400
 3655              	.LASF246:
 3656 0692 636C6F63 		.ascii	"clock\000"
 3656      6B00
 3657              	.LASF132:
 3658 0698 6F66665F 		.ascii	"off_stklimit\000"
 3658      73746B6C 
 3658      696D6974 
 3658      00
 3659              	.LASF155:
 3660 06a5 706F6F6C 		.ascii	"pool_header\000"
 3660      5F686561 
 3660      64657200 
 3661              	.LASF58:
 3662 06b1 63685F74 		.ascii	"ch_threads_list\000"
 3662      68726561 
 3662      64735F6C 
 3662      69737400 
 3663              	.LASF227:
 3664 06c1 4F535045 		.ascii	"OSPEEDR\000"
 3664      45445200 
 3665              	.LASF12:
 3666 06c9 5F5F7569 		.ascii	"__uint32_t\000"
 3666      6E743332 
 3666      5F7400
 3667              	.LASF52:
 3668 06d4 6D74786C 		.ascii	"mtxlist\000"
 3668      69737400 
 3669              	.LASF262:
 3670 06dc 39736473 		.ascii	"9sdstate_t\000"
 3670      74617465 
 3670      5F7400
 3671              	.LASF1:
 3672 06e7 6C6F6E67 		.ascii	"long long int\000"
 3672      206C6F6E 
 3672      6720696E 
 3672      7400
 3673              	.LASF180:
 3674 06f5 5F5A4E4B 		.ascii	"_ZNK10chibios_rt15ThreadReference6isNullEv\000"
 3674      31306368 
 3674      6962696F 
 3674      735F7274 
 3674      31355468 
 3675              	.LASF83:
 3676 0720 73797369 		.ascii	"sysinterval_t\000"
ARM GAS  /var/folders/vd/czx34qs52cd_f3nb04sxmghc0000gn/T//ccA2UiKd.s 			page 71


 3676      6E746572 
 3676      76616C5F 
 3676      7400
 3677              	.LASF197:
 3678 072e 72656C65 		.ascii	"releaseMessage\000"
 3678      6173654D 
 3678      65737361 
 3678      676500
 3679              	.LASF228:
 3680 073d 50555044 		.ascii	"PUPDR\000"
 3680      5200
 3681              	.LASF184:
 3682 0743 5F5A4E4B 		.ascii	"_ZNK10chibios_rt15ThreadReference6addRefEv\000"
 3682      31306368 
 3682      6962696F 
 3682      735F7274 
 3682      31355468 
 3683              	.LASF165:
 3684 076e 63685F6F 		.ascii	"ch_objects_factory\000"
 3684      626A6563 
 3684      74735F66 
 3684      6163746F 
 3684      727900
 3685              	.LASF92:
 3686 0781 3138444D 		.ascii	"18DMA_Stream_TypeDef\000"
 3686      415F5374 
 3686      7265616D 
 3686      5F547970 
 3686      65446566 
 3687              	.LASF94:
 3688 0796 47545052 		.ascii	"GTPR\000"
 3688      00
 3689              	.LASF147:
 3690 079b 6576656E 		.ascii	"event_source_t\000"
 3690      745F736F 
 3690      75726365 
 3690      5F7400
 3691              	.LASF158:
 3692 07aa 616C6967 		.ascii	"align\000"
 3692      6E00
 3693              	.LASF291:
 3694 07b0 5F5A4E4B 		.ascii	"_ZNK10chibios_rt15ThreadReference13signalEventsIEm\000"
 3694      31306368 
 3694      6962696F 
 3694      735F7274 
 3694      31355468 
 3695              	.LASF84:
 3696 07e3 49544D5F 		.ascii	"ITM_RxBuffer\000"
 3696      52784275 
 3696      66666572 
 3696      00
 3697              	.LASF257:
 3698 07f0 66726571 		.ascii	"frequency\000"
 3698      75656E63 
 3698      7900
 3699              	.LASF189:
 3700 07fa 77616974 		.ascii	"wait\000"
ARM GAS  /var/folders/vd/czx34qs52cd_f3nb04sxmghc0000gn/T//ccA2UiKd.s 			page 72


 3700      00
 3701              	.LASF219:
 3702 07ff 716E6F74 		.ascii	"qnotify_t\000"
 3702      6966795F 
 3702      7400
 3703              	.LASF268:
 3704 0809 6576656E 		.ascii	"event\000"
 3704      7400
 3705              	.LASF225:
 3706 080f 4D4F4445 		.ascii	"MODER\000"
 3706      5200
 3707              	.LASF276:
 3708 0815 72656164 		.ascii	"read\000"
 3708      00
 3709              	.LASF187:
 3710 081a 5F5A4E4B 		.ascii	"_ZNK10chibios_rt15ThreadReference16requestTerminate"
 3710      31306368 
 3710      6962696F 
 3710      735F7274 
 3710      31355468 
 3711 084d 457600   		.ascii	"Ev\000"
 3712              	.LASF129:
 3713 0850 6F66665F 		.ascii	"off_newer\000"
 3713      6E657765 
 3713      7200
 3714              	.LASF205:
 3715 085a 73656C66 		.ascii	"selfindex\000"
 3715      696E6465 
 3715      7800
 3716              	.LASF0:
 3717 0864 756E7369 		.ascii	"unsigned int\000"
 3717      676E6564 
 3717      20696E74 
 3717      00
 3718              	.LASF21:
 3719 0871 7274636E 		.ascii	"rtcnt_t\000"
 3719      745F7400 
 3720              	.LASF245:
 3721 0879 6368616E 		.ascii	"channels\000"
 3721      6E656C73 
 3721      00
 3722              	.LASF256:
 3723 0882 3950574D 		.ascii	"9PWMConfig\000"
 3723      436F6E66 
 3723      696700
 3724              	.LASF247:
 3725 088d 70776D63 		.ascii	"pwmcallback_t\000"
 3725      616C6C62 
 3725      61636B5F 
 3725      7400
 3726              	.LASF65:
 3727 089b 63757272 		.ascii	"current\000"
 3727      656E7400 
 3728              	.LASF241:
 3729 08a3 50574D44 		.ascii	"PWMDriver\000"
 3729      72697665 
 3729      7200
ARM GAS  /var/folders/vd/czx34qs52cd_f3nb04sxmghc0000gn/T//ccA2UiKd.s 			page 73


 3730              	.LASF111:
 3731 08ad 6F666673 		.ascii	"offset\000"
 3731      657400
 3732              	.LASF196:
 3733 08b4 5F5A4E4B 		.ascii	"_ZNK10chibios_rt15ThreadReference10getMessageEv\000"
 3733      31306368 
 3733      6962696F 
 3733      735F7274 
 3733      31355468 
 3734              	.LASF91:
 3735 08e4 444D415F 		.ascii	"DMA_Stream_TypeDef\000"
 3735      53747265 
 3735      616D5F54 
 3735      79706544 
 3735      656600
 3736              	.LASF148:
 3737 08f7 626F6F6C 		.ascii	"bool\000"
 3737      00
 3738              	.LASF149:
 3739 08fc 6D656D67 		.ascii	"memgetfunc_t\000"
 3739      65746675 
 3739      6E635F74 
 3739      00
 3740              	.LASF236:
 3741 0909 5F70616C 		.ascii	"_pal_events\000"
 3741      5F657665 
 3741      6E747300 
 3742              	.LASF31:
 3743 0915 74687265 		.ascii	"thread_t\000"
 3743      61645F74 
 3743      00
 3744              	.LASF2:
 3745 091e 6C6F6E67 		.ascii	"long double\000"
 3745      20646F75 
 3745      626C6500 
 3746              	.LASF145:
 3747 092a 77666C61 		.ascii	"wflags\000"
 3747      677300
 3748              	.LASF55:
 3749 0931 74687265 		.ascii	"thread_reference_t\000"
 3749      61645F72 
 3749      65666572 
 3749      656E6365 
 3749      5F7400
 3750              	.LASF119:
 3751 0944 39636864 		.ascii	"9chdebug_t\000"
 3751      65627567 
 3751      5F7400
 3752              	.LASF36:
 3753 094f 73656E74 		.ascii	"sentmsg\000"
 3753      6D736700 
 3754              	.LASF99:
 3755 0957 706F7274 		.ascii	"port_intctx\000"
 3755      5F696E74 
 3755      63747800 
 3756              	.LASF173:
 3757 0963 6F626A65 		.ascii	"objects_factory_t\000"
ARM GAS  /var/folders/vd/czx34qs52cd_f3nb04sxmghc0000gn/T//ccA2UiKd.s 			page 74


 3757      6374735F 
 3757      66616374 
 3757      6F72795F 
 3757      7400
 3758              	.LASF168:
 3759 0975 6275665F 		.ascii	"buf_list\000"
 3759      6C697374 
 3759      00
 3760              	.LASF201:
 3761 097e 31387374 		.ascii	"18stm32_dma_stream_t\000"
 3761      6D33325F 
 3761      646D615F 
 3761      73747265 
 3761      616D5F74 
 3762              	.LASF86:
 3763 0993 41484250 		.ascii	"AHBPrescTable\000"
 3763      72657363 
 3763      5461626C 
 3763      6500
 3764              	.LASF68:
 3765 09a1 63685F76 		.ascii	"ch_virtual_timer\000"
 3765      69727475 
 3765      616C5F74 
 3765      696D6572 
 3765      00
 3766              	.LASF118:
 3767 09b2 3136746D 		.ascii	"16tm_calibration_t\000"
 3767      5F63616C 
 3767      69627261 
 3767      74696F6E 
 3767      5F7400
 3768              	.LASF122:
 3769 09c5 73697A65 		.ascii	"size\000"
 3769      00
 3770              	.LASF15:
 3771 09ca 6C6F6E67 		.ascii	"long long unsigned int\000"
 3771      206C6F6E 
 3771      6720756E 
 3771      7369676E 
 3771      65642069 
 3772              	.LASF238:
 3773 09e1 50574D5F 		.ascii	"PWM_STOP\000"
 3773      53544F50 
 3773      00
 3774              	.LASF17:
 3775 09ea 75696E74 		.ascii	"uint16_t\000"
 3775      31365F74 
 3775      00
 3776              	.LASF282:
 3777 09f3 696F706F 		.ascii	"ioportid\000"
 3777      72746964 
 3777      00
 3778              	.LASF131:
 3779 09fc 6F66665F 		.ascii	"off_name\000"
 3779      6E616D65 
 3779      00
 3780              	.LASF230:
ARM GAS  /var/folders/vd/czx34qs52cd_f3nb04sxmghc0000gn/T//ccA2UiKd.s 			page 75


 3781 0a05 4C4F434B 		.ascii	"LOCKR\000"
 3781      5200
 3782              	.LASF26:
 3783 0a0b 6D73675F 		.ascii	"msg_t\000"
 3783      7400
 3784              	.LASF61:
 3785 0a11 63685F74 		.ascii	"ch_threads_queue\000"
 3785      68726561 
 3785      64735F71 
 3785      75657565 
 3785      00
 3786              	.LASF192:
 3787 0a22 5F5A4E4B 		.ascii	"_ZNK10chibios_rt15ThreadReference11sendMessageEl\000"
 3787      31306368 
 3787      6962696F 
 3787      735F7274 
 3787      31355468 
 3788              	.LASF28:
 3789 0a53 6576656E 		.ascii	"eventflags_t\000"
 3789      74666C61 
 3789      67735F74 
 3789      00
 3790              	.LASF105:
 3791 0a60 43434552 		.ascii	"CCER\000"
 3791      00
 3792              	.LASF69:
 3793 0a65 64656C74 		.ascii	"delta\000"
 3793      6100
 3794              	.LASF232:
 3795 0a6b 41465248 		.ascii	"AFRH\000"
 3795      00
 3796              	.LASF48:
 3797 0a70 72656673 		.ascii	"refs\000"
 3797      00
 3798              	.LASF40:
 3799 0a75 71756575 		.ascii	"queue\000"
 3799      6500
 3800              	.LASF206:
 3801 0a7b 76656374 		.ascii	"vector\000"
 3801      6F7200
 3802              	.LASF174:
 3803 0a82 63685F66 		.ascii	"ch_factory\000"
 3803      6163746F 
 3803      727900
 3804              	.LASF171:
 3805 0a8d 6D62785F 		.ascii	"mbx_list\000"
 3805      6C697374 
 3805      00
 3806              	.LASF81:
 3807 0a96 6D61696E 		.ascii	"mainthread\000"
 3807      74687265 
 3807      616400
 3808              	.LASF101:
 3809 0aa1 534D4352 		.ascii	"SMCR\000"
 3809      00
 3810              	.LASF243:
 3811 0aa6 70657269 		.ascii	"period\000"
ARM GAS  /var/folders/vd/czx34qs52cd_f3nb04sxmghc0000gn/T//ccA2UiKd.s 			page 76


 3811      6F6400
 3812              	.LASF123:
 3813 0aad 76657273 		.ascii	"version\000"
 3813      696F6E00 
 3814              	.LASF182:
 3815 0ab5 5F5A4E31 		.ascii	"_ZN10chibios_rt15ThreadReference8getInnerEv\000"
 3815      30636869 
 3815      62696F73 
 3815      5F727431 
 3815      35546872 
 3816              	.LASF179:
 3817 0ae1 69734E75 		.ascii	"isNull\000"
 3817      6C6C00
 3818              	.LASF45:
 3819 0ae8 77616261 		.ascii	"wabase\000"
 3819      736500
 3820              	.LASF267:
 3821 0aef 53657269 		.ascii	"SerialDriver\000"
 3821      616C4472 
 3821      69766572 
 3821      00
 3822              	.LASF160:
 3823 0afc 6D656D6F 		.ascii	"memory_pool_t\000"
 3823      72795F70 
 3823      6F6F6C5F 
 3823      7400
 3824              	.LASF226:
 3825 0b0a 4F545950 		.ascii	"OTYPER\000"
 3825      455200
 3826              	.LASF211:
 3827 0b11 715F7761 		.ascii	"q_waiting\000"
 3827      6974696E 
 3827      6700
 3828              	.LASF79:
 3829 0b1b 726C6973 		.ascii	"rlist\000"
 3829      7400
 3830              	.LASF22:
 3831 0b21 746D6F64 		.ascii	"tmode_t\000"
 3831      655F7400 
 3832              	.LASF266:
 3833 0b29 73647374 		.ascii	"sdstate_t\000"
 3833      6174655F 
 3833      7400
 3834              	.LASF265:
 3835 0b33 53445F52 		.ascii	"SD_READY\000"
 3835      45414459 
 3835      00
 3836              	.LASF112:
 3837 0b3c 746D5F63 		.ascii	"tm_calibration_t\000"
 3837      616C6962 
 3837      72617469 
 3837      6F6E5F74 
 3837      00
 3838              	.LASF89:
 3839 0b4d 4D304152 		.ascii	"M0AR\000"
 3839      00
 3840              	.LASF44:
ARM GAS  /var/folders/vd/czx34qs52cd_f3nb04sxmghc0000gn/T//ccA2UiKd.s 			page 77


 3841 0b52 6E616D65 		.ascii	"name\000"
 3841      00
 3842              	.LASF143:
 3843 0b57 6C697374 		.ascii	"listener\000"
 3843      656E6572 
 3843      00
 3844              	.LASF93:
 3845 0b60 31335553 		.ascii	"13USART_TypeDef\000"
 3845      4152545F 
 3845      54797065 
 3845      44656600 
 3846              	.LASF87:
 3847 0b70 41504250 		.ascii	"APBPrescTable\000"
 3847      72657363 
 3847      5461626C 
 3847      6500
 3848              	.LASF239:
 3849 0b7e 50574D5F 		.ascii	"PWM_READY\000"
 3849      52454144 
 3849      5900
 3850              	.LASF185:
 3851 0b88 72657175 		.ascii	"requestTerminate\000"
 3851      65737454 
 3851      65726D69 
 3851      6E617465 
 3851      00
 3852              	.LASF100:
 3853 0b99 31317374 		.ascii	"11stm32_tim_t\000"
 3853      6D33325F 
 3853      74696D5F 
 3853      7400
 3854              	.LASF7:
 3855 0ba7 73686F72 		.ascii	"short int\000"
 3855      7420696E 
 3855      7400
 3856              	.LASF146:
 3857 0bb1 6576656E 		.ascii	"event_source\000"
 3857      745F736F 
 3857      75726365 
 3857      00
 3858              	.LASF20:
 3859 0bbe 75696E74 		.ascii	"uint64_t\000"
 3859      36345F74 
 3859      00
 3860              	.LASF253:
 3861 0bc7 6D6F6465 		.ascii	"mode\000"
 3861      00
 3862              	.LASF70:
 3863 0bcc 66756E63 		.ascii	"func\000"
 3863      00
 3864              	.LASF114:
 3865 0bd1 63685F6D 		.ascii	"ch_mutex\000"
 3865      75746578 
 3865      00
 3866              	.LASF50:
 3867 0bda 6D736771 		.ascii	"msgqueue\000"
 3867      75657565 
ARM GAS  /var/folders/vd/czx34qs52cd_f3nb04sxmghc0000gn/T//ccA2UiKd.s 			page 78


 3867      00
 3868              	.LASF269:
 3869 0be3 69717565 		.ascii	"iqueue\000"
 3869      756500
 3870              	.LASF75:
 3871 0bea 63685F73 		.ascii	"ch_system_debug\000"
 3871      79737465 
 3871      6D5F6465 
 3871      62756700 
 3872              	.LASF164:
 3873 0bfa 64796E5F 		.ascii	"dyn_list_t\000"
 3873      6C697374 
 3873      5F7400
 3874              	.LASF209:
 3875 0c05 696F5F71 		.ascii	"io_queue_t\000"
 3875      75657565 
 3875      5F7400
 3876              	.LASF229:
 3877 0c10 42535252 		.ascii	"BSRR\000"
 3877      00
 3878              	.LASF281:
 3879 0c15 706F7274 		.ascii	"portToString\000"
 3879      546F5374 
 3879      72696E67 
 3879      00
 3880              	.LASF157:
 3881 0c22 6F626A65 		.ascii	"object_size\000"
 3881      63745F73 
 3881      697A6500 
 3882              	.LASF80:
 3883 0c2e 76746C69 		.ascii	"vtlist\000"
 3883      737400
 3884              	.LASF49:
 3885 0c35 77616974 		.ascii	"waiting\000"
 3885      696E6700 
 3886              	.LASF259:
 3887 0c3d 50574D43 		.ascii	"PWMConfig\000"
 3887      6F6E6669 
 3887      6700
 3888              	.LASF140:
 3889 0c47 6D757465 		.ascii	"mutex_t\000"
 3889      785F7400 
 3890              	.LASF24:
 3891 0c4f 74726566 		.ascii	"trefs_t\000"
 3891      735F7400 
 3892              	.LASF98:
 3893 0c57 706F7274 		.ascii	"port_context\000"
 3893      5F636F6E 
 3893      74657874 
 3893      00
 3894              	.LASF56:
 3895 0c64 74687265 		.ascii	"threads_list_t\000"
 3895      6164735F 
 3895      6C697374 
 3895      5F7400
 3896              	.LASF260:
 3897 0c73 50574D44 		.ascii	"PWMD4\000"
ARM GAS  /var/folders/vd/czx34qs52cd_f3nb04sxmghc0000gn/T//ccA2UiKd.s 			page 79


 3897      3400
 3898              	.LASF78:
 3899 0c79 63685F73 		.ascii	"ch_system\000"
 3899      79737465 
 3899      6D00
 3900              	.LASF240:
 3901 0c83 70776D73 		.ascii	"pwmstate_t\000"
 3901      74617465 
 3901      5F7400
 3902              	.LASF42:
 3903 0c8e 6E657765 		.ascii	"newer\000"
 3903      7200
 3904              	.LASF106:
 3905 0c94 42445452 		.ascii	"BDTR\000"
 3905      00
 3906              	.LASF19:
 3907 0c99 75696E74 		.ascii	"uint32_t\000"
 3907      33325F74 
 3907      00
 3908              	.LASF287:
 3909 0ca2 2F557365 		.ascii	"/Users/lantian/Projects/stm32f407vet6/dev\000"
 3909      72732F6C 
 3909      616E7469 
 3909      616E2F50 
 3909      726F6A65 
 3910              	.LASF274:
 3911 0ccc 696E7374 		.ascii	"instance_offset\000"
 3911      616E6365 
 3911      5F6F6666 
 3911      73657400 
 3912              	.LASF220:
 3913 0cdc 696E7075 		.ascii	"input_queue_t\000"
 3913      745F7175 
 3913      6575655F 
 3913      7400
 3914              	.LASF186:
 3915 0cea 72656C65 		.ascii	"release\000"
 3915      61736500 
 3916              	.LASF150:
 3917 0cf2 396D656D 		.ascii	"9memcore_t\000"
 3917      636F7265 
 3917      5F7400
 3918              	.LASF142:
 3919 0cfd 6576656E 		.ascii	"event_listener\000"
 3919      745F6C69 
 3919      7374656E 
 3919      657200
 3920              	.LASF181:
 3921 0d0c 67657449 		.ascii	"getInner\000"
 3921      6E6E6572 
 3921      00
 3922              	.LASF32:
 3923 0d15 7264796D 		.ascii	"rdymsg\000"
 3923      736700
 3924              	.LASF215:
 3925 0d1c 715F7772 		.ascii	"q_wrptr\000"
 3925      70747200 
ARM GAS  /var/folders/vd/czx34qs52cd_f3nb04sxmghc0000gn/T//ccA2UiKd.s 			page 80


 3926              	.LASF9:
 3927 0d24 73686F72 		.ascii	"short unsigned int\000"
 3927      7420756E 
 3927      7369676E 
 3927      65642069 
 3927      6E7400
 3928              	.LASF77:
 3929 0d37 63685F73 		.ascii	"ch_system_t\000"
 3929      79737465 
 3929      6D5F7400 
 3930              	.LASF138:
 3931 0d43 63686465 		.ascii	"chdebug_t\000"
 3931      6275675F 
 3931      7400
 3932              	.LASF221:
 3933 0d4d 6F757470 		.ascii	"output_queue_t\000"
 3933      75745F71 
 3933      75657565 
 3933      5F7400
 3934              	.LASF125:
 3935 0d5c 74696D65 		.ascii	"timesize\000"
 3935      73697A65 
 3935      00
 3936              	.LASF10:
 3937 0d65 5F5F696E 		.ascii	"__int32_t\000"
 3937      7433325F 
 3937      7400
 3938              	.LASF264:
 3939 0d6f 53445F53 		.ascii	"SD_STOP\000"
 3939      544F5000 
 3940              	.LASF88:
 3941 0d77 4E445452 		.ascii	"NDTR\000"
 3941      00
 3942              	.LASF203:
 3943 0d7c 69666372 		.ascii	"ifcr\000"
 3943      00
 3944              	.LASF154:
 3945 0d81 63685F6D 		.ascii	"ch_memcore\000"
 3945      656D636F 
 3945      726500
 3946              	.LASF134:
 3947 0d8c 6F66665F 		.ascii	"off_flags\000"
 3947      666C6167 
 3947      7300
 3948              	.LASF252:
 3949 0d96 31365057 		.ascii	"16PWMChannelConfig\000"
 3949      4D436861 
 3949      6E6E656C 
 3949      436F6E66 
 3949      696700
 3950              	.LASF286:
 3951 0da9 2E2E2F64 		.ascii	"../dev/common/port_to_string.cpp\000"
 3951      65762F63 
 3951      6F6D6D6F 
 3951      6E2F706F 
 3951      72745F74 
 3952              	.LASF144:
ARM GAS  /var/folders/vd/czx34qs52cd_f3nb04sxmghc0000gn/T//ccA2UiKd.s 			page 81


 3953 0dca 6576656E 		.ascii	"events\000"
 3953      747300
 3954              	.LASF59:
 3955 0dd1 6E657874 		.ascii	"next\000"
 3955      00
 3956              	.LASF285:
 3957 0dd6 474E5520 		.ascii	"GNU C++11 7.2.1 20170904 (release) [ARM/embedded-7-"
 3957      432B2B31 
 3957      3120372E 
 3957      322E3120 
 3957      32303137 
 3958 0e09 6272616E 		.ascii	"branch revision 255204] -mcpu=cortex-m4 -mno-thumb-"
 3958      63682072 
 3958      65766973 
 3958      696F6E20 
 3958      32353532 
 3959 0e3c 696E7465 		.ascii	"interwork -mthumb -ggdb -O2 -std=gnu++11 -fomit-fra"
 3959      72776F72 
 3959      6B202D6D 
 3959      7468756D 
 3959      62202D67 
 3960 0e6f 6D652D70 		.ascii	"me-pointer -falign-functions=16 -ffunction-sections"
 3960      6F696E74 
 3960      6572202D 
 3960      66616C69 
 3960      676E2D66 
 3961 0ea2 202D6664 		.ascii	" -fdata-sections -fno-common -fno-exceptions -fno-r"
 3961      6174612D 
 3961      73656374 
 3961      696F6E73 
 3961      202D666E 
 3962 0ed5 74746900 		.ascii	"tti\000"
 3963              	.LASF62:
 3964 0ed9 70726576 		.ascii	"prev\000"
 3964      00
 3965              	.LASF163:
 3966 0ede 63685F64 		.ascii	"ch_dyn_list\000"
 3966      796E5F6C 
 3966      69737400 
 3967              	.LASF120:
 3968 0eea 6964656E 		.ascii	"identifier\000"
 3968      74696669 
 3968      657200
 3969              		.ident	"GCC: (GNU Tools for Arm Embedded Processors 7-2017-q4-major) 7.2.1 20170904 (release) [ARM
ARM GAS  /var/folders/vd/czx34qs52cd_f3nb04sxmghc0000gn/T//ccA2UiKd.s 			page 82


DEFINED SYMBOLS
                            *ABS*:0000000000000000 port_to_string.cpp
/var/folders/vd/czx34qs52cd_f3nb04sxmghc0000gn/T//ccA2UiKd.s:16     .text._Z12portToStringP12stm32_gpio_tmPc:0000000000000000 $t
/var/folders/vd/czx34qs52cd_f3nb04sxmghc0000gn/T//ccA2UiKd.s:24     .text._Z12portToStringP12stm32_gpio_tmPc:0000000000000000 _Z12portToStringP12stm32_gpio_tmPc
/var/folders/vd/czx34qs52cd_f3nb04sxmghc0000gn/T//ccA2UiKd.s:146    .text._Z12portToStringP12stm32_gpio_tmPc:000000000000008c $d

NO UNDEFINED SYMBOLS
