ARM GAS  /var/folders/vd/czx34qs52cd_f3nb04sxmghc0000gn/T//ccA2UiKd.s 			page 1


   1              		.cpu cortex-m4
   2              		.eabi_attribute 20, 1
   3              		.eabi_attribute 21, 1
   4              		.eabi_attribute 23, 3
   5              		.eabi_attribute 24, 1
   6              		.eabi_attribute 25, 1
   7              		.eabi_attribute 26, 1
   8              		.eabi_attribute 30, 2
   9              		.eabi_attribute 34, 1
  10              		.eabi_attribute 18, 4
  11              		.file	"port_to_string.cpp"
  12              		.text
  13              	.Ltext0:
  14              		.cfi_sections	.debug_frame
  15              		.section	.text._Z12portToStringP12stm32_gpio_tmPc,"ax",%progbits
  16              		.align	1
  17              		.p2align 4,,15
  18              		.global	_Z12portToStringP12stm32_gpio_tmPc
  19              		.syntax unified
  20              		.thumb
  21              		.thumb_func
  22              		.fpu softvfp
  23              		.type	_Z12portToStringP12stm32_gpio_tmPc, %function
  24              	_Z12portToStringP12stm32_gpio_tmPc:
  25              	.LFB506:
  26              		.file 1 "../dev/common/port_to_string.cpp"
  27              		.loc 1 3 0
  28              		.cfi_startproc
  29              		@ args = 0, pretend = 0, frame = 0
  30              		@ frame_needed = 0, uses_anonymous_args = 0
  31              		@ link register save eliminated.
  32              	.LVL0:
  33              		.loc 1 5 0
  34 0000 224B     		ldr	r3, .L21
  35              		.loc 1 3 0
  36 0002 10B4     		push	{r4}
  37              		.cfi_def_cfa_offset 4
  38              		.cfi_offset 4, -4
  39              		.loc 1 5 0
  40 0004 9842     		cmp	r0, r3
  41              		.loc 1 4 0
  42 0006 4FF05004 		mov	r4, #80
  43 000a 1470     		strb	r4, [r2]
  44              		.loc 1 5 0
  45 000c 2BD0     		beq	.L14
  46              		.loc 1 7 0
  47 000e 204B     		ldr	r3, .L21+4
  48 0010 9842     		cmp	r0, r3
  49 0012 14D0     		beq	.L15
  50              		.loc 1 9 0
  51 0014 1F4B     		ldr	r3, .L21+8
  52 0016 9842     		cmp	r0, r3
  53 0018 2BD0     		beq	.L16
  54              		.loc 1 11 0
  55 001a 1F4B     		ldr	r3, .L21+12
  56 001c 9842     		cmp	r0, r3
  57 001e 2BD0     		beq	.L17
ARM GAS  /var/folders/vd/czx34qs52cd_f3nb04sxmghc0000gn/T//ccA2UiKd.s 			page 2


  58              		.loc 1 13 0
  59 0020 1E4B     		ldr	r3, .L21+16
  60 0022 9842     		cmp	r0, r3
  61 0024 22D0     		beq	.L18
  62              		.loc 1 15 0
  63 0026 1E4B     		ldr	r3, .L21+20
  64 0028 9842     		cmp	r0, r3
  65 002a 28D0     		beq	.L19
  66              		.loc 1 17 0
  67 002c 1D4B     		ldr	r3, .L21+24
  68 002e 9842     		cmp	r0, r3
  69 0030 28D0     		beq	.L20
  70              		.loc 1 19 0
  71 0032 1D4B     		ldr	r3, .L21+28
  72 0034 9842     		cmp	r0, r3
  73              		.loc 1 20 0
  74 0036 04BF     		itt	eq
  75 0038 4823     		moveq	r3, #72
  76 003a 5370     		strbeq	r3, [r2, #1]
  77 003c 01E0     		b	.L3
  78              	.L15:
  79              		.loc 1 8 0
  80 003e 4223     		movs	r3, #66
  81 0040 5370     		strb	r3, [r2, #1]
  82              	.L3:
  83              		.loc 1 23 0
  84 0042 1A4B     		ldr	r3, .L21+32
  85              		.loc 1 24 0
  86 0044 10BC     		pop	{r4}
  87              		.cfi_remember_state
  88              		.cfi_restore 4
  89              		.cfi_def_cfa_offset 0
  90              		.loc 1 23 0
  91 0046 A3FB0103 		umull	r0, r3, r3, r1
  92              	.LVL1:
  93 004a DB08     		lsrs	r3, r3, #3
  94 004c 03EB8303 		add	r3, r3, r3, lsl #2
  95 0050 A1EB4303 		sub	r3, r1, r3, lsl #1
  96              		.loc 1 22 0
  97 0054 0929     		cmp	r1, #9
  98              		.loc 1 23 0
  99 0056 03F13003 		add	r3, r3, #48
 100              		.loc 1 22 0
 101 005a 8CBF     		ite	hi
 102 005c 3121     		movhi	r1, #49
 103              	.LVL2:
 104 005e 3021     		movls	r1, #48
 105              		.loc 1 23 0
 106 0060 D370     		strb	r3, [r2, #3]
 107              		.loc 1 22 0
 108 0062 9170     		strb	r1, [r2, #2]
 109              		.loc 1 24 0
 110 0064 7047     		bx	lr
 111              	.LVL3:
 112              	.L14:
 113              		.cfi_restore_state
 114              		.loc 1 6 0
ARM GAS  /var/folders/vd/czx34qs52cd_f3nb04sxmghc0000gn/T//ccA2UiKd.s 			page 3


 115 0066 4123     		movs	r3, #65
 116 0068 5370     		strb	r3, [r2, #1]
 117 006a EAE7     		b	.L3
 118              	.L18:
 119              		.loc 1 14 0
 120 006c 4523     		movs	r3, #69
 121 006e 5370     		strb	r3, [r2, #1]
 122 0070 E7E7     		b	.L3
 123              	.L16:
 124              		.loc 1 10 0
 125 0072 4323     		movs	r3, #67
 126 0074 5370     		strb	r3, [r2, #1]
 127 0076 E4E7     		b	.L3
 128              	.L17:
 129              		.loc 1 12 0
 130 0078 4423     		movs	r3, #68
 131 007a 5370     		strb	r3, [r2, #1]
 132 007c E1E7     		b	.L3
 133              	.L19:
 134              		.loc 1 16 0
 135 007e 4623     		movs	r3, #70
 136 0080 5370     		strb	r3, [r2, #1]
 137 0082 DEE7     		b	.L3
 138              	.L20:
 139              		.loc 1 18 0
 140 0084 4723     		movs	r3, #71
 141 0086 5370     		strb	r3, [r2, #1]
 142 0088 DBE7     		b	.L3
 143              	.L22:
 144 008a 00BF     		.align	2
 145              	.L21:
 146 008c 00000240 		.word	1073872896
 147 0090 00040240 		.word	1073873920
 148 0094 00080240 		.word	1073874944
 149 0098 000C0240 		.word	1073875968
 150 009c 00100240 		.word	1073876992
 151 00a0 00140240 		.word	1073878016
 152 00a4 00180240 		.word	1073879040
 153 00a8 001C0240 		.word	1073880064
 154 00ac CDCCCCCC 		.word	-858993459
 155              		.cfi_endproc
 156              	.LFE506:
 157              		.size	_Z12portToStringP12stm32_gpio_tmPc, .-_Z12portToStringP12stm32_gpio_tmPc
 158              		.text
 159              	.Letext0:
 160              		.file 2 "/usr/local/Cellar/gcc-arm-none-eabi/20171218/lib/gcc/arm-none-eabi/7.2.1/include/stddef.h
 161              		.file 3 "/usr/local/Cellar/gcc-arm-none-eabi/20171218/arm-none-eabi/include/machine/_default_types
 162              		.file 4 "/usr/local/Cellar/gcc-arm-none-eabi/20171218/arm-none-eabi/include/sys/_stdint.h"
 163              		.file 5 "../os/common/ports/ARMCMx/compilers/GCC/chtypes.h"
 164              		.file 6 "../os/rt/include/chsystypes.h"
 165              		.file 7 "../os/rt/include/chschd.h"
 166              		.file 8 "../os/rt/include/chtime.h"
 167              		.file 9 "../os/common/ext/ARM/CMSIS/Core/Include/core_cm4.h"
 168              		.file 10 "../os/common/ext/ST/STM32F4xx/system_stm32f4xx.h"
 169              		.file 11 "../os/common/ext/ST/STM32F4xx/stm32f407xx.h"
 170              		.file 12 "../os/common/ports/ARMCMx/chcore.h"
 171              		.file 13 "../os/common/ports/ARMCMx/chcore_v7m.h"
ARM GAS  /var/folders/vd/czx34qs52cd_f3nb04sxmghc0000gn/T//ccA2UiKd.s 			page 4


 172              		.file 14 "../os/hal/ports/STM32/LLD/TIMv1/stm32_tim.h"
 173              		.file 15 "../os/rt/include/chtm.h"
 174              		.file 16 "../os/rt/include/chsem.h"
 175              		.file 17 "../os/rt/include/chmtx.h"
 176              		.file 18 "../os/rt/include/chsys.h"
 177              		.file 19 "../os/rt/include/chregistry.h"
 178              		.file 20 "../os/rt/include/chevents.h"
 179              		.file 21 "../os/common/oslib/include/chmemcore.h"
 180              		.file 22 "../os/common/oslib/include/chmempools.h"
 181              		.file 23 "../os/common/oslib/include/chfactory.h"
 182              		.file 24 "../os/various/cpp_wrappers/ch.hpp"
 183              		.file 25 "../os/hal/ports/STM32/LLD/DMAv2/stm32_dma.h"
 184              		.file 26 "../os/hal/include/hal_queues.h"
 185              		.file 27 "../os/hal/include/hal_pal.h"
 186              		.file 28 "../os/hal/ports/STM32/LLD/GPIOv2/stm32_gpio.h"
 187              		.file 29 "../os/hal/ports/STM32/LLD/GPIOv2/hal_pal_lld.h"
 188              		.file 30 "../os/hal/include/hal_pwm.h"
 189              		.file 31 "../os/hal/ports/STM32/LLD/TIMv1/hal_pwm_lld.h"
 190              		.file 32 "../os/hal/include/hal_serial.h"
 191              		.file 33 "../os/hal/ports/STM32/LLD/USARTv1/hal_serial_lld.h"