ARM GAS  /var/folders/vd/czx34qs52cd_f3nb04sxmghc0000gn/T//ccYvLyIs.s 			page 1


   1              		.cpu cortex-m4
   2              		.eabi_attribute 20, 1
   3              		.eabi_attribute 21, 1
   4              		.eabi_attribute 23, 3
   5              		.eabi_attribute 24, 1
   6              		.eabi_attribute 25, 1
   7              		.eabi_attribute 26, 1
   8              		.eabi_attribute 30, 2
   9              		.eabi_attribute 34, 1
  10              		.eabi_attribute 18, 4
  11              		.file	"serial_shell_commands.cpp"
  12              		.text
  13              	.Ltext0:
  14              		.cfi_sections	.debug_frame
  15              		.section	.text._ZL9cmd_helloP20BaseSequentialStreamiPPc,"ax",%progbits
  16              		.align	1
  17              		.p2align 4,,15
  18              		.syntax unified
  19              		.thumb
  20              		.thumb_func
  21              		.fpu softvfp
  22              		.type	_ZL9cmd_helloP20BaseSequentialStreamiPPc, %function
  23              	_ZL9cmd_helloP20BaseSequentialStreamiPPc:
  24              	.LFB506:
  25              		.file 1 "../dev/debug/serial_shell_commands.cpp"
  26              		.loc 1 3 0
  27              		.cfi_startproc
  28              		@ args = 0, pretend = 0, frame = 0
  29              		@ frame_needed = 0, uses_anonymous_args = 0
  30              		@ link register save eliminated.
  31              	.LVL0:
  32              		.loc 1 5 0
  33 0000 0029     		cmp	r1, #0
  34 0002 02DD     		ble	.L2
  35              		.loc 1 6 0
  36 0004 0249     		ldr	r1, .L4
  37              	.LVL1:
  38 0006 FFF7FEBF 		b	chprintf
  39              	.LVL2:
  40              	.L2:
  41              		.loc 1 9 0
  42 000a 0249     		ldr	r1, .L4+4
  43              	.LVL3:
  44 000c FFF7FEBF 		b	chprintf
  45              	.LVL4:
  46              	.L5:
  47              		.align	2
  48              	.L4:
  49 0010 00000000 		.word	.LC0
  50 0014 10000000 		.word	.LC1
  51              		.cfi_endproc
  52              	.LFE506:
  53              		.size	_ZL9cmd_helloP20BaseSequentialStreamiPPc, .-_ZL9cmd_helloP20BaseSequentialStreamiPPc
  54              		.global	shellCommands
  55              		.section	.rodata._ZL9cmd_helloP20BaseSequentialStreamiPPc.str1.4,"aMS",%progbits,1
  56              		.align	2
  57              	.LC0:
ARM GAS  /var/folders/vd/czx34qs52cd_f3nb04sxmghc0000gn/T//ccYvLyIs.s 			page 2


  58 0000 55736167 		.ascii	"Usage: hello\015\012\000"
  58      653A2068 
  58      656C6C6F 
  58      0D0A00
  59 000f 00       		.space	1
  60              	.LC1:
  61 0010 48656C6C 		.ascii	"Hello World from ChibiOS!\015\012\000"
  61      6F20576F 
  61      726C6420 
  61      66726F6D 
  61      20436869 
  62              		.section	.rodata.shellCommands,"a",%progbits
  63              		.align	2
  64              		.type	shellCommands, %object
  65              		.size	shellCommands, 16
  66              	shellCommands:
  67 0000 00000000 		.word	.LC2
  68 0004 00000000 		.word	_ZL9cmd_helloP20BaseSequentialStreamiPPc
  69 0008 00000000 		.word	0
  70 000c 00000000 		.word	0
  71              		.section	.rodata.str1.4,"aMS",%progbits,1
  72              		.align	2
  73              	.LC2:
  74 0000 68656C6C 		.ascii	"hello\000"
  74      6F00
  75              		.text
  76              	.Letext0:
  77              		.file 2 "/usr/local/Cellar/gcc-arm-none-eabi/20171218/lib/gcc/arm-none-eabi/7.2.1/include/stddef.h
  78              		.file 3 "/usr/local/Cellar/gcc-arm-none-eabi/20171218/arm-none-eabi/include/machine/_default_types
  79              		.file 4 "/usr/local/Cellar/gcc-arm-none-eabi/20171218/arm-none-eabi/include/sys/_stdint.h"
  80              		.file 5 "../os/common/ports/ARMCMx/compilers/GCC/chtypes.h"
  81              		.file 6 "../os/rt/include/chsystypes.h"
  82              		.file 7 "../os/rt/include/chschd.h"
  83              		.file 8 "../os/rt/include/chtime.h"
  84              		.file 9 "../os/common/ext/ARM/CMSIS/Core/Include/core_cm4.h"
  85              		.file 10 "../os/common/ext/ST/STM32F4xx/system_stm32f4xx.h"
  86              		.file 11 "../os/common/ext/ST/STM32F4xx/stm32f407xx.h"
  87              		.file 12 "../os/common/ext/ST/STM32F4xx/stm32f4xx.h"
  88              		.file 13 "../os/common/ports/ARMCMx/chcore.h"
  89              		.file 14 "../os/common/ports/ARMCMx/chcore_v7m.h"
  90              		.file 15 "../os/hal/ports/STM32/LLD/TIMv1/stm32_tim.h"
  91              		.file 16 "../os/rt/include/chtm.h"
  92              		.file 17 "../os/rt/include/chsem.h"
  93              		.file 18 "../os/rt/include/chmtx.h"
  94              		.file 19 "../os/rt/include/chsys.h"
  95              		.file 20 "../os/rt/include/chregistry.h"
  96              		.file 21 "../os/rt/include/chevents.h"
  97              		.file 22 "../os/common/oslib/include/chmemcore.h"
  98              		.file 23 "../os/common/oslib/include/chmempools.h"
  99              		.file 24 "../os/common/oslib/include/chfactory.h"
 100              		.file 25 "../os/various/cpp_wrappers/ch.hpp"
 101              		.file 26 "../os/hal/ports/STM32/LLD/DMAv2/stm32_dma.h"
 102              		.file 27 "../os/hal/include/hal_streams.h"
 103              		.file 28 "../os/hal/include/hal_queues.h"
 104              		.file 29 "../os/hal/include/hal_pal.h"
 105              		.file 30 "../os/hal/ports/STM32/LLD/GPIOv2/hal_pal_lld.h"
 106              		.file 31 "../os/hal/include/hal_pwm.h"
ARM GAS  /var/folders/vd/czx34qs52cd_f3nb04sxmghc0000gn/T//ccYvLyIs.s 			page 3


 107              		.file 32 "../os/hal/ports/STM32/LLD/TIMv1/hal_pwm_lld.h"
 108              		.file 33 "../os/hal/include/hal_serial.h"
 109              		.file 34 "../os/hal/ports/STM32/LLD/USARTv1/hal_serial_lld.h"
 110              		.file 35 "../os/various/shell/shell.h"
 111              		.file 36 "../dev/debug/serial_shell_commands.hpp"
 112              		.file 37 "../os/hal/lib/streams/chprintf.h"
 113              		.section	.debug_info,"",%progbits
 114              	.Ldebug_info0:
 115 0000 ED150000 		.4byte	0x15ed
 116 0004 0400     		.2byte	0x4
 117 0006 00000000 		.4byte	.Ldebug_abbrev0
 118 000a 04       		.byte	0x4
 119 000b 01       		.uleb128 0x1
 120 000c 590E0000 		.4byte	.LASF291
 121 0010 04       		.byte	0x4
 122 0011 AC020000 		.4byte	.LASF292
 123 0015 460D0000 		.4byte	.LASF293
 124 0019 00000000 		.4byte	.Ldebug_ranges0+0
 125 001d 00000000 		.4byte	0
 126 0021 00000000 		.4byte	.Ldebug_line0
 127 0025 02       		.uleb128 0x2
 128 0026 04       		.byte	0x4
 129 0027 05       		.byte	0x5
 130 0028 696E7400 		.ascii	"int\000"
 131 002c 03       		.uleb128 0x3
 132 002d 27000000 		.4byte	.LASF4
 133 0031 02       		.byte	0x2
 134 0032 D8       		.byte	0xd8
 135 0033 3C000000 		.4byte	0x3c
 136 0037 04       		.uleb128 0x4
 137 0038 2C000000 		.4byte	0x2c
 138 003c 05       		.uleb128 0x5
 139 003d 04       		.byte	0x4
 140 003e 07       		.byte	0x7
 141 003f 9A080000 		.4byte	.LASF0
 142 0043 05       		.uleb128 0x5
 143 0044 08       		.byte	0x8
 144 0045 05       		.byte	0x5
 145 0046 13070000 		.4byte	.LASF1
 146 004a 05       		.uleb128 0x5
 147 004b 08       		.byte	0x8
 148 004c 04       		.byte	0x4
 149 004d 73090000 		.4byte	.LASF2
 150 0051 06       		.uleb128 0x6
 151 0052 A4040000 		.4byte	.LASF294
 152 0056 05       		.uleb128 0x5
 153 0057 01       		.byte	0x1
 154 0058 06       		.byte	0x6
 155 0059 4E030000 		.4byte	.LASF3
 156 005d 03       		.uleb128 0x3
 157 005e B3010000 		.4byte	.LASF5
 158 0062 03       		.byte	0x3
 159 0063 2B       		.byte	0x2b
 160 0064 68000000 		.4byte	0x68
 161 0068 05       		.uleb128 0x5
 162 0069 01       		.byte	0x1
 163 006a 08       		.byte	0x8
ARM GAS  /var/folders/vd/czx34qs52cd_f3nb04sxmghc0000gn/T//ccYvLyIs.s 			page 4


 164 006b B3030000 		.4byte	.LASF6
 165 006f 05       		.uleb128 0x5
 166 0070 02       		.byte	0x2
 167 0071 05       		.byte	0x5
 168 0072 2F0C0000 		.4byte	.LASF7
 169 0076 03       		.uleb128 0x3
 170 0077 5A040000 		.4byte	.LASF8
 171 007b 03       		.byte	0x3
 172 007c 39       		.byte	0x39
 173 007d 81000000 		.4byte	0x81
 174 0081 05       		.uleb128 0x5
 175 0082 02       		.byte	0x2
 176 0083 07       		.byte	0x7
 177 0084 C80D0000 		.4byte	.LASF9
 178 0088 03       		.uleb128 0x3
 179 0089 090E0000 		.4byte	.LASF10
 180 008d 03       		.byte	0x3
 181 008e 4D       		.byte	0x4d
 182 008f 93000000 		.4byte	0x93
 183 0093 05       		.uleb128 0x5
 184 0094 04       		.byte	0x4
 185 0095 05       		.byte	0x5
 186 0096 09020000 		.4byte	.LASF11
 187 009a 03       		.uleb128 0x3
 188 009b F5060000 		.4byte	.LASF12
 189 009f 03       		.byte	0x3
 190 00a0 4F       		.byte	0x4f
 191 00a1 A5000000 		.4byte	0xa5
 192 00a5 05       		.uleb128 0x5
 193 00a6 04       		.byte	0x4
 194 00a7 07       		.byte	0x7
 195 00a8 9C050000 		.4byte	.LASF13
 196 00ac 03       		.uleb128 0x3
 197 00ad 87050000 		.4byte	.LASF14
 198 00b1 03       		.byte	0x3
 199 00b2 69       		.byte	0x69
 200 00b3 B7000000 		.4byte	0xb7
 201 00b7 05       		.uleb128 0x5
 202 00b8 08       		.byte	0x8
 203 00b9 07       		.byte	0x7
 204 00ba 4C0A0000 		.4byte	.LASF15
 205 00be 03       		.uleb128 0x3
 206 00bf 61030000 		.4byte	.LASF16
 207 00c3 04       		.byte	0x4
 208 00c4 18       		.byte	0x18
 209 00c5 5D000000 		.4byte	0x5d
 210 00c9 07       		.uleb128 0x7
 211 00ca BE000000 		.4byte	0xbe
 212 00ce 03       		.uleb128 0x3
 213 00cf 6C0A0000 		.4byte	.LASF17
 214 00d3 04       		.byte	0x4
 215 00d4 24       		.byte	0x24
 216 00d5 76000000 		.4byte	0x76
 217 00d9 03       		.uleb128 0x3
 218 00da 89000000 		.4byte	.LASF18
 219 00de 04       		.byte	0x4
 220 00df 2C       		.byte	0x2c
ARM GAS  /var/folders/vd/czx34qs52cd_f3nb04sxmghc0000gn/T//ccYvLyIs.s 			page 5


 221 00e0 88000000 		.4byte	0x88
 222 00e4 04       		.uleb128 0x4
 223 00e5 D9000000 		.4byte	0xd9
 224 00e9 03       		.uleb128 0x3
 225 00ea 3D0D0000 		.4byte	.LASF19
 226 00ee 04       		.byte	0x4
 227 00ef 30       		.byte	0x30
 228 00f0 9A000000 		.4byte	0x9a
 229 00f4 04       		.uleb128 0x4
 230 00f5 E9000000 		.4byte	0xe9
 231 00f9 03       		.uleb128 0x3
 232 00fa 460C0000 		.4byte	.LASF20
 233 00fe 04       		.byte	0x4
 234 00ff 3C       		.byte	0x3c
 235 0100 AC000000 		.4byte	0xac
 236 0104 03       		.uleb128 0x3
 237 0105 A7080000 		.4byte	.LASF21
 238 0109 05       		.byte	0x5
 239 010a 39       		.byte	0x39
 240 010b E9000000 		.4byte	0xe9
 241 010f 03       		.uleb128 0x3
 242 0110 A90B0000 		.4byte	.LASF22
 243 0114 05       		.byte	0x5
 244 0115 3C       		.byte	0x3c
 245 0116 BE000000 		.4byte	0xbe
 246 011a 03       		.uleb128 0x3
 247 011b 7A020000 		.4byte	.LASF23
 248 011f 05       		.byte	0x5
 249 0120 3D       		.byte	0x3d
 250 0121 BE000000 		.4byte	0xbe
 251 0125 03       		.uleb128 0x3
 252 0126 E80C0000 		.4byte	.LASF24
 253 012a 05       		.byte	0x5
 254 012b 3E       		.byte	0x3e
 255 012c BE000000 		.4byte	0xbe
 256 0130 03       		.uleb128 0x3
 257 0131 61000000 		.4byte	.LASF25
 258 0135 05       		.byte	0x5
 259 0136 40       		.byte	0x40
 260 0137 E9000000 		.4byte	0xe9
 261 013b 03       		.uleb128 0x3
 262 013c 7E0A0000 		.4byte	.LASF26
 263 0140 05       		.byte	0x5
 264 0141 41       		.byte	0x41
 265 0142 D9000000 		.4byte	0xd9
 266 0146 03       		.uleb128 0x3
 267 0147 98030000 		.4byte	.LASF27
 268 014b 05       		.byte	0x5
 269 014c 43       		.byte	0x43
 270 014d E9000000 		.4byte	0xe9
 271 0151 03       		.uleb128 0x3
 272 0152 C60A0000 		.4byte	.LASF28
 273 0156 05       		.byte	0x5
 274 0157 44       		.byte	0x44
 275 0158 E9000000 		.4byte	0xe9
 276 015c 03       		.uleb128 0x3
 277 015d 20050000 		.4byte	.LASF29
ARM GAS  /var/folders/vd/czx34qs52cd_f3nb04sxmghc0000gn/T//ccYvLyIs.s 			page 6


 278 0161 05       		.byte	0x5
 279 0162 45       		.byte	0x45
 280 0163 D9000000 		.4byte	0xd9
 281 0167 03       		.uleb128 0x3
 282 0168 AF060000 		.4byte	.LASF30
 283 016c 05       		.byte	0x5
 284 016d 46       		.byte	0x46
 285 016e E9000000 		.4byte	0xe9
 286 0172 03       		.uleb128 0x3
 287 0173 6A090000 		.4byte	.LASF31
 288 0177 06       		.byte	0x6
 289 0178 34       		.byte	0x34
 290 0179 7D010000 		.4byte	0x17d
 291 017d 08       		.uleb128 0x8
 292 017e DB050000 		.4byte	.LASF57
 293 0182 44       		.byte	0x44
 294 0183 07       		.byte	0x7
 295 0184 8E       		.byte	0x8e
 296 0185 BD020000 		.4byte	0x2bd
 297 0189 09       		.uleb128 0x9
 298 018a 04       		.byte	0x4
 299 018b 07       		.byte	0x7
 300 018c C6       		.byte	0xc6
 301 018d EB010000 		.4byte	0x1eb
 302 0191 0A       		.uleb128 0xa
 303 0192 B90D0000 		.4byte	.LASF32
 304 0196 07       		.byte	0x7
 305 0197 CD       		.byte	0xcd
 306 0198 3B010000 		.4byte	0x13b
 307 019c 0A       		.uleb128 0xa
 308 019d AA010000 		.4byte	.LASF33
 309 01a1 07       		.byte	0x7
 310 01a2 D4       		.byte	0xd4
 311 01a3 3B010000 		.4byte	0x13b
 312 01a7 0A       		.uleb128 0xa
 313 01a8 65040000 		.4byte	.LASF34
 314 01ac 07       		.byte	0x7
 315 01ad DB       		.byte	0xdb
 316 01ae A5030000 		.4byte	0x3a5
 317 01b2 0A       		.uleb128 0xa
 318 01b3 A4030000 		.4byte	.LASF35
 319 01b7 07       		.byte	0x7
 320 01b8 E2       		.byte	0xe2
 321 01b9 A9080000 		.4byte	0x8a9
 322 01bd 0A       		.uleb128 0xa
 323 01be A4090000 		.4byte	.LASF36
 324 01c2 07       		.byte	0x7
 325 01c3 E7       		.byte	0xe7
 326 01c4 3B010000 		.4byte	0x13b
 327 01c8 0A       		.uleb128 0xa
 328 01c9 3E000000 		.4byte	.LASF37
 329 01cd 07       		.byte	0x7
 330 01ce F0       		.byte	0xf0
 331 01cf D4080000 		.4byte	0x8d4
 332 01d3 0A       		.uleb128 0xa
 333 01d4 44050000 		.4byte	.LASF38
 334 01d8 07       		.byte	0x7
ARM GAS  /var/folders/vd/czx34qs52cd_f3nb04sxmghc0000gn/T//ccYvLyIs.s 			page 7


 335 01d9 F9       		.byte	0xf9
 336 01da 0B090000 		.4byte	0x90b
 337 01de 0B       		.uleb128 0xb
 338 01df 5A030000 		.4byte	.LASF39
 339 01e3 07       		.byte	0x7
 340 01e4 0101     		.2byte	0x101
 341 01e6 46010000 		.4byte	0x146
 342 01ea 00       		.byte	0
 343 01eb 0C       		.uleb128 0xc
 344 01ec EB0A0000 		.4byte	.LASF40
 345 01f0 07       		.byte	0x7
 346 01f1 8F       		.byte	0x8f
 347 01f2 F2020000 		.4byte	0x2f2
 348 01f6 00       		.byte	0
 349 01f7 0C       		.uleb128 0xc
 350 01f8 A5010000 		.4byte	.LASF41
 351 01fc 07       		.byte	0x7
 352 01fd 90       		.byte	0x90
 353 01fe 30010000 		.4byte	0x130
 354 0202 08       		.byte	0x8
 355 0203 0D       		.uleb128 0xd
 356 0204 63747800 		.ascii	"ctx\000"
 357 0208 07       		.byte	0x7
 358 0209 91       		.byte	0x91
 359 020a CF060000 		.4byte	0x6cf
 360 020e 0C       		.byte	0xc
 361 020f 0C       		.uleb128 0xc
 362 0210 320D0000 		.4byte	.LASF42
 363 0214 07       		.byte	0x7
 364 0215 93       		.byte	0x93
 365 0216 C8020000 		.4byte	0x2c8
 366 021a 10       		.byte	0x10
 367 021b 0C       		.uleb128 0xc
 368 021c 84060000 		.4byte	.LASF43
 369 0220 07       		.byte	0x7
 370 0221 94       		.byte	0x94
 371 0222 C8020000 		.4byte	0x2c8
 372 0226 14       		.byte	0x14
 373 0227 0C       		.uleb128 0xc
 374 0228 DA0B0000 		.4byte	.LASF44
 375 022c 07       		.byte	0x7
 376 022d 9B       		.byte	0x9b
 377 022e 11090000 		.4byte	0x911
 378 0232 18       		.byte	0x18
 379 0233 0C       		.uleb128 0xc
 380 0234 640B0000 		.4byte	.LASF45
 381 0238 07       		.byte	0x7
 382 0239 A4       		.byte	0xa4
 383 023a 28090000 		.4byte	0x928
 384 023e 1C       		.byte	0x1c
 385 023f 0C       		.uleb128 0xc
 386 0240 20010000 		.4byte	.LASF46
 387 0244 07       		.byte	0x7
 388 0245 A9       		.byte	0xa9
 389 0246 1A010000 		.4byte	0x11a
 390 024a 20       		.byte	0x20
 391 024b 0C       		.uleb128 0xc
ARM GAS  /var/folders/vd/czx34qs52cd_f3nb04sxmghc0000gn/T//ccYvLyIs.s 			page 8


 392 024c 9E040000 		.4byte	.LASF47
 393 0250 07       		.byte	0x7
 394 0251 AD       		.byte	0xad
 395 0252 0F010000 		.4byte	0x10f
 396 0256 21       		.byte	0x21
 397 0257 0C       		.uleb128 0xc
 398 0258 DE0A0000 		.4byte	.LASF48
 399 025c 07       		.byte	0x7
 400 025d B2       		.byte	0xb2
 401 025e 25010000 		.4byte	0x125
 402 0262 22       		.byte	0x22
 403 0263 0E       		.uleb128 0xe
 404 0264 7500     		.ascii	"u\000"
 405 0266 07       		.byte	0x7
 406 0267 0301     		.2byte	0x103
 407 0269 89010000 		.4byte	0x189
 408 026d 24       		.byte	0x24
 409 026e 0F       		.uleb128 0xf
 410 026f CE0C0000 		.4byte	.LASF49
 411 0273 07       		.byte	0x7
 412 0274 0801     		.2byte	0x108
 413 0276 CE020000 		.4byte	0x2ce
 414 027a 28       		.byte	0x28
 415 027b 0F       		.uleb128 0xf
 416 027c 620C0000 		.4byte	.LASF50
 417 0280 07       		.byte	0x7
 418 0281 0E01     		.2byte	0x10e
 419 0283 F2020000 		.4byte	0x2f2
 420 0287 2C       		.byte	0x2c
 421 0288 0F       		.uleb128 0xf
 422 0289 83020000 		.4byte	.LASF51
 423 028d 07       		.byte	0x7
 424 028e 1401     		.2byte	0x114
 425 0290 46010000 		.4byte	0x146
 426 0294 34       		.byte	0x34
 427 0295 0F       		.uleb128 0xf
 428 0296 00070000 		.4byte	.LASF52
 429 029a 07       		.byte	0x7
 430 029b 1B01     		.2byte	0x11b
 431 029d 0B090000 		.4byte	0x90b
 432 02a1 38       		.byte	0x38
 433 02a2 0F       		.uleb128 0xf
 434 02a3 9A060000 		.4byte	.LASF53
 435 02a7 07       		.byte	0x7
 436 02a8 1F01     		.2byte	0x11f
 437 02aa 30010000 		.4byte	0x130
 438 02ae 3C       		.byte	0x3c
 439 02af 0F       		.uleb128 0xf
 440 02b0 E2040000 		.4byte	.LASF54
 441 02b4 07       		.byte	0x7
 442 02b5 2601     		.2byte	0x126
 443 02b7 A5030000 		.4byte	0x3a5
 444 02bb 40       		.byte	0x40
 445 02bc 00       		.byte	0
 446 02bd 03       		.uleb128 0x3
 447 02be 86090000 		.4byte	.LASF55
 448 02c2 06       		.byte	0x6
ARM GAS  /var/folders/vd/czx34qs52cd_f3nb04sxmghc0000gn/T//ccYvLyIs.s 			page 9


 449 02c3 39       		.byte	0x39
 450 02c4 C8020000 		.4byte	0x2c8
 451 02c8 10       		.uleb128 0x10
 452 02c9 04       		.byte	0x4
 453 02ca 72010000 		.4byte	0x172
 454 02ce 03       		.uleb128 0x3
 455 02cf FD0C0000 		.4byte	.LASF56
 456 02d3 06       		.byte	0x6
 457 02d4 3E       		.byte	0x3e
 458 02d5 D9020000 		.4byte	0x2d9
 459 02d9 08       		.uleb128 0x8
 460 02da E0060000 		.4byte	.LASF58
 461 02de 04       		.byte	0x4
 462 02df 07       		.byte	0x7
 463 02e0 7C       		.byte	0x7c
 464 02e1 F2020000 		.4byte	0x2f2
 465 02e5 0C       		.uleb128 0xc
 466 02e6 540E0000 		.4byte	.LASF59
 467 02ea 07       		.byte	0x7
 468 02eb 7D       		.byte	0x7d
 469 02ec C8020000 		.4byte	0x2c8
 470 02f0 00       		.byte	0
 471 02f1 00       		.byte	0
 472 02f2 03       		.uleb128 0x3
 473 02f3 8C020000 		.4byte	.LASF60
 474 02f7 06       		.byte	0x6
 475 02f8 45       		.byte	0x45
 476 02f9 FD020000 		.4byte	0x2fd
 477 02fd 08       		.uleb128 0x8
 478 02fe 840A0000 		.4byte	.LASF61
 479 0302 08       		.byte	0x8
 480 0303 07       		.byte	0x7
 481 0304 83       		.byte	0x83
 482 0305 22030000 		.4byte	0x322
 483 0309 0C       		.uleb128 0xc
 484 030a 540E0000 		.4byte	.LASF59
 485 030e 07       		.byte	0x7
 486 030f 84       		.byte	0x84
 487 0310 C8020000 		.4byte	0x2c8
 488 0314 00       		.byte	0
 489 0315 0C       		.uleb128 0xc
 490 0316 5C0F0000 		.4byte	.LASF62
 491 031a 07       		.byte	0x7
 492 031b 85       		.byte	0x85
 493 031c C8020000 		.4byte	0x2c8
 494 0320 04       		.byte	0x4
 495 0321 00       		.byte	0
 496 0322 03       		.uleb128 0x3
 497 0323 77060000 		.4byte	.LASF63
 498 0327 06       		.byte	0x6
 499 0328 4C       		.byte	0x4c
 500 0329 2D030000 		.4byte	0x32d
 501 032d 11       		.uleb128 0x11
 502 032e 4B050000 		.4byte	.LASF64
 503 0332 1C       		.byte	0x1c
 504 0333 07       		.byte	0x7
 505 0334 5E01     		.2byte	0x15e
ARM GAS  /var/folders/vd/czx34qs52cd_f3nb04sxmghc0000gn/T//ccYvLyIs.s 			page 10


 506 0336 89030000 		.4byte	0x389
 507 033a 0F       		.uleb128 0xf
 508 033b EB0A0000 		.4byte	.LASF40
 509 033f 07       		.byte	0x7
 510 0340 5F01     		.2byte	0x15f
 511 0342 F2020000 		.4byte	0x2f2
 512 0346 00       		.byte	0
 513 0347 0F       		.uleb128 0xf
 514 0348 A5010000 		.4byte	.LASF41
 515 034c 07       		.byte	0x7
 516 034d 6001     		.2byte	0x160
 517 034f 30010000 		.4byte	0x130
 518 0353 08       		.byte	0x8
 519 0354 0E       		.uleb128 0xe
 520 0355 63747800 		.ascii	"ctx\000"
 521 0359 07       		.byte	0x7
 522 035a 6201     		.2byte	0x162
 523 035c CF060000 		.4byte	0x6cf
 524 0360 0C       		.byte	0xc
 525 0361 0F       		.uleb128 0xf
 526 0362 320D0000 		.4byte	.LASF42
 527 0366 07       		.byte	0x7
 528 0367 6501     		.2byte	0x165
 529 0369 C8020000 		.4byte	0x2c8
 530 036d 10       		.byte	0x10
 531 036e 0F       		.uleb128 0xf
 532 036f 84060000 		.4byte	.LASF43
 533 0373 07       		.byte	0x7
 534 0374 6601     		.2byte	0x166
 535 0376 C8020000 		.4byte	0x2c8
 536 037a 14       		.byte	0x14
 537 037b 0F       		.uleb128 0xf
 538 037c D1080000 		.4byte	.LASF65
 539 0380 07       		.byte	0x7
 540 0381 6901     		.2byte	0x169
 541 0383 C8020000 		.4byte	0x2c8
 542 0387 18       		.byte	0x18
 543 0388 00       		.byte	0
 544 0389 03       		.uleb128 0x3
 545 038a 98000000 		.4byte	.LASF66
 546 038e 06       		.byte	0x6
 547 038f 51       		.byte	0x51
 548 0390 94030000 		.4byte	0x394
 549 0394 10       		.uleb128 0x10
 550 0395 04       		.byte	0x4
 551 0396 9A030000 		.4byte	0x39a
 552 039a 12       		.uleb128 0x12
 553 039b A5030000 		.4byte	0x3a5
 554 039f 13       		.uleb128 0x13
 555 03a0 A5030000 		.4byte	0x3a5
 556 03a4 00       		.byte	0
 557 03a5 14       		.uleb128 0x14
 558 03a6 04       		.byte	0x4
 559 03a7 03       		.uleb128 0x3
 560 03a8 67060000 		.4byte	.LASF67
 561 03ac 06       		.byte	0x6
 562 03ad 56       		.byte	0x56
ARM GAS  /var/folders/vd/czx34qs52cd_f3nb04sxmghc0000gn/T//ccYvLyIs.s 			page 11


 563 03ae B2030000 		.4byte	0x3b2
 564 03b2 11       		.uleb128 0x11
 565 03b3 130A0000 		.4byte	.LASF68
 566 03b7 14       		.byte	0x14
 567 03b8 07       		.byte	0x7
 568 03b9 3901     		.2byte	0x139
 569 03bb 01040000 		.4byte	0x401
 570 03bf 0F       		.uleb128 0xf
 571 03c0 540E0000 		.4byte	.LASF59
 572 03c4 07       		.byte	0x7
 573 03c5 3A01     		.2byte	0x13a
 574 03c7 2E090000 		.4byte	0x92e
 575 03cb 00       		.byte	0
 576 03cc 0F       		.uleb128 0xf
 577 03cd 5C0F0000 		.4byte	.LASF62
 578 03d1 07       		.byte	0x7
 579 03d2 3B01     		.2byte	0x13b
 580 03d4 2E090000 		.4byte	0x92e
 581 03d8 04       		.byte	0x4
 582 03d9 0F       		.uleb128 0xf
 583 03da D80A0000 		.4byte	.LASF69
 584 03de 07       		.byte	0x7
 585 03df 3C01     		.2byte	0x13c
 586 03e1 D8040000 		.4byte	0x4d8
 587 03e5 08       		.byte	0x8
 588 03e6 0F       		.uleb128 0xf
 589 03e7 540C0000 		.4byte	.LASF70
 590 03eb 07       		.byte	0x7
 591 03ec 3D01     		.2byte	0x13d
 592 03ee 89030000 		.4byte	0x389
 593 03f2 0C       		.byte	0xc
 594 03f3 0E       		.uleb128 0xe
 595 03f4 70617200 		.ascii	"par\000"
 596 03f8 07       		.byte	0x7
 597 03f9 3F01     		.2byte	0x13f
 598 03fb A5030000 		.4byte	0x3a5
 599 03ff 10       		.byte	0x10
 600 0400 00       		.byte	0
 601 0401 03       		.uleb128 0x3
 602 0402 17060000 		.4byte	.LASF71
 603 0406 06       		.byte	0x6
 604 0407 5B       		.byte	0x5b
 605 0408 0C040000 		.4byte	0x40c
 606 040c 11       		.uleb128 0x11
 607 040d A1000000 		.4byte	.LASF72
 608 0411 10       		.byte	0x10
 609 0412 07       		.byte	0x7
 610 0413 4901     		.2byte	0x149
 611 0415 4E040000 		.4byte	0x44e
 612 0419 0F       		.uleb128 0xf
 613 041a 540E0000 		.4byte	.LASF59
 614 041e 07       		.byte	0x7
 615 041f 4A01     		.2byte	0x14a
 616 0421 2E090000 		.4byte	0x92e
 617 0425 00       		.byte	0
 618 0426 0F       		.uleb128 0xf
 619 0427 5C0F0000 		.4byte	.LASF62
ARM GAS  /var/folders/vd/czx34qs52cd_f3nb04sxmghc0000gn/T//ccYvLyIs.s 			page 12


 620 042b 07       		.byte	0x7
 621 042c 4C01     		.2byte	0x14c
 622 042e 2E090000 		.4byte	0x92e
 623 0432 04       		.byte	0x4
 624 0433 0F       		.uleb128 0xf
 625 0434 D80A0000 		.4byte	.LASF69
 626 0438 07       		.byte	0x7
 627 0439 4E01     		.2byte	0x14e
 628 043b D8040000 		.4byte	0x4d8
 629 043f 08       		.byte	0x8
 630 0440 0F       		.uleb128 0xf
 631 0441 C8030000 		.4byte	.LASF73
 632 0445 07       		.byte	0x7
 633 0446 5601     		.2byte	0x156
 634 0448 CD040000 		.4byte	0x4cd
 635 044c 0C       		.byte	0xc
 636 044d 00       		.byte	0
 637 044e 03       		.uleb128 0x3
 638 044f FD030000 		.4byte	.LASF74
 639 0453 06       		.byte	0x6
 640 0454 60       		.byte	0x60
 641 0455 59040000 		.4byte	0x459
 642 0459 11       		.uleb128 0x11
 643 045a 7F0C0000 		.4byte	.LASF75
 644 045e 04       		.byte	0x4
 645 045f 07       		.byte	0x7
 646 0460 7001     		.2byte	0x170
 647 0462 74040000 		.4byte	0x474
 648 0466 0F       		.uleb128 0xf
 649 0467 D1030000 		.4byte	.LASF76
 650 046b 07       		.byte	0x7
 651 046c 7801     		.2byte	0x178
 652 046e 17090000 		.4byte	0x917
 653 0472 00       		.byte	0
 654 0473 00       		.byte	0
 655 0474 03       		.uleb128 0x3
 656 0475 DB0D0000 		.4byte	.LASF77
 657 0479 06       		.byte	0x6
 658 047a 65       		.byte	0x65
 659 047b 7F040000 		.4byte	0x47f
 660 047f 11       		.uleb128 0x11
 661 0480 1D0D0000 		.4byte	.LASF78
 662 0484 78       		.byte	0x78
 663 0485 07       		.byte	0x7
 664 0486 9001     		.2byte	0x190
 665 0488 CD040000 		.4byte	0x4cd
 666 048c 0F       		.uleb128 0xf
 667 048d 9B0B0000 		.4byte	.LASF79
 668 0491 07       		.byte	0x7
 669 0492 9401     		.2byte	0x194
 670 0494 22030000 		.4byte	0x322
 671 0498 00       		.byte	0
 672 0499 0F       		.uleb128 0xf
 673 049a B80C0000 		.4byte	.LASF80
 674 049e 07       		.byte	0x7
 675 049f 9801     		.2byte	0x198
 676 04a1 01040000 		.4byte	0x401
ARM GAS  /var/folders/vd/czx34qs52cd_f3nb04sxmghc0000gn/T//ccYvLyIs.s 			page 13


 677 04a5 1C       		.byte	0x1c
 678 04a6 0E       		.uleb128 0xe
 679 04a7 64626700 		.ascii	"dbg\000"
 680 04ab 07       		.byte	0x7
 681 04ac 9C01     		.2byte	0x19c
 682 04ae 4E040000 		.4byte	0x44e
 683 04b2 2C       		.byte	0x2c
 684 04b3 0F       		.uleb128 0xf
 685 04b4 0C0B0000 		.4byte	.LASF81
 686 04b8 07       		.byte	0x7
 687 04b9 A001     		.2byte	0x1a0
 688 04bb 72010000 		.4byte	0x172
 689 04bf 30       		.byte	0x30
 690 04c0 0E       		.uleb128 0xe
 691 04c1 746D00   		.ascii	"tm\000"
 692 04c4 07       		.byte	0x7
 693 04c5 A501     		.2byte	0x1a5
 694 04c7 9E080000 		.4byte	0x89e
 695 04cb 74       		.byte	0x74
 696 04cc 00       		.byte	0
 697 04cd 03       		.uleb128 0x3
 698 04ce 45000000 		.4byte	.LASF82
 699 04d2 08       		.byte	0x8
 700 04d3 8C       		.byte	0x8c
 701 04d4 E9000000 		.4byte	0xe9
 702 04d8 03       		.uleb128 0x3
 703 04d9 4C070000 		.4byte	.LASF83
 704 04dd 08       		.byte	0x8
 705 04de 98       		.byte	0x98
 706 04df E9000000 		.4byte	0xe9
 707 04e3 15       		.uleb128 0x15
 708 04e4 13080000 		.4byte	.LASF84
 709 04e8 09       		.byte	0x9
 710 04e9 F407     		.2byte	0x7f4
 711 04eb E4000000 		.4byte	0xe4
 712 04ef 16       		.uleb128 0x16
 713 04f0 BE050000 		.4byte	.LASF85
 714 04f4 0A       		.byte	0xa
 715 04f5 4C       		.byte	0x4c
 716 04f6 E9000000 		.4byte	0xe9
 717 04fa 17       		.uleb128 0x17
 718 04fb C9000000 		.4byte	0xc9
 719 04ff 0A050000 		.4byte	0x50a
 720 0503 18       		.uleb128 0x18
 721 0504 3C000000 		.4byte	0x3c
 722 0508 0F       		.byte	0xf
 723 0509 00       		.byte	0
 724 050a 07       		.uleb128 0x7
 725 050b FA040000 		.4byte	0x4fa
 726 050f 16       		.uleb128 0x16
 727 0510 050A0000 		.4byte	.LASF86
 728 0514 0A       		.byte	0xa
 729 0515 4E       		.byte	0x4e
 730 0516 0A050000 		.4byte	0x50a
 731 051a 17       		.uleb128 0x17
 732 051b C9000000 		.4byte	0xc9
 733 051f 2A050000 		.4byte	0x52a
ARM GAS  /var/folders/vd/czx34qs52cd_f3nb04sxmghc0000gn/T//ccYvLyIs.s 			page 14


 734 0523 18       		.uleb128 0x18
 735 0524 3C000000 		.4byte	0x3c
 736 0528 07       		.byte	0x7
 737 0529 00       		.byte	0
 738 052a 07       		.uleb128 0x7
 739 052b 1A050000 		.4byte	0x51a
 740 052f 16       		.uleb128 0x16
 741 0530 F80B0000 		.4byte	.LASF87
 742 0534 0A       		.byte	0xa
 743 0535 4F       		.byte	0x4f
 744 0536 2A050000 		.4byte	0x52a
 745 053a 19       		.uleb128 0x19
 746 053b 18       		.byte	0x18
 747 053c 0B       		.byte	0xb
 748 053d 6B01     		.2byte	0x16b
 749 053f A7070000 		.4byte	.LASF92
 750 0543 95050000 		.4byte	0x595
 751 0547 0E       		.uleb128 0xe
 752 0548 435200   		.ascii	"CR\000"
 753 054b 0B       		.byte	0xb
 754 054c 6C01     		.2byte	0x16c
 755 054e F4000000 		.4byte	0xf4
 756 0552 00       		.byte	0
 757 0553 0F       		.uleb128 0xf
 758 0554 1B0E0000 		.4byte	.LASF88
 759 0558 0B       		.byte	0xb
 760 0559 6D01     		.2byte	0x16d
 761 055b F4000000 		.4byte	0xf4
 762 055f 04       		.byte	0x4
 763 0560 0E       		.uleb128 0xe
 764 0561 50415200 		.ascii	"PAR\000"
 765 0565 0B       		.byte	0xb
 766 0566 6E01     		.2byte	0x16e
 767 0568 F4000000 		.4byte	0xf4
 768 056c 08       		.byte	0x8
 769 056d 0F       		.uleb128 0xf
 770 056e D50B0000 		.4byte	.LASF89
 771 0572 0B       		.byte	0xb
 772 0573 6F01     		.2byte	0x16f
 773 0575 F4000000 		.4byte	0xf4
 774 0579 0C       		.byte	0xc
 775 057a 0F       		.uleb128 0xf
 776 057b 08000000 		.4byte	.LASF90
 777 057f 0B       		.byte	0xb
 778 0580 7001     		.2byte	0x170
 779 0582 F4000000 		.4byte	0xf4
 780 0586 10       		.byte	0x10
 781 0587 0E       		.uleb128 0xe
 782 0588 46435200 		.ascii	"FCR\000"
 783 058c 0B       		.byte	0xb
 784 058d 7101     		.2byte	0x171
 785 058f F4000000 		.4byte	0xf4
 786 0593 14       		.byte	0x14
 787 0594 00       		.byte	0
 788 0595 1A       		.uleb128 0x1a
 789 0596 1A090000 		.4byte	.LASF91
 790 059a 0B       		.byte	0xb
ARM GAS  /var/folders/vd/czx34qs52cd_f3nb04sxmghc0000gn/T//ccYvLyIs.s 			page 15


 791 059b 7201     		.2byte	0x172
 792 059d 3A050000 		.4byte	0x53a
 793 05a1 17       		.uleb128 0x17
 794 05a2 F4000000 		.4byte	0xf4
 795 05a6 B1050000 		.4byte	0x5b1
 796 05aa 18       		.uleb128 0x18
 797 05ab 3C000000 		.4byte	0x3c
 798 05af 01       		.byte	0x1
 799 05b0 00       		.byte	0
 800 05b1 04       		.uleb128 0x4
 801 05b2 A1050000 		.4byte	0x5a1
 802 05b6 17       		.uleb128 0x17
 803 05b7 F4000000 		.4byte	0xf4
 804 05bb C6050000 		.4byte	0x5c6
 805 05bf 18       		.uleb128 0x18
 806 05c0 3C000000 		.4byte	0x3c
 807 05c4 03       		.byte	0x3
 808 05c5 00       		.byte	0
 809 05c6 04       		.uleb128 0x4
 810 05c7 B6050000 		.4byte	0x5b6
 811 05cb 19       		.uleb128 0x19
 812 05cc 1C       		.byte	0x1c
 813 05cd 0B       		.byte	0xb
 814 05ce 0703     		.2byte	0x307
 815 05d0 E80B0000 		.4byte	.LASF93
 816 05d4 32060000 		.4byte	0x632
 817 05d8 0E       		.uleb128 0xe
 818 05d9 535200   		.ascii	"SR\000"
 819 05dc 0B       		.byte	0xb
 820 05dd 0803     		.2byte	0x308
 821 05df F4000000 		.4byte	0xf4
 822 05e3 00       		.byte	0
 823 05e4 0E       		.uleb128 0xe
 824 05e5 445200   		.ascii	"DR\000"
 825 05e8 0B       		.byte	0xb
 826 05e9 0903     		.2byte	0x309
 827 05eb F4000000 		.4byte	0xf4
 828 05ef 04       		.byte	0x4
 829 05f0 0E       		.uleb128 0xe
 830 05f1 42525200 		.ascii	"BRR\000"
 831 05f5 0B       		.byte	0xb
 832 05f6 0A03     		.2byte	0x30a
 833 05f8 F4000000 		.4byte	0xf4
 834 05fc 08       		.byte	0x8
 835 05fd 0E       		.uleb128 0xe
 836 05fe 43523100 		.ascii	"CR1\000"
 837 0602 0B       		.byte	0xb
 838 0603 0B03     		.2byte	0x30b
 839 0605 F4000000 		.4byte	0xf4
 840 0609 0C       		.byte	0xc
 841 060a 0E       		.uleb128 0xe
 842 060b 43523200 		.ascii	"CR2\000"
 843 060f 0B       		.byte	0xb
 844 0610 0C03     		.2byte	0x30c
 845 0612 F4000000 		.4byte	0xf4
 846 0616 10       		.byte	0x10
 847 0617 0E       		.uleb128 0xe
ARM GAS  /var/folders/vd/czx34qs52cd_f3nb04sxmghc0000gn/T//ccYvLyIs.s 			page 16


 848 0618 43523300 		.ascii	"CR3\000"
 849 061c 0B       		.byte	0xb
 850 061d 0D03     		.2byte	0x30d
 851 061f F4000000 		.4byte	0xf4
 852 0623 14       		.byte	0x14
 853 0624 0F       		.uleb128 0xf
 854 0625 BC070000 		.4byte	.LASF94
 855 0629 0B       		.byte	0xb
 856 062a 0E03     		.2byte	0x30e
 857 062c F4000000 		.4byte	0xf4
 858 0630 18       		.byte	0x18
 859 0631 00       		.byte	0
 860 0632 1A       		.uleb128 0x1a
 861 0633 C6040000 		.4byte	.LASF95
 862 0637 0B       		.byte	0xb
 863 0638 0F03     		.2byte	0x30f
 864 063a CB050000 		.4byte	0x5cb
 865 063e 1B       		.uleb128 0x1b
 866 063f 07       		.byte	0x7
 867 0640 01       		.byte	0x1
 868 0641 68000000 		.4byte	0x68
 869 0645 0C       		.byte	0xc
 870 0646 CC       		.byte	0xcc
 871 0647 D3020000 		.4byte	.LASF98
 872 064b 5C060000 		.4byte	0x65c
 873 064f 1C       		.uleb128 0x1c
 874 0650 2B0B0000 		.4byte	.LASF96
 875 0654 00       		.byte	0
 876 0655 1D       		.uleb128 0x1d
 877 0656 53455400 		.ascii	"SET\000"
 878 065a 01       		.byte	0x1
 879 065b 00       		.byte	0
 880 065c 03       		.uleb128 0x3
 881 065d 900B0000 		.4byte	.LASF97
 882 0661 0C       		.byte	0xc
 883 0662 CF       		.byte	0xcf
 884 0663 3E060000 		.4byte	0x63e
 885 0667 1B       		.uleb128 0x1b
 886 0668 07       		.byte	0x7
 887 0669 01       		.byte	0x1
 888 066a 68000000 		.4byte	0x68
 889 066e 0C       		.byte	0xc
 890 066f D2       		.byte	0xd2
 891 0670 DB030000 		.4byte	.LASF99
 892 0674 85060000 		.4byte	0x685
 893 0678 1C       		.uleb128 0x1c
 894 0679 62090000 		.4byte	.LASF100
 895 067d 00       		.byte	0
 896 067e 1C       		.uleb128 0x1c
 897 067f 8F0C0000 		.4byte	.LASF101
 898 0683 01       		.byte	0x1
 899 0684 00       		.byte	0
 900 0685 03       		.uleb128 0x3
 901 0686 370A0000 		.4byte	.LASF102
 902 068a 0C       		.byte	0xc
 903 068b D5       		.byte	0xd5
 904 068c 67060000 		.4byte	0x667
ARM GAS  /var/folders/vd/czx34qs52cd_f3nb04sxmghc0000gn/T//ccYvLyIs.s 			page 17


 905 0690 1B       		.uleb128 0x1b
 906 0691 07       		.byte	0x7
 907 0692 01       		.byte	0x1
 908 0693 68000000 		.4byte	0x68
 909 0697 0C       		.byte	0xc
 910 0698 D9       		.byte	0xd9
 911 0699 72000000 		.4byte	.LASF103
 912 069d AE060000 		.4byte	0x6ae
 913 06a1 1C       		.uleb128 0x1c
 914 06a2 BC060000 		.4byte	.LASF104
 915 06a6 00       		.byte	0
 916 06a7 1C       		.uleb128 0x1c
 917 06a8 E30A0000 		.4byte	.LASF105
 918 06ac 01       		.byte	0x1
 919 06ad 00       		.byte	0
 920 06ae 03       		.uleb128 0x3
 921 06af E4090000 		.4byte	.LASF106
 922 06b3 0C       		.byte	0xc
 923 06b4 DC       		.byte	0xdc
 924 06b5 90060000 		.4byte	0x690
 925 06b9 03       		.uleb128 0x3
 926 06ba A3020000 		.4byte	.LASF107
 927 06be 0D       		.byte	0xd
 928 06bf 65       		.byte	0x65
 929 06c0 A5030000 		.4byte	0x3a5
 930 06c4 03       		.uleb128 0x3
 931 06c5 BB040000 		.4byte	.LASF108
 932 06c9 0D       		.byte	0xd
 933 06ca 6D       		.byte	0x6d
 934 06cb F9000000 		.4byte	0xf9
 935 06cf 08       		.uleb128 0x8
 936 06d0 F00C0000 		.4byte	.LASF109
 937 06d4 04       		.byte	0x4
 938 06d5 0D       		.byte	0xd
 939 06d6 89       		.byte	0x89
 940 06d7 E7060000 		.4byte	0x6e7
 941 06db 0D       		.uleb128 0xd
 942 06dc 737000   		.ascii	"sp\000"
 943 06df 0D       		.byte	0xd
 944 06e0 8A       		.byte	0x8a
 945 06e1 63070000 		.4byte	0x763
 946 06e5 00       		.byte	0
 947 06e6 00       		.byte	0
 948 06e7 11       		.uleb128 0x11
 949 06e8 AC090000 		.4byte	.LASF110
 950 06ec 24       		.byte	0x24
 951 06ed 0E       		.byte	0xe
 952 06ee 5901     		.2byte	0x159
 953 06f0 63070000 		.4byte	0x763
 954 06f4 0E       		.uleb128 0xe
 955 06f5 723400   		.ascii	"r4\000"
 956 06f8 0E       		.byte	0xe
 957 06f9 6C01     		.2byte	0x16c
 958 06fb B9060000 		.4byte	0x6b9
 959 06ff 00       		.byte	0
 960 0700 0E       		.uleb128 0xe
 961 0701 723500   		.ascii	"r5\000"
ARM GAS  /var/folders/vd/czx34qs52cd_f3nb04sxmghc0000gn/T//ccYvLyIs.s 			page 18


 962 0704 0E       		.byte	0xe
 963 0705 6D01     		.2byte	0x16d
 964 0707 B9060000 		.4byte	0x6b9
 965 070b 04       		.byte	0x4
 966 070c 0E       		.uleb128 0xe
 967 070d 723600   		.ascii	"r6\000"
 968 0710 0E       		.byte	0xe
 969 0711 6E01     		.2byte	0x16e
 970 0713 B9060000 		.4byte	0x6b9
 971 0717 08       		.byte	0x8
 972 0718 0E       		.uleb128 0xe
 973 0719 723700   		.ascii	"r7\000"
 974 071c 0E       		.byte	0xe
 975 071d 6F01     		.2byte	0x16f
 976 071f B9060000 		.4byte	0x6b9
 977 0723 0C       		.byte	0xc
 978 0724 0E       		.uleb128 0xe
 979 0725 723800   		.ascii	"r8\000"
 980 0728 0E       		.byte	0xe
 981 0729 7001     		.2byte	0x170
 982 072b B9060000 		.4byte	0x6b9
 983 072f 10       		.byte	0x10
 984 0730 0E       		.uleb128 0xe
 985 0731 723900   		.ascii	"r9\000"
 986 0734 0E       		.byte	0xe
 987 0735 7101     		.2byte	0x171
 988 0737 B9060000 		.4byte	0x6b9
 989 073b 14       		.byte	0x14
 990 073c 0E       		.uleb128 0xe
 991 073d 72313000 		.ascii	"r10\000"
 992 0741 0E       		.byte	0xe
 993 0742 7201     		.2byte	0x172
 994 0744 B9060000 		.4byte	0x6b9
 995 0748 18       		.byte	0x18
 996 0749 0E       		.uleb128 0xe
 997 074a 72313100 		.ascii	"r11\000"
 998 074e 0E       		.byte	0xe
 999 074f 7301     		.2byte	0x173
 1000 0751 B9060000 		.4byte	0x6b9
 1001 0755 1C       		.byte	0x1c
 1002 0756 0E       		.uleb128 0xe
 1003 0757 6C7200   		.ascii	"lr\000"
 1004 075a 0E       		.byte	0xe
 1005 075b 7401     		.2byte	0x174
 1006 075d B9060000 		.4byte	0x6b9
 1007 0761 20       		.byte	0x20
 1008 0762 00       		.byte	0
 1009 0763 10       		.uleb128 0x10
 1010 0764 04       		.byte	0x4
 1011 0765 E7060000 		.4byte	0x6e7
 1012 0769 19       		.uleb128 0x19
 1013 076a 60       		.byte	0x60
 1014 076b 0F       		.byte	0xf
 1015 076c F501     		.2byte	0x1f5
 1016 076e 210C0000 		.4byte	.LASF111
 1017 0772 79080000 		.4byte	0x879
 1018 0776 0E       		.uleb128 0xe
ARM GAS  /var/folders/vd/czx34qs52cd_f3nb04sxmghc0000gn/T//ccYvLyIs.s 			page 19


 1019 0777 43523100 		.ascii	"CR1\000"
 1020 077b 0F       		.byte	0xf
 1021 077c F601     		.2byte	0x1f6
 1022 077e F4000000 		.4byte	0xf4
 1023 0782 00       		.byte	0
 1024 0783 0E       		.uleb128 0xe
 1025 0784 43523200 		.ascii	"CR2\000"
 1026 0788 0F       		.byte	0xf
 1027 0789 F701     		.2byte	0x1f7
 1028 078b F4000000 		.4byte	0xf4
 1029 078f 04       		.byte	0x4
 1030 0790 0F       		.uleb128 0xf
 1031 0791 170B0000 		.4byte	.LASF112
 1032 0795 0F       		.byte	0xf
 1033 0796 F801     		.2byte	0x1f8
 1034 0798 F4000000 		.4byte	0xf4
 1035 079c 08       		.byte	0x8
 1036 079d 0F       		.uleb128 0xf
 1037 079e B9050000 		.4byte	.LASF113
 1038 07a2 0F       		.byte	0xf
 1039 07a3 F901     		.2byte	0x1f9
 1040 07a5 F4000000 		.4byte	0xf4
 1041 07a9 0C       		.byte	0xc
 1042 07aa 0E       		.uleb128 0xe
 1043 07ab 535200   		.ascii	"SR\000"
 1044 07ae 0F       		.byte	0xf
 1045 07af FA01     		.2byte	0x1fa
 1046 07b1 F4000000 		.4byte	0xf4
 1047 07b5 10       		.byte	0x10
 1048 07b6 0E       		.uleb128 0xe
 1049 07b7 45475200 		.ascii	"EGR\000"
 1050 07bb 0F       		.byte	0xf
 1051 07bc FB01     		.2byte	0x1fb
 1052 07be F4000000 		.4byte	0xf4
 1053 07c2 14       		.byte	0x14
 1054 07c3 0F       		.uleb128 0xf
 1055 07c4 33040000 		.4byte	.LASF114
 1056 07c8 0F       		.byte	0xf
 1057 07c9 FC01     		.2byte	0x1fc
 1058 07cb F4000000 		.4byte	0xf4
 1059 07cf 18       		.byte	0x18
 1060 07d0 0F       		.uleb128 0xf
 1061 07d1 39040000 		.4byte	.LASF115
 1062 07d5 0F       		.byte	0xf
 1063 07d6 FD01     		.2byte	0x1fd
 1064 07d8 F4000000 		.4byte	0xf4
 1065 07dc 1C       		.byte	0x1c
 1066 07dd 0F       		.uleb128 0xf
 1067 07de D30A0000 		.4byte	.LASF116
 1068 07e2 0F       		.byte	0xf
 1069 07e3 FE01     		.2byte	0x1fe
 1070 07e5 F4000000 		.4byte	0xf4
 1071 07e9 20       		.byte	0x20
 1072 07ea 0E       		.uleb128 0xe
 1073 07eb 434E5400 		.ascii	"CNT\000"
 1074 07ef 0F       		.byte	0xf
 1075 07f0 FF01     		.2byte	0x1ff
ARM GAS  /var/folders/vd/czx34qs52cd_f3nb04sxmghc0000gn/T//ccYvLyIs.s 			page 20


 1076 07f2 F4000000 		.4byte	0xf4
 1077 07f6 24       		.byte	0x24
 1078 07f7 0E       		.uleb128 0xe
 1079 07f8 50534300 		.ascii	"PSC\000"
 1080 07fc 0F       		.byte	0xf
 1081 07fd 0002     		.2byte	0x200
 1082 07ff F4000000 		.4byte	0xf4
 1083 0803 28       		.byte	0x28
 1084 0804 0E       		.uleb128 0xe
 1085 0805 41525200 		.ascii	"ARR\000"
 1086 0809 0F       		.byte	0xf
 1087 080a 0102     		.2byte	0x201
 1088 080c F4000000 		.4byte	0xf4
 1089 0810 2C       		.byte	0x2c
 1090 0811 0E       		.uleb128 0xe
 1091 0812 52435200 		.ascii	"RCR\000"
 1092 0816 0F       		.byte	0xf
 1093 0817 0202     		.2byte	0x202
 1094 0819 F4000000 		.4byte	0xf4
 1095 081d 30       		.byte	0x30
 1096 081e 0E       		.uleb128 0xe
 1097 081f 43435200 		.ascii	"CCR\000"
 1098 0823 0F       		.byte	0xf
 1099 0824 0302     		.2byte	0x203
 1100 0826 C6050000 		.4byte	0x5c6
 1101 082a 34       		.byte	0x34
 1102 082b 0F       		.uleb128 0xf
 1103 082c 380D0000 		.4byte	.LASF117
 1104 0830 0F       		.byte	0xf
 1105 0831 0402     		.2byte	0x204
 1106 0833 F4000000 		.4byte	0xf4
 1107 0837 44       		.byte	0x44
 1108 0838 0E       		.uleb128 0xe
 1109 0839 44435200 		.ascii	"DCR\000"
 1110 083d 0F       		.byte	0xf
 1111 083e 0502     		.2byte	0x205
 1112 0840 F4000000 		.4byte	0xf4
 1113 0844 48       		.byte	0x48
 1114 0845 0F       		.uleb128 0xf
 1115 0846 45010000 		.4byte	.LASF118
 1116 084a 0F       		.byte	0xf
 1117 084b 0602     		.2byte	0x206
 1118 084d F4000000 		.4byte	0xf4
 1119 0851 4C       		.byte	0x4c
 1120 0852 0E       		.uleb128 0xe
 1121 0853 4F5200   		.ascii	"OR\000"
 1122 0856 0F       		.byte	0xf
 1123 0857 0702     		.2byte	0x207
 1124 0859 F4000000 		.4byte	0xf4
 1125 085d 50       		.byte	0x50
 1126 085e 0F       		.uleb128 0xf
 1127 085f 3F040000 		.4byte	.LASF119
 1128 0863 0F       		.byte	0xf
 1129 0864 0802     		.2byte	0x208
 1130 0866 F4000000 		.4byte	0xf4
 1131 086a 54       		.byte	0x54
 1132 086b 0F       		.uleb128 0xf
ARM GAS  /var/folders/vd/czx34qs52cd_f3nb04sxmghc0000gn/T//ccYvLyIs.s 			page 21


 1133 086c 08050000 		.4byte	.LASF120
 1134 0870 0F       		.byte	0xf
 1135 0871 0902     		.2byte	0x209
 1136 0873 B1050000 		.4byte	0x5b1
 1137 0877 58       		.byte	0x58
 1138 0878 00       		.byte	0
 1139 0879 1A       		.uleb128 0x1a
 1140 087a A3060000 		.4byte	.LASF121
 1141 087e 0F       		.byte	0xf
 1142 087f 0A02     		.2byte	0x20a
 1143 0881 69070000 		.4byte	0x769
 1144 0885 1E       		.uleb128 0x1e
 1145 0886 04       		.byte	0x4
 1146 0887 10       		.byte	0x10
 1147 0888 38       		.byte	0x38
 1148 0889 240A0000 		.4byte	.LASF129
 1149 088d 9E080000 		.4byte	0x89e
 1150 0891 0C       		.uleb128 0xc
 1151 0892 E3080000 		.4byte	.LASF122
 1152 0896 10       		.byte	0x10
 1153 0897 3C       		.byte	0x3c
 1154 0898 04010000 		.4byte	0x104
 1155 089c 00       		.byte	0
 1156 089d 00       		.byte	0
 1157 089e 03       		.uleb128 0x3
 1158 089f C40B0000 		.4byte	.LASF123
 1159 08a3 10       		.byte	0x10
 1160 08a4 3D       		.byte	0x3d
 1161 08a5 85080000 		.4byte	0x885
 1162 08a9 10       		.uleb128 0x10
 1163 08aa 04       		.byte	0x4
 1164 08ab BD020000 		.4byte	0x2bd
 1165 08af 08       		.uleb128 0x8
 1166 08b0 CE050000 		.4byte	.LASF124
 1167 08b4 0C       		.byte	0xc
 1168 08b5 11       		.byte	0x11
 1169 08b6 34       		.byte	0x34
 1170 08b7 D4080000 		.4byte	0x8d4
 1171 08bb 0C       		.uleb128 0xc
 1172 08bc EB0A0000 		.4byte	.LASF40
 1173 08c0 11       		.byte	0x11
 1174 08c1 35       		.byte	0x35
 1175 08c2 F2020000 		.4byte	0x2f2
 1176 08c6 00       		.byte	0
 1177 08c7 0D       		.uleb128 0xd
 1178 08c8 636E7400 		.ascii	"cnt\000"
 1179 08cc 11       		.byte	0x11
 1180 08cd 37       		.byte	0x37
 1181 08ce 5C010000 		.4byte	0x15c
 1182 08d2 08       		.byte	0x8
 1183 08d3 00       		.byte	0
 1184 08d4 10       		.uleb128 0x10
 1185 08d5 04       		.byte	0x4
 1186 08d6 AF080000 		.4byte	0x8af
 1187 08da 08       		.uleb128 0x8
 1188 08db 590C0000 		.4byte	.LASF125
 1189 08df 10       		.byte	0x10
ARM GAS  /var/folders/vd/czx34qs52cd_f3nb04sxmghc0000gn/T//ccYvLyIs.s 			page 22


 1190 08e0 12       		.byte	0x12
 1191 08e1 39       		.byte	0x39
 1192 08e2 0B090000 		.4byte	0x90b
 1193 08e6 0C       		.uleb128 0xc
 1194 08e7 EB0A0000 		.4byte	.LASF40
 1195 08eb 12       		.byte	0x12
 1196 08ec 3A       		.byte	0x3a
 1197 08ed F2020000 		.4byte	0x2f2
 1198 08f1 00       		.byte	0
 1199 08f2 0C       		.uleb128 0xc
 1200 08f3 5B000000 		.4byte	.LASF126
 1201 08f7 12       		.byte	0x12
 1202 08f8 3C       		.byte	0x3c
 1203 08f9 C8020000 		.4byte	0x2c8
 1204 08fd 08       		.byte	0x8
 1205 08fe 0C       		.uleb128 0xc
 1206 08ff 540E0000 		.4byte	.LASF59
 1207 0903 12       		.byte	0x12
 1208 0904 3E       		.byte	0x3e
 1209 0905 710A0000 		.4byte	0xa71
 1210 0909 0C       		.byte	0xc
 1211 090a 00       		.byte	0
 1212 090b 10       		.uleb128 0x10
 1213 090c 04       		.byte	0x4
 1214 090d DA080000 		.4byte	0x8da
 1215 0911 10       		.uleb128 0x10
 1216 0912 04       		.byte	0x4
 1217 0913 23090000 		.4byte	0x923
 1218 0917 04       		.uleb128 0x4
 1219 0918 11090000 		.4byte	0x911
 1220 091c 05       		.uleb128 0x5
 1221 091d 01       		.byte	0x1
 1222 091e 08       		.byte	0x8
 1223 091f 45040000 		.4byte	.LASF127
 1224 0923 07       		.uleb128 0x7
 1225 0924 1C090000 		.4byte	0x91c
 1226 0928 10       		.uleb128 0x10
 1227 0929 04       		.byte	0x4
 1228 092a C4060000 		.4byte	0x6c4
 1229 092e 10       		.uleb128 0x10
 1230 092f 04       		.byte	0x4
 1231 0930 A7030000 		.4byte	0x3a7
 1232 0934 1F       		.uleb128 0x1f
 1233 0935 636800   		.ascii	"ch\000"
 1234 0938 07       		.byte	0x7
 1235 0939 C701     		.2byte	0x1c7
 1236 093b 74040000 		.4byte	0x474
 1237 093f 17       		.uleb128 0x17
 1238 0940 C4060000 		.4byte	0x6c4
 1239 0944 4A090000 		.4byte	0x94a
 1240 0948 20       		.uleb128 0x20
 1241 0949 00       		.byte	0
 1242 094a 15       		.uleb128 0x15
 1243 094b 38060000 		.4byte	.LASF128
 1244 094f 13       		.byte	0x13
 1245 0950 1701     		.2byte	0x117
 1246 0952 3F090000 		.4byte	0x93f
ARM GAS  /var/folders/vd/czx34qs52cd_f3nb04sxmghc0000gn/T//ccYvLyIs.s 			page 23


 1247 0956 1E       		.uleb128 0x1e
 1248 0957 16       		.byte	0x16
 1249 0958 14       		.byte	0x14
 1250 0959 34       		.byte	0x34
 1251 095a 99090000 		.4byte	.LASF130
 1252 095e 3B0A0000 		.4byte	0xa3b
 1253 0962 0C       		.uleb128 0xc
 1254 0963 6D0F0000 		.4byte	.LASF131
 1255 0967 14       		.byte	0x14
 1256 0968 35       		.byte	0x35
 1257 0969 3B0A0000 		.4byte	0xa3b
 1258 096d 00       		.byte	0
 1259 096e 0C       		.uleb128 0xc
 1260 096f 3F020000 		.4byte	.LASF132
 1261 0973 14       		.byte	0x14
 1262 0974 36       		.byte	0x36
 1263 0975 BE000000 		.4byte	0xbe
 1264 0979 04       		.byte	0x4
 1265 097a 0C       		.uleb128 0xc
 1266 097b 470A0000 		.4byte	.LASF133
 1267 097f 14       		.byte	0x14
 1268 0980 37       		.byte	0x37
 1269 0981 BE000000 		.4byte	0xbe
 1270 0985 05       		.byte	0x5
 1271 0986 0C       		.uleb128 0xc
 1272 0987 230B0000 		.4byte	.LASF134
 1273 098b 14       		.byte	0x14
 1274 098c 38       		.byte	0x38
 1275 098d CE000000 		.4byte	0xce
 1276 0991 06       		.byte	0x6
 1277 0992 0C       		.uleb128 0xc
 1278 0993 00050000 		.4byte	.LASF135
 1279 0997 14       		.byte	0x14
 1280 0998 39       		.byte	0x39
 1281 0999 BE000000 		.4byte	0xbe
 1282 099d 08       		.byte	0x8
 1283 099e 0C       		.uleb128 0xc
 1284 099f 000E0000 		.4byte	.LASF136
 1285 09a3 14       		.byte	0x14
 1286 09a4 3A       		.byte	0x3a
 1287 09a5 BE000000 		.4byte	0xbe
 1288 09a9 09       		.byte	0x9
 1289 09aa 0C       		.uleb128 0xc
 1290 09ab AE050000 		.4byte	.LASF137
 1291 09af 14       		.byte	0x14
 1292 09b0 3B       		.byte	0x3b
 1293 09b1 BE000000 		.4byte	0xbe
 1294 09b5 0A       		.byte	0xa
 1295 09b6 0C       		.uleb128 0xc
 1296 09b7 2E000000 		.4byte	.LASF138
 1297 09bb 14       		.byte	0x14
 1298 09bc 3C       		.byte	0x3c
 1299 09bd BE000000 		.4byte	0xbe
 1300 09c1 0B       		.byte	0xb
 1301 09c2 0C       		.uleb128 0xc
 1302 09c3 00000000 		.4byte	.LASF139
 1303 09c7 14       		.byte	0x14
ARM GAS  /var/folders/vd/czx34qs52cd_f3nb04sxmghc0000gn/T//ccYvLyIs.s 			page 24


 1304 09c8 3D       		.byte	0x3d
 1305 09c9 BE000000 		.4byte	0xbe
 1306 09cd 0C       		.byte	0xc
 1307 09ce 0C       		.uleb128 0xc
 1308 09cf 86080000 		.4byte	.LASF140
 1309 09d3 14       		.byte	0x14
 1310 09d4 3E       		.byte	0x3e
 1311 09d5 BE000000 		.4byte	0xbe
 1312 09d9 0D       		.byte	0xd
 1313 09da 0C       		.uleb128 0xc
 1314 09db 9B010000 		.4byte	.LASF141
 1315 09df 14       		.byte	0x14
 1316 09e0 3F       		.byte	0x3f
 1317 09e1 BE000000 		.4byte	0xbe
 1318 09e5 0E       		.byte	0xe
 1319 09e6 0C       		.uleb128 0xc
 1320 09e7 750A0000 		.4byte	.LASF142
 1321 09eb 14       		.byte	0x14
 1322 09ec 40       		.byte	0x40
 1323 09ed BE000000 		.4byte	0xbe
 1324 09f1 0F       		.byte	0xf
 1325 09f2 0C       		.uleb128 0xc
 1326 09f3 C2060000 		.4byte	.LASF143
 1327 09f7 14       		.byte	0x14
 1328 09f8 41       		.byte	0x41
 1329 09f9 BE000000 		.4byte	0xbe
 1330 09fd 10       		.byte	0x10
 1331 09fe 0C       		.uleb128 0xc
 1332 09ff 92050000 		.4byte	.LASF144
 1333 0a03 14       		.byte	0x14
 1334 0a04 42       		.byte	0x42
 1335 0a05 BE000000 		.4byte	0xbe
 1336 0a09 11       		.byte	0x11
 1337 0a0a 0C       		.uleb128 0xc
 1338 0a0b 300E0000 		.4byte	.LASF145
 1339 0a0f 14       		.byte	0x14
 1340 0a10 43       		.byte	0x43
 1341 0a11 BE000000 		.4byte	0xbe
 1342 0a15 12       		.byte	0x12
 1343 0a16 0C       		.uleb128 0xc
 1344 0a17 95040000 		.4byte	.LASF146
 1345 0a1b 14       		.byte	0x14
 1346 0a1c 44       		.byte	0x44
 1347 0a1d BE000000 		.4byte	0xbe
 1348 0a21 13       		.byte	0x13
 1349 0a22 0C       		.uleb128 0xc
 1350 0a23 4F000000 		.4byte	.LASF147
 1351 0a27 14       		.byte	0x14
 1352 0a28 45       		.byte	0x45
 1353 0a29 BE000000 		.4byte	0xbe
 1354 0a2d 14       		.byte	0x14
 1355 0a2e 0C       		.uleb128 0xc
 1356 0a2f 0D050000 		.4byte	.LASF148
 1357 0a33 14       		.byte	0x14
 1358 0a34 46       		.byte	0x46
 1359 0a35 BE000000 		.4byte	0xbe
 1360 0a39 15       		.byte	0x15
ARM GAS  /var/folders/vd/czx34qs52cd_f3nb04sxmghc0000gn/T//ccYvLyIs.s 			page 25


 1361 0a3a 00       		.byte	0
 1362 0a3b 17       		.uleb128 0x17
 1363 0a3c 1C090000 		.4byte	0x91c
 1364 0a40 4B0A0000 		.4byte	0xa4b
 1365 0a44 18       		.uleb128 0x18
 1366 0a45 3C000000 		.4byte	0x3c
 1367 0a49 03       		.byte	0x3
 1368 0a4a 00       		.byte	0
 1369 0a4b 03       		.uleb128 0x3
 1370 0a4c E70D0000 		.4byte	.LASF149
 1371 0a50 14       		.byte	0x14
 1372 0a51 47       		.byte	0x47
 1373 0a52 56090000 		.4byte	0x956
 1374 0a56 07       		.uleb128 0x7
 1375 0a57 4B0A0000 		.4byte	0xa4b
 1376 0a5b 16       		.uleb128 0x16
 1377 0a5c 69000000 		.4byte	.LASF150
 1378 0a60 14       		.byte	0x14
 1379 0a61 6C       		.byte	0x6c
 1380 0a62 560A0000 		.4byte	0xa56
 1381 0a66 03       		.uleb128 0x3
 1382 0a67 E00C0000 		.4byte	.LASF151
 1383 0a6b 12       		.byte	0x12
 1384 0a6c 34       		.byte	0x34
 1385 0a6d DA080000 		.4byte	0x8da
 1386 0a71 10       		.uleb128 0x10
 1387 0a72 04       		.byte	0x4
 1388 0a73 660A0000 		.4byte	0xa66
 1389 0a77 03       		.uleb128 0x3
 1390 0a78 EF040000 		.4byte	.LASF152
 1391 0a7c 15       		.byte	0x15
 1392 0a7d 34       		.byte	0x34
 1393 0a7e 820A0000 		.4byte	0xa82
 1394 0a82 08       		.uleb128 0x8
 1395 0a83 A10D0000 		.4byte	.LASF153
 1396 0a87 14       		.byte	0x14
 1397 0a88 15       		.byte	0x15
 1398 0a89 39       		.byte	0x39
 1399 0a8a CB0A0000 		.4byte	0xacb
 1400 0a8e 0C       		.uleb128 0xc
 1401 0a8f 540E0000 		.4byte	.LASF59
 1402 0a93 15       		.byte	0x15
 1403 0a94 3A       		.byte	0x3a
 1404 0a95 CB0A0000 		.4byte	0xacb
 1405 0a99 00       		.byte	0
 1406 0a9a 0C       		.uleb128 0xc
 1407 0a9b DF0B0000 		.4byte	.LASF154
 1408 0a9f 15       		.byte	0x15
 1409 0aa0 3D       		.byte	0x3d
 1410 0aa1 C8020000 		.4byte	0x2c8
 1411 0aa5 04       		.byte	0x4
 1412 0aa6 0C       		.uleb128 0xc
 1413 0aa7 4D0E0000 		.4byte	.LASF155
 1414 0aab 15       		.byte	0x15
 1415 0aac 3F       		.byte	0x3f
 1416 0aad 46010000 		.4byte	0x146
 1417 0ab1 08       		.byte	0x8
ARM GAS  /var/folders/vd/czx34qs52cd_f3nb04sxmghc0000gn/T//ccYvLyIs.s 			page 26


 1418 0ab2 0C       		.uleb128 0xc
 1419 0ab3 9E040000 		.4byte	.LASF47
 1420 0ab7 15       		.byte	0x15
 1421 0ab8 41       		.byte	0x41
 1422 0ab9 51010000 		.4byte	0x151
 1423 0abd 0C       		.byte	0xc
 1424 0abe 0C       		.uleb128 0xc
 1425 0abf 7F090000 		.4byte	.LASF156
 1426 0ac3 15       		.byte	0x15
 1427 0ac4 43       		.byte	0x43
 1428 0ac5 51010000 		.4byte	0x151
 1429 0ac9 10       		.byte	0x10
 1430 0aca 00       		.byte	0
 1431 0acb 10       		.uleb128 0x10
 1432 0acc 04       		.byte	0x4
 1433 0acd 770A0000 		.4byte	0xa77
 1434 0ad1 08       		.uleb128 0x8
 1435 0ad2 390C0000 		.4byte	.LASF157
 1436 0ad6 04       		.byte	0x4
 1437 0ad7 15       		.byte	0x15
 1438 0ad8 4A       		.byte	0x4a
 1439 0ad9 EA0A0000 		.4byte	0xaea
 1440 0add 0C       		.uleb128 0xc
 1441 0ade 540E0000 		.4byte	.LASF59
 1442 0ae2 15       		.byte	0x15
 1443 0ae3 4B       		.byte	0x4b
 1444 0ae4 CB0A0000 		.4byte	0xacb
 1445 0ae8 00       		.byte	0
 1446 0ae9 00       		.byte	0
 1447 0aea 03       		.uleb128 0x3
 1448 0aeb CB070000 		.4byte	.LASF158
 1449 0aef 15       		.byte	0x15
 1450 0af0 4E       		.byte	0x4e
 1451 0af1 D10A0000 		.4byte	0xad1
 1452 0af5 05       		.uleb128 0x5
 1453 0af6 01       		.byte	0x1
 1454 0af7 02       		.byte	0x2
 1455 0af8 2D090000 		.4byte	.LASF159
 1456 0afc 03       		.uleb128 0x3
 1457 0afd 32090000 		.4byte	.LASF160
 1458 0b01 16       		.byte	0x16
 1459 0b02 4B       		.byte	0x4b
 1460 0b03 070B0000 		.4byte	0xb07
 1461 0b07 10       		.uleb128 0x10
 1462 0b08 04       		.byte	0x4
 1463 0b09 0D0B0000 		.4byte	0xb0d
 1464 0b0d 21       		.uleb128 0x21
 1465 0b0e A5030000 		.4byte	0x3a5
 1466 0b12 210B0000 		.4byte	0xb21
 1467 0b16 13       		.uleb128 0x13
 1468 0b17 2C000000 		.4byte	0x2c
 1469 0b1b 13       		.uleb128 0x13
 1470 0b1c 3C000000 		.4byte	0x3c
 1471 0b20 00       		.byte	0
 1472 0b21 1E       		.uleb128 0x1e
 1473 0b22 08       		.byte	0x8
 1474 0b23 16       		.byte	0x16
ARM GAS  /var/folders/vd/czx34qs52cd_f3nb04sxmghc0000gn/T//ccYvLyIs.s 			page 27


 1475 0b24 55       		.byte	0x55
 1476 0b25 960D0000 		.4byte	.LASF161
 1477 0b29 460B0000 		.4byte	0xb46
 1478 0b2d 0C       		.uleb128 0xc
 1479 0b2e 62050000 		.4byte	.LASF162
 1480 0b32 16       		.byte	0x16
 1481 0b33 59       		.byte	0x59
 1482 0b34 460B0000 		.4byte	0xb46
 1483 0b38 00       		.byte	0
 1484 0b39 0C       		.uleb128 0xc
 1485 0b3a 37000000 		.4byte	.LASF163
 1486 0b3e 16       		.byte	0x16
 1487 0b3f 5D       		.byte	0x5d
 1488 0b40 460B0000 		.4byte	0xb46
 1489 0b44 04       		.byte	0x4
 1490 0b45 00       		.byte	0
 1491 0b46 10       		.uleb128 0x10
 1492 0b47 04       		.byte	0x4
 1493 0b48 BE000000 		.4byte	0xbe
 1494 0b4c 03       		.uleb128 0x3
 1495 0b4d 3B030000 		.4byte	.LASF164
 1496 0b51 16       		.byte	0x16
 1497 0b52 5E       		.byte	0x5e
 1498 0b53 210B0000 		.4byte	0xb21
 1499 0b57 16       		.uleb128 0x16
 1500 0b58 250E0000 		.4byte	.LASF165
 1501 0b5c 16       		.byte	0x16
 1502 0b5d 69       		.byte	0x69
 1503 0b5e 4C0B0000 		.4byte	0xb4c
 1504 0b62 08       		.uleb128 0x8
 1505 0b63 D4060000 		.4byte	.LASF166
 1506 0b67 04       		.byte	0x4
 1507 0b68 17       		.byte	0x17
 1508 0b69 3C       		.byte	0x3c
 1509 0b6a 7B0B0000 		.4byte	0xb7b
 1510 0b6e 0C       		.uleb128 0xc
 1511 0b6f 540E0000 		.4byte	.LASF59
 1512 0b73 17       		.byte	0x17
 1513 0b74 3D       		.byte	0x3d
 1514 0b75 7B0B0000 		.4byte	0xb7b
 1515 0b79 00       		.byte	0
 1516 0b7a 00       		.byte	0
 1517 0b7b 10       		.uleb128 0x10
 1518 0b7c 04       		.byte	0x4
 1519 0b7d 620B0000 		.4byte	0xb62
 1520 0b81 1E       		.uleb128 0x1e
 1521 0b82 10       		.byte	0x10
 1522 0b83 17       		.byte	0x17
 1523 0b84 44       		.byte	0x44
 1524 0b85 16040000 		.4byte	.LASF167
 1525 0b89 BE0B0000 		.4byte	0xbbe
 1526 0b8d 0C       		.uleb128 0xc
 1527 0b8e 540E0000 		.4byte	.LASF59
 1528 0b92 17       		.byte	0x17
 1529 0b93 45       		.byte	0x45
 1530 0b94 7B0B0000 		.4byte	0xb7b
 1531 0b98 00       		.byte	0
ARM GAS  /var/folders/vd/czx34qs52cd_f3nb04sxmghc0000gn/T//ccYvLyIs.s 			page 28


 1532 0b99 0C       		.uleb128 0xc
 1533 0b9a AC0C0000 		.4byte	.LASF168
 1534 0b9e 17       		.byte	0x17
 1535 0b9f 46       		.byte	0x46
 1536 0ba0 2C000000 		.4byte	0x2c
 1537 0ba4 04       		.byte	0x4
 1538 0ba5 0C       		.uleb128 0xc
 1539 0ba6 DA070000 		.4byte	.LASF169
 1540 0baa 17       		.byte	0x17
 1541 0bab 48       		.byte	0x48
 1542 0bac 3C000000 		.4byte	0x3c
 1543 0bb0 08       		.byte	0x8
 1544 0bb1 0C       		.uleb128 0xc
 1545 0bb2 80000000 		.4byte	.LASF170
 1546 0bb6 17       		.byte	0x17
 1547 0bb7 49       		.byte	0x49
 1548 0bb8 FC0A0000 		.4byte	0xafc
 1549 0bbc 0C       		.byte	0xc
 1550 0bbd 00       		.byte	0
 1551 0bbe 03       		.uleb128 0x3
 1552 0bbf 780B0000 		.4byte	.LASF171
 1553 0bc3 17       		.byte	0x17
 1554 0bc4 4B       		.byte	0x4b
 1555 0bc5 810B0000 		.4byte	0xb81
 1556 0bc9 08       		.uleb128 0x8
 1557 0bca E9000000 		.4byte	.LASF172
 1558 0bce 10       		.byte	0x10
 1559 0bcf 18       		.byte	0x18
 1560 0bd0 97       		.byte	0x97
 1561 0bd1 FA0B0000 		.4byte	0xbfa
 1562 0bd5 0C       		.uleb128 0xc
 1563 0bd6 540E0000 		.4byte	.LASF59
 1564 0bda 18       		.byte	0x18
 1565 0bdb 9B       		.byte	0x9b
 1566 0bdc FA0B0000 		.4byte	0xbfa
 1567 0be0 00       		.byte	0
 1568 0be1 0C       		.uleb128 0xc
 1569 0be2 DE0A0000 		.4byte	.LASF48
 1570 0be6 18       		.byte	0x18
 1571 0be7 9F       		.byte	0x9f
 1572 0be8 67010000 		.4byte	0x167
 1573 0bec 04       		.byte	0x4
 1574 0bed 0C       		.uleb128 0xc
 1575 0bee DA0B0000 		.4byte	.LASF44
 1576 0bf2 18       		.byte	0x18
 1577 0bf3 A1       		.byte	0xa1
 1578 0bf4 000C0000 		.4byte	0xc00
 1579 0bf8 08       		.byte	0x8
 1580 0bf9 00       		.byte	0
 1581 0bfa 10       		.uleb128 0x10
 1582 0bfb 04       		.byte	0x4
 1583 0bfc C90B0000 		.4byte	0xbc9
 1584 0c00 17       		.uleb128 0x17
 1585 0c01 1C090000 		.4byte	0x91c
 1586 0c05 100C0000 		.4byte	0xc10
 1587 0c09 18       		.uleb128 0x18
 1588 0c0a 3C000000 		.4byte	0x3c
ARM GAS  /var/folders/vd/czx34qs52cd_f3nb04sxmghc0000gn/T//ccYvLyIs.s 			page 29


 1589 0c0e 07       		.byte	0x7
 1590 0c0f 00       		.byte	0
 1591 0c10 03       		.uleb128 0x3
 1592 0c11 36050000 		.4byte	.LASF173
 1593 0c15 18       		.byte	0x18
 1594 0c16 A5       		.byte	0xa5
 1595 0c17 C90B0000 		.4byte	0xbc9
 1596 0c1b 08       		.uleb128 0x8
 1597 0c1c 610F0000 		.4byte	.LASF174
 1598 0c20 04       		.byte	0x4
 1599 0c21 18       		.byte	0x18
 1600 0c22 AA       		.byte	0xaa
 1601 0c23 340C0000 		.4byte	0xc34
 1602 0c27 0C       		.uleb128 0xc
 1603 0c28 540E0000 		.4byte	.LASF59
 1604 0c2c 18       		.byte	0x18
 1605 0c2d AB       		.byte	0xab
 1606 0c2e 340C0000 		.4byte	0xc34
 1607 0c32 00       		.byte	0
 1608 0c33 00       		.byte	0
 1609 0c34 10       		.uleb128 0x10
 1610 0c35 04       		.byte	0x4
 1611 0c36 100C0000 		.4byte	0xc10
 1612 0c3a 03       		.uleb128 0x3
 1613 0c3b 960C0000 		.4byte	.LASF175
 1614 0c3f 18       		.byte	0x18
 1615 0c40 AC       		.byte	0xac
 1616 0c41 1B0C0000 		.4byte	0xc1b
 1617 0c45 11       		.uleb128 0x11
 1618 0c46 94070000 		.4byte	.LASF176
 1619 0c4a 44       		.byte	0x44
 1620 0c4b 18       		.byte	0x18
 1621 0c4c 1501     		.2byte	0x115
 1622 0c4e BB0C0000 		.4byte	0xcbb
 1623 0c52 0E       		.uleb128 0xe
 1624 0c53 6D747800 		.ascii	"mtx\000"
 1625 0c57 18       		.byte	0x18
 1626 0c58 1A01     		.2byte	0x11a
 1627 0c5a 660A0000 		.4byte	0xa66
 1628 0c5e 00       		.byte	0
 1629 0c5f 0F       		.uleb128 0xf
 1630 0c60 3C010000 		.4byte	.LASF177
 1631 0c64 18       		.byte	0x18
 1632 0c65 2101     		.2byte	0x121
 1633 0c67 3A0C0000 		.4byte	0xc3a
 1634 0c6b 10       		.byte	0x10
 1635 0c6c 0F       		.uleb128 0xf
 1636 0c6d ED020000 		.4byte	.LASF178
 1637 0c71 18       		.byte	0x18
 1638 0c72 2501     		.2byte	0x125
 1639 0c74 BE0B0000 		.4byte	0xbbe
 1640 0c78 14       		.byte	0x14
 1641 0c79 0F       		.uleb128 0xf
 1642 0c7a DB090000 		.4byte	.LASF179
 1643 0c7e 18       		.byte	0x18
 1644 0c7f 2A01     		.2byte	0x12a
 1645 0c81 3A0C0000 		.4byte	0xc3a
ARM GAS  /var/folders/vd/czx34qs52cd_f3nb04sxmghc0000gn/T//ccYvLyIs.s 			page 30


 1646 0c85 24       		.byte	0x24
 1647 0c86 0F       		.uleb128 0xf
 1648 0c87 51040000 		.4byte	.LASF180
 1649 0c8b 18       		.byte	0x18
 1650 0c8c 3001     		.2byte	0x130
 1651 0c8e 3A0C0000 		.4byte	0xc3a
 1652 0c92 28       		.byte	0x28
 1653 0c93 0F       		.uleb128 0xf
 1654 0c94 59050000 		.4byte	.LASF181
 1655 0c98 18       		.byte	0x18
 1656 0c99 3401     		.2byte	0x134
 1657 0c9b BE0B0000 		.4byte	0xbbe
 1658 0c9f 2C       		.byte	0x2c
 1659 0ca0 0F       		.uleb128 0xf
 1660 0ca1 030B0000 		.4byte	.LASF182
 1661 0ca5 18       		.byte	0x18
 1662 0ca6 3A01     		.2byte	0x13a
 1663 0ca8 3A0C0000 		.4byte	0xc3a
 1664 0cac 3C       		.byte	0x3c
 1665 0cad 0F       		.uleb128 0xf
 1666 0cae 5D060000 		.4byte	.LASF183
 1667 0cb2 18       		.byte	0x18
 1668 0cb3 4001     		.2byte	0x140
 1669 0cb5 3A0C0000 		.4byte	0xc3a
 1670 0cb9 40       		.byte	0x40
 1671 0cba 00       		.byte	0
 1672 0cbb 1A       		.uleb128 0x1a
 1673 0cbc B8090000 		.4byte	.LASF184
 1674 0cc0 18       		.byte	0x18
 1675 0cc1 4201     		.2byte	0x142
 1676 0cc3 450C0000 		.4byte	0xc45
 1677 0cc7 15       		.uleb128 0x15
 1678 0cc8 F80A0000 		.4byte	.LASF185
 1679 0ccc 18       		.byte	0x18
 1680 0ccd 4D01     		.2byte	0x14d
 1681 0ccf BB0C0000 		.4byte	0xcbb
 1682 0cd3 22       		.uleb128 0x22
 1683 0cd4 30030000 		.4byte	.LASF295
 1684 0cd8 19       		.byte	0x19
 1685 0cd9 21       		.byte	0x21
 1686 0cda B20E0000 		.4byte	0xeb2
 1687 0cde 23       		.uleb128 0x23
 1688 0cdf ED030000 		.4byte	.LASF187
 1689 0ce3 04       		.byte	0x4
 1690 0ce4 19       		.byte	0x19
 1691 0ce5 5002     		.2byte	0x250
 1692 0ce7 AC0E0000 		.4byte	0xeac
 1693 0ceb 0F       		.uleb128 0xf
 1694 0cec 2D060000 		.4byte	.LASF186
 1695 0cf0 19       		.byte	0x19
 1696 0cf1 5402     		.2byte	0x254
 1697 0cf3 C8020000 		.4byte	0x2c8
 1698 0cf7 00       		.byte	0
 1699 0cf8 24       		.uleb128 0x24
 1700 0cf9 ED030000 		.4byte	.LASF187
 1701 0cfd 19       		.byte	0x19
 1702 0cfe 6302     		.2byte	0x263
ARM GAS  /var/folders/vd/czx34qs52cd_f3nb04sxmghc0000gn/T//ccYvLyIs.s 			page 31


 1703 0d00 DB010000 		.4byte	.LASF188
 1704 0d04 B20E0000 		.4byte	0xeb2
 1705 0d08 01       		.byte	0x1
 1706 0d09 110D0000 		.4byte	0xd11
 1707 0d0d 170D0000 		.4byte	0xd17
 1708 0d11 25       		.uleb128 0x25
 1709 0d12 B20E0000 		.4byte	0xeb2
 1710 0d16 00       		.byte	0
 1711 0d17 24       		.uleb128 0x24
 1712 0d18 ED030000 		.4byte	.LASF187
 1713 0d1c 19       		.byte	0x19
 1714 0d1d 6E02     		.2byte	0x26e
 1715 0d1f 69030000 		.4byte	.LASF189
 1716 0d23 B20E0000 		.4byte	0xeb2
 1717 0d27 01       		.byte	0x1
 1718 0d28 300D0000 		.4byte	0xd30
 1719 0d2c 3B0D0000 		.4byte	0xd3b
 1720 0d30 25       		.uleb128 0x25
 1721 0d31 B20E0000 		.4byte	0xeb2
 1722 0d35 13       		.uleb128 0x13
 1723 0d36 C8020000 		.4byte	0x2c8
 1724 0d3a 00       		.byte	0
 1725 0d3b 24       		.uleb128 0x24
 1726 0d3c 5D0B0000 		.4byte	.LASF190
 1727 0d40 19       		.byte	0x19
 1728 0d41 7902     		.2byte	0x279
 1729 0d43 21070000 		.4byte	.LASF191
 1730 0d47 F50A0000 		.4byte	0xaf5
 1731 0d4b 01       		.byte	0x1
 1732 0d4c 540D0000 		.4byte	0xd54
 1733 0d50 5A0D0000 		.4byte	0xd5a
 1734 0d54 25       		.uleb128 0x25
 1735 0d55 B80E0000 		.4byte	0xeb8
 1736 0d59 00       		.byte	0
 1737 0d5a 24       		.uleb128 0x24
 1738 0d5b B00D0000 		.4byte	.LASF192
 1739 0d5f 19       		.byte	0x19
 1740 0d60 8102     		.2byte	0x281
 1741 0d62 310B0000 		.4byte	.LASF193
 1742 0d66 C8020000 		.4byte	0x2c8
 1743 0d6a 01       		.byte	0x1
 1744 0d6b 730D0000 		.4byte	0xd73
 1745 0d6f 790D0000 		.4byte	0xd79
 1746 0d73 25       		.uleb128 0x25
 1747 0d74 B20E0000 		.4byte	0xeb2
 1748 0d78 00       		.byte	0
 1749 0d79 26       		.uleb128 0x26
 1750 0d7a 100C0000 		.4byte	.LASF196
 1751 0d7e 19       		.byte	0x19
 1752 0d7f 9002     		.2byte	0x290
 1753 0d81 50080000 		.4byte	.LASF198
 1754 0d85 01       		.byte	0x1
 1755 0d86 8E0D0000 		.4byte	0xd8e
 1756 0d8a 940D0000 		.4byte	0xd94
 1757 0d8e 25       		.uleb128 0x25
 1758 0d8f B80E0000 		.4byte	0xeb8
 1759 0d93 00       		.byte	0
ARM GAS  /var/folders/vd/czx34qs52cd_f3nb04sxmghc0000gn/T//ccYvLyIs.s 			page 32


 1760 0d94 24       		.uleb128 0x24
 1761 0d95 20000000 		.4byte	.LASF194
 1762 0d99 19       		.byte	0x19
 1763 0d9a 9F02     		.2byte	0x29f
 1764 0d9c 69070000 		.4byte	.LASF195
 1765 0da0 DE0C0000 		.4byte	0xcde
 1766 0da4 01       		.byte	0x1
 1767 0da5 AD0D0000 		.4byte	0xdad
 1768 0da9 B30D0000 		.4byte	0xdb3
 1769 0dad 25       		.uleb128 0x25
 1770 0dae B80E0000 		.4byte	0xeb8
 1771 0db2 00       		.byte	0
 1772 0db3 26       		.uleb128 0x26
 1773 0db4 8E0D0000 		.4byte	.LASF197
 1774 0db8 19       		.byte	0x19
 1775 0db9 B302     		.2byte	0x2b3
 1776 0dbb B8000000 		.4byte	.LASF199
 1777 0dbf 01       		.byte	0x1
 1778 0dc0 C80D0000 		.4byte	0xdc8
 1779 0dc4 CE0D0000 		.4byte	0xdce
 1780 0dc8 25       		.uleb128 0x25
 1781 0dc9 B20E0000 		.4byte	0xeb2
 1782 0dcd 00       		.byte	0
 1783 0dce 24       		.uleb128 0x24
 1784 0dcf 36080000 		.4byte	.LASF200
 1785 0dd3 19       		.byte	0x19
 1786 0dd4 DA02     		.2byte	0x2da
 1787 0dd6 FC020000 		.4byte	.LASF201
 1788 0dda 3B010000 		.4byte	0x13b
 1789 0dde 01       		.byte	0x1
 1790 0ddf E70D0000 		.4byte	0xde7
 1791 0de3 ED0D0000 		.4byte	0xded
 1792 0de7 25       		.uleb128 0x25
 1793 0de8 B20E0000 		.4byte	0xeb2
 1794 0dec 00       		.byte	0
 1795 0ded 24       		.uleb128 0x24
 1796 0dee 24030000 		.4byte	.LASF202
 1797 0df2 19       		.byte	0x19
 1798 0df3 EC02     		.2byte	0x2ec
 1799 0df5 950A0000 		.4byte	.LASF203
 1800 0df9 3B010000 		.4byte	0x13b
 1801 0dfd 01       		.byte	0x1
 1802 0dfe 060E0000 		.4byte	0xe06
 1803 0e02 110E0000 		.4byte	0xe11
 1804 0e06 25       		.uleb128 0x25
 1805 0e07 B80E0000 		.4byte	0xeb8
 1806 0e0b 13       		.uleb128 0x13
 1807 0e0c 3B010000 		.4byte	0x13b
 1808 0e10 00       		.byte	0
 1809 0e11 24       		.uleb128 0x24
 1810 0e12 6C040000 		.4byte	.LASF204
 1811 0e16 19       		.byte	0x19
 1812 0e17 F902     		.2byte	0x2f9
 1813 0e19 44020000 		.4byte	.LASF205
 1814 0e1d F50A0000 		.4byte	0xaf5
 1815 0e21 01       		.byte	0x1
 1816 0e22 2A0E0000 		.4byte	0xe2a
ARM GAS  /var/folders/vd/czx34qs52cd_f3nb04sxmghc0000gn/T//ccYvLyIs.s 			page 33


 1817 0e26 300E0000 		.4byte	0xe30
 1818 0e2a 25       		.uleb128 0x25
 1819 0e2b B80E0000 		.4byte	0xeb8
 1820 0e2f 00       		.byte	0
 1821 0e30 24       		.uleb128 0x24
 1822 0e31 6A050000 		.4byte	.LASF206
 1823 0e35 19       		.byte	0x19
 1824 0e36 0503     		.2byte	0x305
 1825 0e38 EA080000 		.4byte	.LASF207
 1826 0e3c 3B010000 		.4byte	0x13b
 1827 0e40 01       		.byte	0x1
 1828 0e41 490E0000 		.4byte	0xe49
 1829 0e45 4F0E0000 		.4byte	0xe4f
 1830 0e49 25       		.uleb128 0x25
 1831 0e4a B80E0000 		.4byte	0xeb8
 1832 0e4e 00       		.byte	0
 1833 0e4f 26       		.uleb128 0x26
 1834 0e50 5A070000 		.4byte	.LASF208
 1835 0e54 19       		.byte	0x19
 1836 0e55 1203     		.2byte	0x312
 1837 0e57 4A010000 		.4byte	.LASF209
 1838 0e5b 01       		.byte	0x1
 1839 0e5c 640E0000 		.4byte	0xe64
 1840 0e60 6F0E0000 		.4byte	0xe6f
 1841 0e64 25       		.uleb128 0x25
 1842 0e65 B20E0000 		.4byte	0xeb2
 1843 0e69 13       		.uleb128 0x13
 1844 0e6a 3B010000 		.4byte	0x13b
 1845 0e6e 00       		.byte	0
 1846 0e6f 26       		.uleb128 0x26
 1847 0e70 32020000 		.4byte	.LASF210
 1848 0e74 19       		.byte	0x19
 1849 0e75 2203     		.2byte	0x322
 1850 0e77 E5050000 		.4byte	.LASF211
 1851 0e7b 01       		.byte	0x1
 1852 0e7c 840E0000 		.4byte	0xe84
 1853 0e80 8F0E0000 		.4byte	0xe8f
 1854 0e84 25       		.uleb128 0x25
 1855 0e85 B80E0000 		.4byte	0xeb8
 1856 0e89 13       		.uleb128 0x13
 1857 0e8a 46010000 		.4byte	0x146
 1858 0e8e 00       		.byte	0
 1859 0e8f 27       		.uleb128 0x27
 1860 0e90 D4040000 		.4byte	.LASF296
 1861 0e94 19       		.byte	0x19
 1862 0e95 2E03     		.2byte	0x32e
 1863 0e97 E0070000 		.4byte	.LASF297
 1864 0e9b 01       		.byte	0x1
 1865 0e9c A00E0000 		.4byte	0xea0
 1866 0ea0 25       		.uleb128 0x25
 1867 0ea1 B80E0000 		.4byte	0xeb8
 1868 0ea5 13       		.uleb128 0x13
 1869 0ea6 46010000 		.4byte	0x146
 1870 0eaa 00       		.byte	0
 1871 0eab 00       		.byte	0
 1872 0eac 07       		.uleb128 0x7
 1873 0ead DE0C0000 		.4byte	0xcde
ARM GAS  /var/folders/vd/czx34qs52cd_f3nb04sxmghc0000gn/T//ccYvLyIs.s 			page 34


 1874 0eb1 00       		.byte	0
 1875 0eb2 10       		.uleb128 0x10
 1876 0eb3 04       		.byte	0x4
 1877 0eb4 DE0C0000 		.4byte	0xcde
 1878 0eb8 10       		.uleb128 0x10
 1879 0eb9 04       		.byte	0x4
 1880 0eba AC0E0000 		.4byte	0xeac
 1881 0ebe 19       		.uleb128 0x19
 1882 0ebf 0C       		.byte	0xc
 1883 0ec0 1A       		.byte	0x1a
 1884 0ec1 6A01     		.2byte	0x16a
 1885 0ec3 F0090000 		.4byte	.LASF212
 1886 0ec7 0D0F0000 		.4byte	0xf0d
 1887 0ecb 0F       		.uleb128 0xf
 1888 0ecc E8040000 		.4byte	.LASF213
 1889 0ed0 1A       		.byte	0x1a
 1890 0ed1 6B01     		.2byte	0x16b
 1891 0ed3 0D0F0000 		.4byte	0xf0d
 1892 0ed7 00       		.byte	0
 1893 0ed8 0F       		.uleb128 0xf
 1894 0ed9 200E0000 		.4byte	.LASF214
 1895 0edd 1A       		.byte	0x1a
 1896 0ede 6C01     		.2byte	0x16c
 1897 0ee0 130F0000 		.4byte	0xf13
 1898 0ee4 04       		.byte	0x4
 1899 0ee5 0F       		.uleb128 0xf
 1900 0ee6 4A040000 		.4byte	.LASF215
 1901 0eea 1A       		.byte	0x1a
 1902 0eeb 6D01     		.2byte	0x16d
 1903 0eed BE000000 		.4byte	0xbe
 1904 0ef1 08       		.byte	0x8
 1905 0ef2 0F       		.uleb128 0xf
 1906 0ef3 90080000 		.4byte	.LASF216
 1907 0ef7 1A       		.byte	0x1a
 1908 0ef8 6F01     		.2byte	0x16f
 1909 0efa BE000000 		.4byte	0xbe
 1910 0efe 09       		.byte	0x9
 1911 0eff 0F       		.uleb128 0xf
 1912 0f00 F10A0000 		.4byte	.LASF217
 1913 0f04 1A       		.byte	0x1a
 1914 0f05 7001     		.2byte	0x170
 1915 0f07 BE000000 		.4byte	0xbe
 1916 0f0b 0A       		.byte	0xa
 1917 0f0c 00       		.byte	0
 1918 0f0d 10       		.uleb128 0x10
 1919 0f0e 04       		.byte	0x4
 1920 0f0f 95050000 		.4byte	0x595
 1921 0f13 10       		.uleb128 0x10
 1922 0f14 04       		.byte	0x4
 1923 0f15 F4000000 		.4byte	0xf4
 1924 0f19 1A       		.uleb128 0x1a
 1925 0f1a 0D000000 		.4byte	.LASF218
 1926 0f1e 1A       		.byte	0x1a
 1927 0f1f 7101     		.2byte	0x171
 1928 0f21 BE0E0000 		.4byte	0xebe
 1929 0f25 07       		.uleb128 0x7
 1930 0f26 190F0000 		.4byte	0xf19
ARM GAS  /var/folders/vd/czx34qs52cd_f3nb04sxmghc0000gn/T//ccYvLyIs.s 			page 35


 1931 0f2a 17       		.uleb128 0x17
 1932 0f2b 250F0000 		.4byte	0xf25
 1933 0f2f 3A0F0000 		.4byte	0xf3a
 1934 0f33 18       		.uleb128 0x18
 1935 0f34 3C000000 		.4byte	0x3c
 1936 0f38 0F       		.byte	0xf
 1937 0f39 00       		.byte	0
 1938 0f3a 07       		.uleb128 0x7
 1939 0f3b 2A0F0000 		.4byte	0xf2a
 1940 0f3f 15       		.uleb128 0x15
 1941 0f40 4A060000 		.4byte	.LASF219
 1942 0f44 1A       		.byte	0x1a
 1943 0f45 5C02     		.2byte	0x25c
 1944 0f47 3A0F0000 		.4byte	0xf3a
 1945 0f4b 08       		.uleb128 0x8
 1946 0f4c 1A020000 		.4byte	.LASF220
 1947 0f50 14       		.byte	0x14
 1948 0f51 1B       		.byte	0x1b
 1949 0f52 48       		.byte	0x48
 1950 0f53 940F0000 		.4byte	0xf94
 1951 0f57 0C       		.uleb128 0xc
 1952 0f58 700D0000 		.4byte	.LASF221
 1953 0f5c 1B       		.byte	0x1b
 1954 0f5d 49       		.byte	0x49
 1955 0f5e 2C000000 		.4byte	0x2c
 1956 0f62 00       		.byte	0
 1957 0f63 0C       		.uleb128 0xc
 1958 0f64 E3000000 		.4byte	.LASF222
 1959 0f68 1B       		.byte	0x1b
 1960 0f69 49       		.byte	0x49
 1961 0f6a B80F0000 		.4byte	0xfb8
 1962 0f6e 04       		.byte	0x4
 1963 0f6f 0C       		.uleb128 0xc
 1964 0f70 4B080000 		.4byte	.LASF223
 1965 0f74 1B       		.byte	0x1b
 1966 0f75 49       		.byte	0x49
 1967 0f76 D70F0000 		.4byte	0xfd7
 1968 0f7a 08       		.byte	0x8
 1969 0f7b 0D       		.uleb128 0xd
 1970 0f7c 70757400 		.ascii	"put\000"
 1971 0f80 1B       		.byte	0x1b
 1972 0f81 49       		.byte	0x49
 1973 0f82 F10F0000 		.4byte	0xff1
 1974 0f86 0C       		.byte	0xc
 1975 0f87 0D       		.uleb128 0xd
 1976 0f88 67657400 		.ascii	"get\000"
 1977 0f8c 1B       		.byte	0x1b
 1978 0f8d 49       		.byte	0x49
 1979 0f8e 06100000 		.4byte	0x1006
 1980 0f92 10       		.byte	0x10
 1981 0f93 00       		.byte	0
 1982 0f94 07       		.uleb128 0x7
 1983 0f95 4B0F0000 		.4byte	0xf4b
 1984 0f99 21       		.uleb128 0x21
 1985 0f9a 2C000000 		.4byte	0x2c
 1986 0f9e B20F0000 		.4byte	0xfb2
 1987 0fa2 13       		.uleb128 0x13
ARM GAS  /var/folders/vd/czx34qs52cd_f3nb04sxmghc0000gn/T//ccYvLyIs.s 			page 36


 1988 0fa3 A5030000 		.4byte	0x3a5
 1989 0fa7 13       		.uleb128 0x13
 1990 0fa8 B20F0000 		.4byte	0xfb2
 1991 0fac 13       		.uleb128 0x13
 1992 0fad 2C000000 		.4byte	0x2c
 1993 0fb1 00       		.byte	0
 1994 0fb2 10       		.uleb128 0x10
 1995 0fb3 04       		.byte	0x4
 1996 0fb4 C9000000 		.4byte	0xc9
 1997 0fb8 10       		.uleb128 0x10
 1998 0fb9 04       		.byte	0x4
 1999 0fba 990F0000 		.4byte	0xf99
 2000 0fbe 21       		.uleb128 0x21
 2001 0fbf 2C000000 		.4byte	0x2c
 2002 0fc3 D70F0000 		.4byte	0xfd7
 2003 0fc7 13       		.uleb128 0x13
 2004 0fc8 A5030000 		.4byte	0x3a5
 2005 0fcc 13       		.uleb128 0x13
 2006 0fcd 460B0000 		.4byte	0xb46
 2007 0fd1 13       		.uleb128 0x13
 2008 0fd2 2C000000 		.4byte	0x2c
 2009 0fd6 00       		.byte	0
 2010 0fd7 10       		.uleb128 0x10
 2011 0fd8 04       		.byte	0x4
 2012 0fd9 BE0F0000 		.4byte	0xfbe
 2013 0fdd 21       		.uleb128 0x21
 2014 0fde 3B010000 		.4byte	0x13b
 2015 0fe2 F10F0000 		.4byte	0xff1
 2016 0fe6 13       		.uleb128 0x13
 2017 0fe7 A5030000 		.4byte	0x3a5
 2018 0feb 13       		.uleb128 0x13
 2019 0fec BE000000 		.4byte	0xbe
 2020 0ff0 00       		.byte	0
 2021 0ff1 10       		.uleb128 0x10
 2022 0ff2 04       		.byte	0x4
 2023 0ff3 DD0F0000 		.4byte	0xfdd
 2024 0ff7 21       		.uleb128 0x21
 2025 0ff8 3B010000 		.4byte	0x13b
 2026 0ffc 06100000 		.4byte	0x1006
 2027 1000 13       		.uleb128 0x13
 2028 1001 A5030000 		.4byte	0x3a5
 2029 1005 00       		.byte	0
 2030 1006 10       		.uleb128 0x10
 2031 1007 04       		.byte	0x4
 2032 1008 F70F0000 		.4byte	0xff7
 2033 100c 1E       		.uleb128 0x1e
 2034 100d 04       		.byte	0x4
 2035 100e 1B       		.byte	0x1b
 2036 100f 53       		.byte	0x53
 2037 1010 3F090000 		.4byte	.LASF224
 2038 1014 25100000 		.4byte	0x1025
 2039 1018 0D       		.uleb128 0xd
 2040 1019 766D7400 		.ascii	"vmt\000"
 2041 101d 1B       		.byte	0x1b
 2042 101e 55       		.byte	0x55
 2043 101f 25100000 		.4byte	0x1025
 2044 1023 00       		.byte	0
ARM GAS  /var/folders/vd/czx34qs52cd_f3nb04sxmghc0000gn/T//ccYvLyIs.s 			page 37


 2045 1024 00       		.byte	0
 2046 1025 10       		.uleb128 0x10
 2047 1026 04       		.byte	0x4
 2048 1027 940F0000 		.4byte	0xf94
 2049 102b 03       		.uleb128 0x3
 2050 102c F8000000 		.4byte	.LASF225
 2051 1030 1B       		.byte	0x1b
 2052 1031 57       		.byte	0x57
 2053 1032 0C100000 		.4byte	0x100c
 2054 1036 21       		.uleb128 0x21
 2055 1037 3B010000 		.4byte	0x13b
 2056 103b 4F100000 		.4byte	0x104f
 2057 103f 13       		.uleb128 0x13
 2058 1040 A5030000 		.4byte	0x3a5
 2059 1044 13       		.uleb128 0x13
 2060 1045 BE000000 		.4byte	0xbe
 2061 1049 13       		.uleb128 0x13
 2062 104a D8040000 		.4byte	0x4d8
 2063 104e 00       		.byte	0
 2064 104f 10       		.uleb128 0x10
 2065 1050 04       		.byte	0x4
 2066 1051 36100000 		.4byte	0x1036
 2067 1055 21       		.uleb128 0x21
 2068 1056 3B010000 		.4byte	0x13b
 2069 105a 69100000 		.4byte	0x1069
 2070 105e 13       		.uleb128 0x13
 2071 105f A5030000 		.4byte	0x3a5
 2072 1063 13       		.uleb128 0x13
 2073 1064 D8040000 		.4byte	0x4d8
 2074 1068 00       		.byte	0
 2075 1069 10       		.uleb128 0x10
 2076 106a 04       		.byte	0x4
 2077 106b 55100000 		.4byte	0x1055
 2078 106f 21       		.uleb128 0x21
 2079 1070 2C000000 		.4byte	0x2c
 2080 1074 8D100000 		.4byte	0x108d
 2081 1078 13       		.uleb128 0x13
 2082 1079 A5030000 		.4byte	0x3a5
 2083 107d 13       		.uleb128 0x13
 2084 107e B20F0000 		.4byte	0xfb2
 2085 1082 13       		.uleb128 0x13
 2086 1083 2C000000 		.4byte	0x2c
 2087 1087 13       		.uleb128 0x13
 2088 1088 D8040000 		.4byte	0x4d8
 2089 108c 00       		.byte	0
 2090 108d 10       		.uleb128 0x10
 2091 108e 04       		.byte	0x4
 2092 108f 6F100000 		.4byte	0x106f
 2093 1093 21       		.uleb128 0x21
 2094 1094 2C000000 		.4byte	0x2c
 2095 1098 B1100000 		.4byte	0x10b1
 2096 109c 13       		.uleb128 0x13
 2097 109d A5030000 		.4byte	0x3a5
 2098 10a1 13       		.uleb128 0x13
 2099 10a2 460B0000 		.4byte	0xb46
 2100 10a6 13       		.uleb128 0x13
 2101 10a7 2C000000 		.4byte	0x2c
ARM GAS  /var/folders/vd/czx34qs52cd_f3nb04sxmghc0000gn/T//ccYvLyIs.s 			page 38


 2102 10ab 13       		.uleb128 0x13
 2103 10ac D8040000 		.4byte	0x4d8
 2104 10b0 00       		.byte	0
 2105 10b1 10       		.uleb128 0x10
 2106 10b2 04       		.byte	0x4
 2107 10b3 93100000 		.4byte	0x1093
 2108 10b7 21       		.uleb128 0x21
 2109 10b8 3B010000 		.4byte	0x13b
 2110 10bc D0100000 		.4byte	0x10d0
 2111 10c0 13       		.uleb128 0x13
 2112 10c1 A5030000 		.4byte	0x3a5
 2113 10c5 13       		.uleb128 0x13
 2114 10c6 3C000000 		.4byte	0x3c
 2115 10ca 13       		.uleb128 0x13
 2116 10cb A5030000 		.4byte	0x3a5
 2117 10cf 00       		.byte	0
 2118 10d0 10       		.uleb128 0x10
 2119 10d1 04       		.byte	0x4
 2120 10d2 B7100000 		.4byte	0x10b7
 2121 10d6 03       		.uleb128 0x3
 2122 10d7 A10C0000 		.4byte	.LASF226
 2123 10db 1C       		.byte	0x1c
 2124 10dc 3A       		.byte	0x3a
 2125 10dd E1100000 		.4byte	0x10e1
 2126 10e1 08       		.uleb128 0x8
 2127 10e2 45030000 		.4byte	.LASF227
 2128 10e6 24       		.byte	0x24
 2129 10e7 1C       		.byte	0x1c
 2130 10e8 4B       		.byte	0x4b
 2131 10e9 4E110000 		.4byte	0x114e
 2132 10ed 0C       		.uleb128 0xc
 2133 10ee 860B0000 		.4byte	.LASF228
 2134 10f2 1C       		.byte	0x1c
 2135 10f3 4C       		.byte	0x4c
 2136 10f4 F2020000 		.4byte	0x2f2
 2137 10f8 00       		.byte	0
 2138 10f9 0C       		.uleb128 0xc
 2139 10fa 75050000 		.4byte	.LASF229
 2140 10fe 1C       		.byte	0x1c
 2141 10ff 4D       		.byte	0x4d
 2142 1100 37000000 		.4byte	0x37
 2143 1104 08       		.byte	0x8
 2144 1105 0C       		.uleb128 0xc
 2145 1106 C9010000 		.4byte	.LASF230
 2146 110a 1C       		.byte	0x1c
 2147 110b 4E       		.byte	0x4e
 2148 110c 460B0000 		.4byte	0xb46
 2149 1110 0C       		.byte	0xc
 2150 1111 0C       		.uleb128 0xc
 2151 1112 BD010000 		.4byte	.LASF231
 2152 1116 1C       		.byte	0x1c
 2153 1117 4F       		.byte	0x4f
 2154 1118 460B0000 		.4byte	0xb46
 2155 111c 10       		.byte	0x10
 2156 111d 0C       		.uleb128 0xc
 2157 111e C00D0000 		.4byte	.LASF232
 2158 1122 1C       		.byte	0x1c
ARM GAS  /var/folders/vd/czx34qs52cd_f3nb04sxmghc0000gn/T//ccYvLyIs.s 			page 39


 2159 1123 51       		.byte	0x51
 2160 1124 460B0000 		.4byte	0xb46
 2161 1128 14       		.byte	0x14
 2162 1129 0C       		.uleb128 0xc
 2163 112a 12020000 		.4byte	.LASF233
 2164 112e 1C       		.byte	0x1c
 2165 112f 52       		.byte	0x52
 2166 1130 460B0000 		.4byte	0xb46
 2167 1134 18       		.byte	0x18
 2168 1135 0C       		.uleb128 0xc
 2169 1136 D2010000 		.4byte	.LASF234
 2170 113a 1C       		.byte	0x1c
 2171 113b 53       		.byte	0x53
 2172 113c 4E110000 		.4byte	0x114e
 2173 1140 1C       		.byte	0x1c
 2174 1141 0C       		.uleb128 0xc
 2175 1142 C1030000 		.4byte	.LASF235
 2176 1146 1C       		.byte	0x1c
 2177 1147 54       		.byte	0x54
 2178 1148 A5030000 		.4byte	0x3a5
 2179 114c 20       		.byte	0x20
 2180 114d 00       		.byte	0
 2181 114e 03       		.uleb128 0x3
 2182 114f 3B080000 		.4byte	.LASF236
 2183 1153 1C       		.byte	0x1c
 2184 1154 41       		.byte	0x41
 2185 1155 59110000 		.4byte	0x1159
 2186 1159 10       		.uleb128 0x10
 2187 115a 04       		.byte	0x4
 2188 115b 5F110000 		.4byte	0x115f
 2189 115f 12       		.uleb128 0x12
 2190 1160 6A110000 		.4byte	0x116a
 2191 1164 13       		.uleb128 0x13
 2192 1165 6A110000 		.4byte	0x116a
 2193 1169 00       		.byte	0
 2194 116a 10       		.uleb128 0x10
 2195 116b 04       		.byte	0x4
 2196 116c D6100000 		.4byte	0x10d6
 2197 1170 03       		.uleb128 0x3
 2198 1171 800D0000 		.4byte	.LASF237
 2199 1175 1C       		.byte	0x1c
 2200 1176 61       		.byte	0x61
 2201 1177 D6100000 		.4byte	0x10d6
 2202 117b 03       		.uleb128 0x3
 2203 117c F10D0000 		.4byte	.LASF238
 2204 1180 1C       		.byte	0x1c
 2205 1181 6D       		.byte	0x6d
 2206 1182 D6100000 		.4byte	0x10d6
 2207 1186 28       		.uleb128 0x28
 2208 1187 01       		.byte	0x1
 2209 1188 1D       		.byte	0x1d
 2210 1189 99       		.byte	0x99
 2211 118a 26040000 		.4byte	.LASF298
 2212 118e 03       		.uleb128 0x3
 2213 118f 7D040000 		.4byte	.LASF239
 2214 1193 1D       		.byte	0x1d
 2215 1194 AA       		.byte	0xaa
ARM GAS  /var/folders/vd/czx34qs52cd_f3nb04sxmghc0000gn/T//ccYvLyIs.s 			page 40


 2216 1195 86110000 		.4byte	0x1186
 2217 1199 17       		.uleb128 0x17
 2218 119a 8E110000 		.4byte	0x118e
 2219 119e A9110000 		.4byte	0x11a9
 2220 11a2 18       		.uleb128 0x18
 2221 11a3 3C000000 		.4byte	0x3c
 2222 11a7 0F       		.byte	0xf
 2223 11a8 00       		.byte	0
 2224 11a9 15       		.uleb128 0x15
 2225 11aa 56090000 		.4byte	.LASF240
 2226 11ae 1E       		.byte	0x1e
 2227 11af DA01     		.2byte	0x1da
 2228 11b1 99110000 		.4byte	0x1199
 2229 11b5 1B       		.uleb128 0x1b
 2230 11b6 07       		.byte	0x7
 2231 11b7 01       		.byte	0x1
 2232 11b8 68000000 		.4byte	0x68
 2233 11bc 1F       		.byte	0x1f
 2234 11bd 4A       		.byte	0x4a
 2235 11be 88040000 		.4byte	.LASF241
 2236 11c2 D9110000 		.4byte	0x11d9
 2237 11c6 1C       		.uleb128 0x1c
 2238 11c7 90010000 		.4byte	.LASF242
 2239 11cb 00       		.byte	0
 2240 11cc 1C       		.uleb128 0x1c
 2241 11cd 630A0000 		.4byte	.LASF243
 2242 11d1 01       		.byte	0x1
 2243 11d2 1C       		.uleb128 0x1c
 2244 11d3 060C0000 		.4byte	.LASF244
 2245 11d7 02       		.byte	0x2
 2246 11d8 00       		.byte	0
 2247 11d9 03       		.uleb128 0x3
 2248 11da 270D0000 		.4byte	.LASF245
 2249 11de 1F       		.byte	0x1f
 2250 11df 4E       		.byte	0x4e
 2251 11e0 B5110000 		.4byte	0x11b5
 2252 11e4 03       		.uleb128 0x3
 2253 11e5 D9080000 		.4byte	.LASF246
 2254 11e9 1F       		.byte	0x1f
 2255 11ea 53       		.byte	0x53
 2256 11eb EF110000 		.4byte	0x11ef
 2257 11ef 11       		.uleb128 0x11
 2258 11f0 D9080000 		.4byte	.LASF246
 2259 11f4 1C       		.byte	0x1c
 2260 11f5 20       		.byte	0x20
 2261 11f6 B201     		.2byte	0x1b2
 2262 11f8 58120000 		.4byte	0x1258
 2263 11fc 0F       		.uleb128 0xf
 2264 11fd 20010000 		.4byte	.LASF46
 2265 1201 20       		.byte	0x20
 2266 1202 B601     		.2byte	0x1b6
 2267 1204 D9110000 		.4byte	0x11d9
 2268 1208 00       		.byte	0
 2269 1209 0F       		.uleb128 0xf
 2270 120a 19010000 		.4byte	.LASF247
 2271 120e 20       		.byte	0x20
 2272 120f BA01     		.2byte	0x1ba
ARM GAS  /var/folders/vd/czx34qs52cd_f3nb04sxmghc0000gn/T//ccYvLyIs.s 			page 41


 2273 1211 5B130000 		.4byte	0x135b
 2274 1215 04       		.byte	0x4
 2275 1216 0F       		.uleb128 0xf
 2276 1217 1C0B0000 		.4byte	.LASF248
 2277 121b 20       		.byte	0x20
 2278 121c BE01     		.2byte	0x1be
 2279 121e 9E120000 		.4byte	0x129e
 2280 1222 08       		.byte	0x8
 2281 1223 0F       		.uleb128 0xf
 2282 1224 7F050000 		.4byte	.LASF249
 2283 1228 20       		.byte	0x20
 2284 1229 C201     		.2byte	0x1c2
 2285 122b 92120000 		.4byte	0x1292
 2286 122f 0C       		.byte	0xc
 2287 1230 0F       		.uleb128 0xf
 2288 1231 AF080000 		.4byte	.LASF250
 2289 1235 20       		.byte	0x20
 2290 1236 C601     		.2byte	0x1c6
 2291 1238 86120000 		.4byte	0x1286
 2292 123c 10       		.byte	0x10
 2293 123d 0F       		.uleb128 0xf
 2294 123e B6060000 		.4byte	.LASF251
 2295 1242 20       		.byte	0x20
 2296 1243 CE01     		.2byte	0x1ce
 2297 1245 E9000000 		.4byte	0xe9
 2298 1249 14       		.byte	0x14
 2299 124a 0E       		.uleb128 0xe
 2300 124b 74696D00 		.ascii	"tim\000"
 2301 124f 20       		.byte	0x20
 2302 1250 D201     		.2byte	0x1d2
 2303 1252 61130000 		.4byte	0x1361
 2304 1256 18       		.byte	0x18
 2305 1257 00       		.byte	0
 2306 1258 03       		.uleb128 0x3
 2307 1259 C3080000 		.4byte	.LASF252
 2308 125d 1F       		.byte	0x1f
 2309 125e 5A       		.byte	0x5a
 2310 125f 63120000 		.4byte	0x1263
 2311 1263 10       		.uleb128 0x10
 2312 1264 04       		.byte	0x4
 2313 1265 69120000 		.4byte	0x1269
 2314 1269 12       		.uleb128 0x12
 2315 126a 74120000 		.4byte	0x1274
 2316 126e 13       		.uleb128 0x13
 2317 126f 74120000 		.4byte	0x1274
 2318 1273 00       		.byte	0
 2319 1274 10       		.uleb128 0x10
 2320 1275 04       		.byte	0x4
 2321 1276 E4110000 		.4byte	0x11e4
 2322 127a 1A       		.uleb128 0x1a
 2323 127b 16050000 		.4byte	.LASF253
 2324 127f 20       		.byte	0x20
 2325 1280 5E01     		.2byte	0x15e
 2326 1282 E9000000 		.4byte	0xe9
 2327 1286 1A       		.uleb128 0x1a
 2328 1287 E0020000 		.4byte	.LASF254
 2329 128b 20       		.byte	0x20
ARM GAS  /var/folders/vd/czx34qs52cd_f3nb04sxmghc0000gn/T//ccYvLyIs.s 			page 42


 2330 128c 6301     		.2byte	0x163
 2331 128e BE000000 		.4byte	0xbe
 2332 1292 1A       		.uleb128 0x1a
 2333 1293 0D010000 		.4byte	.LASF255
 2334 1297 20       		.byte	0x20
 2335 1298 6801     		.2byte	0x168
 2336 129a E9000000 		.4byte	0xe9
 2337 129e 1A       		.uleb128 0x1a
 2338 129f AA030000 		.4byte	.LASF256
 2339 12a3 20       		.byte	0x20
 2340 12a4 6D01     		.2byte	0x16d
 2341 12a6 E9000000 		.4byte	0xe9
 2342 12aa 19       		.uleb128 0x19
 2343 12ab 08       		.byte	0x8
 2344 12ac 20       		.byte	0x20
 2345 12ad 7201     		.2byte	0x172
 2346 12af 3A0E0000 		.4byte	.LASF257
 2347 12b3 D2120000 		.4byte	0x12d2
 2348 12b7 0F       		.uleb128 0xf
 2349 12b8 4F0C0000 		.4byte	.LASF258
 2350 12bc 20       		.byte	0x20
 2351 12bd 7601     		.2byte	0x176
 2352 12bf 7A120000 		.4byte	0x127a
 2353 12c3 00       		.byte	0
 2354 12c4 0F       		.uleb128 0xf
 2355 12c5 00020000 		.4byte	.LASF259
 2356 12c9 20       		.byte	0x20
 2357 12ca 7C01     		.2byte	0x17c
 2358 12cc 58120000 		.4byte	0x1258
 2359 12d0 04       		.byte	0x4
 2360 12d1 00       		.byte	0
 2361 12d2 1A       		.uleb128 0x1a
 2362 12d3 2B010000 		.4byte	.LASF260
 2363 12d7 20       		.byte	0x20
 2364 12d8 7E01     		.2byte	0x17e
 2365 12da AA120000 		.4byte	0x12aa
 2366 12de 19       		.uleb128 0x19
 2367 12df 34       		.byte	0x34
 2368 12e0 20       		.byte	0x20
 2369 12e1 8301     		.2byte	0x183
 2370 12e3 B8080000 		.4byte	.LASF261
 2371 12e7 3A130000 		.4byte	0x133a
 2372 12eb 0F       		.uleb128 0xf
 2373 12ec 2C080000 		.4byte	.LASF262
 2374 12f0 20       		.byte	0x20
 2375 12f1 8901     		.2byte	0x189
 2376 12f3 E9000000 		.4byte	0xe9
 2377 12f7 00       		.byte	0
 2378 12f8 0F       		.uleb128 0xf
 2379 12f9 1C0B0000 		.4byte	.LASF248
 2380 12fd 20       		.byte	0x20
 2381 12fe 8F01     		.2byte	0x18f
 2382 1300 9E120000 		.4byte	0x129e
 2383 1304 04       		.byte	0x4
 2384 1305 0F       		.uleb128 0xf
 2385 1306 00020000 		.4byte	.LASF259
 2386 130a 20       		.byte	0x20
ARM GAS  /var/folders/vd/czx34qs52cd_f3nb04sxmghc0000gn/T//ccYvLyIs.s 			page 43


 2387 130b 9501     		.2byte	0x195
 2388 130d 58120000 		.4byte	0x1258
 2389 1311 08       		.byte	0x8
 2390 1312 0F       		.uleb128 0xf
 2391 1313 AF080000 		.4byte	.LASF250
 2392 1317 20       		.byte	0x20
 2393 1318 9901     		.2byte	0x199
 2394 131a 3A130000 		.4byte	0x133a
 2395 131e 0C       		.byte	0xc
 2396 131f 0E       		.uleb128 0xe
 2397 1320 63723200 		.ascii	"cr2\000"
 2398 1324 20       		.byte	0x20
 2399 1325 9F01     		.2byte	0x19f
 2400 1327 E9000000 		.4byte	0xe9
 2401 132b 2C       		.byte	0x2c
 2402 132c 0F       		.uleb128 0xf
 2403 132d 8B010000 		.4byte	.LASF263
 2404 1331 20       		.byte	0x20
 2405 1332 AC01     		.2byte	0x1ac
 2406 1334 E9000000 		.4byte	0xe9
 2407 1338 30       		.byte	0x30
 2408 1339 00       		.byte	0
 2409 133a 17       		.uleb128 0x17
 2410 133b D2120000 		.4byte	0x12d2
 2411 133f 4A130000 		.4byte	0x134a
 2412 1343 18       		.uleb128 0x18
 2413 1344 3C000000 		.4byte	0x3c
 2414 1348 03       		.byte	0x3
 2415 1349 00       		.byte	0
 2416 134a 1A       		.uleb128 0x1a
 2417 134b D60C0000 		.4byte	.LASF264
 2418 134f 20       		.byte	0x20
 2419 1350 AD01     		.2byte	0x1ad
 2420 1352 DE120000 		.4byte	0x12de
 2421 1356 07       		.uleb128 0x7
 2422 1357 4A130000 		.4byte	0x134a
 2423 135b 10       		.uleb128 0x10
 2424 135c 04       		.byte	0x4
 2425 135d 56130000 		.4byte	0x1356
 2426 1361 10       		.uleb128 0x10
 2427 1362 04       		.byte	0x4
 2428 1363 79080000 		.4byte	0x879
 2429 1367 15       		.uleb128 0x15
 2430 1368 170D0000 		.4byte	.LASF265
 2431 136c 20       		.byte	0x20
 2432 136d FD01     		.2byte	0x1fd
 2433 136f E4110000 		.4byte	0x11e4
 2434 1373 1B       		.uleb128 0x1b
 2435 1374 07       		.byte	0x7
 2436 1375 01       		.byte	0x1
 2437 1376 68000000 		.4byte	0x68
 2438 137a 21       		.byte	0x21
 2439 137b 58       		.byte	0x58
 2440 137c 08070000 		.4byte	.LASF266
 2441 1380 97130000 		.4byte	0x1397
 2442 1384 1C       		.uleb128 0x1c
 2443 1385 0C040000 		.4byte	.LASF267
ARM GAS  /var/folders/vd/czx34qs52cd_f3nb04sxmghc0000gn/T//ccYvLyIs.s 			page 44


 2444 1389 00       		.byte	0
 2445 138a 1C       		.uleb128 0x1c
 2446 138b 130E0000 		.4byte	.LASF268
 2447 138f 01       		.byte	0x1
 2448 1390 1C       		.uleb128 0x1c
 2449 1391 BB0B0000 		.4byte	.LASF269
 2450 1395 02       		.byte	0x2
 2451 1396 00       		.byte	0
 2452 1397 03       		.uleb128 0x3
 2453 1398 B10B0000 		.4byte	.LASF270
 2454 139c 21       		.byte	0x21
 2455 139d 5C       		.byte	0x5c
 2456 139e 73130000 		.4byte	0x1373
 2457 13a2 03       		.uleb128 0x3
 2458 13a3 6B0B0000 		.4byte	.LASF271
 2459 13a7 21       		.byte	0x21
 2460 13a8 61       		.byte	0x61
 2461 13a9 AD130000 		.4byte	0x13ad
 2462 13ad 08       		.uleb128 0x8
 2463 13ae 6B0B0000 		.4byte	.LASF271
 2464 13b2 7C       		.byte	0x7c
 2465 13b3 21       		.byte	0x21
 2466 13b4 7B       		.byte	0x7b
 2467 13b5 24140000 		.4byte	0x1424
 2468 13b9 0D       		.uleb128 0xd
 2469 13ba 766D7400 		.ascii	"vmt\000"
 2470 13be 21       		.byte	0x21
 2471 13bf 7D       		.byte	0x7d
 2472 13c0 BA140000 		.4byte	0x14ba
 2473 13c4 00       		.byte	0
 2474 13c5 0C       		.uleb128 0xc
 2475 13c6 45080000 		.4byte	.LASF272
 2476 13ca 21       		.byte	0x21
 2477 13cb 7E       		.byte	0x7e
 2478 13cc EA0A0000 		.4byte	0xaea
 2479 13d0 04       		.byte	0x4
 2480 13d1 0C       		.uleb128 0xc
 2481 13d2 20010000 		.4byte	.LASF46
 2482 13d6 21       		.byte	0x21
 2483 13d7 7E       		.byte	0x7e
 2484 13d8 97130000 		.4byte	0x1397
 2485 13dc 08       		.byte	0x8
 2486 13dd 0C       		.uleb128 0xc
 2487 13de 6B0C0000 		.4byte	.LASF273
 2488 13e2 21       		.byte	0x21
 2489 13e3 7E       		.byte	0x7e
 2490 13e4 70110000 		.4byte	0x1170
 2491 13e8 0C       		.byte	0xc
 2492 13e9 0C       		.uleb128 0xc
 2493 13ea 9C020000 		.4byte	.LASF274
 2494 13ee 21       		.byte	0x21
 2495 13ef 7E       		.byte	0x7e
 2496 13f0 7B110000 		.4byte	0x117b
 2497 13f4 30       		.byte	0x30
 2498 13f5 0D       		.uleb128 0xd
 2499 13f6 696200   		.ascii	"ib\000"
 2500 13f9 21       		.byte	0x21
ARM GAS  /var/folders/vd/czx34qs52cd_f3nb04sxmghc0000gn/T//ccYvLyIs.s 			page 45


 2501 13fa 7E       		.byte	0x7e
 2502 13fb C0140000 		.4byte	0x14c0
 2503 13ff 54       		.byte	0x54
 2504 1400 0D       		.uleb128 0xd
 2505 1401 6F6200   		.ascii	"ob\000"
 2506 1404 21       		.byte	0x21
 2507 1405 7E       		.byte	0x7e
 2508 1406 C0140000 		.4byte	0x14c0
 2509 140a 64       		.byte	0x64
 2510 140b 0C       		.uleb128 0xc
 2511 140c F6020000 		.4byte	.LASF275
 2512 1410 21       		.byte	0x21
 2513 1411 7E       		.byte	0x7e
 2514 1412 D0140000 		.4byte	0x14d0
 2515 1416 74       		.byte	0x74
 2516 1417 0C       		.uleb128 0xc
 2517 1418 26050000 		.4byte	.LASF276
 2518 141c 21       		.byte	0x21
 2519 141d 7E       		.byte	0x7e
 2520 141e BE000000 		.4byte	0xbe
 2521 1422 78       		.byte	0x78
 2522 1423 00       		.byte	0
 2523 1424 1F       		.uleb128 0x1f
 2524 1425 53443100 		.ascii	"SD1\000"
 2525 1429 22       		.byte	0x22
 2526 142a 4401     		.2byte	0x144
 2527 142c A2130000 		.4byte	0x13a2
 2528 1430 08       		.uleb128 0x8
 2529 1431 8A060000 		.4byte	.LASF277
 2530 1435 28       		.byte	0x28
 2531 1436 21       		.byte	0x21
 2532 1437 70       		.byte	0x70
 2533 1438 B5140000 		.4byte	0x14b5
 2534 143c 0C       		.uleb128 0xc
 2535 143d 700D0000 		.4byte	.LASF221
 2536 1441 21       		.byte	0x21
 2537 1442 71       		.byte	0x71
 2538 1443 2C000000 		.4byte	0x2c
 2539 1447 00       		.byte	0
 2540 1448 0C       		.uleb128 0xc
 2541 1449 E3000000 		.4byte	.LASF222
 2542 144d 21       		.byte	0x21
 2543 144e 71       		.byte	0x71
 2544 144f B80F0000 		.4byte	0xfb8
 2545 1453 04       		.byte	0x4
 2546 1454 0C       		.uleb128 0xc
 2547 1455 4B080000 		.4byte	.LASF223
 2548 1459 21       		.byte	0x21
 2549 145a 71       		.byte	0x71
 2550 145b D70F0000 		.4byte	0xfd7
 2551 145f 08       		.byte	0x8
 2552 1460 0D       		.uleb128 0xd
 2553 1461 70757400 		.ascii	"put\000"
 2554 1465 21       		.byte	0x21
 2555 1466 71       		.byte	0x71
 2556 1467 F10F0000 		.4byte	0xff1
 2557 146b 0C       		.byte	0xc
ARM GAS  /var/folders/vd/czx34qs52cd_f3nb04sxmghc0000gn/T//ccYvLyIs.s 			page 46


 2558 146c 0D       		.uleb128 0xd
 2559 146d 67657400 		.ascii	"get\000"
 2560 1471 21       		.byte	0x21
 2561 1472 71       		.byte	0x71
 2562 1473 06100000 		.4byte	0x1006
 2563 1477 10       		.byte	0x10
 2564 1478 0C       		.uleb128 0xc
 2565 1479 26010000 		.4byte	.LASF278
 2566 147d 21       		.byte	0x21
 2567 147e 71       		.byte	0x71
 2568 147f 4F100000 		.4byte	0x104f
 2569 1483 14       		.byte	0x14
 2570 1484 0C       		.uleb128 0xc
 2571 1485 B6040000 		.4byte	.LASF279
 2572 1489 21       		.byte	0x21
 2573 148a 71       		.byte	0x71
 2574 148b 69100000 		.4byte	0x1069
 2575 148f 18       		.byte	0x18
 2576 1490 0C       		.uleb128 0xc
 2577 1491 91000000 		.4byte	.LASF280
 2578 1495 21       		.byte	0x21
 2579 1496 71       		.byte	0x71
 2580 1497 8D100000 		.4byte	0x108d
 2581 149b 1C       		.byte	0x1c
 2582 149c 0C       		.uleb128 0xc
 2583 149d C3010000 		.4byte	.LASF281
 2584 14a1 21       		.byte	0x21
 2585 14a2 71       		.byte	0x71
 2586 14a3 B1100000 		.4byte	0x10b1
 2587 14a7 20       		.byte	0x20
 2588 14a8 0D       		.uleb128 0xd
 2589 14a9 63746C00 		.ascii	"ctl\000"
 2590 14ad 21       		.byte	0x21
 2591 14ae 71       		.byte	0x71
 2592 14af D0100000 		.4byte	0x10d0
 2593 14b3 24       		.byte	0x24
 2594 14b4 00       		.byte	0
 2595 14b5 07       		.uleb128 0x7
 2596 14b6 30140000 		.4byte	0x1430
 2597 14ba 10       		.uleb128 0x10
 2598 14bb 04       		.byte	0x4
 2599 14bc B5140000 		.4byte	0x14b5
 2600 14c0 17       		.uleb128 0x17
 2601 14c1 BE000000 		.4byte	0xbe
 2602 14c5 D0140000 		.4byte	0x14d0
 2603 14c9 18       		.uleb128 0x18
 2604 14ca 3C000000 		.4byte	0x3c
 2605 14ce 0F       		.byte	0xf
 2606 14cf 00       		.byte	0
 2607 14d0 10       		.uleb128 0x10
 2608 14d1 04       		.byte	0x4
 2609 14d2 32060000 		.4byte	0x632
 2610 14d6 03       		.uleb128 0x3
 2611 14d7 0C0D0000 		.4byte	.LASF282
 2612 14db 23       		.byte	0x23
 2613 14dc 78       		.byte	0x78
 2614 14dd E1140000 		.4byte	0x14e1
ARM GAS  /var/folders/vd/czx34qs52cd_f3nb04sxmghc0000gn/T//ccYvLyIs.s 			page 47


 2615 14e1 10       		.uleb128 0x10
 2616 14e2 04       		.byte	0x4
 2617 14e3 E7140000 		.4byte	0x14e7
 2618 14e7 12       		.uleb128 0x12
 2619 14e8 FC140000 		.4byte	0x14fc
 2620 14ec 13       		.uleb128 0x13
 2621 14ed FC140000 		.4byte	0x14fc
 2622 14f1 13       		.uleb128 0x13
 2623 14f2 25000000 		.4byte	0x25
 2624 14f6 13       		.uleb128 0x13
 2625 14f7 02150000 		.4byte	0x1502
 2626 14fb 00       		.byte	0
 2627 14fc 10       		.uleb128 0x10
 2628 14fd 04       		.byte	0x4
 2629 14fe 2B100000 		.4byte	0x102b
 2630 1502 10       		.uleb128 0x10
 2631 1503 04       		.byte	0x4
 2632 1504 08150000 		.4byte	0x1508
 2633 1508 10       		.uleb128 0x10
 2634 1509 04       		.byte	0x4
 2635 150a 1C090000 		.4byte	0x91c
 2636 150e 1E       		.uleb128 0x1e
 2637 150f 08       		.byte	0x8
 2638 1510 23       		.byte	0x23
 2639 1511 7D       		.byte	0x7d
 2640 1512 BF0C0000 		.4byte	.LASF283
 2641 1516 33150000 		.4byte	0x1533
 2642 151a 0C       		.uleb128 0xc
 2643 151b A10B0000 		.4byte	.LASF284
 2644 151f 23       		.byte	0x23
 2645 1520 7E       		.byte	0x7e
 2646 1521 11090000 		.4byte	0x911
 2647 1525 00       		.byte	0
 2648 1526 0C       		.uleb128 0xc
 2649 1527 20080000 		.4byte	.LASF285
 2650 152b 23       		.byte	0x23
 2651 152c 7F       		.byte	0x7f
 2652 152d D6140000 		.4byte	0x14d6
 2653 1531 04       		.byte	0x4
 2654 1532 00       		.byte	0
 2655 1533 03       		.uleb128 0x3
 2656 1534 720C0000 		.4byte	.LASF286
 2657 1538 23       		.byte	0x23
 2658 1539 80       		.byte	0x80
 2659 153a 0E150000 		.4byte	0x150e
 2660 153e 07       		.uleb128 0x7
 2661 153f 33150000 		.4byte	0x1533
 2662 1543 16       		.uleb128 0x16
 2663 1544 CA090000 		.4byte	.LASF287
 2664 1548 23       		.byte	0x23
 2665 1549 CF       		.byte	0xcf
 2666 154a EA0A0000 		.4byte	0xaea
 2667 154e 17       		.uleb128 0x17
 2668 154f 3E150000 		.4byte	0x153e
 2669 1553 59150000 		.4byte	0x1559
 2670 1557 20       		.uleb128 0x20
 2671 1558 00       		.byte	0
ARM GAS  /var/folders/vd/czx34qs52cd_f3nb04sxmghc0000gn/T//ccYvLyIs.s 			page 48


 2672 1559 16       		.uleb128 0x16
 2673 155a 7D010000 		.4byte	.LASF288
 2674 155e 24       		.byte	0x24
 2675 155f 09       		.byte	0x9
 2676 1560 4E150000 		.4byte	0x154e
 2677 1564 29       		.uleb128 0x29
 2678 1565 59150000 		.4byte	0x1559
 2679 1569 01       		.byte	0x1
 2680 156a 0C       		.byte	0xc
 2681 156b 05       		.uleb128 0x5
 2682 156c 03       		.byte	0x3
 2683 156d 00000000 		.4byte	shellCommands
 2684 1571 2A       		.uleb128 0x2a
 2685 1572 C1070000 		.4byte	.LASF299
 2686 1576 01       		.byte	0x1
 2687 1577 03       		.byte	0x3
 2688 1578 00000000 		.4byte	.LFB506
 2689 157c 18000000 		.4byte	.LFE506-.LFB506
 2690 1580 01       		.uleb128 0x1
 2691 1581 9C       		.byte	0x9c
 2692 1582 E5150000 		.4byte	0x15e5
 2693 1586 2B       		.uleb128 0x2b
 2694 1587 63687000 		.ascii	"chp\000"
 2695 158b 01       		.byte	0x1
 2696 158c 03       		.byte	0x3
 2697 158d FC140000 		.4byte	0x14fc
 2698 1591 00000000 		.4byte	.LLST0
 2699 1595 2C       		.uleb128 0x2c
 2700 1596 CF060000 		.4byte	.LASF289
 2701 159a 01       		.byte	0x1
 2702 159b 03       		.byte	0x3
 2703 159c 25000000 		.4byte	0x25
 2704 15a0 3A000000 		.4byte	.LLST1
 2705 15a4 2C       		.uleb128 0x2c
 2706 15a5 F0060000 		.4byte	.LASF290
 2707 15a9 01       		.byte	0x1
 2708 15aa 03       		.byte	0x3
 2709 15ab 02150000 		.4byte	0x1502
 2710 15af 74000000 		.4byte	.LLST2
 2711 15b3 2D       		.uleb128 0x2d
 2712 15b4 0A000000 		.4byte	.LVL2
 2713 15b8 E5150000 		.4byte	0x15e5
 2714 15bc D1150000 		.4byte	0x15d1
 2715 15c0 2E       		.uleb128 0x2e
 2716 15c1 01       		.uleb128 0x1
 2717 15c2 50       		.byte	0x50
 2718 15c3 03       		.uleb128 0x3
 2719 15c4 F3       		.byte	0xf3
 2720 15c5 01       		.uleb128 0x1
 2721 15c6 50       		.byte	0x50
 2722 15c7 2E       		.uleb128 0x2e
 2723 15c8 01       		.uleb128 0x1
 2724 15c9 51       		.byte	0x51
 2725 15ca 05       		.uleb128 0x5
 2726 15cb 03       		.byte	0x3
 2727 15cc 00000000 		.4byte	.LC0
 2728 15d0 00       		.byte	0
ARM GAS  /var/folders/vd/czx34qs52cd_f3nb04sxmghc0000gn/T//ccYvLyIs.s 			page 49


 2729 15d1 2F       		.uleb128 0x2f
 2730 15d2 10000000 		.4byte	.LVL4
 2731 15d6 E5150000 		.4byte	0x15e5
 2732 15da 2E       		.uleb128 0x2e
 2733 15db 01       		.uleb128 0x1
 2734 15dc 51       		.byte	0x51
 2735 15dd 05       		.uleb128 0x5
 2736 15de 03       		.byte	0x3
 2737 15df 10000000 		.4byte	.LC1
 2738 15e3 00       		.byte	0
 2739 15e4 00       		.byte	0
 2740 15e5 30       		.uleb128 0x30
 2741 15e6 2D050000 		.4byte	.LASF300
 2742 15ea 2D050000 		.4byte	.LASF300
 2743 15ee 25       		.byte	0x25
 2744 15ef 29       		.byte	0x29
 2745 15f0 00       		.byte	0
 2746              		.section	.debug_abbrev,"",%progbits
 2747              	.Ldebug_abbrev0:
 2748 0000 01       		.uleb128 0x1
 2749 0001 11       		.uleb128 0x11
 2750 0002 01       		.byte	0x1
 2751 0003 25       		.uleb128 0x25
 2752 0004 0E       		.uleb128 0xe
 2753 0005 13       		.uleb128 0x13
 2754 0006 0B       		.uleb128 0xb
 2755 0007 03       		.uleb128 0x3
 2756 0008 0E       		.uleb128 0xe
 2757 0009 1B       		.uleb128 0x1b
 2758 000a 0E       		.uleb128 0xe
 2759 000b 55       		.uleb128 0x55
 2760 000c 17       		.uleb128 0x17
 2761 000d 11       		.uleb128 0x11
 2762 000e 01       		.uleb128 0x1
 2763 000f 10       		.uleb128 0x10
 2764 0010 17       		.uleb128 0x17
 2765 0011 00       		.byte	0
 2766 0012 00       		.byte	0
 2767 0013 02       		.uleb128 0x2
 2768 0014 24       		.uleb128 0x24
 2769 0015 00       		.byte	0
 2770 0016 0B       		.uleb128 0xb
 2771 0017 0B       		.uleb128 0xb
 2772 0018 3E       		.uleb128 0x3e
 2773 0019 0B       		.uleb128 0xb
 2774 001a 03       		.uleb128 0x3
 2775 001b 08       		.uleb128 0x8
 2776 001c 00       		.byte	0
 2777 001d 00       		.byte	0
 2778 001e 03       		.uleb128 0x3
 2779 001f 16       		.uleb128 0x16
 2780 0020 00       		.byte	0
 2781 0021 03       		.uleb128 0x3
 2782 0022 0E       		.uleb128 0xe
 2783 0023 3A       		.uleb128 0x3a
 2784 0024 0B       		.uleb128 0xb
 2785 0025 3B       		.uleb128 0x3b
ARM GAS  /var/folders/vd/czx34qs52cd_f3nb04sxmghc0000gn/T//ccYvLyIs.s 			page 50


 2786 0026 0B       		.uleb128 0xb
 2787 0027 49       		.uleb128 0x49
 2788 0028 13       		.uleb128 0x13
 2789 0029 00       		.byte	0
 2790 002a 00       		.byte	0
 2791 002b 04       		.uleb128 0x4
 2792 002c 35       		.uleb128 0x35
 2793 002d 00       		.byte	0
 2794 002e 49       		.uleb128 0x49
 2795 002f 13       		.uleb128 0x13
 2796 0030 00       		.byte	0
 2797 0031 00       		.byte	0
 2798 0032 05       		.uleb128 0x5
 2799 0033 24       		.uleb128 0x24
 2800 0034 00       		.byte	0
 2801 0035 0B       		.uleb128 0xb
 2802 0036 0B       		.uleb128 0xb
 2803 0037 3E       		.uleb128 0x3e
 2804 0038 0B       		.uleb128 0xb
 2805 0039 03       		.uleb128 0x3
 2806 003a 0E       		.uleb128 0xe
 2807 003b 00       		.byte	0
 2808 003c 00       		.byte	0
 2809 003d 06       		.uleb128 0x6
 2810 003e 3B       		.uleb128 0x3b
 2811 003f 00       		.byte	0
 2812 0040 03       		.uleb128 0x3
 2813 0041 0E       		.uleb128 0xe
 2814 0042 00       		.byte	0
 2815 0043 00       		.byte	0
 2816 0044 07       		.uleb128 0x7
 2817 0045 26       		.uleb128 0x26
 2818 0046 00       		.byte	0
 2819 0047 49       		.uleb128 0x49
 2820 0048 13       		.uleb128 0x13
 2821 0049 00       		.byte	0
 2822 004a 00       		.byte	0
 2823 004b 08       		.uleb128 0x8
 2824 004c 13       		.uleb128 0x13
 2825 004d 01       		.byte	0x1
 2826 004e 03       		.uleb128 0x3
 2827 004f 0E       		.uleb128 0xe
 2828 0050 0B       		.uleb128 0xb
 2829 0051 0B       		.uleb128 0xb
 2830 0052 3A       		.uleb128 0x3a
 2831 0053 0B       		.uleb128 0xb
 2832 0054 3B       		.uleb128 0x3b
 2833 0055 0B       		.uleb128 0xb
 2834 0056 01       		.uleb128 0x1
 2835 0057 13       		.uleb128 0x13
 2836 0058 00       		.byte	0
 2837 0059 00       		.byte	0
 2838 005a 09       		.uleb128 0x9
 2839 005b 17       		.uleb128 0x17
 2840 005c 01       		.byte	0x1
 2841 005d 0B       		.uleb128 0xb
 2842 005e 0B       		.uleb128 0xb
ARM GAS  /var/folders/vd/czx34qs52cd_f3nb04sxmghc0000gn/T//ccYvLyIs.s 			page 51


 2843 005f 3A       		.uleb128 0x3a
 2844 0060 0B       		.uleb128 0xb
 2845 0061 3B       		.uleb128 0x3b
 2846 0062 0B       		.uleb128 0xb
 2847 0063 01       		.uleb128 0x1
 2848 0064 13       		.uleb128 0x13
 2849 0065 00       		.byte	0
 2850 0066 00       		.byte	0
 2851 0067 0A       		.uleb128 0xa
 2852 0068 0D       		.uleb128 0xd
 2853 0069 00       		.byte	0
 2854 006a 03       		.uleb128 0x3
 2855 006b 0E       		.uleb128 0xe
 2856 006c 3A       		.uleb128 0x3a
 2857 006d 0B       		.uleb128 0xb
 2858 006e 3B       		.uleb128 0x3b
 2859 006f 0B       		.uleb128 0xb
 2860 0070 49       		.uleb128 0x49
 2861 0071 13       		.uleb128 0x13
 2862 0072 00       		.byte	0
 2863 0073 00       		.byte	0
 2864 0074 0B       		.uleb128 0xb
 2865 0075 0D       		.uleb128 0xd
 2866 0076 00       		.byte	0
 2867 0077 03       		.uleb128 0x3
 2868 0078 0E       		.uleb128 0xe
 2869 0079 3A       		.uleb128 0x3a
 2870 007a 0B       		.uleb128 0xb
 2871 007b 3B       		.uleb128 0x3b
 2872 007c 05       		.uleb128 0x5
 2873 007d 49       		.uleb128 0x49
 2874 007e 13       		.uleb128 0x13
 2875 007f 00       		.byte	0
 2876 0080 00       		.byte	0
 2877 0081 0C       		.uleb128 0xc
 2878 0082 0D       		.uleb128 0xd
 2879 0083 00       		.byte	0
 2880 0084 03       		.uleb128 0x3
 2881 0085 0E       		.uleb128 0xe
 2882 0086 3A       		.uleb128 0x3a
 2883 0087 0B       		.uleb128 0xb
 2884 0088 3B       		.uleb128 0x3b
 2885 0089 0B       		.uleb128 0xb
 2886 008a 49       		.uleb128 0x49
 2887 008b 13       		.uleb128 0x13
 2888 008c 38       		.uleb128 0x38
 2889 008d 0B       		.uleb128 0xb
 2890 008e 00       		.byte	0
 2891 008f 00       		.byte	0
 2892 0090 0D       		.uleb128 0xd
 2893 0091 0D       		.uleb128 0xd
 2894 0092 00       		.byte	0
 2895 0093 03       		.uleb128 0x3
 2896 0094 08       		.uleb128 0x8
 2897 0095 3A       		.uleb128 0x3a
 2898 0096 0B       		.uleb128 0xb
 2899 0097 3B       		.uleb128 0x3b
ARM GAS  /var/folders/vd/czx34qs52cd_f3nb04sxmghc0000gn/T//ccYvLyIs.s 			page 52


 2900 0098 0B       		.uleb128 0xb
 2901 0099 49       		.uleb128 0x49
 2902 009a 13       		.uleb128 0x13
 2903 009b 38       		.uleb128 0x38
 2904 009c 0B       		.uleb128 0xb
 2905 009d 00       		.byte	0
 2906 009e 00       		.byte	0
 2907 009f 0E       		.uleb128 0xe
 2908 00a0 0D       		.uleb128 0xd
 2909 00a1 00       		.byte	0
 2910 00a2 03       		.uleb128 0x3
 2911 00a3 08       		.uleb128 0x8
 2912 00a4 3A       		.uleb128 0x3a
 2913 00a5 0B       		.uleb128 0xb
 2914 00a6 3B       		.uleb128 0x3b
 2915 00a7 05       		.uleb128 0x5
 2916 00a8 49       		.uleb128 0x49
 2917 00a9 13       		.uleb128 0x13
 2918 00aa 38       		.uleb128 0x38
 2919 00ab 0B       		.uleb128 0xb
 2920 00ac 00       		.byte	0
 2921 00ad 00       		.byte	0
 2922 00ae 0F       		.uleb128 0xf
 2923 00af 0D       		.uleb128 0xd
 2924 00b0 00       		.byte	0
 2925 00b1 03       		.uleb128 0x3
 2926 00b2 0E       		.uleb128 0xe
 2927 00b3 3A       		.uleb128 0x3a
 2928 00b4 0B       		.uleb128 0xb
 2929 00b5 3B       		.uleb128 0x3b
 2930 00b6 05       		.uleb128 0x5
 2931 00b7 49       		.uleb128 0x49
 2932 00b8 13       		.uleb128 0x13
 2933 00b9 38       		.uleb128 0x38
 2934 00ba 0B       		.uleb128 0xb
 2935 00bb 00       		.byte	0
 2936 00bc 00       		.byte	0
 2937 00bd 10       		.uleb128 0x10
 2938 00be 0F       		.uleb128 0xf
 2939 00bf 00       		.byte	0
 2940 00c0 0B       		.uleb128 0xb
 2941 00c1 0B       		.uleb128 0xb
 2942 00c2 49       		.uleb128 0x49
 2943 00c3 13       		.uleb128 0x13
 2944 00c4 00       		.byte	0
 2945 00c5 00       		.byte	0
 2946 00c6 11       		.uleb128 0x11
 2947 00c7 13       		.uleb128 0x13
 2948 00c8 01       		.byte	0x1
 2949 00c9 03       		.uleb128 0x3
 2950 00ca 0E       		.uleb128 0xe
 2951 00cb 0B       		.uleb128 0xb
 2952 00cc 0B       		.uleb128 0xb
 2953 00cd 3A       		.uleb128 0x3a
 2954 00ce 0B       		.uleb128 0xb
 2955 00cf 3B       		.uleb128 0x3b
 2956 00d0 05       		.uleb128 0x5
ARM GAS  /var/folders/vd/czx34qs52cd_f3nb04sxmghc0000gn/T//ccYvLyIs.s 			page 53


 2957 00d1 01       		.uleb128 0x1
 2958 00d2 13       		.uleb128 0x13
 2959 00d3 00       		.byte	0
 2960 00d4 00       		.byte	0
 2961 00d5 12       		.uleb128 0x12
 2962 00d6 15       		.uleb128 0x15
 2963 00d7 01       		.byte	0x1
 2964 00d8 01       		.uleb128 0x1
 2965 00d9 13       		.uleb128 0x13
 2966 00da 00       		.byte	0
 2967 00db 00       		.byte	0
 2968 00dc 13       		.uleb128 0x13
 2969 00dd 05       		.uleb128 0x5
 2970 00de 00       		.byte	0
 2971 00df 49       		.uleb128 0x49
 2972 00e0 13       		.uleb128 0x13
 2973 00e1 00       		.byte	0
 2974 00e2 00       		.byte	0
 2975 00e3 14       		.uleb128 0x14
 2976 00e4 0F       		.uleb128 0xf
 2977 00e5 00       		.byte	0
 2978 00e6 0B       		.uleb128 0xb
 2979 00e7 0B       		.uleb128 0xb
 2980 00e8 00       		.byte	0
 2981 00e9 00       		.byte	0
 2982 00ea 15       		.uleb128 0x15
 2983 00eb 34       		.uleb128 0x34
 2984 00ec 00       		.byte	0
 2985 00ed 03       		.uleb128 0x3
 2986 00ee 0E       		.uleb128 0xe
 2987 00ef 3A       		.uleb128 0x3a
 2988 00f0 0B       		.uleb128 0xb
 2989 00f1 3B       		.uleb128 0x3b
 2990 00f2 05       		.uleb128 0x5
 2991 00f3 49       		.uleb128 0x49
 2992 00f4 13       		.uleb128 0x13
 2993 00f5 3F       		.uleb128 0x3f
 2994 00f6 19       		.uleb128 0x19
 2995 00f7 3C       		.uleb128 0x3c
 2996 00f8 19       		.uleb128 0x19
 2997 00f9 00       		.byte	0
 2998 00fa 00       		.byte	0
 2999 00fb 16       		.uleb128 0x16
 3000 00fc 34       		.uleb128 0x34
 3001 00fd 00       		.byte	0
 3002 00fe 03       		.uleb128 0x3
 3003 00ff 0E       		.uleb128 0xe
 3004 0100 3A       		.uleb128 0x3a
 3005 0101 0B       		.uleb128 0xb
 3006 0102 3B       		.uleb128 0x3b
 3007 0103 0B       		.uleb128 0xb
 3008 0104 49       		.uleb128 0x49
 3009 0105 13       		.uleb128 0x13
 3010 0106 3F       		.uleb128 0x3f
 3011 0107 19       		.uleb128 0x19
 3012 0108 3C       		.uleb128 0x3c
 3013 0109 19       		.uleb128 0x19
ARM GAS  /var/folders/vd/czx34qs52cd_f3nb04sxmghc0000gn/T//ccYvLyIs.s 			page 54


 3014 010a 00       		.byte	0
 3015 010b 00       		.byte	0
 3016 010c 17       		.uleb128 0x17
 3017 010d 01       		.uleb128 0x1
 3018 010e 01       		.byte	0x1
 3019 010f 49       		.uleb128 0x49
 3020 0110 13       		.uleb128 0x13
 3021 0111 01       		.uleb128 0x1
 3022 0112 13       		.uleb128 0x13
 3023 0113 00       		.byte	0
 3024 0114 00       		.byte	0
 3025 0115 18       		.uleb128 0x18
 3026 0116 21       		.uleb128 0x21
 3027 0117 00       		.byte	0
 3028 0118 49       		.uleb128 0x49
 3029 0119 13       		.uleb128 0x13
 3030 011a 2F       		.uleb128 0x2f
 3031 011b 0B       		.uleb128 0xb
 3032 011c 00       		.byte	0
 3033 011d 00       		.byte	0
 3034 011e 19       		.uleb128 0x19
 3035 011f 13       		.uleb128 0x13
 3036 0120 01       		.byte	0x1
 3037 0121 0B       		.uleb128 0xb
 3038 0122 0B       		.uleb128 0xb
 3039 0123 3A       		.uleb128 0x3a
 3040 0124 0B       		.uleb128 0xb
 3041 0125 3B       		.uleb128 0x3b
 3042 0126 05       		.uleb128 0x5
 3043 0127 6E       		.uleb128 0x6e
 3044 0128 0E       		.uleb128 0xe
 3045 0129 01       		.uleb128 0x1
 3046 012a 13       		.uleb128 0x13
 3047 012b 00       		.byte	0
 3048 012c 00       		.byte	0
 3049 012d 1A       		.uleb128 0x1a
 3050 012e 16       		.uleb128 0x16
 3051 012f 00       		.byte	0
 3052 0130 03       		.uleb128 0x3
 3053 0131 0E       		.uleb128 0xe
 3054 0132 3A       		.uleb128 0x3a
 3055 0133 0B       		.uleb128 0xb
 3056 0134 3B       		.uleb128 0x3b
 3057 0135 05       		.uleb128 0x5
 3058 0136 49       		.uleb128 0x49
 3059 0137 13       		.uleb128 0x13
 3060 0138 00       		.byte	0
 3061 0139 00       		.byte	0
 3062 013a 1B       		.uleb128 0x1b
 3063 013b 04       		.uleb128 0x4
 3064 013c 01       		.byte	0x1
 3065 013d 3E       		.uleb128 0x3e
 3066 013e 0B       		.uleb128 0xb
 3067 013f 0B       		.uleb128 0xb
 3068 0140 0B       		.uleb128 0xb
 3069 0141 49       		.uleb128 0x49
 3070 0142 13       		.uleb128 0x13
ARM GAS  /var/folders/vd/czx34qs52cd_f3nb04sxmghc0000gn/T//ccYvLyIs.s 			page 55


 3071 0143 3A       		.uleb128 0x3a
 3072 0144 0B       		.uleb128 0xb
 3073 0145 3B       		.uleb128 0x3b
 3074 0146 0B       		.uleb128 0xb
 3075 0147 6E       		.uleb128 0x6e
 3076 0148 0E       		.uleb128 0xe
 3077 0149 01       		.uleb128 0x1
 3078 014a 13       		.uleb128 0x13
 3079 014b 00       		.byte	0
 3080 014c 00       		.byte	0
 3081 014d 1C       		.uleb128 0x1c
 3082 014e 28       		.uleb128 0x28
 3083 014f 00       		.byte	0
 3084 0150 03       		.uleb128 0x3
 3085 0151 0E       		.uleb128 0xe
 3086 0152 1C       		.uleb128 0x1c
 3087 0153 0B       		.uleb128 0xb
 3088 0154 00       		.byte	0
 3089 0155 00       		.byte	0
 3090 0156 1D       		.uleb128 0x1d
 3091 0157 28       		.uleb128 0x28
 3092 0158 00       		.byte	0
 3093 0159 03       		.uleb128 0x3
 3094 015a 08       		.uleb128 0x8
 3095 015b 1C       		.uleb128 0x1c
 3096 015c 0B       		.uleb128 0xb
 3097 015d 00       		.byte	0
 3098 015e 00       		.byte	0
 3099 015f 1E       		.uleb128 0x1e
 3100 0160 13       		.uleb128 0x13
 3101 0161 01       		.byte	0x1
 3102 0162 0B       		.uleb128 0xb
 3103 0163 0B       		.uleb128 0xb
 3104 0164 3A       		.uleb128 0x3a
 3105 0165 0B       		.uleb128 0xb
 3106 0166 3B       		.uleb128 0x3b
 3107 0167 0B       		.uleb128 0xb
 3108 0168 6E       		.uleb128 0x6e
 3109 0169 0E       		.uleb128 0xe
 3110 016a 01       		.uleb128 0x1
 3111 016b 13       		.uleb128 0x13
 3112 016c 00       		.byte	0
 3113 016d 00       		.byte	0
 3114 016e 1F       		.uleb128 0x1f
 3115 016f 34       		.uleb128 0x34
 3116 0170 00       		.byte	0
 3117 0171 03       		.uleb128 0x3
 3118 0172 08       		.uleb128 0x8
 3119 0173 3A       		.uleb128 0x3a
 3120 0174 0B       		.uleb128 0xb
 3121 0175 3B       		.uleb128 0x3b
 3122 0176 05       		.uleb128 0x5
 3123 0177 49       		.uleb128 0x49
 3124 0178 13       		.uleb128 0x13
 3125 0179 3F       		.uleb128 0x3f
 3126 017a 19       		.uleb128 0x19
 3127 017b 3C       		.uleb128 0x3c
ARM GAS  /var/folders/vd/czx34qs52cd_f3nb04sxmghc0000gn/T//ccYvLyIs.s 			page 56


 3128 017c 19       		.uleb128 0x19
 3129 017d 00       		.byte	0
 3130 017e 00       		.byte	0
 3131 017f 20       		.uleb128 0x20
 3132 0180 21       		.uleb128 0x21
 3133 0181 00       		.byte	0
 3134 0182 00       		.byte	0
 3135 0183 00       		.byte	0
 3136 0184 21       		.uleb128 0x21
 3137 0185 15       		.uleb128 0x15
 3138 0186 01       		.byte	0x1
 3139 0187 49       		.uleb128 0x49
 3140 0188 13       		.uleb128 0x13
 3141 0189 01       		.uleb128 0x1
 3142 018a 13       		.uleb128 0x13
 3143 018b 00       		.byte	0
 3144 018c 00       		.byte	0
 3145 018d 22       		.uleb128 0x22
 3146 018e 39       		.uleb128 0x39
 3147 018f 01       		.byte	0x1
 3148 0190 03       		.uleb128 0x3
 3149 0191 0E       		.uleb128 0xe
 3150 0192 3A       		.uleb128 0x3a
 3151 0193 0B       		.uleb128 0xb
 3152 0194 3B       		.uleb128 0x3b
 3153 0195 0B       		.uleb128 0xb
 3154 0196 01       		.uleb128 0x1
 3155 0197 13       		.uleb128 0x13
 3156 0198 00       		.byte	0
 3157 0199 00       		.byte	0
 3158 019a 23       		.uleb128 0x23
 3159 019b 02       		.uleb128 0x2
 3160 019c 01       		.byte	0x1
 3161 019d 03       		.uleb128 0x3
 3162 019e 0E       		.uleb128 0xe
 3163 019f 0B       		.uleb128 0xb
 3164 01a0 0B       		.uleb128 0xb
 3165 01a1 3A       		.uleb128 0x3a
 3166 01a2 0B       		.uleb128 0xb
 3167 01a3 3B       		.uleb128 0x3b
 3168 01a4 05       		.uleb128 0x5
 3169 01a5 01       		.uleb128 0x1
 3170 01a6 13       		.uleb128 0x13
 3171 01a7 00       		.byte	0
 3172 01a8 00       		.byte	0
 3173 01a9 24       		.uleb128 0x24
 3174 01aa 2E       		.uleb128 0x2e
 3175 01ab 01       		.byte	0x1
 3176 01ac 3F       		.uleb128 0x3f
 3177 01ad 19       		.uleb128 0x19
 3178 01ae 03       		.uleb128 0x3
 3179 01af 0E       		.uleb128 0xe
 3180 01b0 3A       		.uleb128 0x3a
 3181 01b1 0B       		.uleb128 0xb
 3182 01b2 3B       		.uleb128 0x3b
 3183 01b3 05       		.uleb128 0x5
 3184 01b4 6E       		.uleb128 0x6e
ARM GAS  /var/folders/vd/czx34qs52cd_f3nb04sxmghc0000gn/T//ccYvLyIs.s 			page 57


 3185 01b5 0E       		.uleb128 0xe
 3186 01b6 49       		.uleb128 0x49
 3187 01b7 13       		.uleb128 0x13
 3188 01b8 32       		.uleb128 0x32
 3189 01b9 0B       		.uleb128 0xb
 3190 01ba 3C       		.uleb128 0x3c
 3191 01bb 19       		.uleb128 0x19
 3192 01bc 64       		.uleb128 0x64
 3193 01bd 13       		.uleb128 0x13
 3194 01be 01       		.uleb128 0x1
 3195 01bf 13       		.uleb128 0x13
 3196 01c0 00       		.byte	0
 3197 01c1 00       		.byte	0
 3198 01c2 25       		.uleb128 0x25
 3199 01c3 05       		.uleb128 0x5
 3200 01c4 00       		.byte	0
 3201 01c5 49       		.uleb128 0x49
 3202 01c6 13       		.uleb128 0x13
 3203 01c7 34       		.uleb128 0x34
 3204 01c8 19       		.uleb128 0x19
 3205 01c9 00       		.byte	0
 3206 01ca 00       		.byte	0
 3207 01cb 26       		.uleb128 0x26
 3208 01cc 2E       		.uleb128 0x2e
 3209 01cd 01       		.byte	0x1
 3210 01ce 3F       		.uleb128 0x3f
 3211 01cf 19       		.uleb128 0x19
 3212 01d0 03       		.uleb128 0x3
 3213 01d1 0E       		.uleb128 0xe
 3214 01d2 3A       		.uleb128 0x3a
 3215 01d3 0B       		.uleb128 0xb
 3216 01d4 3B       		.uleb128 0x3b
 3217 01d5 05       		.uleb128 0x5
 3218 01d6 6E       		.uleb128 0x6e
 3219 01d7 0E       		.uleb128 0xe
 3220 01d8 32       		.uleb128 0x32
 3221 01d9 0B       		.uleb128 0xb
 3222 01da 3C       		.uleb128 0x3c
 3223 01db 19       		.uleb128 0x19
 3224 01dc 64       		.uleb128 0x64
 3225 01dd 13       		.uleb128 0x13
 3226 01de 01       		.uleb128 0x1
 3227 01df 13       		.uleb128 0x13
 3228 01e0 00       		.byte	0
 3229 01e1 00       		.byte	0
 3230 01e2 27       		.uleb128 0x27
 3231 01e3 2E       		.uleb128 0x2e
 3232 01e4 01       		.byte	0x1
 3233 01e5 3F       		.uleb128 0x3f
 3234 01e6 19       		.uleb128 0x19
 3235 01e7 03       		.uleb128 0x3
 3236 01e8 0E       		.uleb128 0xe
 3237 01e9 3A       		.uleb128 0x3a
 3238 01ea 0B       		.uleb128 0xb
 3239 01eb 3B       		.uleb128 0x3b
 3240 01ec 05       		.uleb128 0x5
 3241 01ed 6E       		.uleb128 0x6e
ARM GAS  /var/folders/vd/czx34qs52cd_f3nb04sxmghc0000gn/T//ccYvLyIs.s 			page 58


 3242 01ee 0E       		.uleb128 0xe
 3243 01ef 32       		.uleb128 0x32
 3244 01f0 0B       		.uleb128 0xb
 3245 01f1 3C       		.uleb128 0x3c
 3246 01f2 19       		.uleb128 0x19
 3247 01f3 64       		.uleb128 0x64
 3248 01f4 13       		.uleb128 0x13
 3249 01f5 00       		.byte	0
 3250 01f6 00       		.byte	0
 3251 01f7 28       		.uleb128 0x28
 3252 01f8 13       		.uleb128 0x13
 3253 01f9 00       		.byte	0
 3254 01fa 0B       		.uleb128 0xb
 3255 01fb 0B       		.uleb128 0xb
 3256 01fc 3A       		.uleb128 0x3a
 3257 01fd 0B       		.uleb128 0xb
 3258 01fe 3B       		.uleb128 0x3b
 3259 01ff 0B       		.uleb128 0xb
 3260 0200 6E       		.uleb128 0x6e
 3261 0201 0E       		.uleb128 0xe
 3262 0202 00       		.byte	0
 3263 0203 00       		.byte	0
 3264 0204 29       		.uleb128 0x29
 3265 0205 34       		.uleb128 0x34
 3266 0206 00       		.byte	0
 3267 0207 47       		.uleb128 0x47
 3268 0208 13       		.uleb128 0x13
 3269 0209 3A       		.uleb128 0x3a
 3270 020a 0B       		.uleb128 0xb
 3271 020b 3B       		.uleb128 0x3b
 3272 020c 0B       		.uleb128 0xb
 3273 020d 02       		.uleb128 0x2
 3274 020e 18       		.uleb128 0x18
 3275 020f 00       		.byte	0
 3276 0210 00       		.byte	0
 3277 0211 2A       		.uleb128 0x2a
 3278 0212 2E       		.uleb128 0x2e
 3279 0213 01       		.byte	0x1
 3280 0214 03       		.uleb128 0x3
 3281 0215 0E       		.uleb128 0xe
 3282 0216 3A       		.uleb128 0x3a
 3283 0217 0B       		.uleb128 0xb
 3284 0218 3B       		.uleb128 0x3b
 3285 0219 0B       		.uleb128 0xb
 3286 021a 11       		.uleb128 0x11
 3287 021b 01       		.uleb128 0x1
 3288 021c 12       		.uleb128 0x12
 3289 021d 06       		.uleb128 0x6
 3290 021e 40       		.uleb128 0x40
 3291 021f 18       		.uleb128 0x18
 3292 0220 9742     		.uleb128 0x2117
 3293 0222 19       		.uleb128 0x19
 3294 0223 01       		.uleb128 0x1
 3295 0224 13       		.uleb128 0x13
 3296 0225 00       		.byte	0
 3297 0226 00       		.byte	0
 3298 0227 2B       		.uleb128 0x2b
ARM GAS  /var/folders/vd/czx34qs52cd_f3nb04sxmghc0000gn/T//ccYvLyIs.s 			page 59


 3299 0228 05       		.uleb128 0x5
 3300 0229 00       		.byte	0
 3301 022a 03       		.uleb128 0x3
 3302 022b 08       		.uleb128 0x8
 3303 022c 3A       		.uleb128 0x3a
 3304 022d 0B       		.uleb128 0xb
 3305 022e 3B       		.uleb128 0x3b
 3306 022f 0B       		.uleb128 0xb
 3307 0230 49       		.uleb128 0x49
 3308 0231 13       		.uleb128 0x13
 3309 0232 02       		.uleb128 0x2
 3310 0233 17       		.uleb128 0x17
 3311 0234 00       		.byte	0
 3312 0235 00       		.byte	0
 3313 0236 2C       		.uleb128 0x2c
 3314 0237 05       		.uleb128 0x5
 3315 0238 00       		.byte	0
 3316 0239 03       		.uleb128 0x3
 3317 023a 0E       		.uleb128 0xe
 3318 023b 3A       		.uleb128 0x3a
 3319 023c 0B       		.uleb128 0xb
 3320 023d 3B       		.uleb128 0x3b
 3321 023e 0B       		.uleb128 0xb
 3322 023f 49       		.uleb128 0x49
 3323 0240 13       		.uleb128 0x13
 3324 0241 02       		.uleb128 0x2
 3325 0242 17       		.uleb128 0x17
 3326 0243 00       		.byte	0
 3327 0244 00       		.byte	0
 3328 0245 2D       		.uleb128 0x2d
 3329 0246 898201   		.uleb128 0x4109
 3330 0249 01       		.byte	0x1
 3331 024a 11       		.uleb128 0x11
 3332 024b 01       		.uleb128 0x1
 3333 024c 9542     		.uleb128 0x2115
 3334 024e 19       		.uleb128 0x19
 3335 024f 31       		.uleb128 0x31
 3336 0250 13       		.uleb128 0x13
 3337 0251 01       		.uleb128 0x1
 3338 0252 13       		.uleb128 0x13
 3339 0253 00       		.byte	0
 3340 0254 00       		.byte	0
 3341 0255 2E       		.uleb128 0x2e
 3342 0256 8A8201   		.uleb128 0x410a
 3343 0259 00       		.byte	0
 3344 025a 02       		.uleb128 0x2
 3345 025b 18       		.uleb128 0x18
 3346 025c 9142     		.uleb128 0x2111
 3347 025e 18       		.uleb128 0x18
 3348 025f 00       		.byte	0
 3349 0260 00       		.byte	0
 3350 0261 2F       		.uleb128 0x2f
 3351 0262 898201   		.uleb128 0x4109
 3352 0265 01       		.byte	0x1
 3353 0266 11       		.uleb128 0x11
 3354 0267 01       		.uleb128 0x1
 3355 0268 9542     		.uleb128 0x2115
ARM GAS  /var/folders/vd/czx34qs52cd_f3nb04sxmghc0000gn/T//ccYvLyIs.s 			page 60


 3356 026a 19       		.uleb128 0x19
 3357 026b 31       		.uleb128 0x31
 3358 026c 13       		.uleb128 0x13
 3359 026d 00       		.byte	0
 3360 026e 00       		.byte	0
 3361 026f 30       		.uleb128 0x30
 3362 0270 2E       		.uleb128 0x2e
 3363 0271 00       		.byte	0
 3364 0272 3F       		.uleb128 0x3f
 3365 0273 19       		.uleb128 0x19
 3366 0274 3C       		.uleb128 0x3c
 3367 0275 19       		.uleb128 0x19
 3368 0276 6E       		.uleb128 0x6e
 3369 0277 0E       		.uleb128 0xe
 3370 0278 03       		.uleb128 0x3
 3371 0279 0E       		.uleb128 0xe
 3372 027a 3A       		.uleb128 0x3a
 3373 027b 0B       		.uleb128 0xb
 3374 027c 3B       		.uleb128 0x3b
 3375 027d 0B       		.uleb128 0xb
 3376 027e 00       		.byte	0
 3377 027f 00       		.byte	0
 3378 0280 00       		.byte	0
 3379              		.section	.debug_loc,"",%progbits
 3380              	.Ldebug_loc0:
 3381              	.LLST0:
 3382 0000 00000000 		.4byte	.LVL0
 3383 0004 09000000 		.4byte	.LVL2-1
 3384 0008 0100     		.2byte	0x1
 3385 000a 50       		.byte	0x50
 3386 000b 09000000 		.4byte	.LVL2-1
 3387 000f 0A000000 		.4byte	.LVL2
 3388 0013 0400     		.2byte	0x4
 3389 0015 F3       		.byte	0xf3
 3390 0016 01       		.uleb128 0x1
 3391 0017 50       		.byte	0x50
 3392 0018 9F       		.byte	0x9f
 3393 0019 0A000000 		.4byte	.LVL2
 3394 001d 0F000000 		.4byte	.LVL4-1
 3395 0021 0100     		.2byte	0x1
 3396 0023 50       		.byte	0x50
 3397 0024 0F000000 		.4byte	.LVL4-1
 3398 0028 18000000 		.4byte	.LFE506
 3399 002c 0400     		.2byte	0x4
 3400 002e F3       		.byte	0xf3
 3401 002f 01       		.uleb128 0x1
 3402 0030 50       		.byte	0x50
 3403 0031 9F       		.byte	0x9f
 3404 0032 00000000 		.4byte	0
 3405 0036 00000000 		.4byte	0
 3406              	.LLST1:
 3407 003a 00000000 		.4byte	.LVL0
 3408 003e 06000000 		.4byte	.LVL1
 3409 0042 0100     		.2byte	0x1
 3410 0044 51       		.byte	0x51
 3411 0045 06000000 		.4byte	.LVL1
 3412 0049 0A000000 		.4byte	.LVL2
ARM GAS  /var/folders/vd/czx34qs52cd_f3nb04sxmghc0000gn/T//ccYvLyIs.s 			page 61


 3413 004d 0400     		.2byte	0x4
 3414 004f F3       		.byte	0xf3
 3415 0050 01       		.uleb128 0x1
 3416 0051 51       		.byte	0x51
 3417 0052 9F       		.byte	0x9f
 3418 0053 0A000000 		.4byte	.LVL2
 3419 0057 0C000000 		.4byte	.LVL3
 3420 005b 0100     		.2byte	0x1
 3421 005d 51       		.byte	0x51
 3422 005e 0C000000 		.4byte	.LVL3
 3423 0062 18000000 		.4byte	.LFE506
 3424 0066 0400     		.2byte	0x4
 3425 0068 F3       		.byte	0xf3
 3426 0069 01       		.uleb128 0x1
 3427 006a 51       		.byte	0x51
 3428 006b 9F       		.byte	0x9f
 3429 006c 00000000 		.4byte	0
 3430 0070 00000000 		.4byte	0
 3431              	.LLST2:
 3432 0074 00000000 		.4byte	.LVL0
 3433 0078 09000000 		.4byte	.LVL2-1
 3434 007c 0100     		.2byte	0x1
 3435 007e 52       		.byte	0x52
 3436 007f 09000000 		.4byte	.LVL2-1
 3437 0083 0A000000 		.4byte	.LVL2
 3438 0087 0400     		.2byte	0x4
 3439 0089 F3       		.byte	0xf3
 3440 008a 01       		.uleb128 0x1
 3441 008b 52       		.byte	0x52
 3442 008c 9F       		.byte	0x9f
 3443 008d 0A000000 		.4byte	.LVL2
 3444 0091 0F000000 		.4byte	.LVL4-1
 3445 0095 0100     		.2byte	0x1
 3446 0097 52       		.byte	0x52
 3447 0098 0F000000 		.4byte	.LVL4-1
 3448 009c 18000000 		.4byte	.LFE506
 3449 00a0 0400     		.2byte	0x4
 3450 00a2 F3       		.byte	0xf3
 3451 00a3 01       		.uleb128 0x1
 3452 00a4 52       		.byte	0x52
 3453 00a5 9F       		.byte	0x9f
 3454 00a6 00000000 		.4byte	0
 3455 00aa 00000000 		.4byte	0
 3456              		.section	.debug_aranges,"",%progbits
 3457 0000 1C000000 		.4byte	0x1c
 3458 0004 0200     		.2byte	0x2
 3459 0006 00000000 		.4byte	.Ldebug_info0
 3460 000a 04       		.byte	0x4
 3461 000b 00       		.byte	0
 3462 000c 0000     		.2byte	0
 3463 000e 0000     		.2byte	0
 3464 0010 00000000 		.4byte	.LFB506
 3465 0014 18000000 		.4byte	.LFE506-.LFB506
 3466 0018 00000000 		.4byte	0
 3467 001c 00000000 		.4byte	0
 3468              		.section	.debug_ranges,"",%progbits
 3469              	.Ldebug_ranges0:
ARM GAS  /var/folders/vd/czx34qs52cd_f3nb04sxmghc0000gn/T//ccYvLyIs.s 			page 62


 3470 0000 00000000 		.4byte	.LFB506
 3471 0004 18000000 		.4byte	.LFE506
 3472 0008 00000000 		.4byte	0
 3473 000c 00000000 		.4byte	0
 3474              		.section	.debug_line,"",%progbits
 3475              	.Ldebug_line0:
 3476 0000 DC040000 		.section	.debug_str,"MS",%progbits,1
 3476      0200C604 
 3476      00000201 
 3476      FB0E0D00 
 3476      01010101 
 3477              	.LASF139:
 3478 0000 6F66665F 		.ascii	"off_ctx\000"
 3478      63747800 
 3479              	.LASF90:
 3480 0008 4D314152 		.ascii	"M1AR\000"
 3480      00
 3481              	.LASF218:
 3482 000d 73746D33 		.ascii	"stm32_dma_stream_t\000"
 3482      325F646D 
 3482      615F7374 
 3482      7265616D 
 3482      5F7400
 3483              	.LASF194:
 3484 0020 61646452 		.ascii	"addRef\000"
 3484      656600
 3485              	.LASF4:
 3486 0027 73697A65 		.ascii	"size_t\000"
 3486      5F7400
 3487              	.LASF138:
 3488 002e 6F66665F 		.ascii	"off_prio\000"
 3488      7072696F 
 3488      00
 3489              	.LASF163:
 3490 0037 656E646D 		.ascii	"endmem\000"
 3490      656D00
 3491              	.LASF37:
 3492 003e 77747365 		.ascii	"wtsemp\000"
 3492      6D7000
 3493              	.LASF82:
 3494 0045 73797374 		.ascii	"systime_t\000"
 3494      696D655F 
 3494      7400
 3495              	.LASF147:
 3496 004f 6F66665F 		.ascii	"off_preempt\000"
 3496      70726565 
 3496      6D707400 
 3497              	.LASF126:
 3498 005b 6F776E65 		.ascii	"owner\000"
 3498      7200
 3499              	.LASF25:
 3500 0061 74707269 		.ascii	"tprio_t\000"
 3500      6F5F7400 
 3501              	.LASF150:
 3502 0069 63685F64 		.ascii	"ch_debug\000"
 3502      65627567 
 3502      00
ARM GAS  /var/folders/vd/czx34qs52cd_f3nb04sxmghc0000gn/T//ccYvLyIs.s 			page 63


 3503              	.LASF103:
 3504 0072 31314572 		.ascii	"11ErrorStatus\000"
 3504      726F7253 
 3504      74617475 
 3504      7300
 3505              	.LASF170:
 3506 0080 70726F76 		.ascii	"provider\000"
 3506      69646572 
 3506      00
 3507              	.LASF18:
 3508 0089 696E7433 		.ascii	"int32_t\000"
 3508      325F7400 
 3509              	.LASF280:
 3510 0091 77726974 		.ascii	"writet\000"
 3510      657400
 3511              	.LASF66:
 3512 0098 76746675 		.ascii	"vtfunc_t\000"
 3512      6E635F74 
 3512      00
 3513              	.LASF72:
 3514 00a1 63685F76 		.ascii	"ch_virtual_timers_list\000"
 3514      69727475 
 3514      616C5F74 
 3514      696D6572 
 3514      735F6C69 
 3515              	.LASF199:
 3516 00b8 5F5A4E31 		.ascii	"_ZN10chibios_rt15ThreadReference7releaseEv\000"
 3516      30636869 
 3516      62696F73 
 3516      5F727431 
 3516      35546872 
 3517              	.LASF222:
 3518 00e3 77726974 		.ascii	"write\000"
 3518      6500
 3519              	.LASF172:
 3520 00e9 63685F64 		.ascii	"ch_dyn_element\000"
 3520      796E5F65 
 3520      6C656D65 
 3520      6E7400
 3521              	.LASF225:
 3522 00f8 42617365 		.ascii	"BaseSequentialStream\000"
 3522      53657175 
 3522      656E7469 
 3522      616C5374 
 3522      7265616D 
 3523              	.LASF255:
 3524 010d 70776D63 		.ascii	"pwmchnmsk_t\000"
 3524      686E6D73 
 3524      6B5F7400 
 3525              	.LASF247:
 3526 0119 636F6E66 		.ascii	"config\000"
 3526      696700
 3527              	.LASF46:
 3528 0120 73746174 		.ascii	"state\000"
 3528      6500
 3529              	.LASF278:
 3530 0126 70757474 		.ascii	"putt\000"
ARM GAS  /var/folders/vd/czx34qs52cd_f3nb04sxmghc0000gn/T//ccYvLyIs.s 			page 64


 3530      00
 3531              	.LASF260:
 3532 012b 50574D43 		.ascii	"PWMChannelConfig\000"
 3532      68616E6E 
 3532      656C436F 
 3532      6E666967 
 3532      00
 3533              	.LASF177:
 3534 013c 6F626A5F 		.ascii	"obj_list\000"
 3534      6C697374 
 3534      00
 3535              	.LASF118:
 3536 0145 444D4152 		.ascii	"DMAR\000"
 3536      00
 3537              	.LASF209:
 3538 014a 5F5A4E31 		.ascii	"_ZN10chibios_rt15ThreadReference14releaseMessageEl\000"
 3538      30636869 
 3538      62696F73 
 3538      5F727431 
 3538      35546872 
 3539              	.LASF288:
 3540 017d 7368656C 		.ascii	"shellCommands\000"
 3540      6C436F6D 
 3540      6D616E64 
 3540      7300
 3541              	.LASF263:
 3542 018b 64696572 		.ascii	"dier\000"
 3542      00
 3543              	.LASF242:
 3544 0190 50574D5F 		.ascii	"PWM_UNINIT\000"
 3544      554E494E 
 3544      495400
 3545              	.LASF141:
 3546 019b 6F66665F 		.ascii	"off_older\000"
 3546      6F6C6465 
 3546      7200
 3547              	.LASF41:
 3548 01a5 7072696F 		.ascii	"prio\000"
 3548      00
 3549              	.LASF33:
 3550 01aa 65786974 		.ascii	"exitcode\000"
 3550      636F6465 
 3550      00
 3551              	.LASF5:
 3552 01b3 5F5F7569 		.ascii	"__uint8_t\000"
 3552      6E74385F 
 3552      7400
 3553              	.LASF231:
 3554 01bd 715F746F 		.ascii	"q_top\000"
 3554      7000
 3555              	.LASF281:
 3556 01c3 72656164 		.ascii	"readt\000"
 3556      7400
 3557              	.LASF230:
 3558 01c9 715F6275 		.ascii	"q_buffer\000"
 3558      66666572 
 3558      00
ARM GAS  /var/folders/vd/czx34qs52cd_f3nb04sxmghc0000gn/T//ccYvLyIs.s 			page 65


 3559              	.LASF234:
 3560 01d2 715F6E6F 		.ascii	"q_notify\000"
 3560      74696679 
 3560      00
 3561              	.LASF188:
 3562 01db 5F5A4E31 		.ascii	"_ZN10chibios_rt15ThreadReferenceC4Ev\000"
 3562      30636869 
 3562      62696F73 
 3562      5F727431 
 3562      35546872 
 3563              	.LASF259:
 3564 0200 63616C6C 		.ascii	"callback\000"
 3564      6261636B 
 3564      00
 3565              	.LASF11:
 3566 0209 6C6F6E67 		.ascii	"long int\000"
 3566      20696E74 
 3566      00
 3567              	.LASF233:
 3568 0212 715F7264 		.ascii	"q_rdptr\000"
 3568      70747200 
 3569              	.LASF220:
 3570 021a 42617365 		.ascii	"BaseSequentialStreamVMT\000"
 3570      53657175 
 3570      656E7469 
 3570      616C5374 
 3570      7265616D 
 3571              	.LASF210:
 3572 0232 7369676E 		.ascii	"signalEvents\000"
 3572      616C4576 
 3572      656E7473 
 3572      00
 3573              	.LASF132:
 3574 023f 7A65726F 		.ascii	"zero\000"
 3574      00
 3575              	.LASF205:
 3576 0244 5F5A4E4B 		.ascii	"_ZNK10chibios_rt15ThreadReference16isPendingMessage"
 3576      31306368 
 3576      6962696F 
 3576      735F7274 
 3576      31355468 
 3577 0277 457600   		.ascii	"Ev\000"
 3578              	.LASF23:
 3579 027a 74737461 		.ascii	"tstate_t\000"
 3579      74655F74 
 3579      00
 3580              	.LASF51:
 3581 0283 6570656E 		.ascii	"epending\000"
 3581      64696E67 
 3581      00
 3582              	.LASF60:
 3583 028c 74687265 		.ascii	"threads_queue_t\000"
 3583      6164735F 
 3583      71756575 
 3583      655F7400 
 3584              	.LASF274:
 3585 029c 6F717565 		.ascii	"oqueue\000"
ARM GAS  /var/folders/vd/czx34qs52cd_f3nb04sxmghc0000gn/T//ccYvLyIs.s 			page 66


 3585      756500
 3586              	.LASF107:
 3587 02a3 72656761 		.ascii	"regarm_t\000"
 3587      726D5F74 
 3587      00
 3588              	.LASF292:
 3589 02ac 2E2E2F64 		.ascii	"../dev/debug/serial_shell_commands.cpp\000"
 3589      65762F64 
 3589      65627567 
 3589      2F736572 
 3589      69616C5F 
 3590              	.LASF98:
 3591 02d3 3130466C 		.ascii	"10FlagStatus\000"
 3591      61675374 
 3591      61747573 
 3591      00
 3592              	.LASF254:
 3593 02e0 70776D63 		.ascii	"pwmchannel_t\000"
 3593      68616E6E 
 3593      656C5F74 
 3593      00
 3594              	.LASF178:
 3595 02ed 6F626A5F 		.ascii	"obj_pool\000"
 3595      706F6F6C 
 3595      00
 3596              	.LASF275:
 3597 02f6 75736172 		.ascii	"usart\000"
 3597      7400
 3598              	.LASF201:
 3599 02fc 5F5A4E31 		.ascii	"_ZN10chibios_rt15ThreadReference4waitEv\000"
 3599      30636869 
 3599      62696F73 
 3599      5F727431 
 3599      35546872 
 3600              	.LASF202:
 3601 0324 73656E64 		.ascii	"sendMessage\000"
 3601      4D657373 
 3601      61676500 
 3602              	.LASF295:
 3603 0330 63686962 		.ascii	"chibios_rt\000"
 3603      696F735F 
 3603      727400
 3604              	.LASF164:
 3605 033b 6D656D63 		.ascii	"memcore_t\000"
 3605      6F72655F 
 3605      7400
 3606              	.LASF227:
 3607 0345 696F5F71 		.ascii	"io_queue\000"
 3607      75657565 
 3607      00
 3608              	.LASF3:
 3609 034e 7369676E 		.ascii	"signed char\000"
 3609      65642063 
 3609      68617200 
 3610              	.LASF39:
 3611 035a 65776D61 		.ascii	"ewmask\000"
 3611      736B00
ARM GAS  /var/folders/vd/czx34qs52cd_f3nb04sxmghc0000gn/T//ccYvLyIs.s 			page 67


 3612              	.LASF16:
 3613 0361 75696E74 		.ascii	"uint8_t\000"
 3613      385F7400 
 3614              	.LASF189:
 3615 0369 5F5A4E31 		.ascii	"_ZN10chibios_rt15ThreadReferenceC4EP9ch_thread\000"
 3615      30636869 
 3615      62696F73 
 3615      5F727431 
 3615      35546872 
 3616              	.LASF27:
 3617 0398 6576656E 		.ascii	"eventmask_t\000"
 3617      746D6173 
 3617      6B5F7400 
 3618              	.LASF35:
 3619 03a4 77747472 		.ascii	"wttrp\000"
 3619      7000
 3620              	.LASF256:
 3621 03aa 70776D63 		.ascii	"pwmcnt_t\000"
 3621      6E745F74 
 3621      00
 3622              	.LASF6:
 3623 03b3 756E7369 		.ascii	"unsigned char\000"
 3623      676E6564 
 3623      20636861 
 3623      7200
 3624              	.LASF235:
 3625 03c1 715F6C69 		.ascii	"q_link\000"
 3625      6E6B00
 3626              	.LASF73:
 3627 03c8 6C617374 		.ascii	"lasttime\000"
 3627      74696D65 
 3627      00
 3628              	.LASF76:
 3629 03d1 70616E69 		.ascii	"panic_msg\000"
 3629      635F6D73 
 3629      6700
 3630              	.LASF99:
 3631 03db 31354675 		.ascii	"15FunctionalState\000"
 3631      6E637469 
 3631      6F6E616C 
 3631      53746174 
 3631      6500
 3632              	.LASF187:
 3633 03ed 54687265 		.ascii	"ThreadReference\000"
 3633      61645265 
 3633      66657265 
 3633      6E636500 
 3634              	.LASF74:
 3635 03fd 73797374 		.ascii	"system_debug_t\000"
 3635      656D5F64 
 3635      65627567 
 3635      5F7400
 3636              	.LASF267:
 3637 040c 53445F55 		.ascii	"SD_UNINIT\000"
 3637      4E494E49 
 3637      5400
 3638              	.LASF167:
ARM GAS  /var/folders/vd/czx34qs52cd_f3nb04sxmghc0000gn/T//ccYvLyIs.s 			page 68


 3639 0416 31336D65 		.ascii	"13memory_pool_t\000"
 3639      6D6F7279 
 3639      5F706F6F 
 3639      6C5F7400 
 3640              	.LASF298:
 3641 0426 31307061 		.ascii	"10palevent_t\000"
 3641      6C657665 
 3641      6E745F74 
 3641      00
 3642              	.LASF114:
 3643 0433 43434D52 		.ascii	"CCMR1\000"
 3643      3100
 3644              	.LASF115:
 3645 0439 43434D52 		.ascii	"CCMR2\000"
 3645      3200
 3646              	.LASF119:
 3647 043f 43434D52 		.ascii	"CCMR3\000"
 3647      3300
 3648              	.LASF127:
 3649 0445 63686172 		.ascii	"char\000"
 3649      00
 3650              	.LASF215:
 3651 044a 69736869 		.ascii	"ishift\000"
 3651      667400
 3652              	.LASF180:
 3653 0451 73656D5F 		.ascii	"sem_list\000"
 3653      6C697374 
 3653      00
 3654              	.LASF8:
 3655 045a 5F5F7569 		.ascii	"__uint16_t\000"
 3655      6E743136 
 3655      5F7400
 3656              	.LASF34:
 3657 0465 77746F62 		.ascii	"wtobjp\000"
 3657      6A7000
 3658              	.LASF204:
 3659 046c 69735065 		.ascii	"isPendingMessage\000"
 3659      6E64696E 
 3659      674D6573 
 3659      73616765 
 3659      00
 3660              	.LASF239:
 3661 047d 70616C65 		.ascii	"palevent_t\000"
 3661      76656E74 
 3661      5F7400
 3662              	.LASF241:
 3663 0488 31307077 		.ascii	"10pwmstate_t\000"
 3663      6D737461 
 3663      74655F74 
 3663      00
 3664              	.LASF146:
 3665 0495 6F66665F 		.ascii	"off_refs\000"
 3665      72656673 
 3665      00
 3666              	.LASF47:
 3667 049e 666C6167 		.ascii	"flags\000"
 3667      7300
ARM GAS  /var/folders/vd/czx34qs52cd_f3nb04sxmghc0000gn/T//ccYvLyIs.s 			page 69


 3668              	.LASF294:
 3669 04a4 6465636C 		.ascii	"decltype(nullptr)\000"
 3669      74797065 
 3669      286E756C 
 3669      6C707472 
 3669      2900
 3670              	.LASF279:
 3671 04b6 67657474 		.ascii	"gett\000"
 3671      00
 3672              	.LASF108:
 3673 04bb 73746B61 		.ascii	"stkalign_t\000"
 3673      6C69676E 
 3673      5F7400
 3674              	.LASF95:
 3675 04c6 55534152 		.ascii	"USART_TypeDef\000"
 3675      545F5479 
 3675      70654465 
 3675      6600
 3676              	.LASF296:
 3677 04d4 7369676E 		.ascii	"signalEventsI\000"
 3677      616C4576 
 3677      656E7473 
 3677      4900
 3678              	.LASF54:
 3679 04e2 6D706F6F 		.ascii	"mpool\000"
 3679      6C00
 3680              	.LASF213:
 3681 04e8 73747265 		.ascii	"stream\000"
 3681      616D00
 3682              	.LASF152:
 3683 04ef 6576656E 		.ascii	"event_listener_t\000"
 3683      745F6C69 
 3683      7374656E 
 3683      65725F74 
 3683      00
 3684              	.LASF135:
 3685 0500 70747273 		.ascii	"ptrsize\000"
 3685      697A6500 
 3686              	.LASF120:
 3687 0508 43435852 		.ascii	"CCXR\000"
 3687      00
 3688              	.LASF148:
 3689 050d 6F66665F 		.ascii	"off_time\000"
 3689      74696D65 
 3689      00
 3690              	.LASF253:
 3691 0516 70776D6D 		.ascii	"pwmmode_t\000"
 3691      6F64655F 
 3691      7400
 3692              	.LASF29:
 3693 0520 636E745F 		.ascii	"cnt_t\000"
 3693      7400
 3694              	.LASF276:
 3695 0526 72786D61 		.ascii	"rxmask\000"
 3695      736B00
 3696              	.LASF300:
 3697 052d 63687072 		.ascii	"chprintf\000"
ARM GAS  /var/folders/vd/czx34qs52cd_f3nb04sxmghc0000gn/T//ccYvLyIs.s 			page 70


 3697      696E7466 
 3697      00
 3698              	.LASF173:
 3699 0536 64796E5F 		.ascii	"dyn_element_t\000"
 3699      656C656D 
 3699      656E745F 
 3699      7400
 3700              	.LASF38:
 3701 0544 77746D74 		.ascii	"wtmtxp\000"
 3701      787000
 3702              	.LASF64:
 3703 054b 63685F72 		.ascii	"ch_ready_list\000"
 3703      65616479 
 3703      5F6C6973 
 3703      7400
 3704              	.LASF181:
 3705 0559 73656D5F 		.ascii	"sem_pool\000"
 3705      706F6F6C 
 3705      00
 3706              	.LASF162:
 3707 0562 6E657874 		.ascii	"nextmem\000"
 3707      6D656D00 
 3708              	.LASF206:
 3709 056a 6765744D 		.ascii	"getMessage\000"
 3709      65737361 
 3709      676500
 3710              	.LASF229:
 3711 0575 715F636F 		.ascii	"q_counter\000"
 3711      756E7465 
 3711      7200
 3712              	.LASF249:
 3713 057f 656E6162 		.ascii	"enabled\000"
 3713      6C656400 
 3714              	.LASF14:
 3715 0587 5F5F7569 		.ascii	"__uint64_t\000"
 3715      6E743634 
 3715      5F7400
 3716              	.LASF144:
 3717 0592 6F66665F 		.ascii	"off_state\000"
 3717      73746174 
 3717      6500
 3718              	.LASF13:
 3719 059c 6C6F6E67 		.ascii	"long unsigned int\000"
 3719      20756E73 
 3719      69676E65 
 3719      6420696E 
 3719      7400
 3720              	.LASF137:
 3721 05ae 74687265 		.ascii	"threadsize\000"
 3721      61647369 
 3721      7A6500
 3722              	.LASF113:
 3723 05b9 44494552 		.ascii	"DIER\000"
 3723      00
 3724              	.LASF85:
 3725 05be 53797374 		.ascii	"SystemCoreClock\000"
 3725      656D436F 
ARM GAS  /var/folders/vd/czx34qs52cd_f3nb04sxmghc0000gn/T//ccYvLyIs.s 			page 71


 3725      7265436C 
 3725      6F636B00 
 3726              	.LASF124:
 3727 05ce 63685F73 		.ascii	"ch_semaphore\000"
 3727      656D6170 
 3727      686F7265 
 3727      00
 3728              	.LASF57:
 3729 05db 63685F74 		.ascii	"ch_thread\000"
 3729      68726561 
 3729      6400
 3730              	.LASF211:
 3731 05e5 5F5A4E4B 		.ascii	"_ZNK10chibios_rt15ThreadReference12signalEventsEm\000"
 3731      31306368 
 3731      6962696F 
 3731      735F7274 
 3731      31355468 
 3732              	.LASF71:
 3733 0617 76697274 		.ascii	"virtual_timers_list_t\000"
 3733      75616C5F 
 3733      74696D65 
 3733      72735F6C 
 3733      6973745F 
 3734              	.LASF186:
 3735 062d 74687265 		.ascii	"thread_ref\000"
 3735      61645F72 
 3735      656600
 3736              	.LASF128:
 3737 0638 63685F69 		.ascii	"ch_idle_thread_wa\000"
 3737      646C655F 
 3737      74687265 
 3737      61645F77 
 3737      6100
 3738              	.LASF219:
 3739 064a 5F73746D 		.ascii	"_stm32_dma_streams\000"
 3739      33325F64 
 3739      6D615F73 
 3739      74726561 
 3739      6D7300
 3740              	.LASF183:
 3741 065d 6669666F 		.ascii	"fifo_list\000"
 3741      5F6C6973 
 3741      7400
 3742              	.LASF67:
 3743 0667 76697274 		.ascii	"virtual_timer_t\000"
 3743      75616C5F 
 3743      74696D65 
 3743      725F7400 
 3744              	.LASF63:
 3745 0677 72656164 		.ascii	"ready_list_t\000"
 3745      795F6C69 
 3745      73745F74 
 3745      00
 3746              	.LASF43:
 3747 0684 6F6C6465 		.ascii	"older\000"
 3747      7200
 3748              	.LASF277:
ARM GAS  /var/folders/vd/czx34qs52cd_f3nb04sxmghc0000gn/T//ccYvLyIs.s 			page 72


 3749 068a 53657269 		.ascii	"SerialDriverVMT\000"
 3749      616C4472 
 3749      69766572 
 3749      564D5400 
 3750              	.LASF53:
 3751 069a 7265616C 		.ascii	"realprio\000"
 3751      7072696F 
 3751      00
 3752              	.LASF121:
 3753 06a3 73746D33 		.ascii	"stm32_tim_t\000"
 3753      325F7469 
 3753      6D5F7400 
 3754              	.LASF30:
 3755 06af 75636E74 		.ascii	"ucnt_t\000"
 3755      5F7400
 3756              	.LASF251:
 3757 06b6 636C6F63 		.ascii	"clock\000"
 3757      6B00
 3758              	.LASF104:
 3759 06bc 4552524F 		.ascii	"ERROR\000"
 3759      5200
 3760              	.LASF143:
 3761 06c2 6F66665F 		.ascii	"off_stklimit\000"
 3761      73746B6C 
 3761      696D6974 
 3761      00
 3762              	.LASF289:
 3763 06cf 61726763 		.ascii	"argc\000"
 3763      00
 3764              	.LASF166:
 3765 06d4 706F6F6C 		.ascii	"pool_header\000"
 3765      5F686561 
 3765      64657200 
 3766              	.LASF58:
 3767 06e0 63685F74 		.ascii	"ch_threads_list\000"
 3767      68726561 
 3767      64735F6C 
 3767      69737400 
 3768              	.LASF290:
 3769 06f0 61726776 		.ascii	"argv\000"
 3769      00
 3770              	.LASF12:
 3771 06f5 5F5F7569 		.ascii	"__uint32_t\000"
 3771      6E743332 
 3771      5F7400
 3772              	.LASF52:
 3773 0700 6D74786C 		.ascii	"mtxlist\000"
 3773      69737400 
 3774              	.LASF266:
 3775 0708 39736473 		.ascii	"9sdstate_t\000"
 3775      74617465 
 3775      5F7400
 3776              	.LASF1:
 3777 0713 6C6F6E67 		.ascii	"long long int\000"
 3777      206C6F6E 
 3777      6720696E 
 3777      7400
ARM GAS  /var/folders/vd/czx34qs52cd_f3nb04sxmghc0000gn/T//ccYvLyIs.s 			page 73


 3778              	.LASF191:
 3779 0721 5F5A4E4B 		.ascii	"_ZNK10chibios_rt15ThreadReference6isNullEv\000"
 3779      31306368 
 3779      6962696F 
 3779      735F7274 
 3779      31355468 
 3780              	.LASF83:
 3781 074c 73797369 		.ascii	"sysinterval_t\000"
 3781      6E746572 
 3781      76616C5F 
 3781      7400
 3782              	.LASF208:
 3783 075a 72656C65 		.ascii	"releaseMessage\000"
 3783      6173654D 
 3783      65737361 
 3783      676500
 3784              	.LASF195:
 3785 0769 5F5A4E4B 		.ascii	"_ZNK10chibios_rt15ThreadReference6addRefEv\000"
 3785      31306368 
 3785      6962696F 
 3785      735F7274 
 3785      31355468 
 3786              	.LASF176:
 3787 0794 63685F6F 		.ascii	"ch_objects_factory\000"
 3787      626A6563 
 3787      74735F66 
 3787      6163746F 
 3787      727900
 3788              	.LASF92:
 3789 07a7 3138444D 		.ascii	"18DMA_Stream_TypeDef\000"
 3789      415F5374 
 3789      7265616D 
 3789      5F547970 
 3789      65446566 
 3790              	.LASF94:
 3791 07bc 47545052 		.ascii	"GTPR\000"
 3791      00
 3792              	.LASF299:
 3793 07c1 636D645F 		.ascii	"cmd_hello\000"
 3793      68656C6C 
 3793      6F00
 3794              	.LASF158:
 3795 07cb 6576656E 		.ascii	"event_source_t\000"
 3795      745F736F 
 3795      75726365 
 3795      5F7400
 3796              	.LASF169:
 3797 07da 616C6967 		.ascii	"align\000"
 3797      6E00
 3798              	.LASF297:
 3799 07e0 5F5A4E4B 		.ascii	"_ZNK10chibios_rt15ThreadReference13signalEventsIEm\000"
 3799      31306368 
 3799      6962696F 
 3799      735F7274 
 3799      31355468 
 3800              	.LASF84:
 3801 0813 49544D5F 		.ascii	"ITM_RxBuffer\000"
ARM GAS  /var/folders/vd/czx34qs52cd_f3nb04sxmghc0000gn/T//ccYvLyIs.s 			page 74


 3801      52784275 
 3801      66666572 
 3801      00
 3802              	.LASF285:
 3803 0820 73635F66 		.ascii	"sc_function\000"
 3803      756E6374 
 3803      696F6E00 
 3804              	.LASF262:
 3805 082c 66726571 		.ascii	"frequency\000"
 3805      75656E63 
 3805      7900
 3806              	.LASF200:
 3807 0836 77616974 		.ascii	"wait\000"
 3807      00
 3808              	.LASF236:
 3809 083b 716E6F74 		.ascii	"qnotify_t\000"
 3809      6966795F 
 3809      7400
 3810              	.LASF272:
 3811 0845 6576656E 		.ascii	"event\000"
 3811      7400
 3812              	.LASF223:
 3813 084b 72656164 		.ascii	"read\000"
 3813      00
 3814              	.LASF198:
 3815 0850 5F5A4E4B 		.ascii	"_ZNK10chibios_rt15ThreadReference16requestTerminate"
 3815      31306368 
 3815      6962696F 
 3815      735F7274 
 3815      31355468 
 3816 0883 457600   		.ascii	"Ev\000"
 3817              	.LASF140:
 3818 0886 6F66665F 		.ascii	"off_newer\000"
 3818      6E657765 
 3818      7200
 3819              	.LASF216:
 3820 0890 73656C66 		.ascii	"selfindex\000"
 3820      696E6465 
 3820      7800
 3821              	.LASF0:
 3822 089a 756E7369 		.ascii	"unsigned int\000"
 3822      676E6564 
 3822      20696E74 
 3822      00
 3823              	.LASF21:
 3824 08a7 7274636E 		.ascii	"rtcnt_t\000"
 3824      745F7400 
 3825              	.LASF250:
 3826 08af 6368616E 		.ascii	"channels\000"
 3826      6E656C73 
 3826      00
 3827              	.LASF261:
 3828 08b8 3950574D 		.ascii	"9PWMConfig\000"
 3828      436F6E66 
 3828      696700
 3829              	.LASF252:
 3830 08c3 70776D63 		.ascii	"pwmcallback_t\000"
ARM GAS  /var/folders/vd/czx34qs52cd_f3nb04sxmghc0000gn/T//ccYvLyIs.s 			page 75


 3830      616C6C62 
 3830      61636B5F 
 3830      7400
 3831              	.LASF65:
 3832 08d1 63757272 		.ascii	"current\000"
 3832      656E7400 
 3833              	.LASF246:
 3834 08d9 50574D44 		.ascii	"PWMDriver\000"
 3834      72697665 
 3834      7200
 3835              	.LASF122:
 3836 08e3 6F666673 		.ascii	"offset\000"
 3836      657400
 3837              	.LASF207:
 3838 08ea 5F5A4E4B 		.ascii	"_ZNK10chibios_rt15ThreadReference10getMessageEv\000"
 3838      31306368 
 3838      6962696F 
 3838      735F7274 
 3838      31355468 
 3839              	.LASF91:
 3840 091a 444D415F 		.ascii	"DMA_Stream_TypeDef\000"
 3840      53747265 
 3840      616D5F54 
 3840      79706544 
 3840      656600
 3841              	.LASF159:
 3842 092d 626F6F6C 		.ascii	"bool\000"
 3842      00
 3843              	.LASF160:
 3844 0932 6D656D67 		.ascii	"memgetfunc_t\000"
 3844      65746675 
 3844      6E635F74 
 3844      00
 3845              	.LASF224:
 3846 093f 32304261 		.ascii	"20BaseSequentialStream\000"
 3846      73655365 
 3846      7175656E 
 3846      7469616C 
 3846      53747265 
 3847              	.LASF240:
 3848 0956 5F70616C 		.ascii	"_pal_events\000"
 3848      5F657665 
 3848      6E747300 
 3849              	.LASF100:
 3850 0962 44495341 		.ascii	"DISABLE\000"
 3850      424C4500 
 3851              	.LASF31:
 3852 096a 74687265 		.ascii	"thread_t\000"
 3852      61645F74 
 3852      00
 3853              	.LASF2:
 3854 0973 6C6F6E67 		.ascii	"long double\000"
 3854      20646F75 
 3854      626C6500 
 3855              	.LASF156:
 3856 097f 77666C61 		.ascii	"wflags\000"
 3856      677300
ARM GAS  /var/folders/vd/czx34qs52cd_f3nb04sxmghc0000gn/T//ccYvLyIs.s 			page 76


 3857              	.LASF55:
 3858 0986 74687265 		.ascii	"thread_reference_t\000"
 3858      61645F72 
 3858      65666572 
 3858      656E6365 
 3858      5F7400
 3859              	.LASF130:
 3860 0999 39636864 		.ascii	"9chdebug_t\000"
 3860      65627567 
 3860      5F7400
 3861              	.LASF36:
 3862 09a4 73656E74 		.ascii	"sentmsg\000"
 3862      6D736700 
 3863              	.LASF110:
 3864 09ac 706F7274 		.ascii	"port_intctx\000"
 3864      5F696E74 
 3864      63747800 
 3865              	.LASF184:
 3866 09b8 6F626A65 		.ascii	"objects_factory_t\000"
 3866      6374735F 
 3866      66616374 
 3866      6F72795F 
 3866      7400
 3867              	.LASF287:
 3868 09ca 7368656C 		.ascii	"shell_terminated\000"
 3868      6C5F7465 
 3868      726D696E 
 3868      61746564 
 3868      00
 3869              	.LASF179:
 3870 09db 6275665F 		.ascii	"buf_list\000"
 3870      6C697374 
 3870      00
 3871              	.LASF106:
 3872 09e4 4572726F 		.ascii	"ErrorStatus\000"
 3872      72537461 
 3872      74757300 
 3873              	.LASF212:
 3874 09f0 31387374 		.ascii	"18stm32_dma_stream_t\000"
 3874      6D33325F 
 3874      646D615F 
 3874      73747265 
 3874      616D5F74 
 3875              	.LASF86:
 3876 0a05 41484250 		.ascii	"AHBPrescTable\000"
 3876      72657363 
 3876      5461626C 
 3876      6500
 3877              	.LASF68:
 3878 0a13 63685F76 		.ascii	"ch_virtual_timer\000"
 3878      69727475 
 3878      616C5F74 
 3878      696D6572 
 3878      00
 3879              	.LASF129:
 3880 0a24 3136746D 		.ascii	"16tm_calibration_t\000"
 3880      5F63616C 
ARM GAS  /var/folders/vd/czx34qs52cd_f3nb04sxmghc0000gn/T//ccYvLyIs.s 			page 77


 3880      69627261 
 3880      74696F6E 
 3880      5F7400
 3881              	.LASF102:
 3882 0a37 46756E63 		.ascii	"FunctionalState\000"
 3882      74696F6E 
 3882      616C5374 
 3882      61746500 
 3883              	.LASF133:
 3884 0a47 73697A65 		.ascii	"size\000"
 3884      00
 3885              	.LASF15:
 3886 0a4c 6C6F6E67 		.ascii	"long long unsigned int\000"
 3886      206C6F6E 
 3886      6720756E 
 3886      7369676E 
 3886      65642069 
 3887              	.LASF243:
 3888 0a63 50574D5F 		.ascii	"PWM_STOP\000"
 3888      53544F50 
 3888      00
 3889              	.LASF17:
 3890 0a6c 75696E74 		.ascii	"uint16_t\000"
 3890      31365F74 
 3890      00
 3891              	.LASF142:
 3892 0a75 6F66665F 		.ascii	"off_name\000"
 3892      6E616D65 
 3892      00
 3893              	.LASF26:
 3894 0a7e 6D73675F 		.ascii	"msg_t\000"
 3894      7400
 3895              	.LASF61:
 3896 0a84 63685F74 		.ascii	"ch_threads_queue\000"
 3896      68726561 
 3896      64735F71 
 3896      75657565 
 3896      00
 3897              	.LASF203:
 3898 0a95 5F5A4E4B 		.ascii	"_ZNK10chibios_rt15ThreadReference11sendMessageEl\000"
 3898      31306368 
 3898      6962696F 
 3898      735F7274 
 3898      31355468 
 3899              	.LASF28:
 3900 0ac6 6576656E 		.ascii	"eventflags_t\000"
 3900      74666C61 
 3900      67735F74 
 3900      00
 3901              	.LASF116:
 3902 0ad3 43434552 		.ascii	"CCER\000"
 3902      00
 3903              	.LASF69:
 3904 0ad8 64656C74 		.ascii	"delta\000"
 3904      6100
 3905              	.LASF48:
 3906 0ade 72656673 		.ascii	"refs\000"
ARM GAS  /var/folders/vd/czx34qs52cd_f3nb04sxmghc0000gn/T//ccYvLyIs.s 			page 78


 3906      00
 3907              	.LASF105:
 3908 0ae3 53554343 		.ascii	"SUCCESS\000"
 3908      45535300 
 3909              	.LASF40:
 3910 0aeb 71756575 		.ascii	"queue\000"
 3910      6500
 3911              	.LASF217:
 3912 0af1 76656374 		.ascii	"vector\000"
 3912      6F7200
 3913              	.LASF185:
 3914 0af8 63685F66 		.ascii	"ch_factory\000"
 3914      6163746F 
 3914      727900
 3915              	.LASF182:
 3916 0b03 6D62785F 		.ascii	"mbx_list\000"
 3916      6C697374 
 3916      00
 3917              	.LASF81:
 3918 0b0c 6D61696E 		.ascii	"mainthread\000"
 3918      74687265 
 3918      616400
 3919              	.LASF112:
 3920 0b17 534D4352 		.ascii	"SMCR\000"
 3920      00
 3921              	.LASF248:
 3922 0b1c 70657269 		.ascii	"period\000"
 3922      6F6400
 3923              	.LASF134:
 3924 0b23 76657273 		.ascii	"version\000"
 3924      696F6E00 
 3925              	.LASF96:
 3926 0b2b 52455345 		.ascii	"RESET\000"
 3926      5400
 3927              	.LASF193:
 3928 0b31 5F5A4E31 		.ascii	"_ZN10chibios_rt15ThreadReference8getInnerEv\000"
 3928      30636869 
 3928      62696F73 
 3928      5F727431 
 3928      35546872 
 3929              	.LASF190:
 3930 0b5d 69734E75 		.ascii	"isNull\000"
 3930      6C6C00
 3931              	.LASF45:
 3932 0b64 77616261 		.ascii	"wabase\000"
 3932      736500
 3933              	.LASF271:
 3934 0b6b 53657269 		.ascii	"SerialDriver\000"
 3934      616C4472 
 3934      69766572 
 3934      00
 3935              	.LASF171:
 3936 0b78 6D656D6F 		.ascii	"memory_pool_t\000"
 3936      72795F70 
 3936      6F6F6C5F 
 3936      7400
 3937              	.LASF228:
ARM GAS  /var/folders/vd/czx34qs52cd_f3nb04sxmghc0000gn/T//ccYvLyIs.s 			page 79


 3938 0b86 715F7761 		.ascii	"q_waiting\000"
 3938      6974696E 
 3938      6700
 3939              	.LASF97:
 3940 0b90 466C6167 		.ascii	"FlagStatus\000"
 3940      53746174 
 3940      757300
 3941              	.LASF79:
 3942 0b9b 726C6973 		.ascii	"rlist\000"
 3942      7400
 3943              	.LASF284:
 3944 0ba1 73635F6E 		.ascii	"sc_name\000"
 3944      616D6500 
 3945              	.LASF22:
 3946 0ba9 746D6F64 		.ascii	"tmode_t\000"
 3946      655F7400 
 3947              	.LASF270:
 3948 0bb1 73647374 		.ascii	"sdstate_t\000"
 3948      6174655F 
 3948      7400
 3949              	.LASF269:
 3950 0bbb 53445F52 		.ascii	"SD_READY\000"
 3950      45414459 
 3950      00
 3951              	.LASF123:
 3952 0bc4 746D5F63 		.ascii	"tm_calibration_t\000"
 3952      616C6962 
 3952      72617469 
 3952      6F6E5F74 
 3952      00
 3953              	.LASF89:
 3954 0bd5 4D304152 		.ascii	"M0AR\000"
 3954      00
 3955              	.LASF44:
 3956 0bda 6E616D65 		.ascii	"name\000"
 3956      00
 3957              	.LASF154:
 3958 0bdf 6C697374 		.ascii	"listener\000"
 3958      656E6572 
 3958      00
 3959              	.LASF93:
 3960 0be8 31335553 		.ascii	"13USART_TypeDef\000"
 3960      4152545F 
 3960      54797065 
 3960      44656600 
 3961              	.LASF87:
 3962 0bf8 41504250 		.ascii	"APBPrescTable\000"
 3962      72657363 
 3962      5461626C 
 3962      6500
 3963              	.LASF244:
 3964 0c06 50574D5F 		.ascii	"PWM_READY\000"
 3964      52454144 
 3964      5900
 3965              	.LASF196:
 3966 0c10 72657175 		.ascii	"requestTerminate\000"
 3966      65737454 
ARM GAS  /var/folders/vd/czx34qs52cd_f3nb04sxmghc0000gn/T//ccYvLyIs.s 			page 80


 3966      65726D69 
 3966      6E617465 
 3966      00
 3967              	.LASF111:
 3968 0c21 31317374 		.ascii	"11stm32_tim_t\000"
 3968      6D33325F 
 3968      74696D5F 
 3968      7400
 3969              	.LASF7:
 3970 0c2f 73686F72 		.ascii	"short int\000"
 3970      7420696E 
 3970      7400
 3971              	.LASF157:
 3972 0c39 6576656E 		.ascii	"event_source\000"
 3972      745F736F 
 3972      75726365 
 3972      00
 3973              	.LASF20:
 3974 0c46 75696E74 		.ascii	"uint64_t\000"
 3974      36345F74 
 3974      00
 3975              	.LASF258:
 3976 0c4f 6D6F6465 		.ascii	"mode\000"
 3976      00
 3977              	.LASF70:
 3978 0c54 66756E63 		.ascii	"func\000"
 3978      00
 3979              	.LASF125:
 3980 0c59 63685F6D 		.ascii	"ch_mutex\000"
 3980      75746578 
 3980      00
 3981              	.LASF50:
 3982 0c62 6D736771 		.ascii	"msgqueue\000"
 3982      75657565 
 3982      00
 3983              	.LASF273:
 3984 0c6b 69717565 		.ascii	"iqueue\000"
 3984      756500
 3985              	.LASF286:
 3986 0c72 5368656C 		.ascii	"ShellCommand\000"
 3986      6C436F6D 
 3986      6D616E64 
 3986      00
 3987              	.LASF75:
 3988 0c7f 63685F73 		.ascii	"ch_system_debug\000"
 3988      79737465 
 3988      6D5F6465 
 3988      62756700 
 3989              	.LASF101:
 3990 0c8f 454E4142 		.ascii	"ENABLE\000"
 3990      4C4500
 3991              	.LASF175:
 3992 0c96 64796E5F 		.ascii	"dyn_list_t\000"
 3992      6C697374 
 3992      5F7400
 3993              	.LASF226:
 3994 0ca1 696F5F71 		.ascii	"io_queue_t\000"
ARM GAS  /var/folders/vd/czx34qs52cd_f3nb04sxmghc0000gn/T//ccYvLyIs.s 			page 81


 3994      75657565 
 3994      5F7400
 3995              	.LASF168:
 3996 0cac 6F626A65 		.ascii	"object_size\000"
 3996      63745F73 
 3996      697A6500 
 3997              	.LASF80:
 3998 0cb8 76746C69 		.ascii	"vtlist\000"
 3998      737400
 3999              	.LASF283:
 4000 0cbf 31325368 		.ascii	"12ShellCommand\000"
 4000      656C6C43 
 4000      6F6D6D61 
 4000      6E6400
 4001              	.LASF49:
 4002 0cce 77616974 		.ascii	"waiting\000"
 4002      696E6700 
 4003              	.LASF264:
 4004 0cd6 50574D43 		.ascii	"PWMConfig\000"
 4004      6F6E6669 
 4004      6700
 4005              	.LASF151:
 4006 0ce0 6D757465 		.ascii	"mutex_t\000"
 4006      785F7400 
 4007              	.LASF24:
 4008 0ce8 74726566 		.ascii	"trefs_t\000"
 4008      735F7400 
 4009              	.LASF109:
 4010 0cf0 706F7274 		.ascii	"port_context\000"
 4010      5F636F6E 
 4010      74657874 
 4010      00
 4011              	.LASF56:
 4012 0cfd 74687265 		.ascii	"threads_list_t\000"
 4012      6164735F 
 4012      6C697374 
 4012      5F7400
 4013              	.LASF282:
 4014 0d0c 7368656C 		.ascii	"shellcmd_t\000"
 4014      6C636D64 
 4014      5F7400
 4015              	.LASF265:
 4016 0d17 50574D44 		.ascii	"PWMD4\000"
 4016      3400
 4017              	.LASF78:
 4018 0d1d 63685F73 		.ascii	"ch_system\000"
 4018      79737465 
 4018      6D00
 4019              	.LASF245:
 4020 0d27 70776D73 		.ascii	"pwmstate_t\000"
 4020      74617465 
 4020      5F7400
 4021              	.LASF42:
 4022 0d32 6E657765 		.ascii	"newer\000"
 4022      7200
 4023              	.LASF117:
 4024 0d38 42445452 		.ascii	"BDTR\000"
ARM GAS  /var/folders/vd/czx34qs52cd_f3nb04sxmghc0000gn/T//ccYvLyIs.s 			page 82


 4024      00
 4025              	.LASF19:
 4026 0d3d 75696E74 		.ascii	"uint32_t\000"
 4026      33325F74 
 4026      00
 4027              	.LASF293:
 4028 0d46 2F557365 		.ascii	"/Users/lantian/Projects/stm32f407vet6/dev\000"
 4028      72732F6C 
 4028      616E7469 
 4028      616E2F50 
 4028      726F6A65 
 4029              	.LASF221:
 4030 0d70 696E7374 		.ascii	"instance_offset\000"
 4030      616E6365 
 4030      5F6F6666 
 4030      73657400 
 4031              	.LASF237:
 4032 0d80 696E7075 		.ascii	"input_queue_t\000"
 4032      745F7175 
 4032      6575655F 
 4032      7400
 4033              	.LASF197:
 4034 0d8e 72656C65 		.ascii	"release\000"
 4034      61736500 
 4035              	.LASF161:
 4036 0d96 396D656D 		.ascii	"9memcore_t\000"
 4036      636F7265 
 4036      5F7400
 4037              	.LASF153:
 4038 0da1 6576656E 		.ascii	"event_listener\000"
 4038      745F6C69 
 4038      7374656E 
 4038      657200
 4039              	.LASF192:
 4040 0db0 67657449 		.ascii	"getInner\000"
 4040      6E6E6572 
 4040      00
 4041              	.LASF32:
 4042 0db9 7264796D 		.ascii	"rdymsg\000"
 4042      736700
 4043              	.LASF232:
 4044 0dc0 715F7772 		.ascii	"q_wrptr\000"
 4044      70747200 
 4045              	.LASF9:
 4046 0dc8 73686F72 		.ascii	"short unsigned int\000"
 4046      7420756E 
 4046      7369676E 
 4046      65642069 
 4046      6E7400
 4047              	.LASF77:
 4048 0ddb 63685F73 		.ascii	"ch_system_t\000"
 4048      79737465 
 4048      6D5F7400 
 4049              	.LASF149:
 4050 0de7 63686465 		.ascii	"chdebug_t\000"
 4050      6275675F 
 4050      7400
ARM GAS  /var/folders/vd/czx34qs52cd_f3nb04sxmghc0000gn/T//ccYvLyIs.s 			page 83


 4051              	.LASF238:
 4052 0df1 6F757470 		.ascii	"output_queue_t\000"
 4052      75745F71 
 4052      75657565 
 4052      5F7400
 4053              	.LASF136:
 4054 0e00 74696D65 		.ascii	"timesize\000"
 4054      73697A65 
 4054      00
 4055              	.LASF10:
 4056 0e09 5F5F696E 		.ascii	"__int32_t\000"
 4056      7433325F 
 4056      7400
 4057              	.LASF268:
 4058 0e13 53445F53 		.ascii	"SD_STOP\000"
 4058      544F5000 
 4059              	.LASF88:
 4060 0e1b 4E445452 		.ascii	"NDTR\000"
 4060      00
 4061              	.LASF214:
 4062 0e20 69666372 		.ascii	"ifcr\000"
 4062      00
 4063              	.LASF165:
 4064 0e25 63685F6D 		.ascii	"ch_memcore\000"
 4064      656D636F 
 4064      726500
 4065              	.LASF145:
 4066 0e30 6F66665F 		.ascii	"off_flags\000"
 4066      666C6167 
 4066      7300
 4067              	.LASF257:
 4068 0e3a 31365057 		.ascii	"16PWMChannelConfig\000"
 4068      4D436861 
 4068      6E6E656C 
 4068      436F6E66 
 4068      696700
 4069              	.LASF155:
 4070 0e4d 6576656E 		.ascii	"events\000"
 4070      747300
 4071              	.LASF59:
 4072 0e54 6E657874 		.ascii	"next\000"
 4072      00
 4073              	.LASF291:
 4074 0e59 474E5520 		.ascii	"GNU C++11 7.2.1 20170904 (release) [ARM/embedded-7-"
 4074      432B2B31 
 4074      3120372E 
 4074      322E3120 
 4074      32303137 
 4075 0e8c 6272616E 		.ascii	"branch revision 255204] -mcpu=cortex-m4 -mno-thumb-"
 4075      63682072 
 4075      65766973 
 4075      696F6E20 
 4075      32353532 
 4076 0ebf 696E7465 		.ascii	"interwork -mthumb -ggdb -O2 -std=gnu++11 -fomit-fra"
 4076      72776F72 
 4076      6B202D6D 
 4076      7468756D 
ARM GAS  /var/folders/vd/czx34qs52cd_f3nb04sxmghc0000gn/T//ccYvLyIs.s 			page 84


 4076      62202D67 
 4077 0ef2 6D652D70 		.ascii	"me-pointer -falign-functions=16 -ffunction-sections"
 4077      6F696E74 
 4077      6572202D 
 4077      66616C69 
 4077      676E2D66 
 4078 0f25 202D6664 		.ascii	" -fdata-sections -fno-common -fno-exceptions -fno-r"
 4078      6174612D 
 4078      73656374 
 4078      696F6E73 
 4078      202D666E 
 4079 0f58 74746900 		.ascii	"tti\000"
 4080              	.LASF62:
 4081 0f5c 70726576 		.ascii	"prev\000"
 4081      00
 4082              	.LASF174:
 4083 0f61 63685F64 		.ascii	"ch_dyn_list\000"
 4083      796E5F6C 
 4083      69737400 
 4084              	.LASF131:
 4085 0f6d 6964656E 		.ascii	"identifier\000"
 4085      74696669 
 4085      657200
 4086              		.ident	"GCC: (GNU Tools for Arm Embedded Processors 7-2017-q4-major) 7.2.1 20170904 (release) [ARM
ARM GAS  /var/folders/vd/czx34qs52cd_f3nb04sxmghc0000gn/T//ccYvLyIs.s 			page 85


DEFINED SYMBOLS
                            *ABS*:0000000000000000 serial_shell_commands.cpp
/var/folders/vd/czx34qs52cd_f3nb04sxmghc0000gn/T//ccYvLyIs.s:16     .text._ZL9cmd_helloP20BaseSequentialStreamiPPc:0000000000000000 $t
/var/folders/vd/czx34qs52cd_f3nb04sxmghc0000gn/T//ccYvLyIs.s:23     .text._ZL9cmd_helloP20BaseSequentialStreamiPPc:0000000000000000 _ZL9cmd_helloP20BaseSequentialStreamiPPc
/var/folders/vd/czx34qs52cd_f3nb04sxmghc0000gn/T//ccYvLyIs.s:49     .text._ZL9cmd_helloP20BaseSequentialStreamiPPc:0000000000000010 $d
/var/folders/vd/czx34qs52cd_f3nb04sxmghc0000gn/T//ccYvLyIs.s:66     .rodata.shellCommands:0000000000000000 shellCommands
/var/folders/vd/czx34qs52cd_f3nb04sxmghc0000gn/T//ccYvLyIs.s:56     .rodata._ZL9cmd_helloP20BaseSequentialStreamiPPc.str1.4:0000000000000000 $d
/var/folders/vd/czx34qs52cd_f3nb04sxmghc0000gn/T//ccYvLyIs.s:63     .rodata.shellCommands:0000000000000000 $d
/var/folders/vd/czx34qs52cd_f3nb04sxmghc0000gn/T//ccYvLyIs.s:72     .rodata.str1.4:0000000000000000 $d

UNDEFINED SYMBOLS
chprintf
