ARM GAS  /var/folders/vd/czx34qs52cd_f3nb04sxmghc0000gn/T//ccFExuyt.s 			page 1


   1              		.cpu cortex-m4
   2              		.eabi_attribute 20, 1
   3              		.eabi_attribute 21, 1
   4              		.eabi_attribute 23, 3
   5              		.eabi_attribute 24, 1
   6              		.eabi_attribute 25, 1
   7              		.eabi_attribute 26, 1
   8              		.eabi_attribute 30, 2
   9              		.eabi_attribute 34, 1
  10              		.eabi_attribute 18, 4
  11              		.file	"serial_shell.cpp"
  12              		.text
  13              	.Ltext0:
  14              		.cfi_sections	.debug_frame
  15              		.section	.text._Z10shellStartv,"ax",%progbits
  16              		.align	1
  17              		.p2align 4,,15
  18              		.global	_Z10shellStartv
  19              		.syntax unified
  20              		.thumb
  21              		.thumb_func
  22              		.fpu softvfp
  23              		.type	_Z10shellStartv, %function
  24              	_Z10shellStartv:
  25              	.LFB506:
  26              		.file 1 "../dev/debug/serial_shell.cpp"
  27              		.loc 1 14 0
  28              		.cfi_startproc
  29              		@ args = 0, pretend = 0, frame = 0
  30              		@ frame_needed = 0, uses_anonymous_args = 0
  31 0000 10B5     		push	{r4, lr}
  32              		.cfi_def_cfa_offset 8
  33              		.cfi_offset 4, -8
  34              		.cfi_offset 14, -4
  35              		.loc 1 15 0
  36 0002 114C     		ldr	r4, .L4
  37              		.loc 1 14 0
  38 0004 82B0     		sub	sp, sp, #8
  39              		.cfi_def_cfa_offset 16
  40              		.loc 1 15 0
  41 0006 2046     		mov	r0, r4
  42 0008 40F28232 		movw	r2, #898
  43 000c 4FF40071 		mov	r1, #512
  44 0010 FFF7FEFF 		bl	_pal_lld_setgroupmode
  45              	.LVL0:
  46              		.loc 1 16 0
  47 0014 40F28232 		movw	r2, #898
  48 0018 2046     		mov	r0, r4
  49 001a 4FF48061 		mov	r1, #1024
  50 001e FFF7FEFF 		bl	_pal_lld_setgroupmode
  51              	.LVL1:
  52              		.loc 1 17 0
  53 0022 0A49     		ldr	r1, .L4+4
  54 0024 0A48     		ldr	r0, .L4+8
  55 0026 FFF7FEFF 		bl	sdStart
  56              	.LVL2:
  57              		.loc 1 18 0
ARM GAS  /var/folders/vd/czx34qs52cd_f3nb04sxmghc0000gn/T//ccFExuyt.s 			page 2


  58 002a FFF7FEFF 		bl	shellInit
  59              	.LVL3:
  60              		.loc 1 22 0
  61 002e 094B     		ldr	r3, .L4+12
  62 0030 0093     		str	r3, [sp]
  63 0032 8022     		movs	r2, #128
  64 0034 084B     		ldr	r3, .L4+16
  65 0036 0948     		ldr	r0, .L4+20
  66 0038 4FF49961 		mov	r1, #1224
  67 003c FFF7FEFF 		bl	chThdCreateStatic
  68              	.LVL4:
  69              	.LBB4:
  70              	.LBB5:
  71              		.file 2 "../os/rt/include/chregistry.h"
  72              		.loc 2 176 0
  73 0040 074B     		ldr	r3, .L4+24
  74 0042 8361     		str	r3, [r0, #24]
  75              	.LVL5:
  76              	.LBE5:
  77              	.LBE4:
  78              		.loc 1 24 0
  79 0044 02B0     		add	sp, sp, #8
  80              		.cfi_def_cfa_offset 8
  81              		@ sp needed
  82 0046 10BD     		pop	{r4, pc}
  83              	.L5:
  84              		.align	2
  85              	.L4:
  86 0048 00000240 		.word	1073872896
  87 004c 00000000 		.word	.LANCHOR0
  88 0050 00000000 		.word	SD1
  89 0054 00000000 		.word	.LANCHOR2
  90 0058 00000000 		.word	shellThread
  91 005c 00000000 		.word	.LANCHOR1
  92 0060 00000000 		.word	.LC0
  93              		.cfi_endproc
  94              	.LFE506:
  95              		.size	_Z10shellStartv, .-_Z10shellStartv
  96              		.section	.bss._ZL7waShell,"aw",%nobits
  97              		.align	3
  98              		.set	.LANCHOR1,. + 0
  99              		.type	_ZL7waShell, %object
 100              		.size	_ZL7waShell, 1224
 101              	_ZL7waShell:
 102 0000 00000000 		.space	1224
 102      00000000 
 102      00000000 
 102      00000000 
 102      00000000 
 103              		.section	.data._ZL17shellSerialConfig,"aw",%progbits
 104              		.align	2
 105              		.set	.LANCHOR0,. + 0
 106              		.type	_ZL17shellSerialConfig, %object
 107              		.size	_ZL17shellSerialConfig, 12
 108              	_ZL17shellSerialConfig:
 109 0000 00C20100 		.word	115200
 110 0004 0000     		.short	0
ARM GAS  /var/folders/vd/czx34qs52cd_f3nb04sxmghc0000gn/T//ccFExuyt.s 			page 3


 111 0006 0000     		.short	0
 112 0008 0000     		.short	0
 113 000a 0000     		.space	2
 114              		.section	.rodata._Z10shellStartv.str1.4,"aMS",%progbits,1
 115              		.align	2
 116              	.LC0:
 117 0000 7368656C 		.ascii	"shell\000"
 117      6C00
 118              		.section	.rodata._ZL11shellConfig,"a",%progbits
 119              		.align	2
 120              		.set	.LANCHOR2,. + 0
 121              		.type	_ZL11shellConfig, %object
 122              		.size	_ZL11shellConfig, 8
 123              	_ZL11shellConfig:
 124 0000 00000000 		.word	SD1
 125 0004 00000000 		.word	shellCommands
 126              		.text
 127              	.Letext0:
 128              		.file 3 "/usr/local/Cellar/gcc-arm-none-eabi/20171218/lib/gcc/arm-none-eabi/7.2.1/include/stddef.h
 129              		.file 4 "/usr/local/Cellar/gcc-arm-none-eabi/20171218/arm-none-eabi/include/machine/_default_types
 130              		.file 5 "/usr/local/Cellar/gcc-arm-none-eabi/20171218/arm-none-eabi/include/sys/_stdint.h"
 131              		.file 6 "../os/common/ports/ARMCMx/compilers/GCC/chtypes.h"
 132              		.file 7 "../os/rt/include/chsystypes.h"
 133              		.file 8 "../os/rt/include/chschd.h"
 134              		.file 9 "../os/rt/include/chtime.h"
 135              		.file 10 "../os/common/ext/ARM/CMSIS/Core/Include/core_cm4.h"
 136              		.file 11 "../os/common/ext/ST/STM32F4xx/system_stm32f4xx.h"
 137              		.file 12 "../os/common/ext/ST/STM32F4xx/stm32f407xx.h"
 138              		.file 13 "../os/common/ext/ST/STM32F4xx/stm32f4xx.h"
 139              		.file 14 "../os/common/ports/ARMCMx/chcore.h"
 140              		.file 15 "../os/common/ports/ARMCMx/chcore_v7m.h"
 141              		.file 16 "../os/hal/ports/STM32/LLD/TIMv1/stm32_tim.h"
 142              		.file 17 "../os/rt/include/chtm.h"
 143              		.file 18 "../os/rt/include/chsem.h"
 144              		.file 19 "../os/rt/include/chmtx.h"
 145              		.file 20 "../os/rt/include/chsys.h"
 146              		.file 21 "../os/rt/include/chevents.h"
 147              		.file 22 "../os/common/oslib/include/chmemcore.h"
 148              		.file 23 "../os/common/oslib/include/chmempools.h"
 149              		.file 24 "../os/common/oslib/include/chfactory.h"
 150              		.file 25 "../os/various/cpp_wrappers/ch.hpp"
 151              		.file 26 "../os/hal/ports/STM32/LLD/DMAv2/stm32_dma.h"
 152              		.file 27 "../os/hal/include/hal_streams.h"
 153              		.file 28 "../os/hal/include/hal_queues.h"
 154              		.file 29 "../os/hal/include/hal_pal.h"
 155              		.file 30 "../os/hal/ports/STM32/LLD/GPIOv2/stm32_gpio.h"
 156              		.file 31 "../os/hal/ports/STM32/LLD/GPIOv2/hal_pal_lld.h"
 157              		.file 32 "../os/hal/include/hal_pwm.h"
 158              		.file 33 "../os/hal/ports/STM32/LLD/TIMv1/hal_pwm_lld.h"
 159              		.file 34 "../os/hal/include/hal_serial.h"
 160              		.file 35 "../os/hal/ports/STM32/LLD/USARTv1/hal_serial_lld.h"
 161              		.file 36 "../os/various/shell/shell.h"
 162              		.file 37 "../dev/debug/serial_shell_commands.hpp"
 163              		.file 38 "../os/rt/include/chthreads.h"