ARM GAS  /var/folders/vd/czx34qs52cd_f3nb04sxmghc0000gn/T//ccUHr43i.s 			page 1


   1              		.cpu cortex-m4
   2              		.eabi_attribute 20, 1
   3              		.eabi_attribute 21, 1
   4              		.eabi_attribute 23, 3
   5              		.eabi_attribute 24, 1
   6              		.eabi_attribute 25, 1
   7              		.eabi_attribute 26, 1
   8              		.eabi_attribute 30, 2
   9              		.eabi_attribute 34, 1
  10              		.eabi_attribute 18, 4
  11              		.file	"shell_cmd.c"
  12              		.text
  13              	.Ltext0:
  14              		.cfi_sections	.debug_frame
  15              		.section	.text.cmd_systime,"ax",%progbits
  16              		.align	1
  17              		.p2align 4,,15
  18              		.syntax unified
  19              		.thumb
  20              		.thumb_func
  21              		.fpu softvfp
  22              		.type	cmd_systime, %function
  23              	cmd_systime:
  24              	.LFB315:
  25              		.file 1 "../os/various/shell/shell_cmd.c"
  26              		.loc 1 119 0
  27              		.cfi_startproc
  28              		@ args = 0, pretend = 0, frame = 0
  29              		@ frame_needed = 0, uses_anonymous_args = 0
  30              		@ link register save eliminated.
  31              	.LVL0:
  32              		.loc 1 122 0
  33 0000 0029     		cmp	r1, #0
  34 0002 03DD     		ble	.L2
  35              		.loc 1 123 0
  36 0004 074A     		ldr	r2, .L4
  37              	.LVL1:
  38 0006 0849     		ldr	r1, .L4+4
  39              	.LVL2:
  40 0008 FFF7FEBF 		b	chprintf
  41              	.LVL3:
  42              	.L2:
  43              	.LBB83:
  44              	.LBB84:
  45              	.LBB85:
  46              	.LBB86:
  47              	.LBB87:
  48              	.LBB88:
  49              	.LBB89:
  50              	.LBB90:
  51              		.file 2 "../os/common/ext/ARM/CMSIS/Core/Include/cmsis_gcc.h"
  52              		.loc 2 490 0
  53 000c 2023     		movs	r3, #32
  54              		.syntax unified
  55              	@ 490 "../os/common/ext/ARM/CMSIS/Core/Include/cmsis_gcc.h" 1
  56 000e 83F31188 		MSR basepri, r3
  57              	@ 0 "" 2
ARM GAS  /var/folders/vd/czx34qs52cd_f3nb04sxmghc0000gn/T//ccUHr43i.s 			page 2


  58              	.LVL4:
  59              		.thumb
  60              		.syntax unified
  61              	.LBE90:
  62              	.LBE89:
  63              	.LBE88:
  64              	.LBE87:
  65              	.LBB91:
  66              	.LBB92:
  67              	.LBB93:
  68              	.LBB94:
  69              		.file 3 "../os/hal/ports/STM32/LLD/TIMv1/hal_st_lld.h"
  70              		.loc 3 141 0
  71 0012 4FF08042 		mov	r2, #1073741824
  72              	.LVL5:
  73              	.LBE94:
  74              	.LBE93:
  75              	.LBE92:
  76              	.LBE91:
  77              	.LBB98:
  78              	.LBB99:
  79              	.LBB100:
  80              	.LBB101:
  81              	.LBB102:
  82              		.loc 2 490 0
  83 0016 0023     		movs	r3, #0
  84              	.LBE102:
  85              	.LBE101:
  86              	.LBE100:
  87              	.LBE99:
  88              	.LBE98:
  89              	.LBB107:
  90              	.LBB97:
  91              	.LBB96:
  92              	.LBB95:
  93              		.loc 3 141 0
  94 0018 526A     		ldr	r2, [r2, #36]
  95              	.LVL6:
  96              	.LBE95:
  97              	.LBE96:
  98              	.LBE97:
  99              	.LBE107:
 100              	.LBB108:
 101              	.LBB106:
 102              	.LBB105:
 103              	.LBB104:
 104              	.LBB103:
 105              		.loc 2 490 0
 106              		.syntax unified
 107              	@ 490 "../os/common/ext/ARM/CMSIS/Core/Include/cmsis_gcc.h" 1
 108 001a 83F31188 		MSR basepri, r3
 109              	@ 0 "" 2
 110              	.LVL7:
 111              		.thumb
 112              		.syntax unified
 113              	.LBE103:
 114              	.LBE104:
ARM GAS  /var/folders/vd/czx34qs52cd_f3nb04sxmghc0000gn/T//ccUHr43i.s 			page 3


 115              	.LBE105:
 116              	.LBE106:
 117              	.LBE108:
 118              	.LBE86:
 119              	.LBE85:
 120              		.loc 1 126 0
 121 001e 0349     		ldr	r1, .L4+8
 122              	.LVL8:
 123 0020 FFF7FEBF 		b	chprintf
 124              	.LVL9:
 125              	.L5:
 126              		.align	2
 127              	.L4:
 128 0024 00000000 		.word	.LC0
 129 0028 08000000 		.word	.LC1
 130 002c 14000000 		.word	.LC2
 131              	.LBE84:
 132              	.LBE83:
 133              		.cfi_endproc
 134              	.LFE315:
 135              		.size	cmd_systime, .-cmd_systime
 136              		.section	.text.cmd_echo,"ax",%progbits
 137              		.align	1
 138              		.p2align 4,,15
 139              		.syntax unified
 140              		.thumb
 141              		.thumb_func
 142              		.fpu softvfp
 143              		.type	cmd_echo, %function
 144              	cmd_echo:
 145              	.LFB314:
 146              		.loc 1 107 0
 147              		.cfi_startproc
 148              		@ args = 0, pretend = 0, frame = 0
 149              		@ frame_needed = 0, uses_anonymous_args = 0
 150              		@ link register save eliminated.
 151              	.LVL10:
 152              		.loc 1 110 0
 153 0000 0129     		cmp	r1, #1
 154 0002 03D0     		beq	.L7
 155              		.loc 1 111 0
 156 0004 034A     		ldr	r2, .L8
 157              	.LVL11:
 158 0006 0449     		ldr	r1, .L8+4
 159              	.LVL12:
 160 0008 FFF7FEBF 		b	chprintf
 161              	.LVL13:
 162              	.L7:
 163              	.LBB111:
 164              	.LBB112:
 165              		.loc 1 114 0
 166 000c 1268     		ldr	r2, [r2]
 167              	.LVL14:
 168 000e 0349     		ldr	r1, .L8+8
 169              	.LVL15:
 170 0010 FFF7FEBF 		b	chprintf
 171              	.LVL16:
ARM GAS  /var/folders/vd/czx34qs52cd_f3nb04sxmghc0000gn/T//ccUHr43i.s 			page 4


 172              	.L9:
 173              		.align	2
 174              	.L8:
 175 0014 00000000 		.word	.LC3
 176 0018 08000000 		.word	.LC1
 177 001c 10000000 		.word	.LC4
 178              	.LBE112:
 179              	.LBE111:
 180              		.cfi_endproc
 181              	.LFE314:
 182              		.size	cmd_echo, .-cmd_echo
 183              		.section	.text.cmd_info,"ax",%progbits
 184              		.align	1
 185              		.p2align 4,,15
 186              		.syntax unified
 187              		.thumb
 188              		.thumb_func
 189              		.fpu softvfp
 190              		.type	cmd_info, %function
 191              	cmd_info:
 192              	.LFB313:
 193              		.loc 1 73 0
 194              		.cfi_startproc
 195              		@ args = 0, pretend = 0, frame = 0
 196              		@ frame_needed = 0, uses_anonymous_args = 0
 197              	.LVL17:
 198              		.loc 1 76 0
 199 0000 0029     		cmp	r1, #0
 200 0002 03DD     		ble	.L11
 201              		.loc 1 77 0
 202 0004 194A     		ldr	r2, .L14
 203              	.LVL18:
 204 0006 1A49     		ldr	r1, .L14+4
 205              	.LVL19:
 206 0008 FFF7FEBF 		b	chprintf
 207              	.LVL20:
 208              	.L11:
 209              		.loc 1 73 0
 210 000c 10B5     		push	{r4, lr}
 211              		.cfi_def_cfa_offset 8
 212              		.cfi_offset 4, -8
 213              		.cfi_offset 14, -4
 214              	.LBB115:
 215              	.LBB116:
 216              		.loc 1 81 0
 217 000e 194A     		ldr	r2, .L14+8
 218              	.LVL21:
 219 0010 1949     		ldr	r1, .L14+12
 220              	.LVL22:
 221              	.LBE116:
 222              	.LBE115:
 223              		.loc 1 73 0
 224 0012 82B0     		sub	sp, sp, #8
 225              		.cfi_def_cfa_offset 16
 226 0014 0446     		mov	r4, r0
 227              	.LVL23:
 228              	.LBB118:
ARM GAS  /var/folders/vd/czx34qs52cd_f3nb04sxmghc0000gn/T//ccUHr43i.s 			page 5


 229              	.LBB117:
 230              		.loc 1 81 0
 231 0016 FFF7FEFF 		bl	chprintf
 232              	.LVL24:
 233              		.loc 1 83 0
 234 001a 184A     		ldr	r2, .L14+16
 235 001c 1849     		ldr	r1, .L14+20
 236 001e 2046     		mov	r0, r4
 237 0020 FFF7FEFF 		bl	chprintf
 238              	.LVL25:
 239              		.loc 1 85 0
 240 0024 174A     		ldr	r2, .L14+24
 241 0026 1849     		ldr	r1, .L14+28
 242 0028 2046     		mov	r0, r4
 243 002a FFF7FEFF 		bl	chprintf
 244              	.LVL26:
 245              		.loc 1 87 0
 246 002e 174A     		ldr	r2, .L14+32
 247 0030 1749     		ldr	r1, .L14+36
 248 0032 2046     		mov	r0, r4
 249 0034 FFF7FEFF 		bl	chprintf
 250              	.LVL27:
 251              		.loc 1 90 0
 252 0038 164A     		ldr	r2, .L14+40
 253 003a 1749     		ldr	r1, .L14+44
 254 003c 2046     		mov	r0, r4
 255 003e FFF7FEFF 		bl	chprintf
 256              	.LVL28:
 257              		.loc 1 93 0
 258 0042 164A     		ldr	r2, .L14+48
 259 0044 1649     		ldr	r1, .L14+52
 260 0046 2046     		mov	r0, r4
 261 0048 FFF7FEFF 		bl	chprintf
 262              	.LVL29:
 263              		.loc 1 96 0
 264 004c 154A     		ldr	r2, .L14+56
 265 004e 1649     		ldr	r1, .L14+60
 266 0050 2046     		mov	r0, r4
 267 0052 FFF7FEFF 		bl	chprintf
 268              	.LVL30:
 269              		.loc 1 100 0
 270 0056 154B     		ldr	r3, .L14+64
 271 0058 0093     		str	r3, [sp]
 272 005a 2046     		mov	r0, r4
 273 005c 144B     		ldr	r3, .L14+68
 274 005e 154A     		ldr	r2, .L14+72
 275 0060 1549     		ldr	r1, .L14+76
 276 0062 FFF7FEFF 		bl	chprintf
 277              	.LVL31:
 278              	.LBE117:
 279              	.LBE118:
 280              		.loc 1 103 0
 281 0066 02B0     		add	sp, sp, #8
 282              		.cfi_def_cfa_offset 8
 283              		@ sp needed
 284 0068 10BD     		pop	{r4, pc}
 285              	.LVL32:
ARM GAS  /var/folders/vd/czx34qs52cd_f3nb04sxmghc0000gn/T//ccUHr43i.s 			page 6


 286              	.L15:
 287 006a 00BF     		.align	2
 288              	.L14:
 289 006c 00000000 		.word	.LC5
 290 0070 08000000 		.word	.LC1
 291 0074 08000000 		.word	.LC6
 292 0078 10000000 		.word	.LC7
 293 007c 24000000 		.word	.LC8
 294 0080 6C000000 		.word	.LC9
 295 0084 80000000 		.word	.LC10
 296 0088 8C000000 		.word	.LC11
 297 008c A0000000 		.word	.LC12
 298 0090 AC000000 		.word	.LC13
 299 0094 C0000000 		.word	.LC14
 300 0098 D8000000 		.word	.LC15
 301 009c EC000000 		.word	.LC16
 302 00a0 18010000 		.word	.LC17
 303 00a4 2C010000 		.word	.LC18
 304 00a8 54010000 		.word	.LC19
 305 00ac 90010000 		.word	.LC23
 306 00b0 68010000 		.word	.LC20
 307 00b4 6C010000 		.word	.LC21
 308 00b8 78010000 		.word	.LC22
 309              		.cfi_endproc
 310              	.LFE313:
 311              		.size	cmd_info, .-cmd_info
 312              		.section	.text.cmd_threads,"ax",%progbits
 313              		.align	1
 314              		.p2align 4,,15
 315              		.syntax unified
 316              		.thumb
 317              		.thumb_func
 318              		.fpu softvfp
 319              		.type	cmd_threads, %function
 320              	cmd_threads:
 321              	.LFB317:
 322              		.loc 1 148 0
 323              		.cfi_startproc
 324              		@ args = 0, pretend = 0, frame = 0
 325              		@ frame_needed = 0, uses_anonymous_args = 0
 326              	.LVL33:
 327              		.loc 1 153 0
 328 0000 0029     		cmp	r1, #0
 329 0002 03DD     		ble	.L17
 330              		.loc 1 154 0
 331 0004 194A     		ldr	r2, .L24
 332              	.LVL34:
 333 0006 1A49     		ldr	r1, .L24+4
 334              	.LVL35:
 335 0008 FFF7FEBF 		b	chprintf
 336              	.LVL36:
 337              	.L17:
 338              		.loc 1 148 0
 339 000c 2DE9F047 		push	{r4, r5, r6, r7, r8, r9, r10, lr}
 340              		.cfi_def_cfa_offset 32
 341              		.cfi_offset 4, -32
 342              		.cfi_offset 5, -28
ARM GAS  /var/folders/vd/czx34qs52cd_f3nb04sxmghc0000gn/T//ccUHr43i.s 			page 7


 343              		.cfi_offset 6, -24
 344              		.cfi_offset 7, -20
 345              		.cfi_offset 8, -16
 346              		.cfi_offset 9, -12
 347              		.cfi_offset 10, -8
 348              		.cfi_offset 14, -4
 349              	.LBB122:
 350              	.LBB123:
 351              		.loc 1 157 0
 352 0010 1849     		ldr	r1, .L24+8
 353              	.LVL37:
 354 0012 DFF86490 		ldr	r9, .L24+12
 355              	.LBB124:
 356              		.loc 1 165 0
 357 0016 DFF86480 		ldr	r8, .L24+16
 358 001a DFF864A0 		ldr	r10, .L24+20
 359              	.LBE124:
 360              	.LBE123:
 361              	.LBE122:
 362              		.loc 1 148 0
 363 001e 86B0     		sub	sp, sp, #24
 364              		.cfi_def_cfa_offset 56
 365 0020 0646     		mov	r6, r0
 366              	.LVL38:
 367              	.LBB127:
 368              	.LBB126:
 369              		.loc 1 157 0
 370 0022 FFF7FEFF 		bl	chprintf
 371              	.LVL39:
 372              		.loc 1 158 0
 373 0026 FFF7FEFF 		bl	chRegFirstThread
 374              	.LVL40:
 375 002a 0446     		mov	r4, r0
 376              	.LVL41:
 377              	.L19:
 378              	.LBB125:
 379              		.loc 1 161 0
 380 002c D4E90612 		ldrd	r1, r2, [r4, #24]
 381              	.LVL42:
 382              		.loc 1 167 0
 383 0030 94F82000 		ldrb	r0, [r4, #32]	@ zero_extendqisi2
 384              	.LVL43:
 385 0034 94F82250 		ldrb	r5, [r4, #34]	@ zero_extendqisi2
 386              		.loc 1 165 0
 387 0038 59F82000 		ldr	r0, [r9, r0, lsl #2]
 388 003c A768     		ldr	r7, [r4, #8]
 389 003e E368     		ldr	r3, [r4, #12]
 390 0040 0094     		str	r4, [sp]
 391 0042 0029     		cmp	r1, #0
 392 0044 08BF     		it	eq
 393 0046 4146     		moveq	r1, r8
 394 0048 013D     		subs	r5, r5, #1
 395 004a CDE90301 		strd	r0, r1, [sp, #12]
 396 004e 0297     		str	r7, [sp, #8]
 397 0050 5146     		mov	r1, r10
 398 0052 0195     		str	r5, [sp, #4]
 399 0054 3046     		mov	r0, r6
ARM GAS  /var/folders/vd/czx34qs52cd_f3nb04sxmghc0000gn/T//ccUHr43i.s 			page 8


 400 0056 FFF7FEFF 		bl	chprintf
 401              	.LVL44:
 402              		.loc 1 169 0
 403 005a 2046     		mov	r0, r4
 404 005c FFF7FEFF 		bl	chRegNextThread
 405              	.LVL45:
 406              	.LBE125:
 407              		.loc 1 170 0
 408 0060 0446     		mov	r4, r0
 409 0062 0028     		cmp	r0, #0
 410 0064 E2D1     		bne	.L19
 411              	.LBE126:
 412              	.LBE127:
 413              		.loc 1 171 0
 414 0066 06B0     		add	sp, sp, #24
 415              		.cfi_def_cfa_offset 32
 416              		@ sp needed
 417 0068 BDE8F087 		pop	{r4, r5, r6, r7, r8, r9, r10, pc}
 418              	.LVL46:
 419              	.L25:
 420              		.align	2
 421              	.L24:
 422 006c 04000000 		.word	.LC25
 423 0070 08000000 		.word	.LC1
 424 0074 0C000000 		.word	.LC26
 425 0078 00000000 		.word	.LANCHOR0
 426 007c 00000000 		.word	.LC24
 427 0080 4C000000 		.word	.LC27
 428              		.cfi_endproc
 429              	.LFE317:
 430              		.size	cmd_threads, .-cmd_threads
 431              		.section	.text.cmd_mem,"ax",%progbits
 432              		.align	1
 433              		.p2align 4,,15
 434              		.syntax unified
 435              		.thumb
 436              		.thumb_func
 437              		.fpu softvfp
 438              		.type	cmd_mem, %function
 439              	cmd_mem:
 440              	.LFB316:
 441              		.loc 1 131 0
 442              		.cfi_startproc
 443              		@ args = 0, pretend = 0, frame = 8
 444              		@ frame_needed = 0, uses_anonymous_args = 0
 445              	.LVL47:
 446 0000 30B5     		push	{r4, r5, lr}
 447              		.cfi_def_cfa_offset 12
 448              		.cfi_offset 4, -12
 449              		.cfi_offset 5, -8
 450              		.cfi_offset 14, -4
 451              		.loc 1 135 0
 452 0002 0029     		cmp	r1, #0
 453              		.loc 1 131 0
 454 0004 83B0     		sub	sp, sp, #12
 455              		.cfi_def_cfa_offset 24
 456              		.loc 1 135 0
ARM GAS  /var/folders/vd/czx34qs52cd_f3nb04sxmghc0000gn/T//ccUHr43i.s 			page 9


 457 0006 05DD     		ble	.L27
 458              		.loc 1 136 0
 459 0008 124A     		ldr	r2, .L30
 460              	.LVL48:
 461 000a 1349     		ldr	r1, .L30+4
 462              	.LVL49:
 463 000c FFF7FEFF 		bl	chprintf
 464              	.LVL50:
 465              		.loc 1 144 0
 466 0010 03B0     		add	sp, sp, #12
 467              		.cfi_remember_state
 468              		.cfi_def_cfa_offset 12
 469              		@ sp needed
 470 0012 30BD     		pop	{r4, r5, pc}
 471              	.LVL51:
 472              	.L27:
 473              		.cfi_restore_state
 474 0014 0446     		mov	r4, r0
 475              	.LVL52:
 476              	.LBB130:
 477              	.LBB131:
 478              		.loc 1 139 0
 479 0016 01AA     		add	r2, sp, #4
 480              	.LVL53:
 481 0018 6946     		mov	r1, sp
 482              	.LVL54:
 483 001a 0020     		movs	r0, #0
 484              	.LVL55:
 485 001c FFF7FEFF 		bl	chHeapStatus
 486              	.LVL56:
 487 0020 0546     		mov	r5, r0
 488              	.LVL57:
 489              		.loc 1 140 0
 490 0022 FFF7FEFF 		bl	chCoreGetStatusX
 491              	.LVL58:
 492 0026 0D49     		ldr	r1, .L30+8
 493 0028 0246     		mov	r2, r0
 494 002a 2046     		mov	r0, r4
 495 002c FFF7FEFF 		bl	chprintf
 496              	.LVL59:
 497              		.loc 1 141 0
 498 0030 2A46     		mov	r2, r5
 499 0032 0B49     		ldr	r1, .L30+12
 500 0034 2046     		mov	r0, r4
 501 0036 FFF7FEFF 		bl	chprintf
 502              	.LVL60:
 503              		.loc 1 142 0
 504 003a 009A     		ldr	r2, [sp]
 505 003c 0949     		ldr	r1, .L30+16
 506 003e 2046     		mov	r0, r4
 507 0040 FFF7FEFF 		bl	chprintf
 508              	.LVL61:
 509              		.loc 1 143 0
 510 0044 2046     		mov	r0, r4
 511 0046 019A     		ldr	r2, [sp, #4]
 512 0048 0749     		ldr	r1, .L30+20
 513 004a FFF7FEFF 		bl	chprintf
ARM GAS  /var/folders/vd/czx34qs52cd_f3nb04sxmghc0000gn/T//ccUHr43i.s 			page 10


 514              	.LVL62:
 515              	.LBE131:
 516              	.LBE130:
 517              		.loc 1 144 0
 518 004e 03B0     		add	sp, sp, #12
 519              		.cfi_def_cfa_offset 12
 520              		@ sp needed
 521 0050 30BD     		pop	{r4, r5, pc}
 522              	.LVL63:
 523              	.L31:
 524 0052 00BF     		.align	2
 525              	.L30:
 526 0054 00000000 		.word	.LC28
 527 0058 08000000 		.word	.LC1
 528 005c 04000000 		.word	.LC29
 529 0060 24000000 		.word	.LC30
 530 0064 3C000000 		.word	.LC31
 531 0068 5C000000 		.word	.LC32
 532              		.cfi_endproc
 533              	.LFE316:
 534              		.size	cmd_mem, .-cmd_mem
 535              		.global	shell_local_commands
 536              		.section	.rodata.cmd_echo.str1.4,"aMS",%progbits,1
 537              		.align	2
 538              	.LC3:
 539 0000 6563686F 		.ascii	"echo \"message\"\000"
 539      20226D65 
 539      73736167 
 539      652200
 540 000f 00       		.space	1
 541              	.LC4:
 542 0010 25730D0A 		.ascii	"%s\015\012\000"
 542      00
 543              		.section	.rodata.cmd_info.str1.4,"aMS",%progbits,1
 544              		.align	2
 545              	.LC5:
 546 0000 696E666F 		.ascii	"info\000"
 546      00
 547 0005 000000   		.space	3
 548              	.LC6:
 549 0008 352E302E 		.ascii	"5.0.0\000"
 549      3000
 550 000e 0000     		.space	2
 551              	.LC7:
 552 0010 4B65726E 		.ascii	"Kernel:       %s\015\012\000"
 552      656C3A20 
 552      20202020 
 552      20202573 
 552      0D0A00
 553 0023 00       		.space	1
 554              	.LC8:
 555 0024 47434320 		.ascii	"GCC 7.2.1 20170904 (release) [ARM/embedded-7-branch"
 555      372E322E 
 555      31203230 
 555      31373039 
 555      30342028 
 556 0057 20726576 		.ascii	" revision 255204]\000"
ARM GAS  /var/folders/vd/czx34qs52cd_f3nb04sxmghc0000gn/T//ccUHr43i.s 			page 11


 556      6973696F 
 556      6E203235 
 556      35323034 
 556      5D00
 557 0069 000000   		.space	3
 558              	.LC9:
 559 006c 436F6D70 		.ascii	"Compiler:     %s\015\012\000"
 559      696C6572 
 559      3A202020 
 559      20202573 
 559      0D0A00
 560 007f 00       		.space	1
 561              	.LC10:
 562 0080 41524D76 		.ascii	"ARMv7E-M\000"
 562      37452D4D 
 562      00
 563 0089 000000   		.space	3
 564              	.LC11:
 565 008c 41726368 		.ascii	"Architecture: %s\015\012\000"
 565      69746563 
 565      74757265 
 565      3A202573 
 565      0D0A00
 566 009f 00       		.space	1
 567              	.LC12:
 568 00a0 436F7274 		.ascii	"Cortex-M4\000"
 568      65782D4D 
 568      3400
 569 00aa 0000     		.space	2
 570              	.LC13:
 571 00ac 436F7265 		.ascii	"Core Variant: %s\015\012\000"
 571      20566172 
 571      69616E74 
 571      3A202573 
 571      0D0A00
 572 00bf 00       		.space	1
 573              	.LC14:
 574 00c0 41647661 		.ascii	"Advanced kernel mode\000"
 574      6E636564 
 574      206B6572 
 574      6E656C20 
 574      6D6F6465 
 575 00d5 000000   		.space	3
 576              	.LC15:
 577 00d8 506F7274 		.ascii	"Port Info:    %s\015\012\000"
 577      20496E66 
 577      6F3A2020 
 577      20202573 
 577      0D0A00
 578 00eb 00       		.space	1
 579              	.LC16:
 580 00ec 53544D33 		.ascii	"STM32F407 High Performance with DSP and FPU\000"
 580      32463430 
 580      37204869 
 580      67682050 
 580      6572666F 
 581              	.LC17:
ARM GAS  /var/folders/vd/czx34qs52cd_f3nb04sxmghc0000gn/T//ccUHr43i.s 			page 12


 582 0118 506C6174 		.ascii	"Platform:     %s\015\012\000"
 582      666F726D 
 582      3A202020 
 582      20202573 
 582      0D0A00
 583 012b 00       		.space	1
 584              	.LC18:
 585 012c 53544D69 		.ascii	"STMicroelectronics STM32F4-Discovery\000"
 585      63726F65 
 585      6C656374 
 585      726F6E69 
 585      63732053 
 586 0151 000000   		.space	3
 587              	.LC19:
 588 0154 426F6172 		.ascii	"Board:        %s\015\012\000"
 588      643A2020 
 588      20202020 
 588      20202573 
 588      0D0A00
 589 0167 00       		.space	1
 590              	.LC20:
 591 0168 202D2000 		.ascii	" - \000"
 592              	.LC21:
 593 016c 4A756C20 		.ascii	"Jul  4 2018\000"
 593      20342032 
 593      30313800 
 594              	.LC22:
 595 0178 4275696C 		.ascii	"Build time:   %s%s%s\015\012\000"
 595      64207469 
 595      6D653A20 
 595      20202573 
 595      25732573 
 596 018f 00       		.space	1
 597              	.LC23:
 598 0190 31373A31 		.ascii	"17:11:23\000"
 598      313A3233 
 598      00
 599              		.section	.rodata.cmd_mem.str1.4,"aMS",%progbits,1
 600              		.align	2
 601              	.LC28:
 602 0000 6D656D00 		.ascii	"mem\000"
 603              	.LC29:
 604 0004 636F7265 		.ascii	"core free memory : %u bytes\015\012\000"
 604      20667265 
 604      65206D65 
 604      6D6F7279 
 604      203A2025 
 605 0022 0000     		.space	2
 606              	.LC30:
 607 0024 68656170 		.ascii	"heap fragments   : %u\015\012\000"
 607      20667261 
 607      676D656E 
 607      74732020 
 607      203A2025 
 608              	.LC31:
 609 003c 68656170 		.ascii	"heap free total  : %u bytes\015\012\000"
 609      20667265 
ARM GAS  /var/folders/vd/czx34qs52cd_f3nb04sxmghc0000gn/T//ccUHr43i.s 			page 13


 609      6520746F 
 609      74616C20 
 609      203A2025 
 610 005a 0000     		.space	2
 611              	.LC32:
 612 005c 68656170 		.ascii	"heap free largest: %u bytes\015\012\000"
 612      20667265 
 612      65206C61 
 612      72676573 
 612      743A2025 
 613              		.section	.rodata.cmd_systime.str1.4,"aMS",%progbits,1
 614              		.align	2
 615              	.LC0:
 616 0000 73797374 		.ascii	"systime\000"
 616      696D6500 
 617              	.LC1:
 618 0008 55736167 		.ascii	"Usage: %s\015\012\000"
 618      653A2025 
 618      730D0A00 
 619              	.LC2:
 620 0014 256C750D 		.ascii	"%lu\015\012\000"
 620      0A00
 621              		.section	.rodata.cmd_threads.str1.4,"aMS",%progbits,1
 622              		.align	2
 623              	.LC24:
 624 0000 00       		.ascii	"\000"
 625 0001 000000   		.space	3
 626              	.LC25:
 627 0004 74687265 		.ascii	"threads\000"
 627      61647300 
 628              	.LC26:
 629 000c 73746B6C 		.ascii	"stklimit    stack     addr refs prio     state     "
 629      696D6974 
 629      20202020 
 629      73746163 
 629      6B202020 
 630 003f 20202020 		.ascii	"    name\015\012\015\012\000"
 630      6E616D65 
 630      0D0A0D0A 
 630      00
 631              	.LC27:
 632 004c 2530386C 		.ascii	"%08lx %08lx %08lx %4lu %4lu %9s %12s\015\012\000"
 632      78202530 
 632      386C7820 
 632      2530386C 
 632      78202534 
 633              		.section	.rodata.shell_local_commands,"a",%progbits
 634              		.align	2
 635              		.type	shell_local_commands, %object
 636              		.size	shell_local_commands, 48
 637              	shell_local_commands:
 638 0000 00000000 		.word	.LC5
 639 0004 00000000 		.word	cmd_info
 640 0008 8C000000 		.word	.LC49
 641 000c 00000000 		.word	cmd_echo
 642 0010 00000000 		.word	.LC0
 643 0014 00000000 		.word	cmd_systime
ARM GAS  /var/folders/vd/czx34qs52cd_f3nb04sxmghc0000gn/T//ccUHr43i.s 			page 14


 644 0018 00000000 		.word	.LC28
 645 001c 00000000 		.word	cmd_mem
 646 0020 04000000 		.word	.LC25
 647 0024 00000000 		.word	cmd_threads
 648 0028 00000000 		.word	0
 649 002c 00000000 		.word	0
 650              		.section	.rodata.states.8080,"a",%progbits
 651              		.align	2
 652              		.set	.LANCHOR0,. + 0
 653              		.type	states.8080, %object
 654              		.size	states.8080, 64
 655              	states.8080:
 656 0000 00000000 		.word	.LC33
 657 0004 08000000 		.word	.LC34
 658 0008 10000000 		.word	.LC35
 659 000c 18000000 		.word	.LC36
 660 0010 24000000 		.word	.LC37
 661 0014 2C000000 		.word	.LC38
 662 0018 34000000 		.word	.LC39
 663 001c 3C000000 		.word	.LC40
 664 0020 44000000 		.word	.LC41
 665 0024 50000000 		.word	.LC42
 666 0028 58000000 		.word	.LC43
 667 002c 60000000 		.word	.LC44
 668 0030 6C000000 		.word	.LC45
 669 0034 74000000 		.word	.LC46
 670 0038 7C000000 		.word	.LC47
 671 003c 84000000 		.word	.LC48
 672              		.section	.rodata.str1.4,"aMS",%progbits,1
 673              		.align	2
 674              	.LC33:
 675 0000 52454144 		.ascii	"READY\000"
 675      5900
 676 0006 0000     		.space	2
 677              	.LC34:
 678 0008 43555252 		.ascii	"CURRENT\000"
 678      454E5400 
 679              	.LC35:
 680 0010 57545354 		.ascii	"WTSTART\000"
 680      41525400 
 681              	.LC36:
 682 0018 53555350 		.ascii	"SUSPENDED\000"
 682      454E4445 
 682      4400
 683 0022 0000     		.space	2
 684              	.LC37:
 685 0024 51554555 		.ascii	"QUEUED\000"
 685      454400
 686 002b 00       		.space	1
 687              	.LC38:
 688 002c 57545345 		.ascii	"WTSEM\000"
 688      4D00
 689 0032 0000     		.space	2
 690              	.LC39:
 691 0034 57544D54 		.ascii	"WTMTX\000"
 691      5800
 692 003a 0000     		.space	2
ARM GAS  /var/folders/vd/czx34qs52cd_f3nb04sxmghc0000gn/T//ccUHr43i.s 			page 15


 693              	.LC40:
 694 003c 5754434F 		.ascii	"WTCOND\000"
 694      4E4400
 695 0043 00       		.space	1
 696              	.LC41:
 697 0044 534C4545 		.ascii	"SLEEPING\000"
 697      50494E47 
 697      00
 698 004d 000000   		.space	3
 699              	.LC42:
 700 0050 57544558 		.ascii	"WTEXIT\000"
 700      495400
 701 0057 00       		.space	1
 702              	.LC43:
 703 0058 57544F52 		.ascii	"WTOREVT\000"
 703      45565400 
 704              	.LC44:
 705 0060 5754414E 		.ascii	"WTANDEVT\000"
 705      44455654 
 705      00
 706 0069 000000   		.space	3
 707              	.LC45:
 708 006c 534E444D 		.ascii	"SNDMSGQ\000"
 708      53475100 
 709              	.LC46:
 710 0074 534E444D 		.ascii	"SNDMSG\000"
 710      534700
 711 007b 00       		.space	1
 712              	.LC47:
 713 007c 57544D53 		.ascii	"WTMSG\000"
 713      4700
 714 0082 0000     		.space	2
 715              	.LC48:
 716 0084 46494E41 		.ascii	"FINAL\000"
 716      4C00
 717 008a 0000     		.space	2
 718              	.LC49:
 719 008c 6563686F 		.ascii	"echo\000"
 719      00
 720              		.text
 721              	.Letext0:
 722              		.file 4 "/usr/local/Cellar/gcc-arm-none-eabi/20171218/lib/gcc/arm-none-eabi/7.2.1/include/stddef.h
 723              		.file 5 "/usr/local/Cellar/gcc-arm-none-eabi/20171218/arm-none-eabi/include/machine/_default_types
 724              		.file 6 "/usr/local/Cellar/gcc-arm-none-eabi/20171218/arm-none-eabi/include/sys/lock.h"
 725              		.file 7 "/usr/local/Cellar/gcc-arm-none-eabi/20171218/arm-none-eabi/include/sys/_types.h"
 726              		.file 8 "/usr/local/Cellar/gcc-arm-none-eabi/20171218/arm-none-eabi/include/sys/reent.h"
 727              		.file 9 "/usr/local/Cellar/gcc-arm-none-eabi/20171218/arm-none-eabi/include/sys/_stdint.h"
 728              		.file 10 "../os/common/ports/ARMCMx/compilers/GCC/chtypes.h"
 729              		.file 11 "../os/rt/include/chsystypes.h"
 730              		.file 12 "../os/rt/include/chschd.h"
 731              		.file 13 "../os/rt/include/chtime.h"
 732              		.file 14 "../os/common/ext/ARM/CMSIS/Core/Include/core_cm4.h"
 733              		.file 15 "../os/common/ext/ST/STM32F4xx/system_stm32f4xx.h"
 734              		.file 16 "../os/common/ext/ST/STM32F4xx/stm32f407xx.h"
 735              		.file 17 "../os/common/ports/ARMCMx/chcore.h"
 736              		.file 18 "../os/common/ports/ARMCMx/chcore_v7m.h"
 737              		.file 19 "../os/hal/ports/STM32/LLD/TIMv1/stm32_tim.h"
ARM GAS  /var/folders/vd/czx34qs52cd_f3nb04sxmghc0000gn/T//ccUHr43i.s 			page 16


 738              		.file 20 "../os/rt/include/chtm.h"
 739              		.file 21 "../os/rt/include/chsem.h"
 740              		.file 22 "../os/rt/include/chmtx.h"
 741              		.file 23 "../os/rt/include/chsys.h"
 742              		.file 24 "../os/rt/include/chregistry.h"
 743              		.file 25 "../os/rt/include/chevents.h"
 744              		.file 26 "../os/common/oslib/include/chmemcore.h"
 745              		.file 27 "../os/common/oslib/include/chmempools.h"
 746              		.file 28 "../os/common/oslib/include/chfactory.h"
 747              		.file 29 "../os/hal/ports/STM32/LLD/DMAv2/stm32_dma.h"
 748              		.file 30 "../os/hal/include/hal_streams.h"
 749              		.file 31 "../os/hal/include/hal_queues.h"
 750              		.file 32 "../os/hal/include/hal_pal.h"
 751              		.file 33 "../os/hal/ports/STM32/LLD/GPIOv2/hal_pal_lld.h"
 752              		.file 34 "../os/hal/include/hal_pwm.h"
 753              		.file 35 "../os/hal/ports/STM32/LLD/TIMv1/hal_pwm_lld.h"
 754              		.file 36 "../os/hal/include/hal_serial.h"
 755              		.file 37 "../os/hal/ports/STM32/LLD/USARTv1/hal_serial_lld.h"
 756              		.file 38 "../os/various/shell/shell.h"
 757              		.file 39 "../os/various/shell/shell_cmd.h"
 758              		.file 40 "../os/rt/include/chvt.h"
 759              		.file 41 "../os/common/ports/ARMCMx/chcore_timer.h"
 760              		.file 42 "../os/hal/lib/streams/chprintf.h"
 761              		.file 43 "../os/common/oslib/include/chheap.h"