ARM GAS  /var/folders/vd/czx34qs52cd_f3nb04sxmghc0000gn/T//ccYrAMKk.s 			page 1


   1              		.cpu cortex-m4
   2              		.eabi_attribute 20, 1
   3              		.eabi_attribute 21, 1
   4              		.eabi_attribute 23, 3
   5              		.eabi_attribute 24, 1
   6              		.eabi_attribute 25, 1
   7              		.eabi_attribute 26, 1
   8              		.eabi_attribute 30, 2
   9              		.eabi_attribute 34, 1
  10              		.eabi_attribute 18, 4
  11              		.file	"shell.c"
  12              		.text
  13              	.Ltext0:
  14              		.cfi_sections	.debug_frame
  15              		.section	.text.parse_arguments,"ax",%progbits
  16              		.align	1
  17              		.p2align 4,,15
  18              		.syntax unified
  19              		.thumb
  20              		.thumb_func
  21              		.fpu softvfp
  22              		.type	parse_arguments, %function
  23              	parse_arguments:
  24              	.LFB313:
  25              		.file 1 "../os/various/shell/shell.c"
  26              		.loc 1 58 0
  27              		.cfi_startproc
  28              		@ args = 0, pretend = 0, frame = 0
  29              		@ frame_needed = 0, uses_anonymous_args = 0
  30              	.LVL0:
  31 0000 70B5     		push	{r4, r5, r6, lr}
  32              		.cfi_def_cfa_offset 16
  33              		.cfi_offset 4, -16
  34              		.cfi_offset 5, -12
  35              		.cfi_offset 6, -8
  36              		.cfi_offset 14, -4
  37              		.loc 1 58 0
  38 0002 0E46     		mov	r6, r1
  39              		.loc 1 61 0
  40 0004 F0B1     		cbz	r0, .L2
  41 0006 0446     		mov	r4, r0
  42              		.loc 1 62 0
  43 0008 3060     		str	r0, [r6]
  44              	.LVL1:
  45              	.L3:
  46              		.loc 1 70 0
  47 000a 1149     		ldr	r1, .L18
  48              	.LVL2:
  49 000c 2046     		mov	r0, r4
  50              	.LVL3:
  51 000e FFF7FEFF 		bl	strspn
  52              	.LVL4:
  53              		.loc 1 72 0
  54 0012 215C     		ldrb	r1, [r4, r0]	@ zero_extendqisi2
  55 0014 2229     		cmp	r1, #34
  56              		.loc 1 70 0
  57 0016 04EB0005 		add	r5, r4, r0
ARM GAS  /var/folders/vd/czx34qs52cd_f3nb04sxmghc0000gn/T//ccYrAMKk.s 			page 2


  58              	.LVL5:
  59              		.loc 1 72 0
  60 001a 0DD0     		beq	.L17
  61              		.loc 1 80 0
  62 001c 0C49     		ldr	r1, .L18
  63 001e 2846     		mov	r0, r5
  64 0020 FFF7FEFF 		bl	strpbrk
  65              	.LVL6:
  66 0024 3060     		str	r0, [r6]
  67              	.L6:
  68              		.loc 1 84 0
  69 0026 18B1     		cbz	r0, .L7
  70              		.loc 1 85 0
  71 0028 421C     		adds	r2, r0, #1
  72 002a 0023     		movs	r3, #0
  73 002c 3260     		str	r2, [r6]
  74 002e 0370     		strb	r3, [r0]
  75              	.L7:
  76              		.loc 1 88 0
  77 0030 2B78     		ldrb	r3, [r5]	@ zero_extendqisi2
  78 0032 53B1     		cbz	r3, .L4
  79              		.loc 1 89 0
  80 0034 2846     		mov	r0, r5
  81 0036 70BD     		pop	{r4, r5, r6, pc}
  82              	.LVL7:
  83              	.L17:
  84              		.loc 1 75 0
  85 0038 0135     		adds	r5, r5, #1
  86              	.LVL8:
  87              		.loc 1 76 0
  88 003a 2846     		mov	r0, r5
  89 003c FFF7FEFF 		bl	strchr
  90              	.LVL9:
  91 0040 3060     		str	r0, [r6]
  92 0042 F0E7     		b	.L6
  93              	.LVL10:
  94              	.L2:
  95              		.loc 1 64 0
  96 0044 0C68     		ldr	r4, [r1]
  97              	.LVL11:
  98              		.loc 1 65 0
  99 0046 002C     		cmp	r4, #0
 100 0048 DFD1     		bne	.L3
 101              	.LVL12:
 102              	.L4:
 103              		.loc 1 88 0 discriminator 2
 104 004a 0025     		movs	r5, #0
 105              		.loc 1 89 0 discriminator 2
 106 004c 2846     		mov	r0, r5
 107 004e 70BD     		pop	{r4, r5, r6, pc}
 108              	.LVL13:
 109              	.L19:
 110              		.align	2
 111              	.L18:
 112 0050 00000000 		.word	.LC0
 113              		.cfi_endproc
 114              	.LFE313:
ARM GAS  /var/folders/vd/czx34qs52cd_f3nb04sxmghc0000gn/T//ccYrAMKk.s 			page 3


 115              		.size	parse_arguments, .-parse_arguments
 116              		.section	.text.shellInit,"ax",%progbits
 117              		.align	1
 118              		.p2align 4,,15
 119              		.global	shellInit
 120              		.syntax unified
 121              		.thumb
 122              		.thumb_func
 123              		.fpu softvfp
 124              		.type	shellInit, %function
 125              	shellInit:
 126              	.LFB317:
 127              		.loc 1 409 0
 128              		.cfi_startproc
 129              		@ args = 0, pretend = 0, frame = 0
 130              		@ frame_needed = 0, uses_anonymous_args = 0
 131              		@ link register save eliminated.
 132              	.LVL14:
 133              	.LBB23:
 134              	.LBB24:
 135              		.file 2 "../os/rt/include/chevents.h"
 136              		.loc 2 173 0
 137 0000 014B     		ldr	r3, .L21
 138 0002 1B60     		str	r3, [r3]
 139              	.LVL15:
 140              	.LBE24:
 141              	.LBE23:
 142              		.loc 1 412 0
 143 0004 7047     		bx	lr
 144              	.L22:
 145 0006 00BF     		.align	2
 146              	.L21:
 147 0008 00000000 		.word	.LANCHOR0
 148              		.cfi_endproc
 149              	.LFE317:
 150              		.size	shellInit, .-shellInit
 151              		.section	.text.shellExit,"ax",%progbits
 152              		.align	1
 153              		.p2align 4,,15
 154              		.global	shellExit
 155              		.syntax unified
 156              		.thumb
 157              		.thumb_func
 158              		.fpu softvfp
 159              		.type	shellExit, %function
 160              	shellExit:
 161              	.LFB318:
 162              		.loc 1 424 0
 163              		.cfi_startproc
 164              		@ args = 0, pretend = 0, frame = 0
 165              		@ frame_needed = 0, uses_anonymous_args = 0
 166              	.LVL16:
 167 0000 10B5     		push	{r4, lr}
 168              		.cfi_def_cfa_offset 8
 169              		.cfi_offset 4, -8
 170              		.cfi_offset 14, -4
 171              	.LBB25:
ARM GAS  /var/folders/vd/czx34qs52cd_f3nb04sxmghc0000gn/T//ccYrAMKk.s 			page 4


 172              	.LBB26:
 173              	.LBB27:
 174              	.LBB28:
 175              		.file 3 "../os/common/ext/ARM/CMSIS/Core/Include/cmsis_gcc.h"
 176              		.loc 3 490 0
 177 0002 2023     		movs	r3, #32
 178              	.LBE28:
 179              	.LBE27:
 180              	.LBE26:
 181              	.LBE25:
 182              		.loc 1 424 0
 183 0004 0446     		mov	r4, r0
 184              	.LBB32:
 185              	.LBB31:
 186              	.LBB30:
 187              	.LBB29:
 188              		.loc 3 490 0
 189              		.syntax unified
 190              	@ 490 "../os/common/ext/ARM/CMSIS/Core/Include/cmsis_gcc.h" 1
 191 0006 83F31188 		MSR basepri, r3
 192              	@ 0 "" 2
 193              	.LVL17:
 194              		.thumb
 195              		.syntax unified
 196              	.LBE29:
 197              	.LBE30:
 198              	.LBE31:
 199              	.LBE32:
 200              	.LBB33:
 201              	.LBB34:
 202              		.loc 2 257 0
 203 000a 0448     		ldr	r0, .L25
 204              	.LVL18:
 205 000c 0021     		movs	r1, #0
 206 000e FFF7FEFF 		bl	chEvtBroadcastFlagsI
 207              	.LVL19:
 208              	.LBE34:
 209              	.LBE33:
 210              		.loc 1 430 0
 211 0012 2046     		mov	r0, r4
 212              		.loc 1 431 0
 213 0014 BDE81040 		pop	{r4, lr}
 214              		.cfi_restore 14
 215              		.cfi_restore 4
 216              		.cfi_def_cfa_offset 0
 217              	.LVL20:
 218              		.loc 1 430 0
 219 0018 FFF7FEBF 		b	chThdExitS
 220              	.LVL21:
 221              	.L26:
 222              		.align	2
 223              	.L25:
 224 001c 00000000 		.word	.LANCHOR0
 225              		.cfi_endproc
 226              	.LFE318:
 227              		.size	shellExit, .-shellExit
 228              		.section	.text.shellGetLine,"ax",%progbits
ARM GAS  /var/folders/vd/czx34qs52cd_f3nb04sxmghc0000gn/T//ccYrAMKk.s 			page 5


 229              		.align	1
 230              		.p2align 4,,15
 231              		.global	shellGetLine
 232              		.syntax unified
 233              		.thumb
 234              		.thumb_func
 235              		.fpu softvfp
 236              		.type	shellGetLine, %function
 237              	shellGetLine:
 238              	.LFB319:
 239              		.loc 1 454 0
 240              		.cfi_startproc
 241              		@ args = 0, pretend = 0, frame = 8
 242              		@ frame_needed = 0, uses_anonymous_args = 0
 243              	.LVL22:
 244 0000 2DE9F041 		push	{r4, r5, r6, r7, r8, lr}
 245              		.cfi_def_cfa_offset 24
 246              		.cfi_offset 4, -24
 247              		.cfi_offset 5, -20
 248              		.cfi_offset 6, -16
 249              		.cfi_offset 7, -12
 250              		.cfi_offset 8, -8
 251              		.cfi_offset 14, -4
 252              		.loc 1 456 0
 253 0004 0468     		ldr	r4, [r0]
 254              	.LBB35:
 255              		.loc 1 583 0
 256 0006 013A     		subs	r2, r2, #1
 257              	.LVL23:
 258 0008 2568     		ldr	r5, [r4]
 259              	.LBE35:
 260              		.loc 1 454 0
 261 000a 82B0     		sub	sp, sp, #8
 262              		.cfi_def_cfa_offset 32
 263              		.loc 1 454 0
 264 000c 8846     		mov	r8, r1
 265              	.LVL24:
 266              	.LBB36:
 267              		.loc 1 583 0
 268 000e 8F18     		adds	r7, r1, r2
 269              	.LBE36:
 270              		.loc 1 456 0
 271 0010 0E46     		mov	r6, r1
 272              	.LVL25:
 273              	.L28:
 274              	.LBB37:
 275              		.loc 1 469 0
 276 0012 AB68     		ldr	r3, [r5, #8]
 277 0014 0122     		movs	r2, #1
 278 0016 0DF10701 		add	r1, sp, #7
 279 001a 2046     		mov	r0, r4
 280 001c 9847     		blx	r3
 281              	.LVL26:
 282 001e 58B3     		cbz	r0, .L36
 283              		.loc 1 522 0
 284 0020 9DF80730 		ldrb	r3, [sp, #7]	@ zero_extendqisi2
 285 0024 082B     		cmp	r3, #8
ARM GAS  /var/folders/vd/czx34qs52cd_f3nb04sxmghc0000gn/T//ccYrAMKk.s 			page 6


 286 0026 12D0     		beq	.L30
 287              		.loc 1 522 0 is_stmt 0 discriminator 1
 288 0028 7F2B     		cmp	r3, #127
 289              		.loc 1 584 0 is_stmt 1 discriminator 1
 290 002a 1946     		mov	r1, r3
 291 002c 2046     		mov	r0, r4
 292              		.loc 1 522 0 discriminator 1
 293 002e 0ED0     		beq	.L30
 294              	.LVL27:
 295              		.loc 1 531 0
 296 0030 0D2B     		cmp	r3, #13
 297 0032 25D0     		beq	.L43
 298              		.loc 1 581 0
 299 0034 1F2B     		cmp	r3, #31
 300 0036 2568     		ldr	r5, [r4]
 301 0038 EBD9     		bls	.L28
 302              		.loc 1 583 0
 303 003a BE42     		cmp	r6, r7
 304 003c E9D2     		bcs	.L28
 305              		.loc 1 584 0
 306 003e EB68     		ldr	r3, [r5, #12]
 307 0040 9847     		blx	r3
 308              	.LVL28:
 309              		.loc 1 585 0
 310 0042 9DF80730 		ldrb	r3, [sp, #7]	@ zero_extendqisi2
 311 0046 3370     		strb	r3, [r6]
 312 0048 2568     		ldr	r5, [r4]
 313 004a 0136     		adds	r6, r6, #1
 314              	.LVL29:
 315 004c E1E7     		b	.L28
 316              	.L30:
 317              		.loc 1 523 0
 318 004e 4645     		cmp	r6, r8
 319              		.loc 1 524 0
 320 0050 4FF00801 		mov	r1, #8
 321 0054 2046     		mov	r0, r4
 322 0056 2568     		ldr	r5, [r4]
 323              		.loc 1 523 0
 324 0058 DBD0     		beq	.L28
 325              	.LVL30:
 326              		.loc 1 524 0
 327 005a EB68     		ldr	r3, [r5, #12]
 328 005c 9847     		blx	r3
 329              	.LVL31:
 330              		.loc 1 525 0
 331 005e 2368     		ldr	r3, [r4]
 332 0060 2021     		movs	r1, #32
 333 0062 DB68     		ldr	r3, [r3, #12]
 334 0064 2046     		mov	r0, r4
 335 0066 9847     		blx	r3
 336              	.LVL32:
 337              		.loc 1 526 0
 338 0068 2368     		ldr	r3, [r4]
 339 006a 0821     		movs	r1, #8
 340 006c DB68     		ldr	r3, [r3, #12]
 341 006e 2046     		mov	r0, r4
 342 0070 9847     		blx	r3
ARM GAS  /var/folders/vd/czx34qs52cd_f3nb04sxmghc0000gn/T//ccYrAMKk.s 			page 7


 343              	.LVL33:
 344              		.loc 1 527 0
 345 0072 013E     		subs	r6, r6, #1
 346              	.LVL34:
 347 0074 2568     		ldr	r5, [r4]
 348 0076 CCE7     		b	.L28
 349              	.L36:
 350              		.loc 1 470 0
 351 0078 0120     		movs	r0, #1
 352              	.LBE37:
 353              		.loc 1 588 0
 354 007a 02B0     		add	sp, sp, #8
 355              		.cfi_remember_state
 356              		.cfi_def_cfa_offset 24
 357              		@ sp needed
 358 007c BDE8F081 		pop	{r4, r5, r6, r7, r8, pc}
 359              	.LVL35:
 360              	.L43:
 361              		.cfi_restore_state
 362              	.LBB38:
 363              		.loc 1 532 0
 364 0080 0349     		ldr	r1, .L44
 365 0082 FFF7FEFF 		bl	chprintf
 366              	.LVL36:
 367              		.loc 1 536 0
 368 0086 0020     		movs	r0, #0
 369 0088 3070     		strb	r0, [r6]
 370              	.LBE38:
 371              		.loc 1 588 0
 372 008a 02B0     		add	sp, sp, #8
 373              		.cfi_def_cfa_offset 24
 374              		@ sp needed
 375 008c BDE8F081 		pop	{r4, r5, r6, r7, r8, pc}
 376              	.LVL37:
 377              	.L45:
 378              		.align	2
 379              	.L44:
 380 0090 00000000 		.word	.LC1
 381              		.cfi_endproc
 382              	.LFE319:
 383              		.size	shellGetLine, .-shellGetLine
 384              		.section	.text.shellThread,"ax",%progbits
 385              		.align	1
 386              		.p2align 4,,15
 387              		.global	shellThread
 388              		.syntax unified
 389              		.thumb
 390              		.thumb_func
 391              		.fpu softvfp
 392              		.type	shellThread, %function
 393              	shellThread:
 394              	.LFB316:
 395              		.loc 1 333 0
 396              		.cfi_startproc
 397              		@ args = 0, pretend = 0, frame = 96
 398              		@ frame_needed = 0, uses_anonymous_args = 0
 399              	.LVL38:
ARM GAS  /var/folders/vd/czx34qs52cd_f3nb04sxmghc0000gn/T//ccYrAMKk.s 			page 8


 400 0000 2DE9F04F 		push	{r4, r5, r6, r7, r8, r9, r10, fp, lr}
 401              		.cfi_def_cfa_offset 36
 402              		.cfi_offset 4, -36
 403              		.cfi_offset 5, -32
 404              		.cfi_offset 6, -28
 405              		.cfi_offset 7, -24
 406              		.cfi_offset 8, -20
 407              		.cfi_offset 9, -16
 408              		.cfi_offset 10, -12
 409              		.cfi_offset 11, -8
 410              		.cfi_offset 14, -4
 411              		.loc 1 337 0
 412 0004 D0E90053 		ldrd	r5, r3, [r0]
 413              		.loc 1 333 0
 414 0008 99B0     		sub	sp, sp, #100
 415              		.cfi_def_cfa_offset 136
 416              		.loc 1 355 0
 417 000a 5349     		ldr	r1, .L97
 418              		.loc 1 337 0
 419 000c 0193     		str	r3, [sp, #4]
 420              		.loc 1 333 0
 421 000e 0746     		mov	r7, r0
 422              	.LVL39:
 423              		.loc 1 355 0
 424 0010 2846     		mov	r0, r5
 425              	.LVL40:
 426 0012 FFF7FEFF 		bl	chprintf
 427              	.LVL41:
 428              		.loc 1 356 0
 429 0016 2846     		mov	r0, r5
 430 0018 5049     		ldr	r1, .L97+4
 431              		.loc 1 358 0
 432 001a DFF86081 		ldr	r8, .L97+36
 433              		.loc 1 383 0
 434 001e DFF860A1 		ldr	r10, .L97+40
 435              		.loc 1 356 0
 436 0022 FFF7FEFF 		bl	chprintf
 437              	.LVL42:
 438              		.loc 1 359 0
 439 0026 4FF00009 		mov	r9, #0
 440              	.L47:
 441              		.loc 1 358 0
 442 002a 4146     		mov	r1, r8
 443 002c 2846     		mov	r0, r5
 444 002e FFF7FEFF 		bl	chprintf
 445              	.LVL43:
 446              		.loc 1 359 0
 447 0032 0023     		movs	r3, #0
 448 0034 4022     		movs	r2, #64
 449 0036 08A9     		add	r1, sp, #32
 450 0038 3846     		mov	r0, r7
 451 003a FFF7FEFF 		bl	shellGetLine
 452              	.LVL44:
 453 003e 0028     		cmp	r0, #0
 454 0040 35D1     		bne	.L93
 455              	.L48:
 456              		.loc 1 370 0
ARM GAS  /var/folders/vd/czx34qs52cd_f3nb04sxmghc0000gn/T//ccYrAMKk.s 			page 9


 457 0042 02A9     		add	r1, sp, #8
 458 0044 08A8     		add	r0, sp, #32
 459 0046 FFF7FEFF 		bl	parse_arguments
 460              	.LVL45:
 461              		.loc 1 373 0
 462 004a 02A9     		add	r1, sp, #8
 463              		.loc 1 370 0
 464 004c 0646     		mov	r6, r0
 465              	.LVL46:
 466              		.loc 1 373 0
 467 004e 0020     		movs	r0, #0
 468              	.LVL47:
 469 0050 03AC     		add	r4, sp, #12
 470              		.loc 1 372 0
 471 0052 4FF0000B 		mov	fp, #0
 472              	.LVL48:
 473              		.loc 1 373 0
 474 0056 FFF7FEFF 		bl	parse_arguments
 475              	.LVL49:
 476 005a 60B1     		cbz	r0, .L94
 477              	.LVL50:
 478              	.L52:
 479              		.loc 1 374 0
 480 005c BBF1040F 		cmp	fp, #4
 481 0060 1ED0     		beq	.L95
 482              		.loc 1 379 0
 483 0062 44F8040B 		str	r0, [r4], #4
 484              		.loc 1 373 0
 485 0066 02A9     		add	r1, sp, #8
 486 0068 0020     		movs	r0, #0
 487              	.LVL51:
 488              		.loc 1 379 0
 489 006a 0BF1010B 		add	fp, fp, #1
 490              	.LVL52:
 491              		.loc 1 373 0
 492 006e FFF7FEFF 		bl	parse_arguments
 493              	.LVL53:
 494 0072 0028     		cmp	r0, #0
 495 0074 F2D1     		bne	.L52
 496              	.L94:
 497              		.loc 1 381 0
 498 0076 18AB     		add	r3, sp, #96
 499 0078 03EB8B02 		add	r2, r3, fp, lsl #2
 500 007c 42F8540C 		str	r0, [r2, #-84]
 501              		.loc 1 382 0
 502 0080 002E     		cmp	r6, #0
 503 0082 D2D0     		beq	.L47
 504              		.loc 1 383 0
 505 0084 5146     		mov	r1, r10
 506 0086 3046     		mov	r0, r6
 507              	.LVL54:
 508 0088 FFF7FEFF 		bl	strcmp
 509              	.LVL55:
 510 008c A0B9     		cbnz	r0, .L96
 511              		.loc 1 384 0
 512 008e BBF1000F 		cmp	fp, #0
 513 0092 25D0     		beq	.L56
ARM GAS  /var/folders/vd/czx34qs52cd_f3nb04sxmghc0000gn/T//ccYrAMKk.s 			page 10


 514              		.loc 1 385 0
 515 0094 5246     		mov	r2, r10
 516 0096 3249     		ldr	r1, .L97+8
 517 0098 2846     		mov	r0, r5
 518 009a FFF7FEFF 		bl	chprintf
 519              	.LVL56:
 520              		.loc 1 386 0
 521 009e C4E7     		b	.L47
 522              	.LVL57:
 523              	.L95:
 524              		.loc 1 375 0
 525 00a0 3049     		ldr	r1, .L97+12
 526 00a2 2846     		mov	r0, r5
 527              	.LVL58:
 528 00a4 FFF7FEFF 		bl	chprintf
 529              	.LVL59:
 530              		.loc 1 381 0
 531 00a8 CDF81C90 		str	r9, [sp, #28]
 532 00ac BDE7     		b	.L47
 533              	.LVL60:
 534              	.L93:
 535              	.LBB49:
 536              	.LBB50:
 537              		.file 4 "../os/hal/osal/rt/osal.h"
 538              		.loc 4 720 0
 539 00ae 4FF47A70 		mov	r0, #1000
 540 00b2 FFF7FEFF 		bl	chThdSleep
 541              	.LVL61:
 542 00b6 C4E7     		b	.L48
 543              	.LVL62:
 544              	.L96:
 545              	.LBE50:
 546              	.LBE49:
 547              	.LBB51:
 548              	.LBB52:
 549              		.loc 1 102 0
 550 00b8 2B4B     		ldr	r3, .L97+16
 551 00ba 1868     		ldr	r0, [r3]
 552 00bc 0028     		cmp	r0, #0
 553 00be 32D0     		beq	.L55
 554 00c0 294C     		ldr	r4, .L97+16
 555 00c2 02E0     		b	.L62
 556              	.LVL63:
 557              	.L61:
 558 00c4 54F8080F 		ldr	r0, [r4, #8]!
 559              	.LVL64:
 560 00c8 68B3     		cbz	r0, .L55
 561              	.LVL65:
 562              	.L62:
 563              		.loc 1 103 0
 564 00ca 3146     		mov	r1, r6
 565 00cc FFF7FEFF 		bl	strcmp
 566              	.LVL66:
 567 00d0 0028     		cmp	r0, #0
 568 00d2 F7D1     		bne	.L61
 569              	.LVL67:
 570              	.L92:
ARM GAS  /var/folders/vd/czx34qs52cd_f3nb04sxmghc0000gn/T//ccYrAMKk.s 			page 11


 571              	.LBE52:
 572              	.LBE51:
 573              	.LBB53:
 574              	.LBB54:
 575              		.loc 1 104 0
 576 00d4 6468     		ldr	r4, [r4, #4]
 577 00d6 5946     		mov	r1, fp
 578 00d8 03AA     		add	r2, sp, #12
 579 00da 2846     		mov	r0, r5
 580 00dc A047     		blx	r4
 581              	.LVL68:
 582 00de A4E7     		b	.L47
 583              	.L56:
 584              	.LBE54:
 585              	.LBE53:
 586              		.loc 1 388 0
 587 00e0 2249     		ldr	r1, .L97+20
 588 00e2 2846     		mov	r0, r5
 589 00e4 FFF7FEFF 		bl	chprintf
 590              	.LVL69:
 591              	.LBB56:
 592              	.LBB57:
 593              		.loc 1 93 0
 594 00e8 1F4B     		ldr	r3, .L97+16
 595 00ea 1A68     		ldr	r2, [r3]
 596 00ec 4AB1     		cbz	r2, .L57
 597              		.loc 1 94 0
 598 00ee 204C     		ldr	r4, .L97+24
 599 00f0 1E46     		mov	r6, r3
 600              	.LVL70:
 601              	.L58:
 602 00f2 2146     		mov	r1, r4
 603 00f4 2846     		mov	r0, r5
 604 00f6 FFF7FEFF 		bl	chprintf
 605              	.LVL71:
 606              		.loc 1 93 0
 607 00fa 56F8082F 		ldr	r2, [r6, #8]!
 608              	.LVL72:
 609 00fe 002A     		cmp	r2, #0
 610 0100 F7D1     		bne	.L58
 611              	.LVL73:
 612              	.L57:
 613              	.LBE57:
 614              	.LBE56:
 615              		.loc 1 390 0
 616 0102 019E     		ldr	r6, [sp, #4]
 617 0104 56B1     		cbz	r6, .L59
 618              	.LVL74:
 619              	.LBB58:
 620              	.LBB59:
 621              		.loc 1 93 0
 622 0106 3268     		ldr	r2, [r6]
 623 0108 42B1     		cbz	r2, .L59
 624              		.loc 1 94 0
 625 010a 194C     		ldr	r4, .L97+24
 626              	.LVL75:
 627              	.L60:
ARM GAS  /var/folders/vd/czx34qs52cd_f3nb04sxmghc0000gn/T//ccYrAMKk.s 			page 12


 628 010c 2146     		mov	r1, r4
 629 010e 2846     		mov	r0, r5
 630 0110 FFF7FEFF 		bl	chprintf
 631              	.LVL76:
 632              		.loc 1 93 0
 633 0114 56F8082F 		ldr	r2, [r6, #8]!
 634              	.LVL77:
 635 0118 002A     		cmp	r2, #0
 636 011a F7D1     		bne	.L60
 637              	.LVL78:
 638              	.L59:
 639              	.LBE59:
 640              	.LBE58:
 641              		.loc 1 392 0
 642 011c 0E49     		ldr	r1, .L97
 643 011e 2846     		mov	r0, r5
 644 0120 FFF7FEFF 		bl	chprintf
 645              	.LVL79:
 646 0124 81E7     		b	.L47
 647              	.LVL80:
 648              	.L55:
 649              		.loc 1 394 0
 650 0126 019C     		ldr	r4, [sp, #4]
 651 0128 5CB1     		cbz	r4, .L63
 652              	.LVL81:
 653              	.LBB60:
 654              	.LBB55:
 655              		.loc 1 102 0
 656 012a 2068     		ldr	r0, [r4]
 657 012c 18B9     		cbnz	r0, .L65
 658 012e 08E0     		b	.L63
 659              	.LVL82:
 660              	.L64:
 661 0130 54F8080F 		ldr	r0, [r4, #8]!
 662              	.LVL83:
 663 0134 28B1     		cbz	r0, .L63
 664              	.LVL84:
 665              	.L65:
 666              		.loc 1 103 0
 667 0136 3146     		mov	r1, r6
 668 0138 FFF7FEFF 		bl	strcmp
 669              	.LVL85:
 670 013c 0028     		cmp	r0, #0
 671 013e F7D1     		bne	.L64
 672 0140 C8E7     		b	.L92
 673              	.LVL86:
 674              	.L63:
 675              	.LBE55:
 676              	.LBE60:
 677              		.loc 1 396 0
 678 0142 3246     		mov	r2, r6
 679 0144 0B49     		ldr	r1, .L97+28
 680 0146 2846     		mov	r0, r5
 681 0148 FFF7FEFF 		bl	chprintf
 682              	.LVL87:
 683              		.loc 1 397 0
 684 014c 0A49     		ldr	r1, .L97+32
ARM GAS  /var/folders/vd/czx34qs52cd_f3nb04sxmghc0000gn/T//ccYrAMKk.s 			page 13


 685 014e 2846     		mov	r0, r5
 686 0150 FFF7FEFF 		bl	chprintf
 687              	.LVL88:
 688 0154 69E7     		b	.L47
 689              	.L98:
 690 0156 00BF     		.align	2
 691              	.L97:
 692 0158 00000000 		.word	.LC1
 693 015c 00000000 		.word	.LC2
 694 0160 3C000000 		.word	.LC6
 695 0164 1C000000 		.word	.LC4
 696 0168 00000000 		.word	shell_local_commands
 697 016c 48000000 		.word	.LC7
 698 0170 58000000 		.word	.LC8
 699 0174 5C000000 		.word	.LC9
 700 0178 60000000 		.word	.LC10
 701 017c 14000000 		.word	.LC3
 702 0180 34000000 		.word	.LC5
 703              		.cfi_endproc
 704              	.LFE316:
 705              		.size	shellThread, .-shellThread
 706              		.global	shell_terminated
 707              		.section	.bss.shell_terminated,"aw",%nobits
 708              		.align	2
 709              		.set	.LANCHOR0,. + 0
 710              		.type	shell_terminated, %object
 711              		.size	shell_terminated, 4
 712              	shell_terminated:
 713 0000 00000000 		.space	4
 714              		.section	.rodata.parse_arguments.str1.4,"aMS",%progbits,1
 715              		.align	2
 716              	.LC0:
 717 0000 200900   		.ascii	" \011\000"
 718              		.section	.rodata.shellGetLine.str1.4,"aMS",%progbits,1
 719              		.align	2
 720              	.LC1:
 721 0000 0D0A00   		.ascii	"\015\012\000"
 722              		.section	.rodata.shellThread.str1.4,"aMS",%progbits,1
 723              		.align	2
 724              	.LC2:
 725 0000 43686962 		.ascii	"ChibiOS/RT Shell\015\012\000"
 725      694F532F 
 725      52542053 
 725      68656C6C 
 725      0D0A00
 726 0013 00       		.space	1
 727              	.LC3:
 728 0014 63683E20 		.ascii	"ch> \000"
 728      00
 729 0019 000000   		.space	3
 730              	.LC4:
 731 001c 746F6F20 		.ascii	"too many arguments\015\012\000"
 731      6D616E79 
 731      20617267 
 731      756D656E 
 731      74730D0A 
 732 0031 000000   		.space	3
ARM GAS  /var/folders/vd/czx34qs52cd_f3nb04sxmghc0000gn/T//ccYrAMKk.s 			page 14


 733              	.LC5:
 734 0034 68656C70 		.ascii	"help\000"
 734      00
 735 0039 000000   		.space	3
 736              	.LC6:
 737 003c 55736167 		.ascii	"Usage: %s\015\012\000"
 737      653A2025 
 737      730D0A00 
 738              	.LC7:
 739 0048 436F6D6D 		.ascii	"Commands: help \000"
 739      616E6473 
 739      3A206865 
 739      6C702000 
 740              	.LC8:
 741 0058 25732000 		.ascii	"%s \000"
 742              	.LC9:
 743 005c 257300   		.ascii	"%s\000"
 744 005f 00       		.space	1
 745              	.LC10:
 746 0060 203F0D0A 		.ascii	" ?\015\012\000"
 746      00
 747              		.text
 748              	.Letext0:
 749              		.file 5 "/usr/local/Cellar/gcc-arm-none-eabi/20171218/lib/gcc/arm-none-eabi/7.2.1/include/stddef.h
 750              		.file 6 "/usr/local/Cellar/gcc-arm-none-eabi/20171218/arm-none-eabi/include/machine/_default_types
 751              		.file 7 "/usr/local/Cellar/gcc-arm-none-eabi/20171218/arm-none-eabi/include/sys/lock.h"
 752              		.file 8 "/usr/local/Cellar/gcc-arm-none-eabi/20171218/arm-none-eabi/include/sys/_types.h"
 753              		.file 9 "/usr/local/Cellar/gcc-arm-none-eabi/20171218/arm-none-eabi/include/sys/reent.h"
 754              		.file 10 "/usr/local/Cellar/gcc-arm-none-eabi/20171218/arm-none-eabi/include/sys/_stdint.h"
 755              		.file 11 "../os/common/ports/ARMCMx/compilers/GCC/chtypes.h"
 756              		.file 12 "../os/rt/include/chsystypes.h"
 757              		.file 13 "../os/rt/include/chschd.h"
 758              		.file 14 "../os/rt/include/chtime.h"
 759              		.file 15 "../os/common/ext/ARM/CMSIS/Core/Include/core_cm4.h"
 760              		.file 16 "../os/common/ext/ST/STM32F4xx/system_stm32f4xx.h"
 761              		.file 17 "../os/common/ext/ST/STM32F4xx/stm32f407xx.h"
 762              		.file 18 "../os/common/ports/ARMCMx/chcore.h"
 763              		.file 19 "../os/common/ports/ARMCMx/chcore_v7m.h"
 764              		.file 20 "../os/hal/ports/STM32/LLD/TIMv1/stm32_tim.h"
 765              		.file 21 "../os/rt/include/chtm.h"
 766              		.file 22 "../os/rt/include/chsem.h"
 767              		.file 23 "../os/rt/include/chmtx.h"
 768              		.file 24 "../os/rt/include/chsys.h"
 769              		.file 25 "../os/rt/include/chregistry.h"
 770              		.file 26 "../os/common/oslib/include/chmemcore.h"
 771              		.file 27 "../os/common/oslib/include/chmempools.h"
 772              		.file 28 "../os/common/oslib/include/chfactory.h"
 773              		.file 29 "../os/hal/ports/STM32/LLD/DMAv2/stm32_dma.h"
 774              		.file 30 "../os/hal/include/hal_streams.h"
 775              		.file 31 "../os/hal/include/hal_queues.h"
 776              		.file 32 "../os/hal/include/hal_pal.h"
 777              		.file 33 "../os/hal/ports/STM32/LLD/GPIOv2/hal_pal_lld.h"
 778              		.file 34 "../os/hal/include/hal_pwm.h"
 779              		.file 35 "../os/hal/ports/STM32/LLD/TIMv1/hal_pwm_lld.h"
 780              		.file 36 "../os/hal/include/hal_serial.h"
 781              		.file 37 "../os/hal/ports/STM32/LLD/USARTv1/hal_serial_lld.h"
 782              		.file 38 "../os/various/shell/shell.h"
ARM GAS  /var/folders/vd/czx34qs52cd_f3nb04sxmghc0000gn/T//ccYrAMKk.s 			page 15


 783              		.file 39 "../os/various/shell/shell_cmd.h"
 784              		.file 40 "../os/hal/lib/streams/chprintf.h"
 785              		.file 41 "../os/rt/include/chthreads.h"
 786              		.file 42 "/usr/local/Cellar/gcc-arm-none-eabi/20171218/arm-none-eabi/include/string.h"
 787              		.file 43 "<built-in>"