ARM GAS  /var/folders/vd/czx34qs52cd_f3nb04sxmghc0000gn/T//cc7V9gBu.s 			page 1


   1              		.cpu cortex-m4
   2              		.eabi_attribute 20, 1
   3              		.eabi_attribute 21, 1
   4              		.eabi_attribute 23, 3
   5              		.eabi_attribute 24, 1
   6              		.eabi_attribute 25, 1
   7              		.eabi_attribute 26, 1
   8              		.eabi_attribute 30, 2
   9              		.eabi_attribute 34, 1
  10              		.eabi_attribute 18, 4
  11              		.file	"stm32_isr.c"
  12              		.text
  13              	.Ltext0:
  14              		.cfi_sections	.debug_frame
  15              		.section	.text.irqInit,"ax",%progbits
  16              		.align	1
  17              		.p2align 4,,15
  18              		.global	irqInit
  19              		.syntax unified
  20              		.thumb
  21              		.thumb_func
  22              		.fpu softvfp
  23              		.type	irqInit, %function
  24              	irqInit:
  25              	.LFB313:
  26              		.file 1 "../os/hal/ports/STM32/STM32F4xx/stm32_isr.c"
  27              		.loc 1 224 0
  28              		.cfi_startproc
  29              		@ args = 0, pretend = 0, frame = 0
  30              		@ frame_needed = 0, uses_anonymous_args = 0
  31              		.loc 1 227 0
  32 0000 0621     		movs	r1, #6
  33              		.loc 1 224 0
  34 0002 08B5     		push	{r3, lr}
  35              		.cfi_def_cfa_offset 8
  36              		.cfi_offset 3, -8
  37              		.cfi_offset 14, -4
  38              		.loc 1 227 0
  39 0004 0846     		mov	r0, r1
  40 0006 FFF7FEFF 		bl	nvicEnableVector
  41              	.LVL0:
  42              		.loc 1 228 0
  43 000a 0621     		movs	r1, #6
  44 000c 0720     		movs	r0, #7
  45 000e FFF7FEFF 		bl	nvicEnableVector
  46              	.LVL1:
  47              		.loc 1 229 0
  48 0012 0621     		movs	r1, #6
  49 0014 0820     		movs	r0, #8
  50 0016 FFF7FEFF 		bl	nvicEnableVector
  51              	.LVL2:
  52              		.loc 1 230 0
  53 001a 0621     		movs	r1, #6
  54 001c 0920     		movs	r0, #9
  55 001e FFF7FEFF 		bl	nvicEnableVector
  56              	.LVL3:
  57              		.loc 1 231 0
ARM GAS  /var/folders/vd/czx34qs52cd_f3nb04sxmghc0000gn/T//cc7V9gBu.s 			page 2


  58 0022 0621     		movs	r1, #6
  59 0024 0A20     		movs	r0, #10
  60 0026 FFF7FEFF 		bl	nvicEnableVector
  61              	.LVL4:
  62              		.loc 1 232 0
  63 002a 0621     		movs	r1, #6
  64 002c 1720     		movs	r0, #23
  65 002e FFF7FEFF 		bl	nvicEnableVector
  66              	.LVL5:
  67              		.loc 1 233 0
  68 0032 0621     		movs	r1, #6
  69 0034 2820     		movs	r0, #40
  70              		.loc 1 235 0
  71 0036 BDE80840 		pop	{r3, lr}
  72              		.cfi_restore 14
  73              		.cfi_restore 3
  74              		.cfi_def_cfa_offset 0
  75              		.loc 1 233 0
  76 003a FFF7FEBF 		b	nvicEnableVector
  77              	.LVL6:
  78              		.cfi_endproc
  79              	.LFE313:
  80              		.size	irqInit, .-irqInit
  81 003e 00BF     		.section	.text.irqDeinit,"ax",%progbits
  82              		.align	1
  83              		.p2align 4,,15
  84              		.global	irqDeinit
  85              		.syntax unified
  86              		.thumb
  87              		.thumb_func
  88              		.fpu softvfp
  89              		.type	irqDeinit, %function
  90              	irqDeinit:
  91              	.LFB314:
  92              		.loc 1 242 0
  93              		.cfi_startproc
  94              		@ args = 0, pretend = 0, frame = 0
  95              		@ frame_needed = 0, uses_anonymous_args = 0
  96 0000 08B5     		push	{r3, lr}
  97              		.cfi_def_cfa_offset 8
  98              		.cfi_offset 3, -8
  99              		.cfi_offset 14, -4
 100              		.loc 1 245 0
 101 0002 0620     		movs	r0, #6
 102 0004 FFF7FEFF 		bl	nvicDisableVector
 103              	.LVL7:
 104              		.loc 1 246 0
 105 0008 0720     		movs	r0, #7
 106 000a FFF7FEFF 		bl	nvicDisableVector
 107              	.LVL8:
 108              		.loc 1 247 0
 109 000e 0820     		movs	r0, #8
 110 0010 FFF7FEFF 		bl	nvicDisableVector
 111              	.LVL9:
 112              		.loc 1 248 0
 113 0014 0920     		movs	r0, #9
 114 0016 FFF7FEFF 		bl	nvicDisableVector
ARM GAS  /var/folders/vd/czx34qs52cd_f3nb04sxmghc0000gn/T//cc7V9gBu.s 			page 3


 115              	.LVL10:
 116              		.loc 1 249 0
 117 001a 0A20     		movs	r0, #10
 118 001c FFF7FEFF 		bl	nvicDisableVector
 119              	.LVL11:
 120              		.loc 1 250 0
 121 0020 1720     		movs	r0, #23
 122 0022 FFF7FEFF 		bl	nvicDisableVector
 123              	.LVL12:
 124              		.loc 1 251 0
 125 0026 2820     		movs	r0, #40
 126              		.loc 1 253 0
 127 0028 BDE80840 		pop	{r3, lr}
 128              		.cfi_restore 14
 129              		.cfi_restore 3
 130              		.cfi_def_cfa_offset 0
 131              		.loc 1 251 0
 132 002c FFF7FEBF 		b	nvicDisableVector
 133              	.LVL13:
 134              		.cfi_endproc
 135              	.LFE314:
 136              		.size	irqDeinit, .-irqDeinit
 137              		.text
 138              	.Letext0:
 139              		.file 2 "/usr/local/Cellar/gcc-arm-none-eabi/20171218/lib/gcc/arm-none-eabi/7.2.1/include/stddef.h
 140              		.file 3 "/usr/local/Cellar/gcc-arm-none-eabi/20171218/arm-none-eabi/include/machine/_default_types
 141              		.file 4 "/usr/local/Cellar/gcc-arm-none-eabi/20171218/arm-none-eabi/include/sys/_stdint.h"
 142              		.file 5 "../os/common/ports/ARMCMx/compilers/GCC/chtypes.h"
 143              		.file 6 "../os/rt/include/chsystypes.h"
 144              		.file 7 "../os/rt/include/chschd.h"
 145              		.file 8 "../os/rt/include/chtime.h"
 146              		.file 9 "../os/common/ext/ARM/CMSIS/Core/Include/core_cm4.h"
 147              		.file 10 "../os/common/ext/ST/STM32F4xx/system_stm32f4xx.h"
 148              		.file 11 "../os/common/ext/ST/STM32F4xx/stm32f407xx.h"
 149              		.file 12 "../os/common/ports/ARMCMx/chcore.h"
 150              		.file 13 "../os/common/ports/ARMCMx/chcore_v7m.h"
 151              		.file 14 "../os/hal/ports/STM32/LLD/TIMv1/stm32_tim.h"
 152              		.file 15 "../os/rt/include/chtm.h"
 153              		.file 16 "../os/rt/include/chsem.h"
 154              		.file 17 "../os/rt/include/chmtx.h"
 155              		.file 18 "../os/rt/include/chsys.h"
 156              		.file 19 "../os/rt/include/chregistry.h"
 157              		.file 20 "../os/rt/include/chevents.h"
 158              		.file 21 "../os/common/oslib/include/chmemcore.h"
 159              		.file 22 "../os/common/oslib/include/chmempools.h"
 160              		.file 23 "../os/common/oslib/include/chfactory.h"
 161              		.file 24 "../os/hal/ports/STM32/LLD/DMAv2/stm32_dma.h"
 162              		.file 25 "../os/hal/include/hal_queues.h"
 163              		.file 26 "../os/hal/include/hal_pal.h"
 164              		.file 27 "../os/hal/ports/STM32/LLD/GPIOv2/hal_pal_lld.h"
 165              		.file 28 "../os/hal/include/hal_pwm.h"
 166              		.file 29 "../os/hal/ports/STM32/LLD/TIMv1/hal_pwm_lld.h"
 167              		.file 30 "../os/hal/include/hal_serial.h"
 168              		.file 31 "../os/hal/ports/STM32/LLD/USARTv1/hal_serial_lld.h"
 169              		.file 32 "../os/hal/ports/common/ARMCMx/nvic.h"