ARM GAS  /var/folders/vd/czx34qs52cd_f3nb04sxmghc0000gn/T//cc7V9gBu.s 			page 1


   1              		.cpu cortex-m4
   2              		.eabi_attribute 20, 1
   3              		.eabi_attribute 21, 1
   4              		.eabi_attribute 23, 3
   5              		.eabi_attribute 24, 1
   6              		.eabi_attribute 25, 1
   7              		.eabi_attribute 26, 1
   8              		.eabi_attribute 30, 2
   9              		.eabi_attribute 34, 1
  10              		.eabi_attribute 18, 4
  11              		.file	"stm32_isr.c"
  12              		.text
  13              	.Ltext0:
  14              		.cfi_sections	.debug_frame
  15              		.section	.text.irqInit,"ax",%progbits
  16              		.align	1
  17              		.p2align 4,,15
  18              		.global	irqInit
  19              		.syntax unified
  20              		.thumb
  21              		.thumb_func
  22              		.fpu softvfp
  23              		.type	irqInit, %function
  24              	irqInit:
  25              	.LFB313:
  26              		.file 1 "../os/hal/ports/STM32/STM32F4xx/stm32_isr.c"
  27              		.loc 1 224 0
  28              		.cfi_startproc
  29              		@ args = 0, pretend = 0, frame = 0
  30              		@ frame_needed = 0, uses_anonymous_args = 0
  31              		.loc 1 227 0
  32 0000 0621     		movs	r1, #6
  33              		.loc 1 224 0
  34 0002 08B5     		push	{r3, lr}
  35              		.cfi_def_cfa_offset 8
  36              		.cfi_offset 3, -8
  37              		.cfi_offset 14, -4
  38              		.loc 1 227 0
  39 0004 0846     		mov	r0, r1
  40 0006 FFF7FEFF 		bl	nvicEnableVector
  41              	.LVL0:
  42              		.loc 1 228 0
  43 000a 0621     		movs	r1, #6
  44 000c 0720     		movs	r0, #7
  45 000e FFF7FEFF 		bl	nvicEnableVector
  46              	.LVL1:
  47              		.loc 1 229 0
  48 0012 0621     		movs	r1, #6
  49 0014 0820     		movs	r0, #8
  50 0016 FFF7FEFF 		bl	nvicEnableVector
  51              	.LVL2:
  52              		.loc 1 230 0
  53 001a 0621     		movs	r1, #6
  54 001c 0920     		movs	r0, #9
  55 001e FFF7FEFF 		bl	nvicEnableVector
  56              	.LVL3:
  57              		.loc 1 231 0
ARM GAS  /var/folders/vd/czx34qs52cd_f3nb04sxmghc0000gn/T//cc7V9gBu.s 			page 2


  58 0022 0621     		movs	r1, #6
  59 0024 0A20     		movs	r0, #10
  60 0026 FFF7FEFF 		bl	nvicEnableVector
  61              	.LVL4:
  62              		.loc 1 232 0
  63 002a 0621     		movs	r1, #6
  64 002c 1720     		movs	r0, #23
  65 002e FFF7FEFF 		bl	nvicEnableVector
  66              	.LVL5:
  67              		.loc 1 233 0
  68 0032 0621     		movs	r1, #6
  69 0034 2820     		movs	r0, #40
  70              		.loc 1 235 0
  71 0036 BDE80840 		pop	{r3, lr}
  72              		.cfi_restore 14
  73              		.cfi_restore 3
  74              		.cfi_def_cfa_offset 0
  75              		.loc 1 233 0
  76 003a FFF7FEBF 		b	nvicEnableVector
  77              	.LVL6:
  78              		.cfi_endproc
  79              	.LFE313:
  80              		.size	irqInit, .-irqInit
  81 003e 00BF     		.section	.text.irqDeinit,"ax",%progbits
  82              		.align	1
  83              		.p2align 4,,15
  84              		.global	irqDeinit
  85              		.syntax unified
  86              		.thumb
  87              		.thumb_func
  88              		.fpu softvfp
  89              		.type	irqDeinit, %function
  90              	irqDeinit:
  91              	.LFB314:
  92              		.loc 1 242 0
  93              		.cfi_startproc
  94              		@ args = 0, pretend = 0, frame = 0
  95              		@ frame_needed = 0, uses_anonymous_args = 0
  96 0000 08B5     		push	{r3, lr}
  97              		.cfi_def_cfa_offset 8
  98              		.cfi_offset 3, -8
  99              		.cfi_offset 14, -4
 100              		.loc 1 245 0
 101 0002 0620     		movs	r0, #6
 102 0004 FFF7FEFF 		bl	nvicDisableVector
 103              	.LVL7:
 104              		.loc 1 246 0
 105 0008 0720     		movs	r0, #7
 106 000a FFF7FEFF 		bl	nvicDisableVector
 107              	.LVL8:
 108              		.loc 1 247 0
 109 000e 0820     		movs	r0, #8
 110 0010 FFF7FEFF 		bl	nvicDisableVector
 111              	.LVL9:
 112              		.loc 1 248 0
 113 0014 0920     		movs	r0, #9
 114 0016 FFF7FEFF 		bl	nvicDisableVector
ARM GAS  /var/folders/vd/czx34qs52cd_f3nb04sxmghc0000gn/T//cc7V9gBu.s 			page 3


 115              	.LVL10:
 116              		.loc 1 249 0
 117 001a 0A20     		movs	r0, #10
 118 001c FFF7FEFF 		bl	nvicDisableVector
 119              	.LVL11:
 120              		.loc 1 250 0
 121 0020 1720     		movs	r0, #23
 122 0022 FFF7FEFF 		bl	nvicDisableVector
 123              	.LVL12:
 124              		.loc 1 251 0
 125 0026 2820     		movs	r0, #40
 126              		.loc 1 253 0
 127 0028 BDE80840 		pop	{r3, lr}
 128              		.cfi_restore 14
 129              		.cfi_restore 3
 130              		.cfi_def_cfa_offset 0
 131              		.loc 1 251 0
 132 002c FFF7FEBF 		b	nvicDisableVector
 133              	.LVL13:
 134              		.cfi_endproc
 135              	.LFE314:
 136              		.size	irqDeinit, .-irqDeinit
 137              		.text
 138              	.Letext0:
 139              		.file 2 "/usr/local/Cellar/gcc-arm-none-eabi/20171218/lib/gcc/arm-none-eabi/7.2.1/include/stddef.h
 140              		.file 3 "/usr/local/Cellar/gcc-arm-none-eabi/20171218/arm-none-eabi/include/machine/_default_types
 141              		.file 4 "/usr/local/Cellar/gcc-arm-none-eabi/20171218/arm-none-eabi/include/sys/_stdint.h"
 142              		.file 5 "../os/common/ports/ARMCMx/compilers/GCC/chtypes.h"
 143              		.file 6 "../os/rt/include/chsystypes.h"
 144              		.file 7 "../os/rt/include/chschd.h"
 145              		.file 8 "../os/rt/include/chtime.h"
 146              		.file 9 "../os/common/ext/ARM/CMSIS/Core/Include/core_cm4.h"
 147              		.file 10 "../os/common/ext/ST/STM32F4xx/system_stm32f4xx.h"
 148              		.file 11 "../os/common/ext/ST/STM32F4xx/stm32f407xx.h"
 149              		.file 12 "../os/common/ports/ARMCMx/chcore.h"
 150              		.file 13 "../os/common/ports/ARMCMx/chcore_v7m.h"
 151              		.file 14 "../os/hal/ports/STM32/LLD/TIMv1/stm32_tim.h"
 152              		.file 15 "../os/rt/include/chtm.h"
 153              		.file 16 "../os/rt/include/chsem.h"
 154              		.file 17 "../os/rt/include/chmtx.h"
 155              		.file 18 "../os/rt/include/chsys.h"
 156              		.file 19 "../os/rt/include/chregistry.h"
 157              		.file 20 "../os/rt/include/chevents.h"
 158              		.file 21 "../os/common/oslib/include/chmemcore.h"
 159              		.file 22 "../os/common/oslib/include/chmempools.h"
 160              		.file 23 "../os/common/oslib/include/chfactory.h"
 161              		.file 24 "../os/hal/ports/STM32/LLD/DMAv2/stm32_dma.h"
 162              		.file 25 "../os/hal/include/hal_queues.h"
 163              		.file 26 "../os/hal/include/hal_pal.h"
 164              		.file 27 "../os/hal/ports/STM32/LLD/GPIOv2/hal_pal_lld.h"
 165              		.file 28 "../os/hal/include/hal_pwm.h"
 166              		.file 29 "../os/hal/ports/STM32/LLD/TIMv1/hal_pwm_lld.h"
 167              		.file 30 "../os/hal/include/hal_serial.h"
 168              		.file 31 "../os/hal/ports/STM32/LLD/USARTv1/hal_serial_lld.h"
 169              		.file 32 "../os/hal/ports/common/ARMCMx/nvic.h"
 170              		.section	.debug_info,"",%progbits
 171              	.Ldebug_info0:
ARM GAS  /var/folders/vd/czx34qs52cd_f3nb04sxmghc0000gn/T//cc7V9gBu.s 			page 4


 172 0000 49150000 		.4byte	0x1549
 173 0004 0400     		.2byte	0x4
 174 0006 00000000 		.4byte	.Ldebug_abbrev0
 175 000a 04       		.byte	0x4
 176 000b 01       		.uleb128 0x1
 177 000c 02070000 		.4byte	.LASF323
 178 0010 0C       		.byte	0xc
 179 0011 76080000 		.4byte	.LASF324
 180 0015 A10D0000 		.4byte	.LASF325
 181 0019 00000000 		.4byte	.Ldebug_ranges0+0
 182 001d 00000000 		.4byte	0
 183 0021 00000000 		.4byte	.Ldebug_line0
 184 0025 02       		.uleb128 0x2
 185 0026 04       		.byte	0x4
 186 0027 05       		.byte	0x5
 187 0028 696E7400 		.ascii	"int\000"
 188 002c 03       		.uleb128 0x3
 189 002d 39000000 		.4byte	.LASF4
 190 0031 02       		.byte	0x2
 191 0032 D8       		.byte	0xd8
 192 0033 3C000000 		.4byte	0x3c
 193 0037 04       		.uleb128 0x4
 194 0038 2C000000 		.4byte	0x2c
 195 003c 05       		.uleb128 0x5
 196 003d 04       		.byte	0x4
 197 003e 07       		.byte	0x7
 198 003f 0F090000 		.4byte	.LASF0
 199 0043 05       		.uleb128 0x5
 200 0044 08       		.byte	0x8
 201 0045 05       		.byte	0x5
 202 0046 17080000 		.4byte	.LASF1
 203 004a 05       		.uleb128 0x5
 204 004b 08       		.byte	0x8
 205 004c 04       		.byte	0x4
 206 004d C3090000 		.4byte	.LASF2
 207 0051 05       		.uleb128 0x5
 208 0052 01       		.byte	0x1
 209 0053 06       		.byte	0x6
 210 0054 C7020000 		.4byte	.LASF3
 211 0058 03       		.uleb128 0x3
 212 0059 AD010000 		.4byte	.LASF5
 213 005d 03       		.byte	0x3
 214 005e 2B       		.byte	0x2b
 215 005f 63000000 		.4byte	0x63
 216 0063 05       		.uleb128 0x5
 217 0064 01       		.byte	0x1
 218 0065 08       		.byte	0x8
 219 0066 0F030000 		.4byte	.LASF6
 220 006a 05       		.uleb128 0x5
 221 006b 02       		.byte	0x2
 222 006c 05       		.byte	0x5
 223 006d 500C0000 		.4byte	.LASF7
 224 0071 03       		.uleb128 0x3
 225 0072 DB030000 		.4byte	.LASF8
 226 0076 03       		.byte	0x3
 227 0077 39       		.byte	0x39
 228 0078 7C000000 		.4byte	0x7c
ARM GAS  /var/folders/vd/czx34qs52cd_f3nb04sxmghc0000gn/T//cc7V9gBu.s 			page 5


 229 007c 05       		.uleb128 0x5
 230 007d 02       		.byte	0x2
 231 007e 07       		.byte	0x7
 232 007f 2D0E0000 		.4byte	.LASF9
 233 0083 03       		.uleb128 0x3
 234 0084 C10E0000 		.4byte	.LASF10
 235 0088 03       		.byte	0x3
 236 0089 4D       		.byte	0x4d
 237 008a 8E000000 		.4byte	0x8e
 238 008e 05       		.uleb128 0x5
 239 008f 04       		.byte	0x4
 240 0090 05       		.byte	0x5
 241 0091 0D020000 		.4byte	.LASF11
 242 0095 03       		.uleb128 0x3
 243 0096 FA070000 		.4byte	.LASF12
 244 009a 03       		.byte	0x3
 245 009b 4F       		.byte	0x4f
 246 009c A0000000 		.4byte	0xa0
 247 00a0 05       		.uleb128 0x5
 248 00a1 04       		.byte	0x4
 249 00a2 07       		.byte	0x7
 250 00a3 95050000 		.4byte	.LASF13
 251 00a7 03       		.uleb128 0x3
 252 00a8 76050000 		.4byte	.LASF14
 253 00ac 03       		.byte	0x3
 254 00ad 69       		.byte	0x69
 255 00ae B2000000 		.4byte	0xb2
 256 00b2 05       		.uleb128 0x5
 257 00b3 08       		.byte	0x8
 258 00b4 07       		.byte	0x7
 259 00b5 8B0A0000 		.4byte	.LASF15
 260 00b9 03       		.uleb128 0x3
 261 00ba DA020000 		.4byte	.LASF16
 262 00be 04       		.byte	0x4
 263 00bf 18       		.byte	0x18
 264 00c0 58000000 		.4byte	0x58
 265 00c4 06       		.uleb128 0x6
 266 00c5 B9000000 		.4byte	0xb9
 267 00c9 03       		.uleb128 0x3
 268 00ca AB0A0000 		.4byte	.LASF17
 269 00ce 04       		.byte	0x4
 270 00cf 24       		.byte	0x24
 271 00d0 71000000 		.4byte	0x71
 272 00d4 03       		.uleb128 0x3
 273 00d5 A0000000 		.4byte	.LASF18
 274 00d9 04       		.byte	0x4
 275 00da 2C       		.byte	0x2c
 276 00db 83000000 		.4byte	0x83
 277 00df 04       		.uleb128 0x4
 278 00e0 D4000000 		.4byte	0xd4
 279 00e4 03       		.uleb128 0x3
 280 00e5 980D0000 		.4byte	.LASF19
 281 00e9 04       		.byte	0x4
 282 00ea 30       		.byte	0x30
 283 00eb 95000000 		.4byte	0x95
 284 00ef 04       		.uleb128 0x4
 285 00f0 E4000000 		.4byte	0xe4
ARM GAS  /var/folders/vd/czx34qs52cd_f3nb04sxmghc0000gn/T//cc7V9gBu.s 			page 6


 286 00f4 03       		.uleb128 0x3
 287 00f5 670C0000 		.4byte	.LASF20
 288 00f9 04       		.byte	0x4
 289 00fa 3C       		.byte	0x3c
 290 00fb A7000000 		.4byte	0xa7
 291 00ff 03       		.uleb128 0x3
 292 0100 1C090000 		.4byte	.LASF21
 293 0104 05       		.byte	0x5
 294 0105 39       		.byte	0x39
 295 0106 E4000000 		.4byte	0xe4
 296 010a 03       		.uleb128 0x3
 297 010b AD0B0000 		.4byte	.LASF22
 298 010f 05       		.byte	0x5
 299 0110 3C       		.byte	0x3c
 300 0111 B9000000 		.4byte	0xb9
 301 0115 03       		.uleb128 0x3
 302 0116 35020000 		.4byte	.LASF23
 303 011a 05       		.byte	0x5
 304 011b 3D       		.byte	0x3d
 305 011c B9000000 		.4byte	0xb9
 306 0120 03       		.uleb128 0x3
 307 0121 290D0000 		.4byte	.LASF24
 308 0125 05       		.byte	0x5
 309 0126 3E       		.byte	0x3e
 310 0127 B9000000 		.4byte	0xb9
 311 012b 03       		.uleb128 0x3
 312 012c 86000000 		.4byte	.LASF25
 313 0130 05       		.byte	0x5
 314 0131 40       		.byte	0x40
 315 0132 E4000000 		.4byte	0xe4
 316 0136 03       		.uleb128 0x3
 317 0137 BD0A0000 		.4byte	.LASF26
 318 013b 05       		.byte	0x5
 319 013c 41       		.byte	0x41
 320 013d D4000000 		.4byte	0xd4
 321 0141 03       		.uleb128 0x3
 322 0142 E2020000 		.4byte	.LASF27
 323 0146 05       		.byte	0x5
 324 0147 43       		.byte	0x43
 325 0148 E4000000 		.4byte	0xe4
 326 014c 03       		.uleb128 0x3
 327 014d D40A0000 		.4byte	.LASF28
 328 0151 05       		.byte	0x5
 329 0152 44       		.byte	0x44
 330 0153 E4000000 		.4byte	0xe4
 331 0157 03       		.uleb128 0x3
 332 0158 87040000 		.4byte	.LASF29
 333 015c 05       		.byte	0x5
 334 015d 45       		.byte	0x45
 335 015e D4000000 		.4byte	0xd4
 336 0162 03       		.uleb128 0x3
 337 0163 B1060000 		.4byte	.LASF30
 338 0167 05       		.byte	0x5
 339 0168 46       		.byte	0x46
 340 0169 E4000000 		.4byte	0xe4
 341 016d 03       		.uleb128 0x3
 342 016e BA090000 		.4byte	.LASF31
ARM GAS  /var/folders/vd/czx34qs52cd_f3nb04sxmghc0000gn/T//cc7V9gBu.s 			page 7


 343 0172 06       		.byte	0x6
 344 0173 34       		.byte	0x34
 345 0174 78010000 		.4byte	0x178
 346 0178 07       		.uleb128 0x7
 347 0179 FA050000 		.4byte	.LASF49
 348 017d 44       		.byte	0x44
 349 017e 07       		.byte	0x7
 350 017f 8E       		.byte	0x8e
 351 0180 56020000 		.4byte	0x256
 352 0184 08       		.uleb128 0x8
 353 0185 100B0000 		.4byte	.LASF32
 354 0189 07       		.byte	0x7
 355 018a 8F       		.byte	0x8f
 356 018b 8B020000 		.4byte	0x28b
 357 018f 00       		.byte	0
 358 0190 08       		.uleb128 0x8
 359 0191 85010000 		.4byte	.LASF33
 360 0195 07       		.byte	0x7
 361 0196 90       		.byte	0x90
 362 0197 2B010000 		.4byte	0x12b
 363 019b 08       		.byte	0x8
 364 019c 09       		.uleb128 0x9
 365 019d 63747800 		.ascii	"ctx\000"
 366 01a1 07       		.byte	0x7
 367 01a2 91       		.byte	0x91
 368 01a3 09080000 		.4byte	0x809
 369 01a7 0C       		.byte	0xc
 370 01a8 08       		.uleb128 0x8
 371 01a9 7C0D0000 		.4byte	.LASF34
 372 01ad 07       		.byte	0x7
 373 01ae 93       		.byte	0x93
 374 01af 61020000 		.4byte	0x261
 375 01b3 10       		.byte	0x10
 376 01b4 08       		.uleb128 0x8
 377 01b5 86060000 		.4byte	.LASF35
 378 01b9 07       		.byte	0x7
 379 01ba 94       		.byte	0x94
 380 01bb 61020000 		.4byte	0x261
 381 01bf 14       		.byte	0x14
 382 01c0 08       		.uleb128 0x8
 383 01c1 2A0C0000 		.4byte	.LASF36
 384 01c5 07       		.byte	0x7
 385 01c6 9B       		.byte	0x9b
 386 01c7 A50A0000 		.4byte	0xaa5
 387 01cb 18       		.byte	0x18
 388 01cc 08       		.uleb128 0x8
 389 01cd 670B0000 		.4byte	.LASF37
 390 01d1 07       		.byte	0x7
 391 01d2 A4       		.byte	0xa4
 392 01d3 BC0A0000 		.4byte	0xabc
 393 01d7 1C       		.byte	0x1c
 394 01d8 08       		.uleb128 0x8
 395 01d9 37010000 		.4byte	.LASF38
 396 01dd 07       		.byte	0x7
 397 01de A9       		.byte	0xa9
 398 01df 15010000 		.4byte	0x115
 399 01e3 20       		.byte	0x20
ARM GAS  /var/folders/vd/czx34qs52cd_f3nb04sxmghc0000gn/T//cc7V9gBu.s 			page 8


 400 01e4 08       		.uleb128 0x8
 401 01e5 0F040000 		.4byte	.LASF39
 402 01e9 07       		.byte	0x7
 403 01ea AD       		.byte	0xad
 404 01eb 0A010000 		.4byte	0x10a
 405 01ef 21       		.byte	0x21
 406 01f0 08       		.uleb128 0x8
 407 01f1 0B0B0000 		.4byte	.LASF40
 408 01f5 07       		.byte	0x7
 409 01f6 B2       		.byte	0xb2
 410 01f7 20010000 		.4byte	0x120
 411 01fb 22       		.byte	0x22
 412 01fc 0A       		.uleb128 0xa
 413 01fd 7500     		.ascii	"u\000"
 414 01ff 07       		.byte	0x7
 415 0200 0301     		.2byte	0x103
 416 0202 DB090000 		.4byte	0x9db
 417 0206 24       		.byte	0x24
 418 0207 0B       		.uleb128 0xb
 419 0208 0F0D0000 		.4byte	.LASF41
 420 020c 07       		.byte	0x7
 421 020d 0801     		.2byte	0x108
 422 020f 67020000 		.4byte	0x267
 423 0213 28       		.byte	0x28
 424 0214 0B       		.uleb128 0xb
 425 0215 8C0C0000 		.4byte	.LASF42
 426 0219 07       		.byte	0x7
 427 021a 0E01     		.2byte	0x10e
 428 021c 8B020000 		.4byte	0x28b
 429 0220 2C       		.byte	0x2c
 430 0221 0B       		.uleb128 0xb
 431 0222 3E020000 		.4byte	.LASF43
 432 0226 07       		.byte	0x7
 433 0227 1401     		.2byte	0x114
 434 0229 41010000 		.4byte	0x141
 435 022d 34       		.byte	0x34
 436 022e 0B       		.uleb128 0xb
 437 022f 05080000 		.4byte	.LASF44
 438 0233 07       		.byte	0x7
 439 0234 1B01     		.2byte	0x11b
 440 0236 9F0A0000 		.4byte	0xa9f
 441 023a 38       		.byte	0x38
 442 023b 0B       		.uleb128 0xb
 443 023c 9C060000 		.4byte	.LASF45
 444 0240 07       		.byte	0x7
 445 0241 1F01     		.2byte	0x11f
 446 0243 2B010000 		.4byte	0x12b
 447 0247 3C       		.byte	0x3c
 448 0248 0B       		.uleb128 0xb
 449 0249 33040000 		.4byte	.LASF46
 450 024d 07       		.byte	0x7
 451 024e 2601     		.2byte	0x126
 452 0250 3E030000 		.4byte	0x33e
 453 0254 40       		.byte	0x40
 454 0255 00       		.byte	0
 455 0256 03       		.uleb128 0x3
 456 0257 E8090000 		.4byte	.LASF47
ARM GAS  /var/folders/vd/czx34qs52cd_f3nb04sxmghc0000gn/T//cc7V9gBu.s 			page 9


 457 025b 06       		.byte	0x6
 458 025c 39       		.byte	0x39
 459 025d 61020000 		.4byte	0x261
 460 0261 0C       		.uleb128 0xc
 461 0262 04       		.byte	0x4
 462 0263 6D010000 		.4byte	0x16d
 463 0267 03       		.uleb128 0x3
 464 0268 520D0000 		.4byte	.LASF48
 465 026c 06       		.byte	0x6
 466 026d 3E       		.byte	0x3e
 467 026e 72020000 		.4byte	0x272
 468 0272 07       		.uleb128 0x7
 469 0273 E4060000 		.4byte	.LASF50
 470 0277 04       		.byte	0x4
 471 0278 07       		.byte	0x7
 472 0279 7C       		.byte	0x7c
 473 027a 8B020000 		.4byte	0x28b
 474 027e 08       		.uleb128 0x8
 475 027f F90E0000 		.4byte	.LASF51
 476 0283 07       		.byte	0x7
 477 0284 7D       		.byte	0x7d
 478 0285 61020000 		.4byte	0x261
 479 0289 00       		.byte	0
 480 028a 00       		.byte	0
 481 028b 03       		.uleb128 0x3
 482 028c 47020000 		.4byte	.LASF52
 483 0290 06       		.byte	0x6
 484 0291 45       		.byte	0x45
 485 0292 96020000 		.4byte	0x296
 486 0296 07       		.uleb128 0x7
 487 0297 C30A0000 		.4byte	.LASF53
 488 029b 08       		.byte	0x8
 489 029c 07       		.byte	0x7
 490 029d 83       		.byte	0x83
 491 029e BB020000 		.4byte	0x2bb
 492 02a2 08       		.uleb128 0x8
 493 02a3 F90E0000 		.4byte	.LASF51
 494 02a7 07       		.byte	0x7
 495 02a8 84       		.byte	0x84
 496 02a9 61020000 		.4byte	0x261
 497 02ad 00       		.byte	0
 498 02ae 08       		.uleb128 0x8
 499 02af FE0E0000 		.4byte	.LASF54
 500 02b3 07       		.byte	0x7
 501 02b4 85       		.byte	0x85
 502 02b5 61020000 		.4byte	0x261
 503 02b9 04       		.byte	0x4
 504 02ba 00       		.byte	0
 505 02bb 03       		.uleb128 0x3
 506 02bc 79060000 		.4byte	.LASF55
 507 02c0 06       		.byte	0x6
 508 02c1 4C       		.byte	0x4c
 509 02c2 C6020000 		.4byte	0x2c6
 510 02c6 0D       		.uleb128 0xd
 511 02c7 B6040000 		.4byte	.LASF56
 512 02cb 1C       		.byte	0x1c
 513 02cc 07       		.byte	0x7
ARM GAS  /var/folders/vd/czx34qs52cd_f3nb04sxmghc0000gn/T//cc7V9gBu.s 			page 10


 514 02cd 5E01     		.2byte	0x15e
 515 02cf 22030000 		.4byte	0x322
 516 02d3 0B       		.uleb128 0xb
 517 02d4 100B0000 		.4byte	.LASF32
 518 02d8 07       		.byte	0x7
 519 02d9 5F01     		.2byte	0x15f
 520 02db 8B020000 		.4byte	0x28b
 521 02df 00       		.byte	0
 522 02e0 0B       		.uleb128 0xb
 523 02e1 85010000 		.4byte	.LASF33
 524 02e5 07       		.byte	0x7
 525 02e6 6001     		.2byte	0x160
 526 02e8 2B010000 		.4byte	0x12b
 527 02ec 08       		.byte	0x8
 528 02ed 0A       		.uleb128 0xa
 529 02ee 63747800 		.ascii	"ctx\000"
 530 02f2 07       		.byte	0x7
 531 02f3 6201     		.2byte	0x162
 532 02f5 09080000 		.4byte	0x809
 533 02f9 0C       		.byte	0xc
 534 02fa 0B       		.uleb128 0xb
 535 02fb 7C0D0000 		.4byte	.LASF34
 536 02ff 07       		.byte	0x7
 537 0300 6501     		.2byte	0x165
 538 0302 61020000 		.4byte	0x261
 539 0306 10       		.byte	0x10
 540 0307 0B       		.uleb128 0xb
 541 0308 86060000 		.4byte	.LASF35
 542 030c 07       		.byte	0x7
 543 030d 6601     		.2byte	0x166
 544 030f 61020000 		.4byte	0x261
 545 0313 14       		.byte	0x14
 546 0314 0B       		.uleb128 0xb
 547 0315 3F090000 		.4byte	.LASF57
 548 0319 07       		.byte	0x7
 549 031a 6901     		.2byte	0x169
 550 031c 61020000 		.4byte	0x261
 551 0320 18       		.byte	0x18
 552 0321 00       		.byte	0
 553 0322 03       		.uleb128 0x3
 554 0323 B4000000 		.4byte	.LASF58
 555 0327 06       		.byte	0x6
 556 0328 51       		.byte	0x51
 557 0329 2D030000 		.4byte	0x32d
 558 032d 0C       		.uleb128 0xc
 559 032e 04       		.byte	0x4
 560 032f 33030000 		.4byte	0x333
 561 0333 0E       		.uleb128 0xe
 562 0334 3E030000 		.4byte	0x33e
 563 0338 0F       		.uleb128 0xf
 564 0339 3E030000 		.4byte	0x33e
 565 033d 00       		.byte	0
 566 033e 10       		.uleb128 0x10
 567 033f 04       		.byte	0x4
 568 0340 03       		.uleb128 0x3
 569 0341 69060000 		.4byte	.LASF59
 570 0345 06       		.byte	0x6
ARM GAS  /var/folders/vd/czx34qs52cd_f3nb04sxmghc0000gn/T//cc7V9gBu.s 			page 11


 571 0346 56       		.byte	0x56
 572 0347 4B030000 		.4byte	0x34b
 573 034b 0D       		.uleb128 0xd
 574 034c 4A0A0000 		.4byte	.LASF60
 575 0350 14       		.byte	0x14
 576 0351 07       		.byte	0x7
 577 0352 3901     		.2byte	0x139
 578 0354 9A030000 		.4byte	0x39a
 579 0358 0B       		.uleb128 0xb
 580 0359 F90E0000 		.4byte	.LASF51
 581 035d 07       		.byte	0x7
 582 035e 3A01     		.2byte	0x13a
 583 0360 C20A0000 		.4byte	0xac2
 584 0364 00       		.byte	0
 585 0365 0B       		.uleb128 0xb
 586 0366 FE0E0000 		.4byte	.LASF54
 587 036a 07       		.byte	0x7
 588 036b 3B01     		.2byte	0x13b
 589 036d C20A0000 		.4byte	0xac2
 590 0371 04       		.byte	0x4
 591 0372 0B       		.uleb128 0xb
 592 0373 FC0A0000 		.4byte	.LASF61
 593 0377 07       		.byte	0x7
 594 0378 3C01     		.2byte	0x13c
 595 037a 71040000 		.4byte	0x471
 596 037e 08       		.byte	0x8
 597 037f 0B       		.uleb128 0xb
 598 0380 7E0C0000 		.4byte	.LASF62
 599 0384 07       		.byte	0x7
 600 0385 3D01     		.2byte	0x13d
 601 0387 22030000 		.4byte	0x322
 602 038b 0C       		.byte	0xc
 603 038c 0A       		.uleb128 0xa
 604 038d 70617200 		.ascii	"par\000"
 605 0391 07       		.byte	0x7
 606 0392 3F01     		.2byte	0x13f
 607 0394 3E030000 		.4byte	0x33e
 608 0398 10       		.byte	0x10
 609 0399 00       		.byte	0
 610 039a 03       		.uleb128 0x3
 611 039b 12060000 		.4byte	.LASF63
 612 039f 06       		.byte	0x6
 613 03a0 5B       		.byte	0x5b
 614 03a1 A5030000 		.4byte	0x3a5
 615 03a5 0D       		.uleb128 0xd
 616 03a6 BD000000 		.4byte	.LASF64
 617 03aa 10       		.byte	0x10
 618 03ab 07       		.byte	0x7
 619 03ac 4901     		.2byte	0x149
 620 03ae E7030000 		.4byte	0x3e7
 621 03b2 0B       		.uleb128 0xb
 622 03b3 F90E0000 		.4byte	.LASF51
 623 03b7 07       		.byte	0x7
 624 03b8 4A01     		.2byte	0x14a
 625 03ba C20A0000 		.4byte	0xac2
 626 03be 00       		.byte	0
 627 03bf 0B       		.uleb128 0xb
ARM GAS  /var/folders/vd/czx34qs52cd_f3nb04sxmghc0000gn/T//cc7V9gBu.s 			page 12


 628 03c0 FE0E0000 		.4byte	.LASF54
 629 03c4 07       		.byte	0x7
 630 03c5 4C01     		.2byte	0x14c
 631 03c7 C20A0000 		.4byte	0xac2
 632 03cb 04       		.byte	0x4
 633 03cc 0B       		.uleb128 0xb
 634 03cd FC0A0000 		.4byte	.LASF61
 635 03d1 07       		.byte	0x7
 636 03d2 4E01     		.2byte	0x14e
 637 03d4 71040000 		.4byte	0x471
 638 03d8 08       		.byte	0x8
 639 03d9 0B       		.uleb128 0xb
 640 03da 36030000 		.4byte	.LASF65
 641 03de 07       		.byte	0x7
 642 03df 5601     		.2byte	0x156
 643 03e1 66040000 		.4byte	0x466
 644 03e5 0C       		.byte	0xc
 645 03e6 00       		.byte	0
 646 03e7 03       		.uleb128 0x3
 647 03e8 56030000 		.4byte	.LASF66
 648 03ec 06       		.byte	0x6
 649 03ed 60       		.byte	0x60
 650 03ee F2030000 		.4byte	0x3f2
 651 03f2 0D       		.uleb128 0xd
 652 03f3 AE0C0000 		.4byte	.LASF67
 653 03f7 04       		.byte	0x4
 654 03f8 07       		.byte	0x7
 655 03f9 7001     		.2byte	0x170
 656 03fb 0D040000 		.4byte	0x40d
 657 03ff 0B       		.uleb128 0xb
 658 0400 3F030000 		.4byte	.LASF68
 659 0404 07       		.byte	0x7
 660 0405 7801     		.2byte	0x178
 661 0407 AB0A0000 		.4byte	0xaab
 662 040b 00       		.byte	0
 663 040c 00       		.byte	0
 664 040d 03       		.uleb128 0x3
 665 040e 570E0000 		.4byte	.LASF69
 666 0412 06       		.byte	0x6
 667 0413 65       		.byte	0x65
 668 0414 18040000 		.4byte	0x418
 669 0418 0D       		.uleb128 0xd
 670 0419 670D0000 		.4byte	.LASF70
 671 041d 78       		.byte	0x78
 672 041e 07       		.byte	0x7
 673 041f 9001     		.2byte	0x190
 674 0421 66040000 		.4byte	0x466
 675 0425 0B       		.uleb128 0xb
 676 0426 A70B0000 		.4byte	.LASF71
 677 042a 07       		.byte	0x7
 678 042b 9401     		.2byte	0x194
 679 042d BB020000 		.4byte	0x2bb
 680 0431 00       		.byte	0
 681 0432 0B       		.uleb128 0xb
 682 0433 080D0000 		.4byte	.LASF72
 683 0437 07       		.byte	0x7
 684 0438 9801     		.2byte	0x198
ARM GAS  /var/folders/vd/czx34qs52cd_f3nb04sxmghc0000gn/T//cc7V9gBu.s 			page 13


 685 043a 9A030000 		.4byte	0x39a
 686 043e 1C       		.byte	0x1c
 687 043f 0A       		.uleb128 0xa
 688 0440 64626700 		.ascii	"dbg\000"
 689 0444 07       		.byte	0x7
 690 0445 9C01     		.2byte	0x19c
 691 0447 E7030000 		.4byte	0x3e7
 692 044b 2C       		.byte	0x2c
 693 044c 0B       		.uleb128 0xb
 694 044d 480B0000 		.4byte	.LASF73
 695 0451 07       		.byte	0x7
 696 0452 A001     		.2byte	0x1a0
 697 0454 6D010000 		.4byte	0x16d
 698 0458 30       		.byte	0x30
 699 0459 0A       		.uleb128 0xa
 700 045a 746D00   		.ascii	"tm\000"
 701 045d 07       		.byte	0x7
 702 045e A501     		.2byte	0x1a5
 703 0460 D0090000 		.4byte	0x9d0
 704 0464 74       		.byte	0x74
 705 0465 00       		.byte	0
 706 0466 03       		.uleb128 0x3
 707 0467 6A000000 		.4byte	.LASF74
 708 046b 08       		.byte	0x8
 709 046c 8C       		.byte	0x8c
 710 046d E4000000 		.4byte	0xe4
 711 0471 03       		.uleb128 0x3
 712 0472 3F080000 		.4byte	.LASF75
 713 0476 08       		.byte	0x8
 714 0477 98       		.byte	0x98
 715 0478 E4000000 		.4byte	0xe4
 716 047c 11       		.uleb128 0x11
 717 047d 05       		.byte	0x5
 718 047e 01       		.byte	0x1
 719 047f 51000000 		.4byte	0x51
 720 0483 0B       		.byte	0xb
 721 0484 55       		.byte	0x55
 722 0485 A0060000 		.4byte	0x6a0
 723 0489 12       		.uleb128 0x12
 724 048a 62050000 		.4byte	.LASF76
 725 048e 72       		.sleb128 -14
 726 048f 12       		.uleb128 0x12
 727 0490 B2050000 		.4byte	.LASF77
 728 0494 74       		.sleb128 -12
 729 0495 12       		.uleb128 0x12
 730 0496 F4060000 		.4byte	.LASF78
 731 049a 75       		.sleb128 -11
 732 049b 12       		.uleb128 0x12
 733 049c A4030000 		.4byte	.LASF79
 734 04a0 76       		.sleb128 -10
 735 04a1 12       		.uleb128 0x12
 736 04a2 6A080000 		.4byte	.LASF80
 737 04a6 7B       		.sleb128 -5
 738 04a7 12       		.uleb128 0x12
 739 04a8 E30B0000 		.4byte	.LASF81
 740 04ac 7C       		.sleb128 -4
 741 04ad 12       		.uleb128 0x12
ARM GAS  /var/folders/vd/czx34qs52cd_f3nb04sxmghc0000gn/T//cc7V9gBu.s 			page 14


 742 04ae 780E0000 		.4byte	.LASF82
 743 04b2 7E       		.sleb128 -2
 744 04b3 12       		.uleb128 0x12
 745 04b4 95020000 		.4byte	.LASF83
 746 04b8 7F       		.sleb128 -1
 747 04b9 13       		.uleb128 0x13
 748 04ba 8B050000 		.4byte	.LASF84
 749 04be 00       		.byte	0
 750 04bf 13       		.uleb128 0x13
 751 04c0 6E0B0000 		.4byte	.LASF85
 752 04c4 01       		.byte	0x1
 753 04c5 13       		.uleb128 0x13
 754 04c6 EA050000 		.4byte	.LASF86
 755 04ca 02       		.byte	0x2
 756 04cb 13       		.uleb128 0x13
 757 04cc 0D000000 		.4byte	.LASF87
 758 04d0 03       		.byte	0x3
 759 04d1 13       		.uleb128 0x13
 760 04d2 1B010000 		.4byte	.LASF88
 761 04d6 04       		.byte	0x4
 762 04d7 13       		.uleb128 0x13
 763 04d8 700C0000 		.4byte	.LASF89
 764 04dc 05       		.byte	0x5
 765 04dd 13       		.uleb128 0x13
 766 04de 9C0B0000 		.4byte	.LASF90
 767 04e2 06       		.byte	0x6
 768 04e3 13       		.uleb128 0x13
 769 04e4 E8040000 		.4byte	.LASF91
 770 04e8 07       		.byte	0x7
 771 04e9 13       		.uleb128 0x13
 772 04ea 1B000000 		.4byte	.LASF92
 773 04ee 08       		.byte	0x8
 774 04ef 13       		.uleb128 0x13
 775 04f0 6D0E0000 		.4byte	.LASF93
 776 04f4 09       		.byte	0x9
 777 04f5 13       		.uleb128 0x13
 778 04f6 220E0000 		.4byte	.LASF94
 779 04fa 0A       		.byte	0xa
 780 04fb 13       		.uleb128 0x13
 781 04fc 2A0A0000 		.4byte	.LASF95
 782 0500 0B       		.byte	0xb
 783 0501 13       		.uleb128 0x13
 784 0502 58090000 		.4byte	.LASF96
 785 0506 0C       		.byte	0xc
 786 0507 13       		.uleb128 0x13
 787 0508 F4020000 		.4byte	.LASF97
 788 050c 0D       		.byte	0xd
 789 050d 13       		.uleb128 0x13
 790 050e 9C0C0000 		.4byte	.LASF98
 791 0512 0E       		.byte	0xe
 792 0513 13       		.uleb128 0x13
 793 0514 B50B0000 		.4byte	.LASF99
 794 0518 0F       		.byte	0xf
 795 0519 13       		.uleb128 0x13
 796 051a 00050000 		.4byte	.LASF100
 797 051e 10       		.byte	0x10
 798 051f 13       		.uleb128 0x13
ARM GAS  /var/folders/vd/czx34qs52cd_f3nb04sxmghc0000gn/T//cc7V9gBu.s 			page 15


 799 0520 9C090000 		.4byte	.LASF101
 800 0524 11       		.byte	0x11
 801 0525 13       		.uleb128 0x13
 802 0526 2B0B0000 		.4byte	.LASF102
 803 052a 12       		.byte	0x12
 804 052b 13       		.uleb128 0x13
 805 052c F3040000 		.4byte	.LASF103
 806 0530 13       		.byte	0x13
 807 0531 13       		.uleb128 0x13
 808 0532 ED030000 		.4byte	.LASF104
 809 0536 14       		.byte	0x14
 810 0537 13       		.uleb128 0x13
 811 0538 DB0D0000 		.4byte	.LASF105
 812 053c 15       		.byte	0x15
 813 053d 13       		.uleb128 0x13
 814 053e 04060000 		.4byte	.LASF106
 815 0542 16       		.byte	0x16
 816 0543 13       		.uleb128 0x13
 817 0544 F70D0000 		.4byte	.LASF107
 818 0548 17       		.byte	0x17
 819 0549 13       		.uleb128 0x13
 820 054a E7070000 		.4byte	.LASF108
 821 054e 18       		.byte	0x18
 822 054f 13       		.uleb128 0x13
 823 0550 E80C0000 		.4byte	.LASF109
 824 0554 19       		.byte	0x19
 825 0555 13       		.uleb128 0x13
 826 0556 57020000 		.4byte	.LASF110
 827 055a 1A       		.byte	0x1a
 828 055b 13       		.uleb128 0x13
 829 055c CD040000 		.4byte	.LASF111
 830 0560 1B       		.byte	0x1b
 831 0561 13       		.uleb128 0x13
 832 0562 53010000 		.4byte	.LASF112
 833 0566 1C       		.byte	0x1c
 834 0567 13       		.uleb128 0x13
 835 0568 E10A0000 		.4byte	.LASF113
 836 056c 1D       		.byte	0x1d
 837 056d 13       		.uleb128 0x13
 838 056e 39040000 		.4byte	.LASF114
 839 0572 1E       		.byte	0x1e
 840 0573 13       		.uleb128 0x13
 841 0574 94040000 		.4byte	.LASF115
 842 0578 1F       		.byte	0x1f
 843 0579 13       		.uleb128 0x13
 844 057a 49030000 		.4byte	.LASF116
 845 057e 20       		.byte	0x20
 846 057f 13       		.uleb128 0x13
 847 0580 24090000 		.4byte	.LASF117
 848 0584 21       		.byte	0x21
 849 0585 13       		.uleb128 0x13
 850 0586 CB060000 		.4byte	.LASF118
 851 058a 22       		.byte	0x22
 852 058b 13       		.uleb128 0x13
 853 058c 60080000 		.4byte	.LASF119
 854 0590 23       		.byte	0x23
 855 0591 13       		.uleb128 0x13
ARM GAS  /var/folders/vd/czx34qs52cd_f3nb04sxmghc0000gn/T//cc7V9gBu.s 			page 16


 856 0592 CE010000 		.4byte	.LASF120
 857 0596 24       		.byte	0x24
 858 0597 13       		.uleb128 0x13
 859 0598 F00A0000 		.4byte	.LASF121
 860 059c 25       		.byte	0x25
 861 059d 13       		.uleb128 0x13
 862 059e 43040000 		.4byte	.LASF122
 863 05a2 26       		.byte	0x26
 864 05a3 13       		.uleb128 0x13
 865 05a4 A2020000 		.4byte	.LASF123
 866 05a8 27       		.byte	0x27
 867 05a9 13       		.uleb128 0x13
 868 05aa 7C0A0000 		.4byte	.LASF124
 869 05ae 28       		.byte	0x28
 870 05af 13       		.uleb128 0x13
 871 05b0 5B0A0000 		.4byte	.LASF125
 872 05b4 29       		.byte	0x29
 873 05b5 13       		.uleb128 0x13
 874 05b6 E5080000 		.4byte	.LASF126
 875 05ba 2A       		.byte	0x2a
 876 05bb 13       		.uleb128 0x13
 877 05bc D8010000 		.4byte	.LASF127
 878 05c0 2B       		.byte	0x2b
 879 05c1 13       		.uleb128 0x13
 880 05c2 40000000 		.4byte	.LASF128
 881 05c6 2C       		.byte	0x2c
 882 05c7 13       		.uleb128 0x13
 883 05c8 1A050000 		.4byte	.LASF129
 884 05cc 2D       		.byte	0x2d
 885 05cd 13       		.uleb128 0x13
 886 05ce 400E0000 		.4byte	.LASF130
 887 05d2 2E       		.byte	0x2e
 888 05d3 13       		.uleb128 0x13
 889 05d4 A60E0000 		.4byte	.LASF131
 890 05d8 2F       		.byte	0x2f
 891 05d9 13       		.uleb128 0x13
 892 05da 920B0000 		.4byte	.LASF132
 893 05de 30       		.byte	0x30
 894 05df 13       		.uleb128 0x13
 895 05e0 4D0E0000 		.4byte	.LASF133
 896 05e4 31       		.byte	0x31
 897 05e5 13       		.uleb128 0x13
 898 05e6 9A030000 		.4byte	.LASF134
 899 05ea 32       		.byte	0x32
 900 05eb 13       		.uleb128 0x13
 901 05ec 05010000 		.4byte	.LASF135
 902 05f0 33       		.byte	0x33
 903 05f1 13       		.uleb128 0x13
 904 05f2 CA080000 		.4byte	.LASF136
 905 05f6 34       		.byte	0x34
 906 05f7 13       		.uleb128 0x13
 907 05f8 DC070000 		.4byte	.LASF137
 908 05fc 35       		.byte	0x35
 909 05fd 13       		.uleb128 0x13
 910 05fe 1A0F0000 		.4byte	.LASF138
 911 0602 36       		.byte	0x36
 912 0603 13       		.uleb128 0x13
ARM GAS  /var/folders/vd/czx34qs52cd_f3nb04sxmghc0000gn/T//cc7V9gBu.s 			page 17


 913 0604 0D080000 		.4byte	.LASF139
 914 0608 37       		.byte	0x37
 915 0609 13       		.uleb128 0x13
 916 060a 4D060000 		.4byte	.LASF140
 917 060e 38       		.byte	0x38
 918 060f 13       		.uleb128 0x13
 919 0610 DA000000 		.4byte	.LASF141
 920 0614 39       		.byte	0x39
 921 0615 13       		.uleb128 0x13
 922 0616 280F0000 		.4byte	.LASF142
 923 061a 3A       		.byte	0x3a
 924 061b 13       		.uleb128 0x13
 925 061c 6A090000 		.4byte	.LASF143
 926 0620 3B       		.byte	0x3b
 927 0621 13       		.uleb128 0x13
 928 0622 1D030000 		.4byte	.LASF144
 929 0626 3C       		.byte	0x3c
 930 0627 13       		.uleb128 0x13
 931 0628 210C0000 		.4byte	.LASF145
 932 062c 3D       		.byte	0x3d
 933 062d 13       		.uleb128 0x13
 934 062e 25080000 		.4byte	.LASF146
 935 0632 3E       		.byte	0x3e
 936 0633 13       		.uleb128 0x13
 937 0634 7C090000 		.4byte	.LASF147
 938 0638 3F       		.byte	0x3f
 939 0639 13       		.uleb128 0x13
 940 063a 8A010000 		.4byte	.LASF148
 941 063e 40       		.byte	0x40
 942 063f 13       		.uleb128 0x13
 943 0640 160B0000 		.4byte	.LASF149
 944 0644 41       		.byte	0x41
 945 0645 13       		.uleb128 0x13
 946 0646 65030000 		.4byte	.LASF150
 947 064a 42       		.byte	0x42
 948 064b 13       		.uleb128 0x13
 949 064c 4E050000 		.4byte	.LASF151
 950 0650 43       		.byte	0x43
 951 0651 13       		.uleb128 0x13
 952 0652 23020000 		.4byte	.LASF152
 953 0656 44       		.byte	0x44
 954 0657 13       		.uleb128 0x13
 955 0658 D10B0000 		.4byte	.LASF153
 956 065c 45       		.byte	0x45
 957 065d 13       		.uleb128 0x13
 958 065e 32050000 		.4byte	.LASF154
 959 0662 46       		.byte	0x46
 960 0663 13       		.uleb128 0x13
 961 0664 98010000 		.4byte	.LASF155
 962 0668 47       		.byte	0x47
 963 0669 13       		.uleb128 0x13
 964 066a FE0B0000 		.4byte	.LASF156
 965 066e 48       		.byte	0x48
 966 066f 13       		.uleb128 0x13
 967 0670 6A0A0000 		.4byte	.LASF157
 968 0674 49       		.byte	0x49
 969 0675 13       		.uleb128 0x13
ARM GAS  /var/folders/vd/czx34qs52cd_f3nb04sxmghc0000gn/T//cc7V9gBu.s 			page 18


 970 0676 310D0000 		.4byte	.LASF158
 971 067a 4A       		.byte	0x4a
 972 067b 13       		.uleb128 0x13
 973 067c 840E0000 		.4byte	.LASF159
 974 0680 4B       		.byte	0x4b
 975 0681 13       		.uleb128 0x13
 976 0682 B7010000 		.4byte	.LASF160
 977 0686 4C       		.byte	0x4c
 978 0687 13       		.uleb128 0x13
 979 0688 33080000 		.4byte	.LASF161
 980 068c 4D       		.byte	0x4d
 981 068d 13       		.uleb128 0x13
 982 068e 26010000 		.4byte	.LASF162
 983 0692 4E       		.byte	0x4e
 984 0693 13       		.uleb128 0x13
 985 0694 DA040000 		.4byte	.LASF163
 986 0698 50       		.byte	0x50
 987 0699 13       		.uleb128 0x13
 988 069a B7080000 		.4byte	.LASF164
 989 069e 51       		.byte	0x51
 990 069f 00       		.byte	0
 991 06a0 14       		.uleb128 0x14
 992 06a1 FB0C0000 		.4byte	.LASF165
 993 06a5 09       		.byte	0x9
 994 06a6 F407     		.2byte	0x7f4
 995 06a8 DF000000 		.4byte	0xdf
 996 06ac 15       		.uleb128 0x15
 997 06ad CD050000 		.4byte	.LASF166
 998 06b1 0A       		.byte	0xa
 999 06b2 4C       		.byte	0x4c
 1000 06b3 E4000000 		.4byte	0xe4
 1001 06b7 16       		.uleb128 0x16
 1002 06b8 C4000000 		.4byte	0xc4
 1003 06bc C7060000 		.4byte	0x6c7
 1004 06c0 17       		.uleb128 0x17
 1005 06c1 3C000000 		.4byte	0x3c
 1006 06c5 0F       		.byte	0xf
 1007 06c6 00       		.byte	0
 1008 06c7 06       		.uleb128 0x6
 1009 06c8 B7060000 		.4byte	0x6b7
 1010 06cc 15       		.uleb128 0x15
 1011 06cd 3C0A0000 		.4byte	.LASF167
 1012 06d1 0A       		.byte	0xa
 1013 06d2 4E       		.byte	0x4e
 1014 06d3 C7060000 		.4byte	0x6c7
 1015 06d7 16       		.uleb128 0x16
 1016 06d8 C4000000 		.4byte	0xc4
 1017 06dc E7060000 		.4byte	0x6e7
 1018 06e0 17       		.uleb128 0x17
 1019 06e1 3C000000 		.4byte	0x3c
 1020 06e5 07       		.byte	0x7
 1021 06e6 00       		.byte	0
 1022 06e7 06       		.uleb128 0x6
 1023 06e8 D7060000 		.4byte	0x6d7
 1024 06ec 15       		.uleb128 0x15
 1025 06ed 380C0000 		.4byte	.LASF168
 1026 06f1 0A       		.byte	0xa
ARM GAS  /var/folders/vd/czx34qs52cd_f3nb04sxmghc0000gn/T//cc7V9gBu.s 			page 19


 1027 06f2 4F       		.byte	0x4f
 1028 06f3 E7060000 		.4byte	0x6e7
 1029 06f7 18       		.uleb128 0x18
 1030 06f8 18       		.byte	0x18
 1031 06f9 0B       		.byte	0xb
 1032 06fa 6A01     		.2byte	0x16a
 1033 06fc 4E070000 		.4byte	0x74e
 1034 0700 0A       		.uleb128 0xa
 1035 0701 435200   		.ascii	"CR\000"
 1036 0704 0B       		.byte	0xb
 1037 0705 6C01     		.2byte	0x16c
 1038 0707 EF000000 		.4byte	0xef
 1039 070b 00       		.byte	0
 1040 070c 0B       		.uleb128 0xb
 1041 070d D30E0000 		.4byte	.LASF169
 1042 0711 0B       		.byte	0xb
 1043 0712 6D01     		.2byte	0x16d
 1044 0714 EF000000 		.4byte	0xef
 1045 0718 04       		.byte	0x4
 1046 0719 0A       		.uleb128 0xa
 1047 071a 50415200 		.ascii	"PAR\000"
 1048 071e 0B       		.byte	0xb
 1049 071f 6E01     		.2byte	0x16e
 1050 0721 EF000000 		.4byte	0xef
 1051 0725 08       		.byte	0x8
 1052 0726 0B       		.uleb128 0xb
 1053 0727 1C0C0000 		.4byte	.LASF170
 1054 072b 0B       		.byte	0xb
 1055 072c 6F01     		.2byte	0x16f
 1056 072e EF000000 		.4byte	0xef
 1057 0732 0C       		.byte	0xc
 1058 0733 0B       		.uleb128 0xb
 1059 0734 08000000 		.4byte	.LASF171
 1060 0738 0B       		.byte	0xb
 1061 0739 7001     		.2byte	0x170
 1062 073b EF000000 		.4byte	0xef
 1063 073f 10       		.byte	0x10
 1064 0740 0A       		.uleb128 0xa
 1065 0741 46435200 		.ascii	"FCR\000"
 1066 0745 0B       		.byte	0xb
 1067 0746 7101     		.2byte	0x171
 1068 0748 EF000000 		.4byte	0xef
 1069 074c 14       		.byte	0x14
 1070 074d 00       		.byte	0
 1071 074e 19       		.uleb128 0x19
 1072 074f 89090000 		.4byte	.LASF172
 1073 0753 0B       		.byte	0xb
 1074 0754 7201     		.2byte	0x172
 1075 0756 F7060000 		.4byte	0x6f7
 1076 075a 16       		.uleb128 0x16
 1077 075b EF000000 		.4byte	0xef
 1078 075f 6A070000 		.4byte	0x76a
 1079 0763 17       		.uleb128 0x17
 1080 0764 3C000000 		.4byte	0x3c
 1081 0768 01       		.byte	0x1
 1082 0769 00       		.byte	0
 1083 076a 04       		.uleb128 0x4
ARM GAS  /var/folders/vd/czx34qs52cd_f3nb04sxmghc0000gn/T//cc7V9gBu.s 			page 20


 1084 076b 5A070000 		.4byte	0x75a
 1085 076f 16       		.uleb128 0x16
 1086 0770 EF000000 		.4byte	0xef
 1087 0774 7F070000 		.4byte	0x77f
 1088 0778 17       		.uleb128 0x17
 1089 0779 3C000000 		.4byte	0x3c
 1090 077d 03       		.byte	0x3
 1091 077e 00       		.byte	0
 1092 077f 04       		.uleb128 0x4
 1093 0780 6F070000 		.4byte	0x76f
 1094 0784 18       		.uleb128 0x18
 1095 0785 1C       		.byte	0x1c
 1096 0786 0B       		.byte	0xb
 1097 0787 0603     		.2byte	0x306
 1098 0789 E7070000 		.4byte	0x7e7
 1099 078d 0A       		.uleb128 0xa
 1100 078e 535200   		.ascii	"SR\000"
 1101 0791 0B       		.byte	0xb
 1102 0792 0803     		.2byte	0x308
 1103 0794 EF000000 		.4byte	0xef
 1104 0798 00       		.byte	0
 1105 0799 0A       		.uleb128 0xa
 1106 079a 445200   		.ascii	"DR\000"
 1107 079d 0B       		.byte	0xb
 1108 079e 0903     		.2byte	0x309
 1109 07a0 EF000000 		.4byte	0xef
 1110 07a4 04       		.byte	0x4
 1111 07a5 0A       		.uleb128 0xa
 1112 07a6 42525200 		.ascii	"BRR\000"
 1113 07aa 0B       		.byte	0xb
 1114 07ab 0A03     		.2byte	0x30a
 1115 07ad EF000000 		.4byte	0xef
 1116 07b1 08       		.byte	0x8
 1117 07b2 0A       		.uleb128 0xa
 1118 07b3 43523100 		.ascii	"CR1\000"
 1119 07b7 0B       		.byte	0xb
 1120 07b8 0B03     		.2byte	0x30b
 1121 07ba EF000000 		.4byte	0xef
 1122 07be 0C       		.byte	0xc
 1123 07bf 0A       		.uleb128 0xa
 1124 07c0 43523200 		.ascii	"CR2\000"
 1125 07c4 0B       		.byte	0xb
 1126 07c5 0C03     		.2byte	0x30c
 1127 07c7 EF000000 		.4byte	0xef
 1128 07cb 10       		.byte	0x10
 1129 07cc 0A       		.uleb128 0xa
 1130 07cd 43523300 		.ascii	"CR3\000"
 1131 07d1 0B       		.byte	0xb
 1132 07d2 0D03     		.2byte	0x30d
 1133 07d4 EF000000 		.4byte	0xef
 1134 07d8 14       		.byte	0x14
 1135 07d9 0B       		.uleb128 0xb
 1136 07da AF000000 		.4byte	.LASF173
 1137 07de 0B       		.byte	0xb
 1138 07df 0E03     		.2byte	0x30e
 1139 07e1 EF000000 		.4byte	0xef
 1140 07e5 18       		.byte	0x18
ARM GAS  /var/folders/vd/czx34qs52cd_f3nb04sxmghc0000gn/T//cc7V9gBu.s 			page 21


 1141 07e6 00       		.byte	0
 1142 07e7 19       		.uleb128 0x19
 1143 07e8 25040000 		.4byte	.LASF174
 1144 07ec 0B       		.byte	0xb
 1145 07ed 0F03     		.2byte	0x30f
 1146 07ef 84070000 		.4byte	0x784
 1147 07f3 03       		.uleb128 0x3
 1148 07f4 76020000 		.4byte	.LASF175
 1149 07f8 0C       		.byte	0xc
 1150 07f9 65       		.byte	0x65
 1151 07fa 3E030000 		.4byte	0x33e
 1152 07fe 03       		.uleb128 0x3
 1153 07ff 1A040000 		.4byte	.LASF176
 1154 0803 0C       		.byte	0xc
 1155 0804 6D       		.byte	0x6d
 1156 0805 F4000000 		.4byte	0xf4
 1157 0809 07       		.uleb128 0x7
 1158 080a 450D0000 		.4byte	.LASF177
 1159 080e 04       		.byte	0x4
 1160 080f 0C       		.byte	0xc
 1161 0810 89       		.byte	0x89
 1162 0811 21080000 		.4byte	0x821
 1163 0815 09       		.uleb128 0x9
 1164 0816 737000   		.ascii	"sp\000"
 1165 0819 0C       		.byte	0xc
 1166 081a 8A       		.byte	0x8a
 1167 081b 9D080000 		.4byte	0x89d
 1168 081f 00       		.byte	0
 1169 0820 00       		.byte	0
 1170 0821 0D       		.uleb128 0xd
 1171 0822 030A0000 		.4byte	.LASF178
 1172 0826 24       		.byte	0x24
 1173 0827 0D       		.byte	0xd
 1174 0828 5901     		.2byte	0x159
 1175 082a 9D080000 		.4byte	0x89d
 1176 082e 0A       		.uleb128 0xa
 1177 082f 723400   		.ascii	"r4\000"
 1178 0832 0D       		.byte	0xd
 1179 0833 6C01     		.2byte	0x16c
 1180 0835 F3070000 		.4byte	0x7f3
 1181 0839 00       		.byte	0
 1182 083a 0A       		.uleb128 0xa
 1183 083b 723500   		.ascii	"r5\000"
 1184 083e 0D       		.byte	0xd
 1185 083f 6D01     		.2byte	0x16d
 1186 0841 F3070000 		.4byte	0x7f3
 1187 0845 04       		.byte	0x4
 1188 0846 0A       		.uleb128 0xa
 1189 0847 723600   		.ascii	"r6\000"
 1190 084a 0D       		.byte	0xd
 1191 084b 6E01     		.2byte	0x16e
 1192 084d F3070000 		.4byte	0x7f3
 1193 0851 08       		.byte	0x8
 1194 0852 0A       		.uleb128 0xa
 1195 0853 723700   		.ascii	"r7\000"
 1196 0856 0D       		.byte	0xd
 1197 0857 6F01     		.2byte	0x16f
ARM GAS  /var/folders/vd/czx34qs52cd_f3nb04sxmghc0000gn/T//cc7V9gBu.s 			page 22


 1198 0859 F3070000 		.4byte	0x7f3
 1199 085d 0C       		.byte	0xc
 1200 085e 0A       		.uleb128 0xa
 1201 085f 723800   		.ascii	"r8\000"
 1202 0862 0D       		.byte	0xd
 1203 0863 7001     		.2byte	0x170
 1204 0865 F3070000 		.4byte	0x7f3
 1205 0869 10       		.byte	0x10
 1206 086a 0A       		.uleb128 0xa
 1207 086b 723900   		.ascii	"r9\000"
 1208 086e 0D       		.byte	0xd
 1209 086f 7101     		.2byte	0x171
 1210 0871 F3070000 		.4byte	0x7f3
 1211 0875 14       		.byte	0x14
 1212 0876 0A       		.uleb128 0xa
 1213 0877 72313000 		.ascii	"r10\000"
 1214 087b 0D       		.byte	0xd
 1215 087c 7201     		.2byte	0x172
 1216 087e F3070000 		.4byte	0x7f3
 1217 0882 18       		.byte	0x18
 1218 0883 0A       		.uleb128 0xa
 1219 0884 72313100 		.ascii	"r11\000"
 1220 0888 0D       		.byte	0xd
 1221 0889 7301     		.2byte	0x173
 1222 088b F3070000 		.4byte	0x7f3
 1223 088f 1C       		.byte	0x1c
 1224 0890 0A       		.uleb128 0xa
 1225 0891 6C7200   		.ascii	"lr\000"
 1226 0894 0D       		.byte	0xd
 1227 0895 7401     		.2byte	0x174
 1228 0897 F3070000 		.4byte	0x7f3
 1229 089b 20       		.byte	0x20
 1230 089c 00       		.byte	0
 1231 089d 0C       		.uleb128 0xc
 1232 089e 04       		.byte	0x4
 1233 089f 21080000 		.4byte	0x821
 1234 08a3 18       		.uleb128 0x18
 1235 08a4 60       		.byte	0x60
 1236 08a5 0E       		.byte	0xe
 1237 08a6 F501     		.2byte	0x1f5
 1238 08a8 AF090000 		.4byte	0x9af
 1239 08ac 0A       		.uleb128 0xa
 1240 08ad 43523100 		.ascii	"CR1\000"
 1241 08b1 0E       		.byte	0xe
 1242 08b2 F601     		.2byte	0x1f6
 1243 08b4 EF000000 		.4byte	0xef
 1244 08b8 00       		.byte	0
 1245 08b9 0A       		.uleb128 0xa
 1246 08ba 43523200 		.ascii	"CR2\000"
 1247 08be 0E       		.byte	0xe
 1248 08bf F701     		.2byte	0x1f7
 1249 08c1 EF000000 		.4byte	0xef
 1250 08c5 04       		.byte	0x4
 1251 08c6 0B       		.uleb128 0xb
 1252 08c7 530B0000 		.4byte	.LASF179
 1253 08cb 0E       		.byte	0xe
 1254 08cc F801     		.2byte	0x1f8
ARM GAS  /var/folders/vd/czx34qs52cd_f3nb04sxmghc0000gn/T//cc7V9gBu.s 			page 23


 1255 08ce EF000000 		.4byte	0xef
 1256 08d2 08       		.byte	0x8
 1257 08d3 0B       		.uleb128 0xb
 1258 08d4 C8050000 		.4byte	.LASF180
 1259 08d8 0E       		.byte	0xe
 1260 08d9 F901     		.2byte	0x1f9
 1261 08db EF000000 		.4byte	0xef
 1262 08df 0C       		.byte	0xc
 1263 08e0 0A       		.uleb128 0xa
 1264 08e1 535200   		.ascii	"SR\000"
 1265 08e4 0E       		.byte	0xe
 1266 08e5 FA01     		.2byte	0x1fa
 1267 08e7 EF000000 		.4byte	0xef
 1268 08eb 10       		.byte	0x10
 1269 08ec 0A       		.uleb128 0xa
 1270 08ed 45475200 		.ascii	"EGR\000"
 1271 08f1 0E       		.byte	0xe
 1272 08f2 FB01     		.2byte	0x1fb
 1273 08f4 EF000000 		.4byte	0xef
 1274 08f8 14       		.byte	0x14
 1275 08f9 0B       		.uleb128 0xb
 1276 08fa B4030000 		.4byte	.LASF181
 1277 08fe 0E       		.byte	0xe
 1278 08ff FC01     		.2byte	0x1fc
 1279 0901 EF000000 		.4byte	0xef
 1280 0905 18       		.byte	0x18
 1281 0906 0B       		.uleb128 0xb
 1282 0907 BA030000 		.4byte	.LASF182
 1283 090b 0E       		.byte	0xe
 1284 090c FD01     		.2byte	0x1fd
 1285 090e EF000000 		.4byte	0xef
 1286 0912 1C       		.byte	0x1c
 1287 0913 0B       		.uleb128 0xb
 1288 0914 EB0A0000 		.4byte	.LASF183
 1289 0918 0E       		.byte	0xe
 1290 0919 FE01     		.2byte	0x1fe
 1291 091b EF000000 		.4byte	0xef
 1292 091f 20       		.byte	0x20
 1293 0920 0A       		.uleb128 0xa
 1294 0921 434E5400 		.ascii	"CNT\000"
 1295 0925 0E       		.byte	0xe
 1296 0926 FF01     		.2byte	0x1ff
 1297 0928 EF000000 		.4byte	0xef
 1298 092c 24       		.byte	0x24
 1299 092d 0A       		.uleb128 0xa
 1300 092e 50534300 		.ascii	"PSC\000"
 1301 0932 0E       		.byte	0xe
 1302 0933 0002     		.2byte	0x200
 1303 0935 EF000000 		.4byte	0xef
 1304 0939 28       		.byte	0x28
 1305 093a 0A       		.uleb128 0xa
 1306 093b 41525200 		.ascii	"ARR\000"
 1307 093f 0E       		.byte	0xe
 1308 0940 0102     		.2byte	0x201
 1309 0942 EF000000 		.4byte	0xef
 1310 0946 2C       		.byte	0x2c
 1311 0947 0A       		.uleb128 0xa
ARM GAS  /var/folders/vd/czx34qs52cd_f3nb04sxmghc0000gn/T//cc7V9gBu.s 			page 24


 1312 0948 52435200 		.ascii	"RCR\000"
 1313 094c 0E       		.byte	0xe
 1314 094d 0202     		.2byte	0x202
 1315 094f EF000000 		.4byte	0xef
 1316 0953 30       		.byte	0x30
 1317 0954 0A       		.uleb128 0xa
 1318 0955 43435200 		.ascii	"CCR\000"
 1319 0959 0E       		.byte	0xe
 1320 095a 0302     		.2byte	0x203
 1321 095c 7F070000 		.4byte	0x77f
 1322 0960 34       		.byte	0x34
 1323 0961 0B       		.uleb128 0xb
 1324 0962 820D0000 		.4byte	.LASF184
 1325 0966 0E       		.byte	0xe
 1326 0967 0402     		.2byte	0x204
 1327 0969 EF000000 		.4byte	0xef
 1328 096d 44       		.byte	0x44
 1329 096e 0A       		.uleb128 0xa
 1330 096f 44435200 		.ascii	"DCR\000"
 1331 0973 0E       		.byte	0xe
 1332 0974 0502     		.2byte	0x205
 1333 0976 EF000000 		.4byte	0xef
 1334 097a 48       		.byte	0x48
 1335 097b 0B       		.uleb128 0xb
 1336 097c 66010000 		.4byte	.LASF185
 1337 0980 0E       		.byte	0xe
 1338 0981 0602     		.2byte	0x206
 1339 0983 EF000000 		.4byte	0xef
 1340 0987 4C       		.byte	0x4c
 1341 0988 0A       		.uleb128 0xa
 1342 0989 4F5200   		.ascii	"OR\000"
 1343 098c 0E       		.byte	0xe
 1344 098d 0702     		.2byte	0x207
 1345 098f EF000000 		.4byte	0xef
 1346 0993 50       		.byte	0x50
 1347 0994 0B       		.uleb128 0xb
 1348 0995 C0030000 		.4byte	.LASF186
 1349 0999 0E       		.byte	0xe
 1350 099a 0802     		.2byte	0x208
 1351 099c EF000000 		.4byte	0xef
 1352 09a0 54       		.byte	0x54
 1353 09a1 0B       		.uleb128 0xb
 1354 09a2 6F040000 		.4byte	.LASF187
 1355 09a6 0E       		.byte	0xe
 1356 09a7 0902     		.2byte	0x209
 1357 09a9 6A070000 		.4byte	0x76a
 1358 09ad 58       		.byte	0x58
 1359 09ae 00       		.byte	0
 1360 09af 19       		.uleb128 0x19
 1361 09b0 A5060000 		.4byte	.LASF188
 1362 09b4 0E       		.byte	0xe
 1363 09b5 0A02     		.2byte	0x20a
 1364 09b7 A3080000 		.4byte	0x8a3
 1365 09bb 1A       		.uleb128 0x1a
 1366 09bc 04       		.byte	0x4
 1367 09bd 0F       		.byte	0xf
 1368 09be 38       		.byte	0x38
ARM GAS  /var/folders/vd/czx34qs52cd_f3nb04sxmghc0000gn/T//cc7V9gBu.s 			page 25


 1369 09bf D0090000 		.4byte	0x9d0
 1370 09c3 08       		.uleb128 0x8
 1371 09c4 51090000 		.4byte	.LASF189
 1372 09c8 0F       		.byte	0xf
 1373 09c9 3C       		.byte	0x3c
 1374 09ca FF000000 		.4byte	0xff
 1375 09ce 00       		.byte	0
 1376 09cf 00       		.byte	0
 1377 09d0 03       		.uleb128 0x3
 1378 09d1 0B0C0000 		.4byte	.LASF190
 1379 09d5 0F       		.byte	0xf
 1380 09d6 3D       		.byte	0x3d
 1381 09d7 BB090000 		.4byte	0x9bb
 1382 09db 1B       		.uleb128 0x1b
 1383 09dc 04       		.byte	0x4
 1384 09dd 07       		.byte	0x7
 1385 09de C6       		.byte	0xc6
 1386 09df 3D0A0000 		.4byte	0xa3d
 1387 09e3 1C       		.uleb128 0x1c
 1388 09e4 130E0000 		.4byte	.LASF191
 1389 09e8 07       		.byte	0x7
 1390 09e9 CD       		.byte	0xcd
 1391 09ea 36010000 		.4byte	0x136
 1392 09ee 1C       		.uleb128 0x1c
 1393 09ef A4010000 		.4byte	.LASF192
 1394 09f3 07       		.byte	0x7
 1395 09f4 D4       		.byte	0xd4
 1396 09f5 36010000 		.4byte	0x136
 1397 09f9 1C       		.uleb128 0x1c
 1398 09fa E6030000 		.4byte	.LASF193
 1399 09fe 07       		.byte	0x7
 1400 09ff DB       		.byte	0xdb
 1401 0a00 3E030000 		.4byte	0x33e
 1402 0a04 1C       		.uleb128 0x1c
 1403 0a05 EE020000 		.4byte	.LASF194
 1404 0a09 07       		.byte	0x7
 1405 0a0a E2       		.byte	0xe2
 1406 0a0b 3D0A0000 		.4byte	0xa3d
 1407 0a0f 1C       		.uleb128 0x1c
 1408 0a10 FB090000 		.4byte	.LASF195
 1409 0a14 07       		.byte	0x7
 1410 0a15 E7       		.byte	0xe7
 1411 0a16 36010000 		.4byte	0x136
 1412 0a1a 1C       		.uleb128 0x1c
 1413 0a1b 63000000 		.4byte	.LASF196
 1414 0a1f 07       		.byte	0x7
 1415 0a20 F0       		.byte	0xf0
 1416 0a21 680A0000 		.4byte	0xa68
 1417 0a25 1C       		.uleb128 0x1c
 1418 0a26 AF040000 		.4byte	.LASF197
 1419 0a2a 07       		.byte	0x7
 1420 0a2b F9       		.byte	0xf9
 1421 0a2c 9F0A0000 		.4byte	0xa9f
 1422 0a30 1D       		.uleb128 0x1d
 1423 0a31 D3020000 		.4byte	.LASF198
 1424 0a35 07       		.byte	0x7
 1425 0a36 0101     		.2byte	0x101
ARM GAS  /var/folders/vd/czx34qs52cd_f3nb04sxmghc0000gn/T//cc7V9gBu.s 			page 26


 1426 0a38 41010000 		.4byte	0x141
 1427 0a3c 00       		.byte	0
 1428 0a3d 0C       		.uleb128 0xc
 1429 0a3e 04       		.byte	0x4
 1430 0a3f 56020000 		.4byte	0x256
 1431 0a43 07       		.uleb128 0x7
 1432 0a44 DD050000 		.4byte	.LASF199
 1433 0a48 0C       		.byte	0xc
 1434 0a49 10       		.byte	0x10
 1435 0a4a 34       		.byte	0x34
 1436 0a4b 680A0000 		.4byte	0xa68
 1437 0a4f 08       		.uleb128 0x8
 1438 0a50 100B0000 		.4byte	.LASF32
 1439 0a54 10       		.byte	0x10
 1440 0a55 35       		.byte	0x35
 1441 0a56 8B020000 		.4byte	0x28b
 1442 0a5a 00       		.byte	0
 1443 0a5b 09       		.uleb128 0x9
 1444 0a5c 636E7400 		.ascii	"cnt\000"
 1445 0a60 10       		.byte	0x10
 1446 0a61 37       		.byte	0x37
 1447 0a62 57010000 		.4byte	0x157
 1448 0a66 08       		.byte	0x8
 1449 0a67 00       		.byte	0
 1450 0a68 0C       		.uleb128 0xc
 1451 0a69 04       		.byte	0x4
 1452 0a6a 430A0000 		.4byte	0xa43
 1453 0a6e 07       		.uleb128 0x7
 1454 0a6f 830C0000 		.4byte	.LASF200
 1455 0a73 10       		.byte	0x10
 1456 0a74 11       		.byte	0x11
 1457 0a75 39       		.byte	0x39
 1458 0a76 9F0A0000 		.4byte	0xa9f
 1459 0a7a 08       		.uleb128 0x8
 1460 0a7b 100B0000 		.4byte	.LASF32
 1461 0a7f 11       		.byte	0x11
 1462 0a80 3A       		.byte	0x3a
 1463 0a81 8B020000 		.4byte	0x28b
 1464 0a85 00       		.byte	0
 1465 0a86 08       		.uleb128 0x8
 1466 0a87 80000000 		.4byte	.LASF201
 1467 0a8b 11       		.byte	0x11
 1468 0a8c 3C       		.byte	0x3c
 1469 0a8d 61020000 		.4byte	0x261
 1470 0a91 08       		.byte	0x8
 1471 0a92 08       		.uleb128 0x8
 1472 0a93 F90E0000 		.4byte	.LASF51
 1473 0a97 11       		.byte	0x11
 1474 0a98 3E       		.byte	0x3e
 1475 0a99 010C0000 		.4byte	0xc01
 1476 0a9d 0C       		.byte	0xc
 1477 0a9e 00       		.byte	0
 1478 0a9f 0C       		.uleb128 0xc
 1479 0aa0 04       		.byte	0x4
 1480 0aa1 6E0A0000 		.4byte	0xa6e
 1481 0aa5 0C       		.uleb128 0xc
 1482 0aa6 04       		.byte	0x4
ARM GAS  /var/folders/vd/czx34qs52cd_f3nb04sxmghc0000gn/T//cc7V9gBu.s 			page 27


 1483 0aa7 B70A0000 		.4byte	0xab7
 1484 0aab 04       		.uleb128 0x4
 1485 0aac A50A0000 		.4byte	0xaa5
 1486 0ab0 05       		.uleb128 0x5
 1487 0ab1 01       		.byte	0x1
 1488 0ab2 08       		.byte	0x8
 1489 0ab3 C6030000 		.4byte	.LASF202
 1490 0ab7 06       		.uleb128 0x6
 1491 0ab8 B00A0000 		.4byte	0xab0
 1492 0abc 0C       		.uleb128 0xc
 1493 0abd 04       		.byte	0x4
 1494 0abe FE070000 		.4byte	0x7fe
 1495 0ac2 0C       		.uleb128 0xc
 1496 0ac3 04       		.byte	0x4
 1497 0ac4 40030000 		.4byte	0x340
 1498 0ac8 1E       		.uleb128 0x1e
 1499 0ac9 636800   		.ascii	"ch\000"
 1500 0acc 07       		.byte	0x7
 1501 0acd C701     		.2byte	0x1c7
 1502 0acf 0D040000 		.4byte	0x40d
 1503 0ad3 16       		.uleb128 0x16
 1504 0ad4 FE070000 		.4byte	0x7fe
 1505 0ad8 DE0A0000 		.4byte	0xade
 1506 0adc 1F       		.uleb128 0x1f
 1507 0add 00       		.byte	0
 1508 0ade 14       		.uleb128 0x14
 1509 0adf 28060000 		.4byte	.LASF203
 1510 0ae3 12       		.byte	0x12
 1511 0ae4 1701     		.2byte	0x117
 1512 0ae6 D30A0000 		.4byte	0xad3
 1513 0aea 1A       		.uleb128 0x1a
 1514 0aeb 16       		.byte	0x16
 1515 0aec 13       		.byte	0x13
 1516 0aed 34       		.byte	0x34
 1517 0aee CB0B0000 		.4byte	0xbcb
 1518 0af2 08       		.uleb128 0x8
 1519 0af3 0F0F0000 		.4byte	.LASF204
 1520 0af7 13       		.byte	0x13
 1521 0af8 35       		.byte	0x35
 1522 0af9 CB0B0000 		.4byte	0xbcb
 1523 0afd 00       		.byte	0
 1524 0afe 08       		.uleb128 0x8
 1525 0aff 1E020000 		.4byte	.LASF205
 1526 0b03 13       		.byte	0x13
 1527 0b04 36       		.byte	0x36
 1528 0b05 B9000000 		.4byte	0xb9
 1529 0b09 04       		.byte	0x4
 1530 0b0a 08       		.uleb128 0x8
 1531 0b0b 770A0000 		.4byte	.LASF206
 1532 0b0f 13       		.byte	0x13
 1533 0b10 37       		.byte	0x37
 1534 0b11 B9000000 		.4byte	0xb9
 1535 0b15 05       		.byte	0x5
 1536 0b16 08       		.uleb128 0x8
 1537 0b17 5F0B0000 		.4byte	.LASF207
 1538 0b1b 13       		.byte	0x13
 1539 0b1c 38       		.byte	0x38
ARM GAS  /var/folders/vd/czx34qs52cd_f3nb04sxmghc0000gn/T//cc7V9gBu.s 			page 28


 1540 0b1d C9000000 		.4byte	0xc9
 1541 0b21 06       		.byte	0x6
 1542 0b22 08       		.uleb128 0x8
 1543 0b23 67040000 		.4byte	.LASF208
 1544 0b27 13       		.byte	0x13
 1545 0b28 39       		.byte	0x39
 1546 0b29 B9000000 		.4byte	0xb9
 1547 0b2d 08       		.byte	0x8
 1548 0b2e 08       		.uleb128 0x8
 1549 0b2f B80E0000 		.4byte	.LASF209
 1550 0b33 13       		.byte	0x13
 1551 0b34 3A       		.byte	0x3a
 1552 0b35 B9000000 		.4byte	0xb9
 1553 0b39 09       		.byte	0x9
 1554 0b3a 08       		.uleb128 0x8
 1555 0b3b A7050000 		.4byte	.LASF210
 1556 0b3f 13       		.byte	0x13
 1557 0b40 3B       		.byte	0x3b
 1558 0b41 B9000000 		.4byte	0xb9
 1559 0b45 0A       		.byte	0xa
 1560 0b46 08       		.uleb128 0x8
 1561 0b47 53000000 		.4byte	.LASF211
 1562 0b4b 13       		.byte	0x13
 1563 0b4c 3C       		.byte	0x3c
 1564 0b4d B9000000 		.4byte	0xb9
 1565 0b51 0B       		.byte	0xb
 1566 0b52 08       		.uleb128 0x8
 1567 0b53 00000000 		.4byte	.LASF212
 1568 0b57 13       		.byte	0x13
 1569 0b58 3D       		.byte	0x3d
 1570 0b59 B9000000 		.4byte	0xb9
 1571 0b5d 0C       		.byte	0xc
 1572 0b5e 08       		.uleb128 0x8
 1573 0b5f FB080000 		.4byte	.LASF213
 1574 0b63 13       		.byte	0x13
 1575 0b64 3E       		.byte	0x3e
 1576 0b65 B9000000 		.4byte	0xb9
 1577 0b69 0D       		.byte	0xd
 1578 0b6a 08       		.uleb128 0x8
 1579 0b6b 7B010000 		.4byte	.LASF214
 1580 0b6f 13       		.byte	0x13
 1581 0b70 3F       		.byte	0x3f
 1582 0b71 B9000000 		.4byte	0xb9
 1583 0b75 0E       		.byte	0xe
 1584 0b76 08       		.uleb128 0x8
 1585 0b77 B40A0000 		.4byte	.LASF215
 1586 0b7b 13       		.byte	0x13
 1587 0b7c 40       		.byte	0x40
 1588 0b7d B9000000 		.4byte	0xb9
 1589 0b81 0F       		.byte	0xf
 1590 0b82 08       		.uleb128 0x8
 1591 0b83 BE060000 		.4byte	.LASF216
 1592 0b87 13       		.byte	0x13
 1593 0b88 41       		.byte	0x41
 1594 0b89 B9000000 		.4byte	0xb9
 1595 0b8d 10       		.byte	0x10
 1596 0b8e 08       		.uleb128 0x8
ARM GAS  /var/folders/vd/czx34qs52cd_f3nb04sxmghc0000gn/T//cc7V9gBu.s 			page 29


 1597 0b8f 81050000 		.4byte	.LASF217
 1598 0b93 13       		.byte	0x13
 1599 0b94 42       		.byte	0x42
 1600 0b95 B9000000 		.4byte	0xb9
 1601 0b99 11       		.byte	0x11
 1602 0b9a 08       		.uleb128 0x8
 1603 0b9b E80E0000 		.4byte	.LASF218
 1604 0b9f 13       		.byte	0x13
 1605 0ba0 43       		.byte	0x43
 1606 0ba1 B9000000 		.4byte	0xb9
 1607 0ba5 12       		.byte	0x12
 1608 0ba6 08       		.uleb128 0x8
 1609 0ba7 06040000 		.4byte	.LASF219
 1610 0bab 13       		.byte	0x13
 1611 0bac 44       		.byte	0x44
 1612 0bad B9000000 		.4byte	0xb9
 1613 0bb1 13       		.byte	0x13
 1614 0bb2 08       		.uleb128 0x8
 1615 0bb3 74000000 		.4byte	.LASF220
 1616 0bb7 13       		.byte	0x13
 1617 0bb8 45       		.byte	0x45
 1618 0bb9 B9000000 		.4byte	0xb9
 1619 0bbd 14       		.byte	0x14
 1620 0bbe 08       		.uleb128 0x8
 1621 0bbf 74040000 		.4byte	.LASF221
 1622 0bc3 13       		.byte	0x13
 1623 0bc4 46       		.byte	0x46
 1624 0bc5 B9000000 		.4byte	0xb9
 1625 0bc9 15       		.byte	0x15
 1626 0bca 00       		.byte	0
 1627 0bcb 16       		.uleb128 0x16
 1628 0bcc B00A0000 		.4byte	0xab0
 1629 0bd0 DB0B0000 		.4byte	0xbdb
 1630 0bd4 17       		.uleb128 0x17
 1631 0bd5 3C000000 		.4byte	0x3c
 1632 0bd9 03       		.byte	0x3
 1633 0bda 00       		.byte	0
 1634 0bdb 03       		.uleb128 0x3
 1635 0bdc 630E0000 		.4byte	.LASF222
 1636 0be0 13       		.byte	0x13
 1637 0be1 47       		.byte	0x47
 1638 0be2 EA0A0000 		.4byte	0xaea
 1639 0be6 06       		.uleb128 0x6
 1640 0be7 DB0B0000 		.4byte	0xbdb
 1641 0beb 15       		.uleb128 0x15
 1642 0bec 8E000000 		.4byte	.LASF223
 1643 0bf0 13       		.byte	0x13
 1644 0bf1 6C       		.byte	0x6c
 1645 0bf2 E60B0000 		.4byte	0xbe6
 1646 0bf6 03       		.uleb128 0x3
 1647 0bf7 210D0000 		.4byte	.LASF224
 1648 0bfb 11       		.byte	0x11
 1649 0bfc 34       		.byte	0x34
 1650 0bfd 6E0A0000 		.4byte	0xa6e
 1651 0c01 0C       		.uleb128 0xc
 1652 0c02 04       		.byte	0x4
 1653 0c03 F60B0000 		.4byte	0xbf6
ARM GAS  /var/folders/vd/czx34qs52cd_f3nb04sxmghc0000gn/T//cc7V9gBu.s 			page 30


 1654 0c07 03       		.uleb128 0x3
 1655 0c08 56040000 		.4byte	.LASF225
 1656 0c0c 14       		.byte	0x14
 1657 0c0d 34       		.byte	0x34
 1658 0c0e 120C0000 		.4byte	0xc12
 1659 0c12 07       		.uleb128 0x7
 1660 0c13 040E0000 		.4byte	.LASF226
 1661 0c17 14       		.byte	0x14
 1662 0c18 14       		.byte	0x14
 1663 0c19 39       		.byte	0x39
 1664 0c1a 5B0C0000 		.4byte	0xc5b
 1665 0c1e 08       		.uleb128 0x8
 1666 0c1f F90E0000 		.4byte	.LASF51
 1667 0c23 14       		.byte	0x14
 1668 0c24 3A       		.byte	0x3a
 1669 0c25 5B0C0000 		.4byte	0xc5b
 1670 0c29 00       		.byte	0
 1671 0c2a 08       		.uleb128 0x8
 1672 0c2b 2F0C0000 		.4byte	.LASF227
 1673 0c2f 14       		.byte	0x14
 1674 0c30 3D       		.byte	0x3d
 1675 0c31 61020000 		.4byte	0x261
 1676 0c35 04       		.byte	0x4
 1677 0c36 08       		.uleb128 0x8
 1678 0c37 F20E0000 		.4byte	.LASF228
 1679 0c3b 14       		.byte	0x14
 1680 0c3c 3F       		.byte	0x3f
 1681 0c3d 41010000 		.4byte	0x141
 1682 0c41 08       		.byte	0x8
 1683 0c42 08       		.uleb128 0x8
 1684 0c43 0F040000 		.4byte	.LASF39
 1685 0c47 14       		.byte	0x14
 1686 0c48 41       		.byte	0x41
 1687 0c49 4C010000 		.4byte	0x14c
 1688 0c4d 0C       		.byte	0xc
 1689 0c4e 08       		.uleb128 0x8
 1690 0c4f CF090000 		.4byte	.LASF229
 1691 0c53 14       		.byte	0x14
 1692 0c54 43       		.byte	0x43
 1693 0c55 4C010000 		.4byte	0x14c
 1694 0c59 10       		.byte	0x10
 1695 0c5a 00       		.byte	0
 1696 0c5b 0C       		.uleb128 0xc
 1697 0c5c 04       		.byte	0x4
 1698 0c5d 070C0000 		.4byte	0xc07
 1699 0c61 07       		.uleb128 0x7
 1700 0c62 5A0C0000 		.4byte	.LASF230
 1701 0c66 04       		.byte	0x4
 1702 0c67 14       		.byte	0x14
 1703 0c68 4A       		.byte	0x4a
 1704 0c69 7A0C0000 		.4byte	0xc7a
 1705 0c6d 08       		.uleb128 0x8
 1706 0c6e F90E0000 		.4byte	.LASF51
 1707 0c72 14       		.byte	0x14
 1708 0c73 4B       		.byte	0x4b
 1709 0c74 5B0C0000 		.4byte	0xc5b
 1710 0c78 00       		.byte	0
ARM GAS  /var/folders/vd/czx34qs52cd_f3nb04sxmghc0000gn/T//cc7V9gBu.s 			page 31


 1711 0c79 00       		.byte	0
 1712 0c7a 03       		.uleb128 0x3
 1713 0c7b A2080000 		.4byte	.LASF231
 1714 0c7f 14       		.byte	0x14
 1715 0c80 4E       		.byte	0x4e
 1716 0c81 610C0000 		.4byte	0xc61
 1717 0c85 05       		.uleb128 0x5
 1718 0c86 01       		.byte	0x1
 1719 0c87 02       		.byte	0x2
 1720 0c88 7D030000 		.4byte	.LASF232
 1721 0c8c 03       		.uleb128 0x3
 1722 0c8d 83030000 		.4byte	.LASF233
 1723 0c91 15       		.byte	0x15
 1724 0c92 4B       		.byte	0x4b
 1725 0c93 970C0000 		.4byte	0xc97
 1726 0c97 0C       		.uleb128 0xc
 1727 0c98 04       		.byte	0x4
 1728 0c99 9D0C0000 		.4byte	0xc9d
 1729 0c9d 20       		.uleb128 0x20
 1730 0c9e 3E030000 		.4byte	0x33e
 1731 0ca2 B10C0000 		.4byte	0xcb1
 1732 0ca6 0F       		.uleb128 0xf
 1733 0ca7 2C000000 		.4byte	0x2c
 1734 0cab 0F       		.uleb128 0xf
 1735 0cac 3C000000 		.4byte	0x3c
 1736 0cb0 00       		.byte	0
 1737 0cb1 1A       		.uleb128 0x1a
 1738 0cb2 08       		.byte	0x8
 1739 0cb3 15       		.byte	0x15
 1740 0cb4 55       		.byte	0x55
 1741 0cb5 D20C0000 		.4byte	0xcd2
 1742 0cb9 08       		.uleb128 0x8
 1743 0cba 12050000 		.4byte	.LASF234
 1744 0cbe 15       		.byte	0x15
 1745 0cbf 59       		.byte	0x59
 1746 0cc0 D20C0000 		.4byte	0xcd2
 1747 0cc4 00       		.byte	0
 1748 0cc5 08       		.uleb128 0x8
 1749 0cc6 5C000000 		.4byte	.LASF235
 1750 0cca 15       		.byte	0x15
 1751 0ccb 5D       		.byte	0x5d
 1752 0ccc D20C0000 		.4byte	0xcd2
 1753 0cd0 04       		.byte	0x4
 1754 0cd1 00       		.byte	0
 1755 0cd2 0C       		.uleb128 0xc
 1756 0cd3 04       		.byte	0x4
 1757 0cd4 B9000000 		.4byte	0xb9
 1758 0cd8 03       		.uleb128 0x3
 1759 0cd9 B4020000 		.4byte	.LASF236
 1760 0cdd 15       		.byte	0x15
 1761 0cde 5E       		.byte	0x5e
 1762 0cdf B10C0000 		.4byte	0xcb1
 1763 0ce3 15       		.uleb128 0x15
 1764 0ce4 DD0E0000 		.4byte	.LASF237
 1765 0ce8 15       		.byte	0x15
 1766 0ce9 69       		.byte	0x69
 1767 0cea D80C0000 		.4byte	0xcd8
ARM GAS  /var/folders/vd/czx34qs52cd_f3nb04sxmghc0000gn/T//cc7V9gBu.s 			page 32


 1768 0cee 07       		.uleb128 0x7
 1769 0cef D8060000 		.4byte	.LASF238
 1770 0cf3 04       		.byte	0x4
 1771 0cf4 16       		.byte	0x16
 1772 0cf5 3C       		.byte	0x3c
 1773 0cf6 070D0000 		.4byte	0xd07
 1774 0cfa 08       		.uleb128 0x8
 1775 0cfb F90E0000 		.4byte	.LASF51
 1776 0cff 16       		.byte	0x16
 1777 0d00 3D       		.byte	0x3d
 1778 0d01 070D0000 		.4byte	0xd07
 1779 0d05 00       		.byte	0
 1780 0d06 00       		.byte	0
 1781 0d07 0C       		.uleb128 0xc
 1782 0d08 04       		.byte	0x4
 1783 0d09 EE0C0000 		.4byte	0xcee
 1784 0d0d 1A       		.uleb128 0x1a
 1785 0d0e 10       		.byte	0x10
 1786 0d0f 16       		.byte	0x16
 1787 0d10 44       		.byte	0x44
 1788 0d11 460D0000 		.4byte	0xd46
 1789 0d15 08       		.uleb128 0x8
 1790 0d16 F90E0000 		.4byte	.LASF51
 1791 0d1a 16       		.byte	0x16
 1792 0d1b 45       		.byte	0x45
 1793 0d1c 070D0000 		.4byte	0xd07
 1794 0d20 00       		.byte	0
 1795 0d21 08       		.uleb128 0x8
 1796 0d22 D40C0000 		.4byte	.LASF239
 1797 0d26 16       		.byte	0x16
 1798 0d27 46       		.byte	0x46
 1799 0d28 2C000000 		.4byte	0x2c
 1800 0d2c 04       		.byte	0x4
 1801 0d2d 08       		.uleb128 0x8
 1802 0d2e B1080000 		.4byte	.LASF240
 1803 0d32 16       		.byte	0x16
 1804 0d33 48       		.byte	0x48
 1805 0d34 3C000000 		.4byte	0x3c
 1806 0d38 08       		.byte	0x8
 1807 0d39 08       		.uleb128 0x8
 1808 0d3a 97000000 		.4byte	.LASF241
 1809 0d3e 16       		.byte	0x16
 1810 0d3f 49       		.byte	0x49
 1811 0d40 8C0C0000 		.4byte	0xc8c
 1812 0d44 0C       		.byte	0xc
 1813 0d45 00       		.byte	0
 1814 0d46 03       		.uleb128 0x3
 1815 0d47 840B0000 		.4byte	.LASF242
 1816 0d4b 16       		.byte	0x16
 1817 0d4c 4B       		.byte	0x4b
 1818 0d4d 0D0D0000 		.4byte	0xd0d
 1819 0d51 07       		.uleb128 0x7
 1820 0d52 F6000000 		.4byte	.LASF243
 1821 0d56 10       		.byte	0x10
 1822 0d57 17       		.byte	0x17
 1823 0d58 97       		.byte	0x97
 1824 0d59 820D0000 		.4byte	0xd82
ARM GAS  /var/folders/vd/czx34qs52cd_f3nb04sxmghc0000gn/T//cc7V9gBu.s 			page 33


 1825 0d5d 08       		.uleb128 0x8
 1826 0d5e F90E0000 		.4byte	.LASF51
 1827 0d62 17       		.byte	0x17
 1828 0d63 9B       		.byte	0x9b
 1829 0d64 820D0000 		.4byte	0xd82
 1830 0d68 00       		.byte	0
 1831 0d69 08       		.uleb128 0x8
 1832 0d6a 0B0B0000 		.4byte	.LASF40
 1833 0d6e 17       		.byte	0x17
 1834 0d6f 9F       		.byte	0x9f
 1835 0d70 62010000 		.4byte	0x162
 1836 0d74 04       		.byte	0x4
 1837 0d75 08       		.uleb128 0x8
 1838 0d76 2A0C0000 		.4byte	.LASF36
 1839 0d7a 17       		.byte	0x17
 1840 0d7b A1       		.byte	0xa1
 1841 0d7c 880D0000 		.4byte	0xd88
 1842 0d80 08       		.byte	0x8
 1843 0d81 00       		.byte	0
 1844 0d82 0C       		.uleb128 0xc
 1845 0d83 04       		.byte	0x4
 1846 0d84 510D0000 		.4byte	0xd51
 1847 0d88 16       		.uleb128 0x16
 1848 0d89 B00A0000 		.4byte	0xab0
 1849 0d8d 980D0000 		.4byte	0xd98
 1850 0d91 17       		.uleb128 0x17
 1851 0d92 3C000000 		.4byte	0x3c
 1852 0d96 07       		.byte	0x7
 1853 0d97 00       		.byte	0
 1854 0d98 03       		.uleb128 0x3
 1855 0d99 A1040000 		.4byte	.LASF244
 1856 0d9d 17       		.byte	0x17
 1857 0d9e A5       		.byte	0xa5
 1858 0d9f 510D0000 		.4byte	0xd51
 1859 0da3 07       		.uleb128 0x7
 1860 0da4 030F0000 		.4byte	.LASF245
 1861 0da8 04       		.byte	0x4
 1862 0da9 17       		.byte	0x17
 1863 0daa AA       		.byte	0xaa
 1864 0dab BC0D0000 		.4byte	0xdbc
 1865 0daf 08       		.uleb128 0x8
 1866 0db0 F90E0000 		.4byte	.LASF51
 1867 0db4 17       		.byte	0x17
 1868 0db5 AB       		.byte	0xab
 1869 0db6 BC0D0000 		.4byte	0xdbc
 1870 0dba 00       		.byte	0
 1871 0dbb 00       		.byte	0
 1872 0dbc 0C       		.uleb128 0xc
 1873 0dbd 04       		.byte	0x4
 1874 0dbe 980D0000 		.4byte	0xd98
 1875 0dc2 03       		.uleb128 0x3
 1876 0dc3 BE0C0000 		.4byte	.LASF246
 1877 0dc7 17       		.byte	0x17
 1878 0dc8 AC       		.byte	0xac
 1879 0dc9 A30D0000 		.4byte	0xda3
 1880 0dcd 0D       		.uleb128 0xd
 1881 0dce 4D080000 		.4byte	.LASF247
ARM GAS  /var/folders/vd/czx34qs52cd_f3nb04sxmghc0000gn/T//cc7V9gBu.s 			page 34


 1882 0dd2 44       		.byte	0x44
 1883 0dd3 17       		.byte	0x17
 1884 0dd4 1501     		.2byte	0x115
 1885 0dd6 430E0000 		.4byte	0xe43
 1886 0dda 0A       		.uleb128 0xa
 1887 0ddb 6D747800 		.ascii	"mtx\000"
 1888 0ddf 17       		.byte	0x17
 1889 0de0 1A01     		.2byte	0x11a
 1890 0de2 F60B0000 		.4byte	0xbf6
 1891 0de6 00       		.byte	0
 1892 0de7 0B       		.uleb128 0xb
 1893 0de8 5D010000 		.4byte	.LASF248
 1894 0dec 17       		.byte	0x17
 1895 0ded 2101     		.2byte	0x121
 1896 0def C20D0000 		.4byte	0xdc2
 1897 0df3 10       		.byte	0x10
 1898 0df4 0B       		.uleb128 0xb
 1899 0df5 8C020000 		.4byte	.LASF249
 1900 0df9 17       		.byte	0x17
 1901 0dfa 2501     		.2byte	0x125
 1902 0dfc 460D0000 		.4byte	0xd46
 1903 0e00 14       		.byte	0x14
 1904 0e01 0B       		.uleb128 0xb
 1905 0e02 210A0000 		.4byte	.LASF250
 1906 0e06 17       		.byte	0x17
 1907 0e07 2A01     		.2byte	0x12a
 1908 0e09 C20D0000 		.4byte	0xdc2
 1909 0e0d 24       		.byte	0x24
 1910 0e0e 0B       		.uleb128 0xb
 1911 0e0f D2030000 		.4byte	.LASF251
 1912 0e13 17       		.byte	0x17
 1913 0e14 3001     		.2byte	0x130
 1914 0e16 C20D0000 		.4byte	0xdc2
 1915 0e1a 28       		.byte	0x28
 1916 0e1b 0B       		.uleb128 0xb
 1917 0e1c C4040000 		.4byte	.LASF252
 1918 0e20 17       		.byte	0x17
 1919 0e21 3401     		.2byte	0x134
 1920 0e23 460D0000 		.4byte	0xd46
 1921 0e27 2C       		.byte	0x2c
 1922 0e28 0B       		.uleb128 0xb
 1923 0e29 3F0B0000 		.4byte	.LASF253
 1924 0e2d 17       		.byte	0x17
 1925 0e2e 3A01     		.2byte	0x13a
 1926 0e30 C20D0000 		.4byte	0xdc2
 1927 0e34 3C       		.byte	0x3c
 1928 0e35 0B       		.uleb128 0xb
 1929 0e36 5F060000 		.4byte	.LASF254
 1930 0e3a 17       		.byte	0x17
 1931 0e3b 4001     		.2byte	0x140
 1932 0e3d C20D0000 		.4byte	0xdc2
 1933 0e41 40       		.byte	0x40
 1934 0e42 00       		.byte	0
 1935 0e43 19       		.uleb128 0x19
 1936 0e44 0F0A0000 		.4byte	.LASF255
 1937 0e48 17       		.byte	0x17
 1938 0e49 4201     		.2byte	0x142
ARM GAS  /var/folders/vd/czx34qs52cd_f3nb04sxmghc0000gn/T//cc7V9gBu.s 			page 35


 1939 0e4b CD0D0000 		.4byte	0xdcd
 1940 0e4f 14       		.uleb128 0x14
 1941 0e50 340B0000 		.4byte	.LASF256
 1942 0e54 17       		.byte	0x17
 1943 0e55 4D01     		.2byte	0x14d
 1944 0e57 430E0000 		.4byte	0xe43
 1945 0e5b 18       		.uleb128 0x18
 1946 0e5c 0C       		.byte	0xc
 1947 0e5d 18       		.byte	0x18
 1948 0e5e 6A01     		.2byte	0x16a
 1949 0e60 A60E0000 		.4byte	0xea6
 1950 0e64 0B       		.uleb128 0xb
 1951 0e65 4F040000 		.4byte	.LASF257
 1952 0e69 18       		.byte	0x18
 1953 0e6a 6B01     		.2byte	0x16b
 1954 0e6c A60E0000 		.4byte	0xea6
 1955 0e70 00       		.byte	0
 1956 0e71 0B       		.uleb128 0xb
 1957 0e72 D80E0000 		.4byte	.LASF258
 1958 0e76 18       		.byte	0x18
 1959 0e77 6C01     		.2byte	0x16c
 1960 0e79 AC0E0000 		.4byte	0xeac
 1961 0e7d 04       		.byte	0x4
 1962 0e7e 0B       		.uleb128 0xb
 1963 0e7f CB030000 		.4byte	.LASF259
 1964 0e83 18       		.byte	0x18
 1965 0e84 6D01     		.2byte	0x16d
 1966 0e86 B9000000 		.4byte	0xb9
 1967 0e8a 08       		.byte	0x8
 1968 0e8b 0B       		.uleb128 0xb
 1969 0e8c 05090000 		.4byte	.LASF260
 1970 0e90 18       		.byte	0x18
 1971 0e91 6F01     		.2byte	0x16f
 1972 0e93 B9000000 		.4byte	0xb9
 1973 0e97 09       		.byte	0x9
 1974 0e98 0B       		.uleb128 0xb
 1975 0e99 240B0000 		.4byte	.LASF261
 1976 0e9d 18       		.byte	0x18
 1977 0e9e 7001     		.2byte	0x170
 1978 0ea0 B9000000 		.4byte	0xb9
 1979 0ea4 0A       		.byte	0xa
 1980 0ea5 00       		.byte	0
 1981 0ea6 0C       		.uleb128 0xc
 1982 0ea7 04       		.byte	0x4
 1983 0ea8 4E070000 		.4byte	0x74e
 1984 0eac 0C       		.uleb128 0xc
 1985 0ead 04       		.byte	0x4
 1986 0eae EF000000 		.4byte	0xef
 1987 0eb2 19       		.uleb128 0x19
 1988 0eb3 26000000 		.4byte	.LASF262
 1989 0eb7 18       		.byte	0x18
 1990 0eb8 7101     		.2byte	0x171
 1991 0eba 5B0E0000 		.4byte	0xe5b
 1992 0ebe 06       		.uleb128 0x6
 1993 0ebf B20E0000 		.4byte	0xeb2
 1994 0ec3 16       		.uleb128 0x16
 1995 0ec4 BE0E0000 		.4byte	0xebe
ARM GAS  /var/folders/vd/czx34qs52cd_f3nb04sxmghc0000gn/T//cc7V9gBu.s 			page 36


 1996 0ec8 D30E0000 		.4byte	0xed3
 1997 0ecc 17       		.uleb128 0x17
 1998 0ecd 3C000000 		.4byte	0x3c
 1999 0ed1 0F       		.byte	0xf
 2000 0ed2 00       		.byte	0
 2001 0ed3 06       		.uleb128 0x6
 2002 0ed4 C30E0000 		.4byte	0xec3
 2003 0ed8 14       		.uleb128 0x14
 2004 0ed9 3A060000 		.4byte	.LASF263
 2005 0edd 18       		.byte	0x18
 2006 0ede 5C02     		.2byte	0x25c
 2007 0ee0 D30E0000 		.4byte	0xed3
 2008 0ee4 20       		.uleb128 0x20
 2009 0ee5 2C000000 		.4byte	0x2c
 2010 0ee9 FD0E0000 		.4byte	0xefd
 2011 0eed 0F       		.uleb128 0xf
 2012 0eee 3E030000 		.4byte	0x33e
 2013 0ef2 0F       		.uleb128 0xf
 2014 0ef3 FD0E0000 		.4byte	0xefd
 2015 0ef7 0F       		.uleb128 0xf
 2016 0ef8 2C000000 		.4byte	0x2c
 2017 0efc 00       		.byte	0
 2018 0efd 0C       		.uleb128 0xc
 2019 0efe 04       		.byte	0x4
 2020 0eff C4000000 		.4byte	0xc4
 2021 0f03 0C       		.uleb128 0xc
 2022 0f04 04       		.byte	0x4
 2023 0f05 E40E0000 		.4byte	0xee4
 2024 0f09 20       		.uleb128 0x20
 2025 0f0a 2C000000 		.4byte	0x2c
 2026 0f0e 220F0000 		.4byte	0xf22
 2027 0f12 0F       		.uleb128 0xf
 2028 0f13 3E030000 		.4byte	0x33e
 2029 0f17 0F       		.uleb128 0xf
 2030 0f18 D20C0000 		.4byte	0xcd2
 2031 0f1c 0F       		.uleb128 0xf
 2032 0f1d 2C000000 		.4byte	0x2c
 2033 0f21 00       		.byte	0
 2034 0f22 0C       		.uleb128 0xc
 2035 0f23 04       		.byte	0x4
 2036 0f24 090F0000 		.4byte	0xf09
 2037 0f28 20       		.uleb128 0x20
 2038 0f29 36010000 		.4byte	0x136
 2039 0f2d 3C0F0000 		.4byte	0xf3c
 2040 0f31 0F       		.uleb128 0xf
 2041 0f32 3E030000 		.4byte	0x33e
 2042 0f36 0F       		.uleb128 0xf
 2043 0f37 B9000000 		.4byte	0xb9
 2044 0f3b 00       		.byte	0
 2045 0f3c 0C       		.uleb128 0xc
 2046 0f3d 04       		.byte	0x4
 2047 0f3e 280F0000 		.4byte	0xf28
 2048 0f42 20       		.uleb128 0x20
 2049 0f43 36010000 		.4byte	0x136
 2050 0f47 510F0000 		.4byte	0xf51
 2051 0f4b 0F       		.uleb128 0xf
 2052 0f4c 3E030000 		.4byte	0x33e
ARM GAS  /var/folders/vd/czx34qs52cd_f3nb04sxmghc0000gn/T//cc7V9gBu.s 			page 37


 2053 0f50 00       		.byte	0
 2054 0f51 0C       		.uleb128 0xc
 2055 0f52 04       		.byte	0x4
 2056 0f53 420F0000 		.4byte	0xf42
 2057 0f57 20       		.uleb128 0x20
 2058 0f58 36010000 		.4byte	0x136
 2059 0f5c 700F0000 		.4byte	0xf70
 2060 0f60 0F       		.uleb128 0xf
 2061 0f61 3E030000 		.4byte	0x33e
 2062 0f65 0F       		.uleb128 0xf
 2063 0f66 B9000000 		.4byte	0xb9
 2064 0f6a 0F       		.uleb128 0xf
 2065 0f6b 71040000 		.4byte	0x471
 2066 0f6f 00       		.byte	0
 2067 0f70 0C       		.uleb128 0xc
 2068 0f71 04       		.byte	0x4
 2069 0f72 570F0000 		.4byte	0xf57
 2070 0f76 20       		.uleb128 0x20
 2071 0f77 36010000 		.4byte	0x136
 2072 0f7b 8A0F0000 		.4byte	0xf8a
 2073 0f7f 0F       		.uleb128 0xf
 2074 0f80 3E030000 		.4byte	0x33e
 2075 0f84 0F       		.uleb128 0xf
 2076 0f85 71040000 		.4byte	0x471
 2077 0f89 00       		.byte	0
 2078 0f8a 0C       		.uleb128 0xc
 2079 0f8b 04       		.byte	0x4
 2080 0f8c 760F0000 		.4byte	0xf76
 2081 0f90 20       		.uleb128 0x20
 2082 0f91 2C000000 		.4byte	0x2c
 2083 0f95 AE0F0000 		.4byte	0xfae
 2084 0f99 0F       		.uleb128 0xf
 2085 0f9a 3E030000 		.4byte	0x33e
 2086 0f9e 0F       		.uleb128 0xf
 2087 0f9f FD0E0000 		.4byte	0xefd
 2088 0fa3 0F       		.uleb128 0xf
 2089 0fa4 2C000000 		.4byte	0x2c
 2090 0fa8 0F       		.uleb128 0xf
 2091 0fa9 71040000 		.4byte	0x471
 2092 0fad 00       		.byte	0
 2093 0fae 0C       		.uleb128 0xc
 2094 0faf 04       		.byte	0x4
 2095 0fb0 900F0000 		.4byte	0xf90
 2096 0fb4 20       		.uleb128 0x20
 2097 0fb5 2C000000 		.4byte	0x2c
 2098 0fb9 D20F0000 		.4byte	0xfd2
 2099 0fbd 0F       		.uleb128 0xf
 2100 0fbe 3E030000 		.4byte	0x33e
 2101 0fc2 0F       		.uleb128 0xf
 2102 0fc3 D20C0000 		.4byte	0xcd2
 2103 0fc7 0F       		.uleb128 0xf
 2104 0fc8 2C000000 		.4byte	0x2c
 2105 0fcc 0F       		.uleb128 0xf
 2106 0fcd 71040000 		.4byte	0x471
 2107 0fd1 00       		.byte	0
 2108 0fd2 0C       		.uleb128 0xc
 2109 0fd3 04       		.byte	0x4
ARM GAS  /var/folders/vd/czx34qs52cd_f3nb04sxmghc0000gn/T//cc7V9gBu.s 			page 38


 2110 0fd4 B40F0000 		.4byte	0xfb4
 2111 0fd8 20       		.uleb128 0x20
 2112 0fd9 36010000 		.4byte	0x136
 2113 0fdd F10F0000 		.4byte	0xff1
 2114 0fe1 0F       		.uleb128 0xf
 2115 0fe2 3E030000 		.4byte	0x33e
 2116 0fe6 0F       		.uleb128 0xf
 2117 0fe7 3C000000 		.4byte	0x3c
 2118 0feb 0F       		.uleb128 0xf
 2119 0fec 3E030000 		.4byte	0x33e
 2120 0ff0 00       		.byte	0
 2121 0ff1 0C       		.uleb128 0xc
 2122 0ff2 04       		.byte	0x4
 2123 0ff3 D80F0000 		.4byte	0xfd8
 2124 0ff7 03       		.uleb128 0x3
 2125 0ff8 C90C0000 		.4byte	.LASF264
 2126 0ffc 19       		.byte	0x19
 2127 0ffd 3A       		.byte	0x3a
 2128 0ffe 02100000 		.4byte	0x1002
 2129 1002 07       		.uleb128 0x7
 2130 1003 BE020000 		.4byte	.LASF265
 2131 1007 24       		.byte	0x24
 2132 1008 19       		.byte	0x19
 2133 1009 4B       		.byte	0x4b
 2134 100a 6F100000 		.4byte	0x106f
 2135 100e 08       		.uleb128 0x8
 2136 100f EC000000 		.4byte	.LASF266
 2137 1013 19       		.byte	0x19
 2138 1014 4C       		.byte	0x4c
 2139 1015 8B020000 		.4byte	0x28b
 2140 1019 00       		.byte	0
 2141 101a 08       		.uleb128 0x8
 2142 101b 44050000 		.4byte	.LASF267
 2143 101f 19       		.byte	0x19
 2144 1020 4D       		.byte	0x4d
 2145 1021 37000000 		.4byte	0x37
 2146 1025 08       		.byte	0x8
 2147 1026 08       		.uleb128 0x8
 2148 1027 F2010000 		.4byte	.LASF268
 2149 102b 19       		.byte	0x19
 2150 102c 4E       		.byte	0x4e
 2151 102d D20C0000 		.4byte	0xcd2
 2152 1031 0C       		.byte	0xc
 2153 1032 08       		.uleb128 0x8
 2154 1033 C8010000 		.4byte	.LASF269
 2155 1037 19       		.byte	0x19
 2156 1038 4F       		.byte	0x4f
 2157 1039 D20C0000 		.4byte	0xcd2
 2158 103d 10       		.byte	0x10
 2159 103e 08       		.uleb128 0x8
 2160 103f 1A0E0000 		.4byte	.LASF270
 2161 1043 19       		.byte	0x19
 2162 1044 51       		.byte	0x51
 2163 1045 D20C0000 		.4byte	0xcd2
 2164 1049 14       		.byte	0x14
 2165 104a 08       		.uleb128 0x8
 2166 104b 16020000 		.4byte	.LASF271
ARM GAS  /var/folders/vd/czx34qs52cd_f3nb04sxmghc0000gn/T//cc7V9gBu.s 			page 39


 2167 104f 19       		.byte	0x19
 2168 1050 52       		.byte	0x52
 2169 1051 D20C0000 		.4byte	0xcd2
 2170 1055 18       		.byte	0x18
 2171 1056 08       		.uleb128 0x8
 2172 1057 FB010000 		.4byte	.LASF272
 2173 105b 19       		.byte	0x19
 2174 105c 53       		.byte	0x53
 2175 105d 6F100000 		.4byte	0x106f
 2176 1061 1C       		.byte	0x1c
 2177 1062 08       		.uleb128 0x8
 2178 1063 2F030000 		.4byte	.LASF273
 2179 1067 19       		.byte	0x19
 2180 1068 54       		.byte	0x54
 2181 1069 3E030000 		.4byte	0x33e
 2182 106d 20       		.byte	0x20
 2183 106e 00       		.byte	0
 2184 106f 03       		.uleb128 0x3
 2185 1070 D5080000 		.4byte	.LASF274
 2186 1074 19       		.byte	0x19
 2187 1075 41       		.byte	0x41
 2188 1076 7A100000 		.4byte	0x107a
 2189 107a 0C       		.uleb128 0xc
 2190 107b 04       		.byte	0x4
 2191 107c 80100000 		.4byte	0x1080
 2192 1080 0E       		.uleb128 0xe
 2193 1081 8B100000 		.4byte	0x108b
 2194 1085 0F       		.uleb128 0xf
 2195 1086 8B100000 		.4byte	0x108b
 2196 108a 00       		.byte	0
 2197 108b 0C       		.uleb128 0xc
 2198 108c 04       		.byte	0x4
 2199 108d F70F0000 		.4byte	0xff7
 2200 1091 03       		.uleb128 0x3
 2201 1092 E90D0000 		.4byte	.LASF275
 2202 1096 19       		.byte	0x19
 2203 1097 61       		.byte	0x61
 2204 1098 F70F0000 		.4byte	0xff7
 2205 109c 03       		.uleb128 0x3
 2206 109d 970E0000 		.4byte	.LASF276
 2207 10a1 19       		.byte	0x19
 2208 10a2 6D       		.byte	0x6d
 2209 10a3 F70F0000 		.4byte	0xff7
 2210 10a7 21       		.uleb128 0x21
 2211 10a8 00       		.byte	0
 2212 10a9 1A       		.byte	0x1a
 2213 10aa 99       		.byte	0x99
 2214 10ab 03       		.uleb128 0x3
 2215 10ac FB030000 		.4byte	.LASF277
 2216 10b0 1A       		.byte	0x1a
 2217 10b1 AA       		.byte	0xaa
 2218 10b2 A7100000 		.4byte	0x10a7
 2219 10b6 16       		.uleb128 0x16
 2220 10b7 AB100000 		.4byte	0x10ab
 2221 10bb C6100000 		.4byte	0x10c6
 2222 10bf 17       		.uleb128 0x17
 2223 10c0 3C000000 		.4byte	0x3c
ARM GAS  /var/folders/vd/czx34qs52cd_f3nb04sxmghc0000gn/T//cc7V9gBu.s 			page 40


 2224 10c4 0F       		.byte	0xf
 2225 10c5 00       		.byte	0
 2226 10c6 14       		.uleb128 0x14
 2227 10c7 AE090000 		.4byte	.LASF278
 2228 10cb 1B       		.byte	0x1b
 2229 10cc DA01     		.2byte	0x1da
 2230 10ce B6100000 		.4byte	0x10b6
 2231 10d2 11       		.uleb128 0x11
 2232 10d3 07       		.byte	0x7
 2233 10d4 01       		.byte	0x1
 2234 10d5 63000000 		.4byte	0x63
 2235 10d9 1C       		.byte	0x1c
 2236 10da 4A       		.byte	0x4a
 2237 10db F2100000 		.4byte	0x10f2
 2238 10df 13       		.uleb128 0x13
 2239 10e0 70010000 		.4byte	.LASF279
 2240 10e4 00       		.byte	0
 2241 10e5 13       		.uleb128 0x13
 2242 10e6 A20A0000 		.4byte	.LASF280
 2243 10ea 01       		.byte	0x1
 2244 10eb 13       		.uleb128 0x13
 2245 10ec 460C0000 		.4byte	.LASF281
 2246 10f0 02       		.byte	0x2
 2247 10f1 00       		.byte	0
 2248 10f2 03       		.uleb128 0x3
 2249 10f3 710D0000 		.4byte	.LASF282
 2250 10f7 1C       		.byte	0x1c
 2251 10f8 4E       		.byte	0x4e
 2252 10f9 D2100000 		.4byte	0x10d2
 2253 10fd 03       		.uleb128 0x3
 2254 10fe 47090000 		.4byte	.LASF283
 2255 1102 1C       		.byte	0x1c
 2256 1103 53       		.byte	0x53
 2257 1104 08110000 		.4byte	0x1108
 2258 1108 0D       		.uleb128 0xd
 2259 1109 47090000 		.4byte	.LASF283
 2260 110d 1C       		.byte	0x1c
 2261 110e 1D       		.byte	0x1d
 2262 110f B201     		.2byte	0x1b2
 2263 1111 71110000 		.4byte	0x1171
 2264 1115 0B       		.uleb128 0xb
 2265 1116 37010000 		.4byte	.LASF38
 2266 111a 1D       		.byte	0x1d
 2267 111b B601     		.2byte	0x1b6
 2268 111d F2100000 		.4byte	0x10f2
 2269 1121 00       		.byte	0
 2270 1122 0B       		.uleb128 0xb
 2271 1123 30010000 		.4byte	.LASF284
 2272 1127 1D       		.byte	0x1d
 2273 1128 BA01     		.2byte	0x1ba
 2274 112a 6C120000 		.4byte	0x126c
 2275 112e 04       		.byte	0x4
 2276 112f 0B       		.uleb128 0xb
 2277 1130 580B0000 		.4byte	.LASF285
 2278 1134 1D       		.byte	0x1d
 2279 1135 BE01     		.2byte	0x1be
 2280 1137 B7110000 		.4byte	0x11b7
ARM GAS  /var/folders/vd/czx34qs52cd_f3nb04sxmghc0000gn/T//cc7V9gBu.s 			page 41


 2281 113b 08       		.byte	0x8
 2282 113c 0B       		.uleb128 0xb
 2283 113d 5A050000 		.4byte	.LASF286
 2284 1141 1D       		.byte	0x1d
 2285 1142 C201     		.2byte	0x1c2
 2286 1144 AB110000 		.4byte	0x11ab
 2287 1148 0C       		.byte	0xc
 2288 1149 0B       		.uleb128 0xb
 2289 114a 020B0000 		.4byte	.LASF287
 2290 114e 1D       		.byte	0x1d
 2291 114f C601     		.2byte	0x1c6
 2292 1151 9F110000 		.4byte	0x119f
 2293 1155 10       		.byte	0x10
 2294 1156 0B       		.uleb128 0xb
 2295 1157 B8060000 		.4byte	.LASF288
 2296 115b 1D       		.byte	0x1d
 2297 115c CE01     		.2byte	0x1ce
 2298 115e E4000000 		.4byte	0xe4
 2299 1162 14       		.byte	0x14
 2300 1163 0A       		.uleb128 0xa
 2301 1164 74696D00 		.ascii	"tim\000"
 2302 1168 1D       		.byte	0x1d
 2303 1169 D201     		.2byte	0x1d2
 2304 116b 72120000 		.4byte	0x1272
 2305 116f 18       		.byte	0x18
 2306 1170 00       		.byte	0
 2307 1171 03       		.uleb128 0x3
 2308 1172 31090000 		.4byte	.LASF289
 2309 1176 1C       		.byte	0x1c
 2310 1177 5A       		.byte	0x5a
 2311 1178 7C110000 		.4byte	0x117c
 2312 117c 0C       		.uleb128 0xc
 2313 117d 04       		.byte	0x4
 2314 117e 82110000 		.4byte	0x1182
 2315 1182 0E       		.uleb128 0xe
 2316 1183 8D110000 		.4byte	0x118d
 2317 1187 0F       		.uleb128 0xf
 2318 1188 8D110000 		.4byte	0x118d
 2319 118c 00       		.byte	0
 2320 118d 0C       		.uleb128 0xc
 2321 118e 04       		.byte	0x4
 2322 118f FD100000 		.4byte	0x10fd
 2323 1193 19       		.uleb128 0x19
 2324 1194 7D040000 		.4byte	.LASF290
 2325 1198 1D       		.byte	0x1d
 2326 1199 5E01     		.2byte	0x15e
 2327 119b E4000000 		.4byte	0xe4
 2328 119f 19       		.uleb128 0x19
 2329 11a0 7F020000 		.4byte	.LASF291
 2330 11a4 1D       		.byte	0x1d
 2331 11a5 6301     		.2byte	0x163
 2332 11a7 B9000000 		.4byte	0xb9
 2333 11ab 19       		.uleb128 0x19
 2334 11ac 0F010000 		.4byte	.LASF292
 2335 11b0 1D       		.byte	0x1d
 2336 11b1 6801     		.2byte	0x168
 2337 11b3 E4000000 		.4byte	0xe4
ARM GAS  /var/folders/vd/czx34qs52cd_f3nb04sxmghc0000gn/T//cc7V9gBu.s 			page 42


 2338 11b7 19       		.uleb128 0x19
 2339 11b8 06030000 		.4byte	.LASF293
 2340 11bc 1D       		.byte	0x1d
 2341 11bd 6D01     		.2byte	0x16d
 2342 11bf E4000000 		.4byte	0xe4
 2343 11c3 18       		.uleb128 0x18
 2344 11c4 08       		.byte	0x8
 2345 11c5 1D       		.byte	0x1d
 2346 11c6 7201     		.2byte	0x172
 2347 11c8 E7110000 		.4byte	0x11e7
 2348 11cc 0B       		.uleb128 0xb
 2349 11cd 790C0000 		.4byte	.LASF294
 2350 11d1 1D       		.byte	0x1d
 2351 11d2 7601     		.2byte	0x176
 2352 11d4 93110000 		.4byte	0x1193
 2353 11d8 00       		.byte	0
 2354 11d9 0B       		.uleb128 0xb
 2355 11da 04020000 		.4byte	.LASF295
 2356 11de 1D       		.byte	0x1d
 2357 11df 7C01     		.2byte	0x17c
 2358 11e1 71110000 		.4byte	0x1171
 2359 11e5 04       		.byte	0x4
 2360 11e6 00       		.byte	0
 2361 11e7 19       		.uleb128 0x19
 2362 11e8 42010000 		.4byte	.LASF296
 2363 11ec 1D       		.byte	0x1d
 2364 11ed 7E01     		.2byte	0x17e
 2365 11ef C3110000 		.4byte	0x11c3
 2366 11f3 18       		.uleb128 0x18
 2367 11f4 34       		.byte	0x34
 2368 11f5 1D       		.byte	0x1d
 2369 11f6 8301     		.2byte	0x183
 2370 11f8 4B120000 		.4byte	0x124b
 2371 11fc 0B       		.uleb128 0xb
 2372 11fd C0080000 		.4byte	.LASF297
 2373 1201 1D       		.byte	0x1d
 2374 1202 8901     		.2byte	0x189
 2375 1204 E4000000 		.4byte	0xe4
 2376 1208 00       		.byte	0
 2377 1209 0B       		.uleb128 0xb
 2378 120a 580B0000 		.4byte	.LASF285
 2379 120e 1D       		.byte	0x1d
 2380 120f 8F01     		.2byte	0x18f
 2381 1211 B7110000 		.4byte	0x11b7
 2382 1215 04       		.byte	0x4
 2383 1216 0B       		.uleb128 0xb
 2384 1217 04020000 		.4byte	.LASF295
 2385 121b 1D       		.byte	0x1d
 2386 121c 9501     		.2byte	0x195
 2387 121e 71110000 		.4byte	0x1171
 2388 1222 08       		.byte	0x8
 2389 1223 0B       		.uleb128 0xb
 2390 1224 020B0000 		.4byte	.LASF287
 2391 1228 1D       		.byte	0x1d
 2392 1229 9901     		.2byte	0x199
 2393 122b 4B120000 		.4byte	0x124b
 2394 122f 0C       		.byte	0xc
ARM GAS  /var/folders/vd/czx34qs52cd_f3nb04sxmghc0000gn/T//cc7V9gBu.s 			page 43


 2395 1230 0A       		.uleb128 0xa
 2396 1231 63723200 		.ascii	"cr2\000"
 2397 1235 1D       		.byte	0x1d
 2398 1236 9F01     		.2byte	0x19f
 2399 1238 E4000000 		.4byte	0xe4
 2400 123c 2C       		.byte	0x2c
 2401 123d 0B       		.uleb128 0xb
 2402 123e 6B010000 		.4byte	.LASF298
 2403 1242 1D       		.byte	0x1d
 2404 1243 AC01     		.2byte	0x1ac
 2405 1245 E4000000 		.4byte	0xe4
 2406 1249 30       		.byte	0x30
 2407 124a 00       		.byte	0
 2408 124b 16       		.uleb128 0x16
 2409 124c E7110000 		.4byte	0x11e7
 2410 1250 5B120000 		.4byte	0x125b
 2411 1254 17       		.uleb128 0x17
 2412 1255 3C000000 		.4byte	0x3c
 2413 1259 03       		.byte	0x3
 2414 125a 00       		.byte	0
 2415 125b 19       		.uleb128 0x19
 2416 125c 170D0000 		.4byte	.LASF299
 2417 1260 1D       		.byte	0x1d
 2418 1261 AD01     		.2byte	0x1ad
 2419 1263 F3110000 		.4byte	0x11f3
 2420 1267 06       		.uleb128 0x6
 2421 1268 5B120000 		.4byte	0x125b
 2422 126c 0C       		.uleb128 0xc
 2423 126d 04       		.byte	0x4
 2424 126e 67120000 		.4byte	0x1267
 2425 1272 0C       		.uleb128 0xc
 2426 1273 04       		.byte	0x4
 2427 1274 AF090000 		.4byte	0x9af
 2428 1278 14       		.uleb128 0x14
 2429 1279 610D0000 		.4byte	.LASF300
 2430 127d 1D       		.byte	0x1d
 2431 127e FD01     		.2byte	0x1fd
 2432 1280 FD100000 		.4byte	0x10fd
 2433 1284 11       		.uleb128 0x11
 2434 1285 07       		.byte	0x7
 2435 1286 01       		.byte	0x1
 2436 1287 63000000 		.4byte	0x63
 2437 128b 1E       		.byte	0x1e
 2438 128c 58       		.byte	0x58
 2439 128d A4120000 		.4byte	0x12a4
 2440 1291 13       		.uleb128 0x13
 2441 1292 73030000 		.4byte	.LASF301
 2442 1296 00       		.byte	0
 2443 1297 13       		.uleb128 0x13
 2444 1298 CB0E0000 		.4byte	.LASF302
 2445 129c 01       		.byte	0x1
 2446 129d 13       		.uleb128 0x13
 2447 129e F50B0000 		.4byte	.LASF303
 2448 12a2 02       		.byte	0x2
 2449 12a3 00       		.byte	0
 2450 12a4 03       		.uleb128 0x3
 2451 12a5 C70B0000 		.4byte	.LASF304
ARM GAS  /var/folders/vd/czx34qs52cd_f3nb04sxmghc0000gn/T//cc7V9gBu.s 			page 44


 2452 12a9 1E       		.byte	0x1e
 2453 12aa 5C       		.byte	0x5c
 2454 12ab 84120000 		.4byte	0x1284
 2455 12af 03       		.uleb128 0x3
 2456 12b0 770B0000 		.4byte	.LASF305
 2457 12b4 1E       		.byte	0x1e
 2458 12b5 61       		.byte	0x61
 2459 12b6 BA120000 		.4byte	0x12ba
 2460 12ba 07       		.uleb128 0x7
 2461 12bb 770B0000 		.4byte	.LASF305
 2462 12bf 7C       		.byte	0x7c
 2463 12c0 1E       		.byte	0x1e
 2464 12c1 7B       		.byte	0x7b
 2465 12c2 31130000 		.4byte	0x1331
 2466 12c6 09       		.uleb128 0x9
 2467 12c7 766D7400 		.ascii	"vmt\000"
 2468 12cb 1E       		.byte	0x1e
 2469 12cc 7D       		.byte	0x7d
 2470 12cd C7130000 		.4byte	0x13c7
 2471 12d1 00       		.byte	0
 2472 12d2 08       		.uleb128 0x8
 2473 12d3 DF080000 		.4byte	.LASF306
 2474 12d7 1E       		.byte	0x1e
 2475 12d8 7E       		.byte	0x7e
 2476 12d9 7A0C0000 		.4byte	0xc7a
 2477 12dd 04       		.byte	0x4
 2478 12de 08       		.uleb128 0x8
 2479 12df 37010000 		.4byte	.LASF38
 2480 12e3 1E       		.byte	0x1e
 2481 12e4 7E       		.byte	0x7e
 2482 12e5 A4120000 		.4byte	0x12a4
 2483 12e9 08       		.byte	0x8
 2484 12ea 08       		.uleb128 0x8
 2485 12eb 950C0000 		.4byte	.LASF307
 2486 12ef 1E       		.byte	0x1e
 2487 12f0 7E       		.byte	0x7e
 2488 12f1 91100000 		.4byte	0x1091
 2489 12f5 0C       		.byte	0xc
 2490 12f6 08       		.uleb128 0x8
 2491 12f7 6F020000 		.4byte	.LASF308
 2492 12fb 1E       		.byte	0x1e
 2493 12fc 7E       		.byte	0x7e
 2494 12fd 9C100000 		.4byte	0x109c
 2495 1301 30       		.byte	0x30
 2496 1302 09       		.uleb128 0x9
 2497 1303 696200   		.ascii	"ib\000"
 2498 1306 1E       		.byte	0x1e
 2499 1307 7E       		.byte	0x7e
 2500 1308 CD130000 		.4byte	0x13cd
 2501 130c 54       		.byte	0x54
 2502 130d 09       		.uleb128 0x9
 2503 130e 6F6200   		.ascii	"ob\000"
 2504 1311 1E       		.byte	0x1e
 2505 1312 7E       		.byte	0x7e
 2506 1313 CD130000 		.4byte	0x13cd
 2507 1317 64       		.byte	0x64
 2508 1318 08       		.uleb128 0x8
ARM GAS  /var/folders/vd/czx34qs52cd_f3nb04sxmghc0000gn/T//cc7V9gBu.s 			page 45


 2509 1319 AE020000 		.4byte	.LASF309
 2510 131d 1E       		.byte	0x1e
 2511 131e 7E       		.byte	0x7e
 2512 131f DD130000 		.4byte	0x13dd
 2513 1323 74       		.byte	0x74
 2514 1324 08       		.uleb128 0x8
 2515 1325 8D040000 		.4byte	.LASF310
 2516 1329 1E       		.byte	0x1e
 2517 132a 7E       		.byte	0x7e
 2518 132b B9000000 		.4byte	0xb9
 2519 132f 78       		.byte	0x78
 2520 1330 00       		.byte	0
 2521 1331 1E       		.uleb128 0x1e
 2522 1332 53443100 		.ascii	"SD1\000"
 2523 1336 1F       		.byte	0x1f
 2524 1337 4401     		.2byte	0x144
 2525 1339 AF120000 		.4byte	0x12af
 2526 133d 07       		.uleb128 0x7
 2527 133e 8C060000 		.4byte	.LASF311
 2528 1342 28       		.byte	0x28
 2529 1343 1E       		.byte	0x1e
 2530 1344 70       		.byte	0x70
 2531 1345 C2130000 		.4byte	0x13c2
 2532 1349 08       		.uleb128 0x8
 2533 134a CB0D0000 		.4byte	.LASF312
 2534 134e 1E       		.byte	0x1e
 2535 134f 71       		.byte	0x71
 2536 1350 2C000000 		.4byte	0x2c
 2537 1354 00       		.byte	0
 2538 1355 08       		.uleb128 0x8
 2539 1356 D4000000 		.4byte	.LASF313
 2540 135a 1E       		.byte	0x1e
 2541 135b 71       		.byte	0x71
 2542 135c 030F0000 		.4byte	0xf03
 2543 1360 04       		.byte	0x4
 2544 1361 08       		.uleb128 0x8
 2545 1362 F6080000 		.4byte	.LASF314
 2546 1366 1E       		.byte	0x1e
 2547 1367 71       		.byte	0x71
 2548 1368 220F0000 		.4byte	0xf22
 2549 136c 08       		.byte	0x8
 2550 136d 09       		.uleb128 0x9
 2551 136e 70757400 		.ascii	"put\000"
 2552 1372 1E       		.byte	0x1e
 2553 1373 71       		.byte	0x71
 2554 1374 3C0F0000 		.4byte	0xf3c
 2555 1378 0C       		.byte	0xc
 2556 1379 09       		.uleb128 0x9
 2557 137a 67657400 		.ascii	"get\000"
 2558 137e 1E       		.byte	0x1e
 2559 137f 71       		.byte	0x71
 2560 1380 510F0000 		.4byte	0xf51
 2561 1384 10       		.byte	0x10
 2562 1385 08       		.uleb128 0x8
 2563 1386 3D010000 		.4byte	.LASF315
 2564 138a 1E       		.byte	0x1e
 2565 138b 71       		.byte	0x71
ARM GAS  /var/folders/vd/czx34qs52cd_f3nb04sxmghc0000gn/T//cc7V9gBu.s 			page 46


 2566 138c 700F0000 		.4byte	0xf70
 2567 1390 14       		.byte	0x14
 2568 1391 08       		.uleb128 0x8
 2569 1392 15040000 		.4byte	.LASF316
 2570 1396 1E       		.byte	0x1e
 2571 1397 71       		.byte	0x71
 2572 1398 8A0F0000 		.4byte	0xf8a
 2573 139c 18       		.byte	0x18
 2574 139d 08       		.uleb128 0x8
 2575 139e A8000000 		.4byte	.LASF317
 2576 13a2 1E       		.byte	0x1e
 2577 13a3 71       		.byte	0x71
 2578 13a4 AE0F0000 		.4byte	0xfae
 2579 13a8 1C       		.byte	0x1c
 2580 13a9 08       		.uleb128 0x8
 2581 13aa EC010000 		.4byte	.LASF318
 2582 13ae 1E       		.byte	0x1e
 2583 13af 71       		.byte	0x71
 2584 13b0 D20F0000 		.4byte	0xfd2
 2585 13b4 20       		.byte	0x20
 2586 13b5 09       		.uleb128 0x9
 2587 13b6 63746C00 		.ascii	"ctl\000"
 2588 13ba 1E       		.byte	0x1e
 2589 13bb 71       		.byte	0x71
 2590 13bc F10F0000 		.4byte	0xff1
 2591 13c0 24       		.byte	0x24
 2592 13c1 00       		.byte	0
 2593 13c2 06       		.uleb128 0x6
 2594 13c3 3D130000 		.4byte	0x133d
 2595 13c7 0C       		.uleb128 0xc
 2596 13c8 04       		.byte	0x4
 2597 13c9 C2130000 		.4byte	0x13c2
 2598 13cd 16       		.uleb128 0x16
 2599 13ce B9000000 		.4byte	0xb9
 2600 13d2 DD130000 		.4byte	0x13dd
 2601 13d6 17       		.uleb128 0x17
 2602 13d7 3C000000 		.4byte	0x3c
 2603 13db 0F       		.byte	0xf
 2604 13dc 00       		.byte	0
 2605 13dd 0C       		.uleb128 0xc
 2606 13de 04       		.byte	0x4
 2607 13df E7070000 		.4byte	0x7e7
 2608 13e3 22       		.uleb128 0x22
 2609 13e4 90030000 		.4byte	.LASF319
 2610 13e8 01       		.byte	0x1
 2611 13e9 F2       		.byte	0xf2
 2612 13ea 00000000 		.4byte	.LFB314
 2613 13ee 30000000 		.4byte	.LFE314-.LFB314
 2614 13f2 01       		.uleb128 0x1
 2615 13f3 9C       		.byte	0x9c
 2616 13f4 7B140000 		.4byte	0x147b
 2617 13f8 23       		.uleb128 0x23
 2618 13f9 08000000 		.4byte	.LVL7
 2619 13fd 36150000 		.4byte	0x1536
 2620 1401 0B140000 		.4byte	0x140b
 2621 1405 24       		.uleb128 0x24
 2622 1406 01       		.uleb128 0x1
ARM GAS  /var/folders/vd/czx34qs52cd_f3nb04sxmghc0000gn/T//cc7V9gBu.s 			page 47


 2623 1407 50       		.byte	0x50
 2624 1408 01       		.uleb128 0x1
 2625 1409 36       		.byte	0x36
 2626 140a 00       		.byte	0
 2627 140b 23       		.uleb128 0x23
 2628 140c 0E000000 		.4byte	.LVL8
 2629 1410 36150000 		.4byte	0x1536
 2630 1414 1E140000 		.4byte	0x141e
 2631 1418 24       		.uleb128 0x24
 2632 1419 01       		.uleb128 0x1
 2633 141a 50       		.byte	0x50
 2634 141b 01       		.uleb128 0x1
 2635 141c 37       		.byte	0x37
 2636 141d 00       		.byte	0
 2637 141e 23       		.uleb128 0x23
 2638 141f 14000000 		.4byte	.LVL9
 2639 1423 36150000 		.4byte	0x1536
 2640 1427 31140000 		.4byte	0x1431
 2641 142b 24       		.uleb128 0x24
 2642 142c 01       		.uleb128 0x1
 2643 142d 50       		.byte	0x50
 2644 142e 01       		.uleb128 0x1
 2645 142f 38       		.byte	0x38
 2646 1430 00       		.byte	0
 2647 1431 23       		.uleb128 0x23
 2648 1432 1A000000 		.4byte	.LVL10
 2649 1436 36150000 		.4byte	0x1536
 2650 143a 44140000 		.4byte	0x1444
 2651 143e 24       		.uleb128 0x24
 2652 143f 01       		.uleb128 0x1
 2653 1440 50       		.byte	0x50
 2654 1441 01       		.uleb128 0x1
 2655 1442 39       		.byte	0x39
 2656 1443 00       		.byte	0
 2657 1444 23       		.uleb128 0x23
 2658 1445 20000000 		.4byte	.LVL11
 2659 1449 36150000 		.4byte	0x1536
 2660 144d 57140000 		.4byte	0x1457
 2661 1451 24       		.uleb128 0x24
 2662 1452 01       		.uleb128 0x1
 2663 1453 50       		.byte	0x50
 2664 1454 01       		.uleb128 0x1
 2665 1455 3A       		.byte	0x3a
 2666 1456 00       		.byte	0
 2667 1457 23       		.uleb128 0x23
 2668 1458 26000000 		.4byte	.LVL12
 2669 145c 36150000 		.4byte	0x1536
 2670 1460 6A140000 		.4byte	0x146a
 2671 1464 24       		.uleb128 0x24
 2672 1465 01       		.uleb128 0x1
 2673 1466 50       		.byte	0x50
 2674 1467 01       		.uleb128 0x1
 2675 1468 47       		.byte	0x47
 2676 1469 00       		.byte	0
 2677 146a 25       		.uleb128 0x25
 2678 146b 30000000 		.4byte	.LVL13
 2679 146f 36150000 		.4byte	0x1536
ARM GAS  /var/folders/vd/czx34qs52cd_f3nb04sxmghc0000gn/T//cc7V9gBu.s 			page 48


 2680 1473 24       		.uleb128 0x24
 2681 1474 01       		.uleb128 0x1
 2682 1475 50       		.byte	0x50
 2683 1476 02       		.uleb128 0x2
 2684 1477 08       		.byte	0x8
 2685 1478 28       		.byte	0x28
 2686 1479 00       		.byte	0
 2687 147a 00       		.byte	0
 2688 147b 22       		.uleb128 0x22
 2689 147c E00C0000 		.4byte	.LASF320
 2690 1480 01       		.byte	0x1
 2691 1481 E0       		.byte	0xe0
 2692 1482 00000000 		.4byte	.LFB313
 2693 1486 3E000000 		.4byte	.LFE313-.LFB313
 2694 148a 01       		.uleb128 0x1
 2695 148b 9C       		.byte	0x9c
 2696 148c 36150000 		.4byte	0x1536
 2697 1490 23       		.uleb128 0x23
 2698 1491 0A000000 		.4byte	.LVL0
 2699 1495 41150000 		.4byte	0x1541
 2700 1499 A8140000 		.4byte	0x14a8
 2701 149d 24       		.uleb128 0x24
 2702 149e 01       		.uleb128 0x1
 2703 149f 50       		.byte	0x50
 2704 14a0 01       		.uleb128 0x1
 2705 14a1 36       		.byte	0x36
 2706 14a2 24       		.uleb128 0x24
 2707 14a3 01       		.uleb128 0x1
 2708 14a4 51       		.byte	0x51
 2709 14a5 01       		.uleb128 0x1
 2710 14a6 36       		.byte	0x36
 2711 14a7 00       		.byte	0
 2712 14a8 23       		.uleb128 0x23
 2713 14a9 12000000 		.4byte	.LVL1
 2714 14ad 41150000 		.4byte	0x1541
 2715 14b1 C0140000 		.4byte	0x14c0
 2716 14b5 24       		.uleb128 0x24
 2717 14b6 01       		.uleb128 0x1
 2718 14b7 50       		.byte	0x50
 2719 14b8 01       		.uleb128 0x1
 2720 14b9 37       		.byte	0x37
 2721 14ba 24       		.uleb128 0x24
 2722 14bb 01       		.uleb128 0x1
 2723 14bc 51       		.byte	0x51
 2724 14bd 01       		.uleb128 0x1
 2725 14be 36       		.byte	0x36
 2726 14bf 00       		.byte	0
 2727 14c0 23       		.uleb128 0x23
 2728 14c1 1A000000 		.4byte	.LVL2
 2729 14c5 41150000 		.4byte	0x1541
 2730 14c9 D8140000 		.4byte	0x14d8
 2731 14cd 24       		.uleb128 0x24
 2732 14ce 01       		.uleb128 0x1
 2733 14cf 50       		.byte	0x50
 2734 14d0 01       		.uleb128 0x1
 2735 14d1 38       		.byte	0x38
 2736 14d2 24       		.uleb128 0x24
ARM GAS  /var/folders/vd/czx34qs52cd_f3nb04sxmghc0000gn/T//cc7V9gBu.s 			page 49


 2737 14d3 01       		.uleb128 0x1
 2738 14d4 51       		.byte	0x51
 2739 14d5 01       		.uleb128 0x1
 2740 14d6 36       		.byte	0x36
 2741 14d7 00       		.byte	0
 2742 14d8 23       		.uleb128 0x23
 2743 14d9 22000000 		.4byte	.LVL3
 2744 14dd 41150000 		.4byte	0x1541
 2745 14e1 F0140000 		.4byte	0x14f0
 2746 14e5 24       		.uleb128 0x24
 2747 14e6 01       		.uleb128 0x1
 2748 14e7 50       		.byte	0x50
 2749 14e8 01       		.uleb128 0x1
 2750 14e9 39       		.byte	0x39
 2751 14ea 24       		.uleb128 0x24
 2752 14eb 01       		.uleb128 0x1
 2753 14ec 51       		.byte	0x51
 2754 14ed 01       		.uleb128 0x1
 2755 14ee 36       		.byte	0x36
 2756 14ef 00       		.byte	0
 2757 14f0 23       		.uleb128 0x23
 2758 14f1 2A000000 		.4byte	.LVL4
 2759 14f5 41150000 		.4byte	0x1541
 2760 14f9 08150000 		.4byte	0x1508
 2761 14fd 24       		.uleb128 0x24
 2762 14fe 01       		.uleb128 0x1
 2763 14ff 50       		.byte	0x50
 2764 1500 01       		.uleb128 0x1
 2765 1501 3A       		.byte	0x3a
 2766 1502 24       		.uleb128 0x24
 2767 1503 01       		.uleb128 0x1
 2768 1504 51       		.byte	0x51
 2769 1505 01       		.uleb128 0x1
 2770 1506 36       		.byte	0x36
 2771 1507 00       		.byte	0
 2772 1508 23       		.uleb128 0x23
 2773 1509 32000000 		.4byte	.LVL5
 2774 150d 41150000 		.4byte	0x1541
 2775 1511 20150000 		.4byte	0x1520
 2776 1515 24       		.uleb128 0x24
 2777 1516 01       		.uleb128 0x1
 2778 1517 50       		.byte	0x50
 2779 1518 01       		.uleb128 0x1
 2780 1519 47       		.byte	0x47
 2781 151a 24       		.uleb128 0x24
 2782 151b 01       		.uleb128 0x1
 2783 151c 51       		.byte	0x51
 2784 151d 01       		.uleb128 0x1
 2785 151e 36       		.byte	0x36
 2786 151f 00       		.byte	0
 2787 1520 25       		.uleb128 0x25
 2788 1521 3E000000 		.4byte	.LVL6
 2789 1525 41150000 		.4byte	0x1541
 2790 1529 24       		.uleb128 0x24
 2791 152a 01       		.uleb128 0x1
 2792 152b 50       		.byte	0x50
 2793 152c 02       		.uleb128 0x2
ARM GAS  /var/folders/vd/czx34qs52cd_f3nb04sxmghc0000gn/T//cc7V9gBu.s 			page 50


 2794 152d 08       		.byte	0x8
 2795 152e 28       		.byte	0x28
 2796 152f 24       		.uleb128 0x24
 2797 1530 01       		.uleb128 0x1
 2798 1531 51       		.byte	0x51
 2799 1532 01       		.uleb128 0x1
 2800 1533 36       		.byte	0x36
 2801 1534 00       		.byte	0
 2802 1535 00       		.byte	0
 2803 1536 26       		.uleb128 0x26
 2804 1537 D6090000 		.4byte	.LASF321
 2805 153b D6090000 		.4byte	.LASF321
 2806 153f 20       		.byte	0x20
 2807 1540 4F       		.byte	0x4f
 2808 1541 26       		.uleb128 0x26
 2809 1542 870D0000 		.4byte	.LASF322
 2810 1546 870D0000 		.4byte	.LASF322
 2811 154a 20       		.byte	0x20
 2812 154b 4E       		.byte	0x4e
 2813 154c 00       		.byte	0
 2814              		.section	.debug_abbrev,"",%progbits
 2815              	.Ldebug_abbrev0:
 2816 0000 01       		.uleb128 0x1
 2817 0001 11       		.uleb128 0x11
 2818 0002 01       		.byte	0x1
 2819 0003 25       		.uleb128 0x25
 2820 0004 0E       		.uleb128 0xe
 2821 0005 13       		.uleb128 0x13
 2822 0006 0B       		.uleb128 0xb
 2823 0007 03       		.uleb128 0x3
 2824 0008 0E       		.uleb128 0xe
 2825 0009 1B       		.uleb128 0x1b
 2826 000a 0E       		.uleb128 0xe
 2827 000b 55       		.uleb128 0x55
 2828 000c 17       		.uleb128 0x17
 2829 000d 11       		.uleb128 0x11
 2830 000e 01       		.uleb128 0x1
 2831 000f 10       		.uleb128 0x10
 2832 0010 17       		.uleb128 0x17
 2833 0011 00       		.byte	0
 2834 0012 00       		.byte	0
 2835 0013 02       		.uleb128 0x2
 2836 0014 24       		.uleb128 0x24
 2837 0015 00       		.byte	0
 2838 0016 0B       		.uleb128 0xb
 2839 0017 0B       		.uleb128 0xb
 2840 0018 3E       		.uleb128 0x3e
 2841 0019 0B       		.uleb128 0xb
 2842 001a 03       		.uleb128 0x3
 2843 001b 08       		.uleb128 0x8
 2844 001c 00       		.byte	0
 2845 001d 00       		.byte	0
 2846 001e 03       		.uleb128 0x3
 2847 001f 16       		.uleb128 0x16
 2848 0020 00       		.byte	0
 2849 0021 03       		.uleb128 0x3
 2850 0022 0E       		.uleb128 0xe
ARM GAS  /var/folders/vd/czx34qs52cd_f3nb04sxmghc0000gn/T//cc7V9gBu.s 			page 51


 2851 0023 3A       		.uleb128 0x3a
 2852 0024 0B       		.uleb128 0xb
 2853 0025 3B       		.uleb128 0x3b
 2854 0026 0B       		.uleb128 0xb
 2855 0027 49       		.uleb128 0x49
 2856 0028 13       		.uleb128 0x13
 2857 0029 00       		.byte	0
 2858 002a 00       		.byte	0
 2859 002b 04       		.uleb128 0x4
 2860 002c 35       		.uleb128 0x35
 2861 002d 00       		.byte	0
 2862 002e 49       		.uleb128 0x49
 2863 002f 13       		.uleb128 0x13
 2864 0030 00       		.byte	0
 2865 0031 00       		.byte	0
 2866 0032 05       		.uleb128 0x5
 2867 0033 24       		.uleb128 0x24
 2868 0034 00       		.byte	0
 2869 0035 0B       		.uleb128 0xb
 2870 0036 0B       		.uleb128 0xb
 2871 0037 3E       		.uleb128 0x3e
 2872 0038 0B       		.uleb128 0xb
 2873 0039 03       		.uleb128 0x3
 2874 003a 0E       		.uleb128 0xe
 2875 003b 00       		.byte	0
 2876 003c 00       		.byte	0
 2877 003d 06       		.uleb128 0x6
 2878 003e 26       		.uleb128 0x26
 2879 003f 00       		.byte	0
 2880 0040 49       		.uleb128 0x49
 2881 0041 13       		.uleb128 0x13
 2882 0042 00       		.byte	0
 2883 0043 00       		.byte	0
 2884 0044 07       		.uleb128 0x7
 2885 0045 13       		.uleb128 0x13
 2886 0046 01       		.byte	0x1
 2887 0047 03       		.uleb128 0x3
 2888 0048 0E       		.uleb128 0xe
 2889 0049 0B       		.uleb128 0xb
 2890 004a 0B       		.uleb128 0xb
 2891 004b 3A       		.uleb128 0x3a
 2892 004c 0B       		.uleb128 0xb
 2893 004d 3B       		.uleb128 0x3b
 2894 004e 0B       		.uleb128 0xb
 2895 004f 01       		.uleb128 0x1
 2896 0050 13       		.uleb128 0x13
 2897 0051 00       		.byte	0
 2898 0052 00       		.byte	0
 2899 0053 08       		.uleb128 0x8
 2900 0054 0D       		.uleb128 0xd
 2901 0055 00       		.byte	0
 2902 0056 03       		.uleb128 0x3
 2903 0057 0E       		.uleb128 0xe
 2904 0058 3A       		.uleb128 0x3a
 2905 0059 0B       		.uleb128 0xb
 2906 005a 3B       		.uleb128 0x3b
 2907 005b 0B       		.uleb128 0xb
ARM GAS  /var/folders/vd/czx34qs52cd_f3nb04sxmghc0000gn/T//cc7V9gBu.s 			page 52


 2908 005c 49       		.uleb128 0x49
 2909 005d 13       		.uleb128 0x13
 2910 005e 38       		.uleb128 0x38
 2911 005f 0B       		.uleb128 0xb
 2912 0060 00       		.byte	0
 2913 0061 00       		.byte	0
 2914 0062 09       		.uleb128 0x9
 2915 0063 0D       		.uleb128 0xd
 2916 0064 00       		.byte	0
 2917 0065 03       		.uleb128 0x3
 2918 0066 08       		.uleb128 0x8
 2919 0067 3A       		.uleb128 0x3a
 2920 0068 0B       		.uleb128 0xb
 2921 0069 3B       		.uleb128 0x3b
 2922 006a 0B       		.uleb128 0xb
 2923 006b 49       		.uleb128 0x49
 2924 006c 13       		.uleb128 0x13
 2925 006d 38       		.uleb128 0x38
 2926 006e 0B       		.uleb128 0xb
 2927 006f 00       		.byte	0
 2928 0070 00       		.byte	0
 2929 0071 0A       		.uleb128 0xa
 2930 0072 0D       		.uleb128 0xd
 2931 0073 00       		.byte	0
 2932 0074 03       		.uleb128 0x3
 2933 0075 08       		.uleb128 0x8
 2934 0076 3A       		.uleb128 0x3a
 2935 0077 0B       		.uleb128 0xb
 2936 0078 3B       		.uleb128 0x3b
 2937 0079 05       		.uleb128 0x5
 2938 007a 49       		.uleb128 0x49
 2939 007b 13       		.uleb128 0x13
 2940 007c 38       		.uleb128 0x38
 2941 007d 0B       		.uleb128 0xb
 2942 007e 00       		.byte	0
 2943 007f 00       		.byte	0
 2944 0080 0B       		.uleb128 0xb
 2945 0081 0D       		.uleb128 0xd
 2946 0082 00       		.byte	0
 2947 0083 03       		.uleb128 0x3
 2948 0084 0E       		.uleb128 0xe
 2949 0085 3A       		.uleb128 0x3a
 2950 0086 0B       		.uleb128 0xb
 2951 0087 3B       		.uleb128 0x3b
 2952 0088 05       		.uleb128 0x5
 2953 0089 49       		.uleb128 0x49
 2954 008a 13       		.uleb128 0x13
 2955 008b 38       		.uleb128 0x38
 2956 008c 0B       		.uleb128 0xb
 2957 008d 00       		.byte	0
 2958 008e 00       		.byte	0
 2959 008f 0C       		.uleb128 0xc
 2960 0090 0F       		.uleb128 0xf
 2961 0091 00       		.byte	0
 2962 0092 0B       		.uleb128 0xb
 2963 0093 0B       		.uleb128 0xb
 2964 0094 49       		.uleb128 0x49
ARM GAS  /var/folders/vd/czx34qs52cd_f3nb04sxmghc0000gn/T//cc7V9gBu.s 			page 53


 2965 0095 13       		.uleb128 0x13
 2966 0096 00       		.byte	0
 2967 0097 00       		.byte	0
 2968 0098 0D       		.uleb128 0xd
 2969 0099 13       		.uleb128 0x13
 2970 009a 01       		.byte	0x1
 2971 009b 03       		.uleb128 0x3
 2972 009c 0E       		.uleb128 0xe
 2973 009d 0B       		.uleb128 0xb
 2974 009e 0B       		.uleb128 0xb
 2975 009f 3A       		.uleb128 0x3a
 2976 00a0 0B       		.uleb128 0xb
 2977 00a1 3B       		.uleb128 0x3b
 2978 00a2 05       		.uleb128 0x5
 2979 00a3 01       		.uleb128 0x1
 2980 00a4 13       		.uleb128 0x13
 2981 00a5 00       		.byte	0
 2982 00a6 00       		.byte	0
 2983 00a7 0E       		.uleb128 0xe
 2984 00a8 15       		.uleb128 0x15
 2985 00a9 01       		.byte	0x1
 2986 00aa 27       		.uleb128 0x27
 2987 00ab 19       		.uleb128 0x19
 2988 00ac 01       		.uleb128 0x1
 2989 00ad 13       		.uleb128 0x13
 2990 00ae 00       		.byte	0
 2991 00af 00       		.byte	0
 2992 00b0 0F       		.uleb128 0xf
 2993 00b1 05       		.uleb128 0x5
 2994 00b2 00       		.byte	0
 2995 00b3 49       		.uleb128 0x49
 2996 00b4 13       		.uleb128 0x13
 2997 00b5 00       		.byte	0
 2998 00b6 00       		.byte	0
 2999 00b7 10       		.uleb128 0x10
 3000 00b8 0F       		.uleb128 0xf
 3001 00b9 00       		.byte	0
 3002 00ba 0B       		.uleb128 0xb
 3003 00bb 0B       		.uleb128 0xb
 3004 00bc 00       		.byte	0
 3005 00bd 00       		.byte	0
 3006 00be 11       		.uleb128 0x11
 3007 00bf 04       		.uleb128 0x4
 3008 00c0 01       		.byte	0x1
 3009 00c1 3E       		.uleb128 0x3e
 3010 00c2 0B       		.uleb128 0xb
 3011 00c3 0B       		.uleb128 0xb
 3012 00c4 0B       		.uleb128 0xb
 3013 00c5 49       		.uleb128 0x49
 3014 00c6 13       		.uleb128 0x13
 3015 00c7 3A       		.uleb128 0x3a
 3016 00c8 0B       		.uleb128 0xb
 3017 00c9 3B       		.uleb128 0x3b
 3018 00ca 0B       		.uleb128 0xb
 3019 00cb 01       		.uleb128 0x1
 3020 00cc 13       		.uleb128 0x13
 3021 00cd 00       		.byte	0
ARM GAS  /var/folders/vd/czx34qs52cd_f3nb04sxmghc0000gn/T//cc7V9gBu.s 			page 54


 3022 00ce 00       		.byte	0
 3023 00cf 12       		.uleb128 0x12
 3024 00d0 28       		.uleb128 0x28
 3025 00d1 00       		.byte	0
 3026 00d2 03       		.uleb128 0x3
 3027 00d3 0E       		.uleb128 0xe
 3028 00d4 1C       		.uleb128 0x1c
 3029 00d5 0D       		.uleb128 0xd
 3030 00d6 00       		.byte	0
 3031 00d7 00       		.byte	0
 3032 00d8 13       		.uleb128 0x13
 3033 00d9 28       		.uleb128 0x28
 3034 00da 00       		.byte	0
 3035 00db 03       		.uleb128 0x3
 3036 00dc 0E       		.uleb128 0xe
 3037 00dd 1C       		.uleb128 0x1c
 3038 00de 0B       		.uleb128 0xb
 3039 00df 00       		.byte	0
 3040 00e0 00       		.byte	0
 3041 00e1 14       		.uleb128 0x14
 3042 00e2 34       		.uleb128 0x34
 3043 00e3 00       		.byte	0
 3044 00e4 03       		.uleb128 0x3
 3045 00e5 0E       		.uleb128 0xe
 3046 00e6 3A       		.uleb128 0x3a
 3047 00e7 0B       		.uleb128 0xb
 3048 00e8 3B       		.uleb128 0x3b
 3049 00e9 05       		.uleb128 0x5
 3050 00ea 49       		.uleb128 0x49
 3051 00eb 13       		.uleb128 0x13
 3052 00ec 3F       		.uleb128 0x3f
 3053 00ed 19       		.uleb128 0x19
 3054 00ee 3C       		.uleb128 0x3c
 3055 00ef 19       		.uleb128 0x19
 3056 00f0 00       		.byte	0
 3057 00f1 00       		.byte	0
 3058 00f2 15       		.uleb128 0x15
 3059 00f3 34       		.uleb128 0x34
 3060 00f4 00       		.byte	0
 3061 00f5 03       		.uleb128 0x3
 3062 00f6 0E       		.uleb128 0xe
 3063 00f7 3A       		.uleb128 0x3a
 3064 00f8 0B       		.uleb128 0xb
 3065 00f9 3B       		.uleb128 0x3b
 3066 00fa 0B       		.uleb128 0xb
 3067 00fb 49       		.uleb128 0x49
 3068 00fc 13       		.uleb128 0x13
 3069 00fd 3F       		.uleb128 0x3f
 3070 00fe 19       		.uleb128 0x19
 3071 00ff 3C       		.uleb128 0x3c
 3072 0100 19       		.uleb128 0x19
 3073 0101 00       		.byte	0
 3074 0102 00       		.byte	0
 3075 0103 16       		.uleb128 0x16
 3076 0104 01       		.uleb128 0x1
 3077 0105 01       		.byte	0x1
 3078 0106 49       		.uleb128 0x49
ARM GAS  /var/folders/vd/czx34qs52cd_f3nb04sxmghc0000gn/T//cc7V9gBu.s 			page 55


 3079 0107 13       		.uleb128 0x13
 3080 0108 01       		.uleb128 0x1
 3081 0109 13       		.uleb128 0x13
 3082 010a 00       		.byte	0
 3083 010b 00       		.byte	0
 3084 010c 17       		.uleb128 0x17
 3085 010d 21       		.uleb128 0x21
 3086 010e 00       		.byte	0
 3087 010f 49       		.uleb128 0x49
 3088 0110 13       		.uleb128 0x13
 3089 0111 2F       		.uleb128 0x2f
 3090 0112 0B       		.uleb128 0xb
 3091 0113 00       		.byte	0
 3092 0114 00       		.byte	0
 3093 0115 18       		.uleb128 0x18
 3094 0116 13       		.uleb128 0x13
 3095 0117 01       		.byte	0x1
 3096 0118 0B       		.uleb128 0xb
 3097 0119 0B       		.uleb128 0xb
 3098 011a 3A       		.uleb128 0x3a
 3099 011b 0B       		.uleb128 0xb
 3100 011c 3B       		.uleb128 0x3b
 3101 011d 05       		.uleb128 0x5
 3102 011e 01       		.uleb128 0x1
 3103 011f 13       		.uleb128 0x13
 3104 0120 00       		.byte	0
 3105 0121 00       		.byte	0
 3106 0122 19       		.uleb128 0x19
 3107 0123 16       		.uleb128 0x16
 3108 0124 00       		.byte	0
 3109 0125 03       		.uleb128 0x3
 3110 0126 0E       		.uleb128 0xe
 3111 0127 3A       		.uleb128 0x3a
 3112 0128 0B       		.uleb128 0xb
 3113 0129 3B       		.uleb128 0x3b
 3114 012a 05       		.uleb128 0x5
 3115 012b 49       		.uleb128 0x49
 3116 012c 13       		.uleb128 0x13
 3117 012d 00       		.byte	0
 3118 012e 00       		.byte	0
 3119 012f 1A       		.uleb128 0x1a
 3120 0130 13       		.uleb128 0x13
 3121 0131 01       		.byte	0x1
 3122 0132 0B       		.uleb128 0xb
 3123 0133 0B       		.uleb128 0xb
 3124 0134 3A       		.uleb128 0x3a
 3125 0135 0B       		.uleb128 0xb
 3126 0136 3B       		.uleb128 0x3b
 3127 0137 0B       		.uleb128 0xb
 3128 0138 01       		.uleb128 0x1
 3129 0139 13       		.uleb128 0x13
 3130 013a 00       		.byte	0
 3131 013b 00       		.byte	0
 3132 013c 1B       		.uleb128 0x1b
 3133 013d 17       		.uleb128 0x17
 3134 013e 01       		.byte	0x1
 3135 013f 0B       		.uleb128 0xb
ARM GAS  /var/folders/vd/czx34qs52cd_f3nb04sxmghc0000gn/T//cc7V9gBu.s 			page 56


 3136 0140 0B       		.uleb128 0xb
 3137 0141 3A       		.uleb128 0x3a
 3138 0142 0B       		.uleb128 0xb
 3139 0143 3B       		.uleb128 0x3b
 3140 0144 0B       		.uleb128 0xb
 3141 0145 01       		.uleb128 0x1
 3142 0146 13       		.uleb128 0x13
 3143 0147 00       		.byte	0
 3144 0148 00       		.byte	0
 3145 0149 1C       		.uleb128 0x1c
 3146 014a 0D       		.uleb128 0xd
 3147 014b 00       		.byte	0
 3148 014c 03       		.uleb128 0x3
 3149 014d 0E       		.uleb128 0xe
 3150 014e 3A       		.uleb128 0x3a
 3151 014f 0B       		.uleb128 0xb
 3152 0150 3B       		.uleb128 0x3b
 3153 0151 0B       		.uleb128 0xb
 3154 0152 49       		.uleb128 0x49
 3155 0153 13       		.uleb128 0x13
 3156 0154 00       		.byte	0
 3157 0155 00       		.byte	0
 3158 0156 1D       		.uleb128 0x1d
 3159 0157 0D       		.uleb128 0xd
 3160 0158 00       		.byte	0
 3161 0159 03       		.uleb128 0x3
 3162 015a 0E       		.uleb128 0xe
 3163 015b 3A       		.uleb128 0x3a
 3164 015c 0B       		.uleb128 0xb
 3165 015d 3B       		.uleb128 0x3b
 3166 015e 05       		.uleb128 0x5
 3167 015f 49       		.uleb128 0x49
 3168 0160 13       		.uleb128 0x13
 3169 0161 00       		.byte	0
 3170 0162 00       		.byte	0
 3171 0163 1E       		.uleb128 0x1e
 3172 0164 34       		.uleb128 0x34
 3173 0165 00       		.byte	0
 3174 0166 03       		.uleb128 0x3
 3175 0167 08       		.uleb128 0x8
 3176 0168 3A       		.uleb128 0x3a
 3177 0169 0B       		.uleb128 0xb
 3178 016a 3B       		.uleb128 0x3b
 3179 016b 05       		.uleb128 0x5
 3180 016c 49       		.uleb128 0x49
 3181 016d 13       		.uleb128 0x13
 3182 016e 3F       		.uleb128 0x3f
 3183 016f 19       		.uleb128 0x19
 3184 0170 3C       		.uleb128 0x3c
 3185 0171 19       		.uleb128 0x19
 3186 0172 00       		.byte	0
 3187 0173 00       		.byte	0
 3188 0174 1F       		.uleb128 0x1f
 3189 0175 21       		.uleb128 0x21
 3190 0176 00       		.byte	0
 3191 0177 00       		.byte	0
 3192 0178 00       		.byte	0
ARM GAS  /var/folders/vd/czx34qs52cd_f3nb04sxmghc0000gn/T//cc7V9gBu.s 			page 57


 3193 0179 20       		.uleb128 0x20
 3194 017a 15       		.uleb128 0x15
 3195 017b 01       		.byte	0x1
 3196 017c 27       		.uleb128 0x27
 3197 017d 19       		.uleb128 0x19
 3198 017e 49       		.uleb128 0x49
 3199 017f 13       		.uleb128 0x13
 3200 0180 01       		.uleb128 0x1
 3201 0181 13       		.uleb128 0x13
 3202 0182 00       		.byte	0
 3203 0183 00       		.byte	0
 3204 0184 21       		.uleb128 0x21
 3205 0185 13       		.uleb128 0x13
 3206 0186 00       		.byte	0
 3207 0187 0B       		.uleb128 0xb
 3208 0188 0B       		.uleb128 0xb
 3209 0189 3A       		.uleb128 0x3a
 3210 018a 0B       		.uleb128 0xb
 3211 018b 3B       		.uleb128 0x3b
 3212 018c 0B       		.uleb128 0xb
 3213 018d 00       		.byte	0
 3214 018e 00       		.byte	0
 3215 018f 22       		.uleb128 0x22
 3216 0190 2E       		.uleb128 0x2e
 3217 0191 01       		.byte	0x1
 3218 0192 3F       		.uleb128 0x3f
 3219 0193 19       		.uleb128 0x19
 3220 0194 03       		.uleb128 0x3
 3221 0195 0E       		.uleb128 0xe
 3222 0196 3A       		.uleb128 0x3a
 3223 0197 0B       		.uleb128 0xb
 3224 0198 3B       		.uleb128 0x3b
 3225 0199 0B       		.uleb128 0xb
 3226 019a 27       		.uleb128 0x27
 3227 019b 19       		.uleb128 0x19
 3228 019c 11       		.uleb128 0x11
 3229 019d 01       		.uleb128 0x1
 3230 019e 12       		.uleb128 0x12
 3231 019f 06       		.uleb128 0x6
 3232 01a0 40       		.uleb128 0x40
 3233 01a1 18       		.uleb128 0x18
 3234 01a2 9742     		.uleb128 0x2117
 3235 01a4 19       		.uleb128 0x19
 3236 01a5 01       		.uleb128 0x1
 3237 01a6 13       		.uleb128 0x13
 3238 01a7 00       		.byte	0
 3239 01a8 00       		.byte	0
 3240 01a9 23       		.uleb128 0x23
 3241 01aa 898201   		.uleb128 0x4109
 3242 01ad 01       		.byte	0x1
 3243 01ae 11       		.uleb128 0x11
 3244 01af 01       		.uleb128 0x1
 3245 01b0 31       		.uleb128 0x31
 3246 01b1 13       		.uleb128 0x13
 3247 01b2 01       		.uleb128 0x1
 3248 01b3 13       		.uleb128 0x13
 3249 01b4 00       		.byte	0
ARM GAS  /var/folders/vd/czx34qs52cd_f3nb04sxmghc0000gn/T//cc7V9gBu.s 			page 58


 3250 01b5 00       		.byte	0
 3251 01b6 24       		.uleb128 0x24
 3252 01b7 8A8201   		.uleb128 0x410a
 3253 01ba 00       		.byte	0
 3254 01bb 02       		.uleb128 0x2
 3255 01bc 18       		.uleb128 0x18
 3256 01bd 9142     		.uleb128 0x2111
 3257 01bf 18       		.uleb128 0x18
 3258 01c0 00       		.byte	0
 3259 01c1 00       		.byte	0
 3260 01c2 25       		.uleb128 0x25
 3261 01c3 898201   		.uleb128 0x4109
 3262 01c6 01       		.byte	0x1
 3263 01c7 11       		.uleb128 0x11
 3264 01c8 01       		.uleb128 0x1
 3265 01c9 9542     		.uleb128 0x2115
 3266 01cb 19       		.uleb128 0x19
 3267 01cc 31       		.uleb128 0x31
 3268 01cd 13       		.uleb128 0x13
 3269 01ce 00       		.byte	0
 3270 01cf 00       		.byte	0
 3271 01d0 26       		.uleb128 0x26
 3272 01d1 2E       		.uleb128 0x2e
 3273 01d2 00       		.byte	0
 3274 01d3 3F       		.uleb128 0x3f
 3275 01d4 19       		.uleb128 0x19
 3276 01d5 3C       		.uleb128 0x3c
 3277 01d6 19       		.uleb128 0x19
 3278 01d7 6E       		.uleb128 0x6e
 3279 01d8 0E       		.uleb128 0xe
 3280 01d9 03       		.uleb128 0x3
 3281 01da 0E       		.uleb128 0xe
 3282 01db 3A       		.uleb128 0x3a
 3283 01dc 0B       		.uleb128 0xb
 3284 01dd 3B       		.uleb128 0x3b
 3285 01de 0B       		.uleb128 0xb
 3286 01df 00       		.byte	0
 3287 01e0 00       		.byte	0
 3288 01e1 00       		.byte	0
 3289              		.section	.debug_aranges,"",%progbits
 3290 0000 24000000 		.4byte	0x24
 3291 0004 0200     		.2byte	0x2
 3292 0006 00000000 		.4byte	.Ldebug_info0
 3293 000a 04       		.byte	0x4
 3294 000b 00       		.byte	0
 3295 000c 0000     		.2byte	0
 3296 000e 0000     		.2byte	0
 3297 0010 00000000 		.4byte	.LFB313
 3298 0014 3E000000 		.4byte	.LFE313-.LFB313
 3299 0018 00000000 		.4byte	.LFB314
 3300 001c 30000000 		.4byte	.LFE314-.LFB314
 3301 0020 00000000 		.4byte	0
 3302 0024 00000000 		.4byte	0
 3303              		.section	.debug_ranges,"",%progbits
 3304              	.Ldebug_ranges0:
 3305 0000 00000000 		.4byte	.LFB313
 3306 0004 3E000000 		.4byte	.LFE313
ARM GAS  /var/folders/vd/czx34qs52cd_f3nb04sxmghc0000gn/T//cc7V9gBu.s 			page 59


 3307 0008 00000000 		.4byte	.LFB314
 3308 000c 30000000 		.4byte	.LFE314
 3309 0010 00000000 		.4byte	0
 3310 0014 00000000 		.4byte	0
 3311              		.section	.debug_line,"",%progbits
 3312              	.Ldebug_line0:
 3313 0000 88040000 		.section	.debug_str,"MS",%progbits,1
 3313      02004E04 
 3313      00000201 
 3313      FB0E0D00 
 3313      01010101 
 3314              	.LASF212:
 3315 0000 6F66665F 		.ascii	"off_ctx\000"
 3315      63747800 
 3316              	.LASF171:
 3317 0008 4D314152 		.ascii	"M1AR\000"
 3317      00
 3318              	.LASF87:
 3319 000d 5254435F 		.ascii	"RTC_WKUP_IRQn\000"
 3319      574B5550 
 3319      5F495251 
 3319      6E00
 3320              	.LASF92:
 3321 001b 45585449 		.ascii	"EXTI2_IRQn\000"
 3321      325F4952 
 3321      516E00
 3322              	.LASF262:
 3323 0026 73746D33 		.ascii	"stm32_dma_stream_t\000"
 3323      325F646D 
 3323      615F7374 
 3323      7265616D 
 3323      5F7400
 3324              	.LASF4:
 3325 0039 73697A65 		.ascii	"size_t\000"
 3325      5F7400
 3326              	.LASF128:
 3327 0040 54494D38 		.ascii	"TIM8_UP_TIM13_IRQn\000"
 3327      5F55505F 
 3327      54494D31 
 3327      335F4952 
 3327      516E00
 3328              	.LASF211:
 3329 0053 6F66665F 		.ascii	"off_prio\000"
 3329      7072696F 
 3329      00
 3330              	.LASF235:
 3331 005c 656E646D 		.ascii	"endmem\000"
 3331      656D00
 3332              	.LASF196:
 3333 0063 77747365 		.ascii	"wtsemp\000"
 3333      6D7000
 3334              	.LASF74:
 3335 006a 73797374 		.ascii	"systime_t\000"
 3335      696D655F 
 3335      7400
 3336              	.LASF220:
 3337 0074 6F66665F 		.ascii	"off_preempt\000"
ARM GAS  /var/folders/vd/czx34qs52cd_f3nb04sxmghc0000gn/T//cc7V9gBu.s 			page 60


 3337      70726565 
 3337      6D707400 
 3338              	.LASF201:
 3339 0080 6F776E65 		.ascii	"owner\000"
 3339      7200
 3340              	.LASF25:
 3341 0086 74707269 		.ascii	"tprio_t\000"
 3341      6F5F7400 
 3342              	.LASF223:
 3343 008e 63685F64 		.ascii	"ch_debug\000"
 3343      65627567 
 3343      00
 3344              	.LASF241:
 3345 0097 70726F76 		.ascii	"provider\000"
 3345      69646572 
 3345      00
 3346              	.LASF18:
 3347 00a0 696E7433 		.ascii	"int32_t\000"
 3347      325F7400 
 3348              	.LASF317:
 3349 00a8 77726974 		.ascii	"writet\000"
 3349      657400
 3350              	.LASF173:
 3351 00af 47545052 		.ascii	"GTPR\000"
 3351      00
 3352              	.LASF58:
 3353 00b4 76746675 		.ascii	"vtfunc_t\000"
 3353      6E635F74 
 3353      00
 3354              	.LASF64:
 3355 00bd 63685F76 		.ascii	"ch_virtual_timers_list\000"
 3355      69727475 
 3355      616C5F74 
 3355      696D6572 
 3355      735F6C69 
 3356              	.LASF313:
 3357 00d4 77726974 		.ascii	"write\000"
 3357      6500
 3358              	.LASF141:
 3359 00da 444D4132 		.ascii	"DMA2_Stream1_IRQn\000"
 3359      5F537472 
 3359      65616D31 
 3359      5F495251 
 3359      6E00
 3360              	.LASF266:
 3361 00ec 715F7761 		.ascii	"q_waiting\000"
 3361      6974696E 
 3361      6700
 3362              	.LASF243:
 3363 00f6 63685F64 		.ascii	"ch_dyn_element\000"
 3363      796E5F65 
 3363      6C656D65 
 3363      6E7400
 3364              	.LASF135:
 3365 0105 53504933 		.ascii	"SPI3_IRQn\000"
 3365      5F495251 
 3365      6E00
ARM GAS  /var/folders/vd/czx34qs52cd_f3nb04sxmghc0000gn/T//cc7V9gBu.s 			page 61


 3366              	.LASF292:
 3367 010f 70776D63 		.ascii	"pwmchnmsk_t\000"
 3367      686E6D73 
 3367      6B5F7400 
 3368              	.LASF88:
 3369 011b 464C4153 		.ascii	"FLASH_IRQn\000"
 3369      485F4952 
 3369      516E00
 3370              	.LASF162:
 3371 0126 44434D49 		.ascii	"DCMI_IRQn\000"
 3371      5F495251 
 3371      6E00
 3372              	.LASF284:
 3373 0130 636F6E66 		.ascii	"config\000"
 3373      696700
 3374              	.LASF38:
 3375 0137 73746174 		.ascii	"state\000"
 3375      6500
 3376              	.LASF315:
 3377 013d 70757474 		.ascii	"putt\000"
 3377      00
 3378              	.LASF296:
 3379 0142 50574D43 		.ascii	"PWMChannelConfig\000"
 3379      68616E6E 
 3379      656C436F 
 3379      6E666967 
 3379      00
 3380              	.LASF112:
 3381 0153 54494D32 		.ascii	"TIM2_IRQn\000"
 3381      5F495251 
 3381      6E00
 3382              	.LASF248:
 3383 015d 6F626A5F 		.ascii	"obj_list\000"
 3383      6C697374 
 3383      00
 3384              	.LASF185:
 3385 0166 444D4152 		.ascii	"DMAR\000"
 3385      00
 3386              	.LASF298:
 3387 016b 64696572 		.ascii	"dier\000"
 3387      00
 3388              	.LASF279:
 3389 0170 50574D5F 		.ascii	"PWM_UNINIT\000"
 3389      554E494E 
 3389      495400
 3390              	.LASF214:
 3391 017b 6F66665F 		.ascii	"off_older\000"
 3391      6F6C6465 
 3391      7200
 3392              	.LASF33:
 3393 0185 7072696F 		.ascii	"prio\000"
 3393      00
 3394              	.LASF148:
 3395 018a 43414E32 		.ascii	"CAN2_RX0_IRQn\000"
 3395      5F525830 
 3395      5F495251 
 3395      6E00
ARM GAS  /var/folders/vd/czx34qs52cd_f3nb04sxmghc0000gn/T//cc7V9gBu.s 			page 62


 3396              	.LASF155:
 3397 0198 55534152 		.ascii	"USART6_IRQn\000"
 3397      54365F49 
 3397      52516E00 
 3398              	.LASF192:
 3399 01a4 65786974 		.ascii	"exitcode\000"
 3399      636F6465 
 3399      00
 3400              	.LASF5:
 3401 01ad 5F5F7569 		.ascii	"__uint8_t\000"
 3401      6E74385F 
 3401      7400
 3402              	.LASF160:
 3403 01b7 4F54475F 		.ascii	"OTG_HS_WKUP_IRQn\000"
 3403      48535F57 
 3403      4B55505F 
 3403      4952516E 
 3403      00
 3404              	.LASF269:
 3405 01c8 715F746F 		.ascii	"q_top\000"
 3405      7000
 3406              	.LASF120:
 3407 01ce 53504932 		.ascii	"SPI2_IRQn\000"
 3407      5F495251 
 3407      6E00
 3408              	.LASF127:
 3409 01d8 54494D38 		.ascii	"TIM8_BRK_TIM12_IRQn\000"
 3409      5F42524B 
 3409      5F54494D 
 3409      31325F49 
 3409      52516E00 
 3410              	.LASF318:
 3411 01ec 72656164 		.ascii	"readt\000"
 3411      7400
 3412              	.LASF268:
 3413 01f2 715F6275 		.ascii	"q_buffer\000"
 3413      66666572 
 3413      00
 3414              	.LASF272:
 3415 01fb 715F6E6F 		.ascii	"q_notify\000"
 3415      74696679 
 3415      00
 3416              	.LASF295:
 3417 0204 63616C6C 		.ascii	"callback\000"
 3417      6261636B 
 3417      00
 3418              	.LASF11:
 3419 020d 6C6F6E67 		.ascii	"long int\000"
 3419      20696E74 
 3419      00
 3420              	.LASF271:
 3421 0216 715F7264 		.ascii	"q_rdptr\000"
 3421      70747200 
 3422              	.LASF205:
 3423 021e 7A65726F 		.ascii	"zero\000"
 3423      00
 3424              	.LASF152:
ARM GAS  /var/folders/vd/czx34qs52cd_f3nb04sxmghc0000gn/T//cc7V9gBu.s 			page 63


 3425 0223 444D4132 		.ascii	"DMA2_Stream5_IRQn\000"
 3425      5F537472 
 3425      65616D35 
 3425      5F495251 
 3425      6E00
 3426              	.LASF23:
 3427 0235 74737461 		.ascii	"tstate_t\000"
 3427      74655F74 
 3427      00
 3428              	.LASF43:
 3429 023e 6570656E 		.ascii	"epending\000"
 3429      64696E67 
 3429      00
 3430              	.LASF52:
 3431 0247 74687265 		.ascii	"threads_queue_t\000"
 3431      6164735F 
 3431      71756575 
 3431      655F7400 
 3432              	.LASF110:
 3433 0257 54494D31 		.ascii	"TIM1_TRG_COM_TIM11_IRQn\000"
 3433      5F545247 
 3433      5F434F4D 
 3433      5F54494D 
 3433      31315F49 
 3434              	.LASF308:
 3435 026f 6F717565 		.ascii	"oqueue\000"
 3435      756500
 3436              	.LASF175:
 3437 0276 72656761 		.ascii	"regarm_t\000"
 3437      726D5F74 
 3437      00
 3438              	.LASF291:
 3439 027f 70776D63 		.ascii	"pwmchannel_t\000"
 3439      68616E6E 
 3439      656C5F74 
 3439      00
 3440              	.LASF249:
 3441 028c 6F626A5F 		.ascii	"obj_pool\000"
 3441      706F6F6C 
 3441      00
 3442              	.LASF83:
 3443 0295 53797354 		.ascii	"SysTick_IRQn\000"
 3443      69636B5F 
 3443      4952516E 
 3443      00
 3444              	.LASF123:
 3445 02a2 55534152 		.ascii	"USART3_IRQn\000"
 3445      54335F49 
 3445      52516E00 
 3446              	.LASF309:
 3447 02ae 75736172 		.ascii	"usart\000"
 3447      7400
 3448              	.LASF236:
 3449 02b4 6D656D63 		.ascii	"memcore_t\000"
 3449      6F72655F 
 3449      7400
 3450              	.LASF265:
ARM GAS  /var/folders/vd/czx34qs52cd_f3nb04sxmghc0000gn/T//cc7V9gBu.s 			page 64


 3451 02be 696F5F71 		.ascii	"io_queue\000"
 3451      75657565 
 3451      00
 3452              	.LASF3:
 3453 02c7 7369676E 		.ascii	"signed char\000"
 3453      65642063 
 3453      68617200 
 3454              	.LASF198:
 3455 02d3 65776D61 		.ascii	"ewmask\000"
 3455      736B00
 3456              	.LASF16:
 3457 02da 75696E74 		.ascii	"uint8_t\000"
 3457      385F7400 
 3458              	.LASF27:
 3459 02e2 6576656E 		.ascii	"eventmask_t\000"
 3459      746D6173 
 3459      6B5F7400 
 3460              	.LASF194:
 3461 02ee 77747472 		.ascii	"wttrp\000"
 3461      7000
 3462              	.LASF97:
 3463 02f4 444D4131 		.ascii	"DMA1_Stream2_IRQn\000"
 3463      5F537472 
 3463      65616D32 
 3463      5F495251 
 3463      6E00
 3464              	.LASF293:
 3465 0306 70776D63 		.ascii	"pwmcnt_t\000"
 3465      6E745F74 
 3465      00
 3466              	.LASF6:
 3467 030f 756E7369 		.ascii	"unsigned char\000"
 3467      676E6564 
 3467      20636861 
 3467      7200
 3468              	.LASF144:
 3469 031d 444D4132 		.ascii	"DMA2_Stream4_IRQn\000"
 3469      5F537472 
 3469      65616D34 
 3469      5F495251 
 3469      6E00
 3470              	.LASF273:
 3471 032f 715F6C69 		.ascii	"q_link\000"
 3471      6E6B00
 3472              	.LASF65:
 3473 0336 6C617374 		.ascii	"lasttime\000"
 3473      74696D65 
 3473      00
 3474              	.LASF68:
 3475 033f 70616E69 		.ascii	"panic_msg\000"
 3475      635F6D73 
 3475      6700
 3476              	.LASF116:
 3477 0349 49324331 		.ascii	"I2C1_ER_IRQn\000"
 3477      5F45525F 
 3477      4952516E 
 3477      00
ARM GAS  /var/folders/vd/czx34qs52cd_f3nb04sxmghc0000gn/T//cc7V9gBu.s 			page 65


 3478              	.LASF66:
 3479 0356 73797374 		.ascii	"system_debug_t\000"
 3479      656D5F64 
 3479      65627567 
 3479      5F7400
 3480              	.LASF150:
 3481 0365 43414E32 		.ascii	"CAN2_SCE_IRQn\000"
 3481      5F534345 
 3481      5F495251 
 3481      6E00
 3482              	.LASF301:
 3483 0373 53445F55 		.ascii	"SD_UNINIT\000"
 3483      4E494E49 
 3483      5400
 3484              	.LASF232:
 3485 037d 5F426F6F 		.ascii	"_Bool\000"
 3485      6C00
 3486              	.LASF233:
 3487 0383 6D656D67 		.ascii	"memgetfunc_t\000"
 3487      65746675 
 3487      6E635F74 
 3487      00
 3488              	.LASF319:
 3489 0390 69727144 		.ascii	"irqDeinit\000"
 3489      65696E69 
 3489      7400
 3490              	.LASF134:
 3491 039a 54494D35 		.ascii	"TIM5_IRQn\000"
 3491      5F495251 
 3491      6E00
 3492              	.LASF79:
 3493 03a4 55736167 		.ascii	"UsageFault_IRQn\000"
 3493      65466175 
 3493      6C745F49 
 3493      52516E00 
 3494              	.LASF181:
 3495 03b4 43434D52 		.ascii	"CCMR1\000"
 3495      3100
 3496              	.LASF182:
 3497 03ba 43434D52 		.ascii	"CCMR2\000"
 3497      3200
 3498              	.LASF186:
 3499 03c0 43434D52 		.ascii	"CCMR3\000"
 3499      3300
 3500              	.LASF202:
 3501 03c6 63686172 		.ascii	"char\000"
 3501      00
 3502              	.LASF259:
 3503 03cb 69736869 		.ascii	"ishift\000"
 3503      667400
 3504              	.LASF251:
 3505 03d2 73656D5F 		.ascii	"sem_list\000"
 3505      6C697374 
 3505      00
 3506              	.LASF8:
 3507 03db 5F5F7569 		.ascii	"__uint16_t\000"
 3507      6E743136 
ARM GAS  /var/folders/vd/czx34qs52cd_f3nb04sxmghc0000gn/T//cc7V9gBu.s 			page 66


 3507      5F7400
 3508              	.LASF193:
 3509 03e6 77746F62 		.ascii	"wtobjp\000"
 3509      6A7000
 3510              	.LASF104:
 3511 03ed 43414E31 		.ascii	"CAN1_RX0_IRQn\000"
 3511      5F525830 
 3511      5F495251 
 3511      6E00
 3512              	.LASF277:
 3513 03fb 70616C65 		.ascii	"palevent_t\000"
 3513      76656E74 
 3513      5F7400
 3514              	.LASF219:
 3515 0406 6F66665F 		.ascii	"off_refs\000"
 3515      72656673 
 3515      00
 3516              	.LASF39:
 3517 040f 666C6167 		.ascii	"flags\000"
 3517      7300
 3518              	.LASF316:
 3519 0415 67657474 		.ascii	"gett\000"
 3519      00
 3520              	.LASF176:
 3521 041a 73746B61 		.ascii	"stkalign_t\000"
 3521      6C69676E 
 3521      5F7400
 3522              	.LASF174:
 3523 0425 55534152 		.ascii	"USART_TypeDef\000"
 3523      545F5479 
 3523      70654465 
 3523      6600
 3524              	.LASF46:
 3525 0433 6D706F6F 		.ascii	"mpool\000"
 3525      6C00
 3526              	.LASF114:
 3527 0439 54494D34 		.ascii	"TIM4_IRQn\000"
 3527      5F495251 
 3527      6E00
 3528              	.LASF122:
 3529 0443 55534152 		.ascii	"USART2_IRQn\000"
 3529      54325F49 
 3529      52516E00 
 3530              	.LASF257:
 3531 044f 73747265 		.ascii	"stream\000"
 3531      616D00
 3532              	.LASF225:
 3533 0456 6576656E 		.ascii	"event_listener_t\000"
 3533      745F6C69 
 3533      7374656E 
 3533      65725F74 
 3533      00
 3534              	.LASF208:
 3535 0467 70747273 		.ascii	"ptrsize\000"
 3535      697A6500 
 3536              	.LASF187:
 3537 046f 43435852 		.ascii	"CCXR\000"
ARM GAS  /var/folders/vd/czx34qs52cd_f3nb04sxmghc0000gn/T//cc7V9gBu.s 			page 67


 3537      00
 3538              	.LASF221:
 3539 0474 6F66665F 		.ascii	"off_time\000"
 3539      74696D65 
 3539      00
 3540              	.LASF290:
 3541 047d 70776D6D 		.ascii	"pwmmode_t\000"
 3541      6F64655F 
 3541      7400
 3542              	.LASF29:
 3543 0487 636E745F 		.ascii	"cnt_t\000"
 3543      7400
 3544              	.LASF310:
 3545 048d 72786D61 		.ascii	"rxmask\000"
 3545      736B00
 3546              	.LASF115:
 3547 0494 49324331 		.ascii	"I2C1_EV_IRQn\000"
 3547      5F45565F 
 3547      4952516E 
 3547      00
 3548              	.LASF244:
 3549 04a1 64796E5F 		.ascii	"dyn_element_t\000"
 3549      656C656D 
 3549      656E745F 
 3549      7400
 3550              	.LASF197:
 3551 04af 77746D74 		.ascii	"wtmtxp\000"
 3551      787000
 3552              	.LASF56:
 3553 04b6 63685F72 		.ascii	"ch_ready_list\000"
 3553      65616479 
 3553      5F6C6973 
 3553      7400
 3554              	.LASF252:
 3555 04c4 73656D5F 		.ascii	"sem_pool\000"
 3555      706F6F6C 
 3555      00
 3556              	.LASF111:
 3557 04cd 54494D31 		.ascii	"TIM1_CC_IRQn\000"
 3557      5F43435F 
 3557      4952516E 
 3557      00
 3558              	.LASF163:
 3559 04da 48415348 		.ascii	"HASH_RNG_IRQn\000"
 3559      5F524E47 
 3559      5F495251 
 3559      6E00
 3560              	.LASF91:
 3561 04e8 45585449 		.ascii	"EXTI1_IRQn\000"
 3561      315F4952 
 3561      516E00
 3562              	.LASF103:
 3563 04f3 43414E31 		.ascii	"CAN1_TX_IRQn\000"
 3563      5F54585F 
 3563      4952516E 
 3563      00
 3564              	.LASF100:
ARM GAS  /var/folders/vd/czx34qs52cd_f3nb04sxmghc0000gn/T//cc7V9gBu.s 			page 68


 3565 0500 444D4131 		.ascii	"DMA1_Stream5_IRQn\000"
 3565      5F537472 
 3565      65616D35 
 3565      5F495251 
 3565      6E00
 3566              	.LASF234:
 3567 0512 6E657874 		.ascii	"nextmem\000"
 3567      6D656D00 
 3568              	.LASF129:
 3569 051a 54494D38 		.ascii	"TIM8_TRG_COM_TIM14_IRQn\000"
 3569      5F545247 
 3569      5F434F4D 
 3569      5F54494D 
 3569      31345F49 
 3570              	.LASF154:
 3571 0532 444D4132 		.ascii	"DMA2_Stream7_IRQn\000"
 3571      5F537472 
 3571      65616D37 
 3571      5F495251 
 3571      6E00
 3572              	.LASF267:
 3573 0544 715F636F 		.ascii	"q_counter\000"
 3573      756E7465 
 3573      7200
 3574              	.LASF151:
 3575 054e 4F54475F 		.ascii	"OTG_FS_IRQn\000"
 3575      46535F49 
 3575      52516E00 
 3576              	.LASF286:
 3577 055a 656E6162 		.ascii	"enabled\000"
 3577      6C656400 
 3578              	.LASF76:
 3579 0562 4E6F6E4D 		.ascii	"NonMaskableInt_IRQn\000"
 3579      61736B61 
 3579      626C6549 
 3579      6E745F49 
 3579      52516E00 
 3580              	.LASF14:
 3581 0576 5F5F7569 		.ascii	"__uint64_t\000"
 3581      6E743634 
 3581      5F7400
 3582              	.LASF217:
 3583 0581 6F66665F 		.ascii	"off_state\000"
 3583      73746174 
 3583      6500
 3584              	.LASF84:
 3585 058b 57574447 		.ascii	"WWDG_IRQn\000"
 3585      5F495251 
 3585      6E00
 3586              	.LASF13:
 3587 0595 6C6F6E67 		.ascii	"long unsigned int\000"
 3587      20756E73 
 3587      69676E65 
 3587      6420696E 
 3587      7400
 3588              	.LASF210:
 3589 05a7 74687265 		.ascii	"threadsize\000"
ARM GAS  /var/folders/vd/czx34qs52cd_f3nb04sxmghc0000gn/T//cc7V9gBu.s 			page 69


 3589      61647369 
 3589      7A6500
 3590              	.LASF77:
 3591 05b2 4D656D6F 		.ascii	"MemoryManagement_IRQn\000"
 3591      72794D61 
 3591      6E616765 
 3591      6D656E74 
 3591      5F495251 
 3592              	.LASF180:
 3593 05c8 44494552 		.ascii	"DIER\000"
 3593      00
 3594              	.LASF166:
 3595 05cd 53797374 		.ascii	"SystemCoreClock\000"
 3595      656D436F 
 3595      7265436C 
 3595      6F636B00 
 3596              	.LASF199:
 3597 05dd 63685F73 		.ascii	"ch_semaphore\000"
 3597      656D6170 
 3597      686F7265 
 3597      00
 3598              	.LASF86:
 3599 05ea 54414D50 		.ascii	"TAMP_STAMP_IRQn\000"
 3599      5F535441 
 3599      4D505F49 
 3599      52516E00 
 3600              	.LASF49:
 3601 05fa 63685F74 		.ascii	"ch_thread\000"
 3601      68726561 
 3601      6400
 3602              	.LASF106:
 3603 0604 43414E31 		.ascii	"CAN1_SCE_IRQn\000"
 3603      5F534345 
 3603      5F495251 
 3603      6E00
 3604              	.LASF63:
 3605 0612 76697274 		.ascii	"virtual_timers_list_t\000"
 3605      75616C5F 
 3605      74696D65 
 3605      72735F6C 
 3605      6973745F 
 3606              	.LASF203:
 3607 0628 63685F69 		.ascii	"ch_idle_thread_wa\000"
 3607      646C655F 
 3607      74687265 
 3607      61645F77 
 3607      6100
 3608              	.LASF263:
 3609 063a 5F73746D 		.ascii	"_stm32_dma_streams\000"
 3609      33325F64 
 3609      6D615F73 
 3609      74726561 
 3609      6D7300
 3610              	.LASF140:
 3611 064d 444D4132 		.ascii	"DMA2_Stream0_IRQn\000"
 3611      5F537472 
 3611      65616D30 
ARM GAS  /var/folders/vd/czx34qs52cd_f3nb04sxmghc0000gn/T//cc7V9gBu.s 			page 70


 3611      5F495251 
 3611      6E00
 3612              	.LASF254:
 3613 065f 6669666F 		.ascii	"fifo_list\000"
 3613      5F6C6973 
 3613      7400
 3614              	.LASF59:
 3615 0669 76697274 		.ascii	"virtual_timer_t\000"
 3615      75616C5F 
 3615      74696D65 
 3615      725F7400 
 3616              	.LASF55:
 3617 0679 72656164 		.ascii	"ready_list_t\000"
 3617      795F6C69 
 3617      73745F74 
 3617      00
 3618              	.LASF35:
 3619 0686 6F6C6465 		.ascii	"older\000"
 3619      7200
 3620              	.LASF311:
 3621 068c 53657269 		.ascii	"SerialDriverVMT\000"
 3621      616C4472 
 3621      69766572 
 3621      564D5400 
 3622              	.LASF45:
 3623 069c 7265616C 		.ascii	"realprio\000"
 3623      7072696F 
 3623      00
 3624              	.LASF188:
 3625 06a5 73746D33 		.ascii	"stm32_tim_t\000"
 3625      325F7469 
 3625      6D5F7400 
 3626              	.LASF30:
 3627 06b1 75636E74 		.ascii	"ucnt_t\000"
 3627      5F7400
 3628              	.LASF288:
 3629 06b8 636C6F63 		.ascii	"clock\000"
 3629      6B00
 3630              	.LASF216:
 3631 06be 6F66665F 		.ascii	"off_stklimit\000"
 3631      73746B6C 
 3631      696D6974 
 3631      00
 3632              	.LASF118:
 3633 06cb 49324332 		.ascii	"I2C2_ER_IRQn\000"
 3633      5F45525F 
 3633      4952516E 
 3633      00
 3634              	.LASF238:
 3635 06d8 706F6F6C 		.ascii	"pool_header\000"
 3635      5F686561 
 3635      64657200 
 3636              	.LASF50:
 3637 06e4 63685F74 		.ascii	"ch_threads_list\000"
 3637      68726561 
 3637      64735F6C 
 3637      69737400 
ARM GAS  /var/folders/vd/czx34qs52cd_f3nb04sxmghc0000gn/T//cc7V9gBu.s 			page 71


 3638              	.LASF78:
 3639 06f4 42757346 		.ascii	"BusFault_IRQn\000"
 3639      61756C74 
 3639      5F495251 
 3639      6E00
 3640              	.LASF323:
 3641 0702 474E5520 		.ascii	"GNU C11 7.2.1 20170904 (release) [ARM/embedded-7-br"
 3641      43313120 
 3641      372E322E 
 3641      31203230 
 3641      31373039 
 3642 0735 616E6368 		.ascii	"anch revision 255204] -mcpu=cortex-m4 -mno-thumb-in"
 3642      20726576 
 3642      6973696F 
 3642      6E203235 
 3642      35323034 
 3643 0768 74657277 		.ascii	"terwork -mthumb -ggdb -O2 -fomit-frame-pointer -fal"
 3643      6F726B20 
 3643      2D6D7468 
 3643      756D6220 
 3643      2D676764 
 3644 079b 69676E2D 		.ascii	"ign-functions=16 -ffunction-sections -fdata-section"
 3644      66756E63 
 3644      74696F6E 
 3644      733D3136 
 3644      202D6666 
 3645 07ce 73202D66 		.ascii	"s -fno-common\000"
 3645      6E6F2D63 
 3645      6F6D6D6F 
 3645      6E00
 3646              	.LASF137:
 3647 07dc 55415254 		.ascii	"UART5_IRQn\000"
 3647      355F4952 
 3647      516E00
 3648              	.LASF108:
 3649 07e7 54494D31 		.ascii	"TIM1_BRK_TIM9_IRQn\000"
 3649      5F42524B 
 3649      5F54494D 
 3649      395F4952 
 3649      516E00
 3650              	.LASF12:
 3651 07fa 5F5F7569 		.ascii	"__uint32_t\000"
 3651      6E743332 
 3651      5F7400
 3652              	.LASF44:
 3653 0805 6D74786C 		.ascii	"mtxlist\000"
 3653      69737400 
 3654              	.LASF139:
 3655 080d 54494D37 		.ascii	"TIM7_IRQn\000"
 3655      5F495251 
 3655      6E00
 3656              	.LASF1:
 3657 0817 6C6F6E67 		.ascii	"long long int\000"
 3657      206C6F6E 
 3657      6720696E 
 3657      7400
 3658              	.LASF146:
ARM GAS  /var/folders/vd/czx34qs52cd_f3nb04sxmghc0000gn/T//cc7V9gBu.s 			page 72


 3659 0825 4554485F 		.ascii	"ETH_WKUP_IRQn\000"
 3659      574B5550 
 3659      5F495251 
 3659      6E00
 3660              	.LASF161:
 3661 0833 4F54475F 		.ascii	"OTG_HS_IRQn\000"
 3661      48535F49 
 3661      52516E00 
 3662              	.LASF75:
 3663 083f 73797369 		.ascii	"sysinterval_t\000"
 3663      6E746572 
 3663      76616C5F 
 3663      7400
 3664              	.LASF247:
 3665 084d 63685F6F 		.ascii	"ch_objects_factory\000"
 3665      626A6563 
 3665      74735F66 
 3665      6163746F 
 3665      727900
 3666              	.LASF119:
 3667 0860 53504931 		.ascii	"SPI1_IRQn\000"
 3667      5F495251 
 3667      6E00
 3668              	.LASF80:
 3669 086a 53564361 		.ascii	"SVCall_IRQn\000"
 3669      6C6C5F49 
 3669      52516E00 
 3670              	.LASF324:
 3671 0876 2E2E2F6F 		.ascii	"../os/hal/ports/STM32/STM32F4xx/stm32_isr.c\000"
 3671      732F6861 
 3671      6C2F706F 
 3671      7274732F 
 3671      53544D33 
 3672              	.LASF231:
 3673 08a2 6576656E 		.ascii	"event_source_t\000"
 3673      745F736F 
 3673      75726365 
 3673      5F7400
 3674              	.LASF240:
 3675 08b1 616C6967 		.ascii	"align\000"
 3675      6E00
 3676              	.LASF164:
 3677 08b7 4650555F 		.ascii	"FPU_IRQn\000"
 3677      4952516E 
 3677      00
 3678              	.LASF297:
 3679 08c0 66726571 		.ascii	"frequency\000"
 3679      75656E63 
 3679      7900
 3680              	.LASF136:
 3681 08ca 55415254 		.ascii	"UART4_IRQn\000"
 3681      345F4952 
 3681      516E00
 3682              	.LASF274:
 3683 08d5 716E6F74 		.ascii	"qnotify_t\000"
 3683      6966795F 
 3683      7400
ARM GAS  /var/folders/vd/czx34qs52cd_f3nb04sxmghc0000gn/T//cc7V9gBu.s 			page 73


 3684              	.LASF306:
 3685 08df 6576656E 		.ascii	"event\000"
 3685      7400
 3686              	.LASF126:
 3687 08e5 4F54475F 		.ascii	"OTG_FS_WKUP_IRQn\000"
 3687      46535F57 
 3687      4B55505F 
 3687      4952516E 
 3687      00
 3688              	.LASF314:
 3689 08f6 72656164 		.ascii	"read\000"
 3689      00
 3690              	.LASF213:
 3691 08fb 6F66665F 		.ascii	"off_newer\000"
 3691      6E657765 
 3691      7200
 3692              	.LASF260:
 3693 0905 73656C66 		.ascii	"selfindex\000"
 3693      696E6465 
 3693      7800
 3694              	.LASF0:
 3695 090f 756E7369 		.ascii	"unsigned int\000"
 3695      676E6564 
 3695      20696E74 
 3695      00
 3696              	.LASF21:
 3697 091c 7274636E 		.ascii	"rtcnt_t\000"
 3697      745F7400 
 3698              	.LASF117:
 3699 0924 49324332 		.ascii	"I2C2_EV_IRQn\000"
 3699      5F45565F 
 3699      4952516E 
 3699      00
 3700              	.LASF289:
 3701 0931 70776D63 		.ascii	"pwmcallback_t\000"
 3701      616C6C62 
 3701      61636B5F 
 3701      7400
 3702              	.LASF57:
 3703 093f 63757272 		.ascii	"current\000"
 3703      656E7400 
 3704              	.LASF283:
 3705 0947 50574D44 		.ascii	"PWMDriver\000"
 3705      72697665 
 3705      7200
 3706              	.LASF189:
 3707 0951 6F666673 		.ascii	"offset\000"
 3707      657400
 3708              	.LASF96:
 3709 0958 444D4131 		.ascii	"DMA1_Stream1_IRQn\000"
 3709      5F537472 
 3709      65616D31 
 3709      5F495251 
 3709      6E00
 3710              	.LASF143:
 3711 096a 444D4132 		.ascii	"DMA2_Stream3_IRQn\000"
 3711      5F537472 
ARM GAS  /var/folders/vd/czx34qs52cd_f3nb04sxmghc0000gn/T//cc7V9gBu.s 			page 74


 3711      65616D33 
 3711      5F495251 
 3711      6E00
 3712              	.LASF147:
 3713 097c 43414E32 		.ascii	"CAN2_TX_IRQn\000"
 3713      5F54585F 
 3713      4952516E 
 3713      00
 3714              	.LASF172:
 3715 0989 444D415F 		.ascii	"DMA_Stream_TypeDef\000"
 3715      53747265 
 3715      616D5F54 
 3715      79706544 
 3715      656600
 3716              	.LASF101:
 3717 099c 444D4131 		.ascii	"DMA1_Stream6_IRQn\000"
 3717      5F537472 
 3717      65616D36 
 3717      5F495251 
 3717      6E00
 3718              	.LASF278:
 3719 09ae 5F70616C 		.ascii	"_pal_events\000"
 3719      5F657665 
 3719      6E747300 
 3720              	.LASF31:
 3721 09ba 74687265 		.ascii	"thread_t\000"
 3721      61645F74 
 3721      00
 3722              	.LASF2:
 3723 09c3 6C6F6E67 		.ascii	"long double\000"
 3723      20646F75 
 3723      626C6500 
 3724              	.LASF229:
 3725 09cf 77666C61 		.ascii	"wflags\000"
 3725      677300
 3726              	.LASF321:
 3727 09d6 6E766963 		.ascii	"nvicDisableVector\000"
 3727      44697361 
 3727      626C6556 
 3727      6563746F 
 3727      7200
 3728              	.LASF47:
 3729 09e8 74687265 		.ascii	"thread_reference_t\000"
 3729      61645F72 
 3729      65666572 
 3729      656E6365 
 3729      5F7400
 3730              	.LASF195:
 3731 09fb 73656E74 		.ascii	"sentmsg\000"
 3731      6D736700 
 3732              	.LASF178:
 3733 0a03 706F7274 		.ascii	"port_intctx\000"
 3733      5F696E74 
 3733      63747800 
 3734              	.LASF255:
 3735 0a0f 6F626A65 		.ascii	"objects_factory_t\000"
 3735      6374735F 
ARM GAS  /var/folders/vd/czx34qs52cd_f3nb04sxmghc0000gn/T//cc7V9gBu.s 			page 75


 3735      66616374 
 3735      6F72795F 
 3735      7400
 3736              	.LASF250:
 3737 0a21 6275665F 		.ascii	"buf_list\000"
 3737      6C697374 
 3737      00
 3738              	.LASF95:
 3739 0a2a 444D4131 		.ascii	"DMA1_Stream0_IRQn\000"
 3739      5F537472 
 3739      65616D30 
 3739      5F495251 
 3739      6E00
 3740              	.LASF167:
 3741 0a3c 41484250 		.ascii	"AHBPrescTable\000"
 3741      72657363 
 3741      5461626C 
 3741      6500
 3742              	.LASF60:
 3743 0a4a 63685F76 		.ascii	"ch_virtual_timer\000"
 3743      69727475 
 3743      616C5F74 
 3743      696D6572 
 3743      00
 3744              	.LASF125:
 3745 0a5b 5254435F 		.ascii	"RTC_Alarm_IRQn\000"
 3745      416C6172 
 3745      6D5F4952 
 3745      516E00
 3746              	.LASF157:
 3747 0a6a 49324333 		.ascii	"I2C3_ER_IRQn\000"
 3747      5F45525F 
 3747      4952516E 
 3747      00
 3748              	.LASF206:
 3749 0a77 73697A65 		.ascii	"size\000"
 3749      00
 3750              	.LASF124:
 3751 0a7c 45585449 		.ascii	"EXTI15_10_IRQn\000"
 3751      31355F31 
 3751      305F4952 
 3751      516E00
 3752              	.LASF15:
 3753 0a8b 6C6F6E67 		.ascii	"long long unsigned int\000"
 3753      206C6F6E 
 3753      6720756E 
 3753      7369676E 
 3753      65642069 
 3754              	.LASF280:
 3755 0aa2 50574D5F 		.ascii	"PWM_STOP\000"
 3755      53544F50 
 3755      00
 3756              	.LASF17:
 3757 0aab 75696E74 		.ascii	"uint16_t\000"
 3757      31365F74 
 3757      00
 3758              	.LASF215:
ARM GAS  /var/folders/vd/czx34qs52cd_f3nb04sxmghc0000gn/T//cc7V9gBu.s 			page 76


 3759 0ab4 6F66665F 		.ascii	"off_name\000"
 3759      6E616D65 
 3759      00
 3760              	.LASF26:
 3761 0abd 6D73675F 		.ascii	"msg_t\000"
 3761      7400
 3762              	.LASF53:
 3763 0ac3 63685F74 		.ascii	"ch_threads_queue\000"
 3763      68726561 
 3763      64735F71 
 3763      75657565 
 3763      00
 3764              	.LASF28:
 3765 0ad4 6576656E 		.ascii	"eventflags_t\000"
 3765      74666C61 
 3765      67735F74 
 3765      00
 3766              	.LASF113:
 3767 0ae1 54494D33 		.ascii	"TIM3_IRQn\000"
 3767      5F495251 
 3767      6E00
 3768              	.LASF183:
 3769 0aeb 43434552 		.ascii	"CCER\000"
 3769      00
 3770              	.LASF121:
 3771 0af0 55534152 		.ascii	"USART1_IRQn\000"
 3771      54315F49 
 3771      52516E00 
 3772              	.LASF61:
 3773 0afc 64656C74 		.ascii	"delta\000"
 3773      6100
 3774              	.LASF287:
 3775 0b02 6368616E 		.ascii	"channels\000"
 3775      6E656C73 
 3775      00
 3776              	.LASF40:
 3777 0b0b 72656673 		.ascii	"refs\000"
 3777      00
 3778              	.LASF32:
 3779 0b10 71756575 		.ascii	"queue\000"
 3779      6500
 3780              	.LASF149:
 3781 0b16 43414E32 		.ascii	"CAN2_RX1_IRQn\000"
 3781      5F525831 
 3781      5F495251 
 3781      6E00
 3782              	.LASF261:
 3783 0b24 76656374 		.ascii	"vector\000"
 3783      6F7200
 3784              	.LASF102:
 3785 0b2b 4144435F 		.ascii	"ADC_IRQn\000"
 3785      4952516E 
 3785      00
 3786              	.LASF256:
 3787 0b34 63685F66 		.ascii	"ch_factory\000"
 3787      6163746F 
 3787      727900
ARM GAS  /var/folders/vd/czx34qs52cd_f3nb04sxmghc0000gn/T//cc7V9gBu.s 			page 77


 3788              	.LASF253:
 3789 0b3f 6D62785F 		.ascii	"mbx_list\000"
 3789      6C697374 
 3789      00
 3790              	.LASF73:
 3791 0b48 6D61696E 		.ascii	"mainthread\000"
 3791      74687265 
 3791      616400
 3792              	.LASF179:
 3793 0b53 534D4352 		.ascii	"SMCR\000"
 3793      00
 3794              	.LASF285:
 3795 0b58 70657269 		.ascii	"period\000"
 3795      6F6400
 3796              	.LASF207:
 3797 0b5f 76657273 		.ascii	"version\000"
 3797      696F6E00 
 3798              	.LASF37:
 3799 0b67 77616261 		.ascii	"wabase\000"
 3799      736500
 3800              	.LASF85:
 3801 0b6e 5056445F 		.ascii	"PVD_IRQn\000"
 3801      4952516E 
 3801      00
 3802              	.LASF305:
 3803 0b77 53657269 		.ascii	"SerialDriver\000"
 3803      616C4472 
 3803      69766572 
 3803      00
 3804              	.LASF242:
 3805 0b84 6D656D6F 		.ascii	"memory_pool_t\000"
 3805      72795F70 
 3805      6F6F6C5F 
 3805      7400
 3806              	.LASF132:
 3807 0b92 46534D43 		.ascii	"FSMC_IRQn\000"
 3807      5F495251 
 3807      6E00
 3808              	.LASF90:
 3809 0b9c 45585449 		.ascii	"EXTI0_IRQn\000"
 3809      305F4952 
 3809      516E00
 3810              	.LASF71:
 3811 0ba7 726C6973 		.ascii	"rlist\000"
 3811      7400
 3812              	.LASF22:
 3813 0bad 746D6F64 		.ascii	"tmode_t\000"
 3813      655F7400 
 3814              	.LASF99:
 3815 0bb5 444D4131 		.ascii	"DMA1_Stream4_IRQn\000"
 3815      5F537472 
 3815      65616D34 
 3815      5F495251 
 3815      6E00
 3816              	.LASF304:
 3817 0bc7 73647374 		.ascii	"sdstate_t\000"
 3817      6174655F 
ARM GAS  /var/folders/vd/czx34qs52cd_f3nb04sxmghc0000gn/T//cc7V9gBu.s 			page 78


 3817      7400
 3818              	.LASF153:
 3819 0bd1 444D4132 		.ascii	"DMA2_Stream6_IRQn\000"
 3819      5F537472 
 3819      65616D36 
 3819      5F495251 
 3819      6E00
 3820              	.LASF81:
 3821 0be3 44656275 		.ascii	"DebugMonitor_IRQn\000"
 3821      674D6F6E 
 3821      69746F72 
 3821      5F495251 
 3821      6E00
 3822              	.LASF303:
 3823 0bf5 53445F52 		.ascii	"SD_READY\000"
 3823      45414459 
 3823      00
 3824              	.LASF156:
 3825 0bfe 49324333 		.ascii	"I2C3_EV_IRQn\000"
 3825      5F45565F 
 3825      4952516E 
 3825      00
 3826              	.LASF190:
 3827 0c0b 746D5F63 		.ascii	"tm_calibration_t\000"
 3827      616C6962 
 3827      72617469 
 3827      6F6E5F74 
 3827      00
 3828              	.LASF170:
 3829 0c1c 4D304152 		.ascii	"M0AR\000"
 3829      00
 3830              	.LASF145:
 3831 0c21 4554485F 		.ascii	"ETH_IRQn\000"
 3831      4952516E 
 3831      00
 3832              	.LASF36:
 3833 0c2a 6E616D65 		.ascii	"name\000"
 3833      00
 3834              	.LASF227:
 3835 0c2f 6C697374 		.ascii	"listener\000"
 3835      656E6572 
 3835      00
 3836              	.LASF168:
 3837 0c38 41504250 		.ascii	"APBPrescTable\000"
 3837      72657363 
 3837      5461626C 
 3837      6500
 3838              	.LASF281:
 3839 0c46 50574D5F 		.ascii	"PWM_READY\000"
 3839      52454144 
 3839      5900
 3840              	.LASF7:
 3841 0c50 73686F72 		.ascii	"short int\000"
 3841      7420696E 
 3841      7400
 3842              	.LASF230:
 3843 0c5a 6576656E 		.ascii	"event_source\000"
ARM GAS  /var/folders/vd/czx34qs52cd_f3nb04sxmghc0000gn/T//cc7V9gBu.s 			page 79


 3843      745F736F 
 3843      75726365 
 3843      00
 3844              	.LASF20:
 3845 0c67 75696E74 		.ascii	"uint64_t\000"
 3845      36345F74 
 3845      00
 3846              	.LASF89:
 3847 0c70 5243435F 		.ascii	"RCC_IRQn\000"
 3847      4952516E 
 3847      00
 3848              	.LASF294:
 3849 0c79 6D6F6465 		.ascii	"mode\000"
 3849      00
 3850              	.LASF62:
 3851 0c7e 66756E63 		.ascii	"func\000"
 3851      00
 3852              	.LASF200:
 3853 0c83 63685F6D 		.ascii	"ch_mutex\000"
 3853      75746578 
 3853      00
 3854              	.LASF42:
 3855 0c8c 6D736771 		.ascii	"msgqueue\000"
 3855      75657565 
 3855      00
 3856              	.LASF307:
 3857 0c95 69717565 		.ascii	"iqueue\000"
 3857      756500
 3858              	.LASF98:
 3859 0c9c 444D4131 		.ascii	"DMA1_Stream3_IRQn\000"
 3859      5F537472 
 3859      65616D33 
 3859      5F495251 
 3859      6E00
 3860              	.LASF67:
 3861 0cae 63685F73 		.ascii	"ch_system_debug\000"
 3861      79737465 
 3861      6D5F6465 
 3861      62756700 
 3862              	.LASF246:
 3863 0cbe 64796E5F 		.ascii	"dyn_list_t\000"
 3863      6C697374 
 3863      5F7400
 3864              	.LASF264:
 3865 0cc9 696F5F71 		.ascii	"io_queue_t\000"
 3865      75657565 
 3865      5F7400
 3866              	.LASF239:
 3867 0cd4 6F626A65 		.ascii	"object_size\000"
 3867      63745F73 
 3867      697A6500 
 3868              	.LASF320:
 3869 0ce0 69727149 		.ascii	"irqInit\000"
 3869      6E697400 
 3870              	.LASF109:
 3871 0ce8 54494D31 		.ascii	"TIM1_UP_TIM10_IRQn\000"
 3871      5F55505F 
ARM GAS  /var/folders/vd/czx34qs52cd_f3nb04sxmghc0000gn/T//cc7V9gBu.s 			page 80


 3871      54494D31 
 3871      305F4952 
 3871      516E00
 3872              	.LASF165:
 3873 0cfb 49544D5F 		.ascii	"ITM_RxBuffer\000"
 3873      52784275 
 3873      66666572 
 3873      00
 3874              	.LASF72:
 3875 0d08 76746C69 		.ascii	"vtlist\000"
 3875      737400
 3876              	.LASF41:
 3877 0d0f 77616974 		.ascii	"waiting\000"
 3877      696E6700 
 3878              	.LASF299:
 3879 0d17 50574D43 		.ascii	"PWMConfig\000"
 3879      6F6E6669 
 3879      6700
 3880              	.LASF224:
 3881 0d21 6D757465 		.ascii	"mutex_t\000"
 3881      785F7400 
 3882              	.LASF24:
 3883 0d29 74726566 		.ascii	"trefs_t\000"
 3883      735F7400 
 3884              	.LASF158:
 3885 0d31 4F54475F 		.ascii	"OTG_HS_EP1_OUT_IRQn\000"
 3885      48535F45 
 3885      50315F4F 
 3885      55545F49 
 3885      52516E00 
 3886              	.LASF177:
 3887 0d45 706F7274 		.ascii	"port_context\000"
 3887      5F636F6E 
 3887      74657874 
 3887      00
 3888              	.LASF48:
 3889 0d52 74687265 		.ascii	"threads_list_t\000"
 3889      6164735F 
 3889      6C697374 
 3889      5F7400
 3890              	.LASF300:
 3891 0d61 50574D44 		.ascii	"PWMD4\000"
 3891      3400
 3892              	.LASF70:
 3893 0d67 63685F73 		.ascii	"ch_system\000"
 3893      79737465 
 3893      6D00
 3894              	.LASF282:
 3895 0d71 70776D73 		.ascii	"pwmstate_t\000"
 3895      74617465 
 3895      5F7400
 3896              	.LASF34:
 3897 0d7c 6E657765 		.ascii	"newer\000"
 3897      7200
 3898              	.LASF184:
 3899 0d82 42445452 		.ascii	"BDTR\000"
 3899      00
ARM GAS  /var/folders/vd/czx34qs52cd_f3nb04sxmghc0000gn/T//cc7V9gBu.s 			page 81


 3900              	.LASF322:
 3901 0d87 6E766963 		.ascii	"nvicEnableVector\000"
 3901      456E6162 
 3901      6C655665 
 3901      63746F72 
 3901      00
 3902              	.LASF19:
 3903 0d98 75696E74 		.ascii	"uint32_t\000"
 3903      33325F74 
 3903      00
 3904              	.LASF325:
 3905 0da1 2F557365 		.ascii	"/Users/lantian/Projects/stm32f407vet6/dev\000"
 3905      72732F6C 
 3905      616E7469 
 3905      616E2F50 
 3905      726F6A65 
 3906              	.LASF312:
 3907 0dcb 696E7374 		.ascii	"instance_offset\000"
 3907      616E6365 
 3907      5F6F6666 
 3907      73657400 
 3908              	.LASF105:
 3909 0ddb 43414E31 		.ascii	"CAN1_RX1_IRQn\000"
 3909      5F525831 
 3909      5F495251 
 3909      6E00
 3910              	.LASF275:
 3911 0de9 696E7075 		.ascii	"input_queue_t\000"
 3911      745F7175 
 3911      6575655F 
 3911      7400
 3912              	.LASF107:
 3913 0df7 45585449 		.ascii	"EXTI9_5_IRQn\000"
 3913      395F355F 
 3913      4952516E 
 3913      00
 3914              	.LASF226:
 3915 0e04 6576656E 		.ascii	"event_listener\000"
 3915      745F6C69 
 3915      7374656E 
 3915      657200
 3916              	.LASF191:
 3917 0e13 7264796D 		.ascii	"rdymsg\000"
 3917      736700
 3918              	.LASF270:
 3919 0e1a 715F7772 		.ascii	"q_wrptr\000"
 3919      70747200 
 3920              	.LASF94:
 3921 0e22 45585449 		.ascii	"EXTI4_IRQn\000"
 3921      345F4952 
 3921      516E00
 3922              	.LASF9:
 3923 0e2d 73686F72 		.ascii	"short unsigned int\000"
 3923      7420756E 
 3923      7369676E 
 3923      65642069 
 3923      6E7400
ARM GAS  /var/folders/vd/czx34qs52cd_f3nb04sxmghc0000gn/T//cc7V9gBu.s 			page 82


 3924              	.LASF130:
 3925 0e40 54494D38 		.ascii	"TIM8_CC_IRQn\000"
 3925      5F43435F 
 3925      4952516E 
 3925      00
 3926              	.LASF133:
 3927 0e4d 5344494F 		.ascii	"SDIO_IRQn\000"
 3927      5F495251 
 3927      6E00
 3928              	.LASF69:
 3929 0e57 63685F73 		.ascii	"ch_system_t\000"
 3929      79737465 
 3929      6D5F7400 
 3930              	.LASF222:
 3931 0e63 63686465 		.ascii	"chdebug_t\000"
 3931      6275675F 
 3931      7400
 3932              	.LASF93:
 3933 0e6d 45585449 		.ascii	"EXTI3_IRQn\000"
 3933      335F4952 
 3933      516E00
 3934              	.LASF82:
 3935 0e78 50656E64 		.ascii	"PendSV_IRQn\000"
 3935      53565F49 
 3935      52516E00 
 3936              	.LASF159:
 3937 0e84 4F54475F 		.ascii	"OTG_HS_EP1_IN_IRQn\000"
 3937      48535F45 
 3937      50315F49 
 3937      4E5F4952 
 3937      516E00
 3938              	.LASF276:
 3939 0e97 6F757470 		.ascii	"output_queue_t\000"
 3939      75745F71 
 3939      75657565 
 3939      5F7400
 3940              	.LASF131:
 3941 0ea6 444D4131 		.ascii	"DMA1_Stream7_IRQn\000"
 3941      5F537472 
 3941      65616D37 
 3941      5F495251 
 3941      6E00
 3942              	.LASF209:
 3943 0eb8 74696D65 		.ascii	"timesize\000"
 3943      73697A65 
 3943      00
 3944              	.LASF10:
 3945 0ec1 5F5F696E 		.ascii	"__int32_t\000"
 3945      7433325F 
 3945      7400
 3946              	.LASF302:
 3947 0ecb 53445F53 		.ascii	"SD_STOP\000"
 3947      544F5000 
 3948              	.LASF169:
 3949 0ed3 4E445452 		.ascii	"NDTR\000"
 3949      00
 3950              	.LASF258:
ARM GAS  /var/folders/vd/czx34qs52cd_f3nb04sxmghc0000gn/T//cc7V9gBu.s 			page 83


 3951 0ed8 69666372 		.ascii	"ifcr\000"
 3951      00
 3952              	.LASF237:
 3953 0edd 63685F6D 		.ascii	"ch_memcore\000"
 3953      656D636F 
 3953      726500
 3954              	.LASF218:
 3955 0ee8 6F66665F 		.ascii	"off_flags\000"
 3955      666C6167 
 3955      7300
 3956              	.LASF228:
 3957 0ef2 6576656E 		.ascii	"events\000"
 3957      747300
 3958              	.LASF51:
 3959 0ef9 6E657874 		.ascii	"next\000"
 3959      00
 3960              	.LASF54:
 3961 0efe 70726576 		.ascii	"prev\000"
 3961      00
 3962              	.LASF245:
 3963 0f03 63685F64 		.ascii	"ch_dyn_list\000"
 3963      796E5F6C 
 3963      69737400 
 3964              	.LASF204:
 3965 0f0f 6964656E 		.ascii	"identifier\000"
 3965      74696669 
 3965      657200
 3966              	.LASF138:
 3967 0f1a 54494D36 		.ascii	"TIM6_DAC_IRQn\000"
 3967      5F444143 
 3967      5F495251 
 3967      6E00
 3968              	.LASF142:
 3969 0f28 444D4132 		.ascii	"DMA2_Stream2_IRQn\000"
 3969      5F537472 
 3969      65616D32 
 3969      5F495251 
 3969      6E00
 3970              		.ident	"GCC: (GNU Tools for Arm Embedded Processors 7-2017-q4-major) 7.2.1 20170904 (release) [ARM
ARM GAS  /var/folders/vd/czx34qs52cd_f3nb04sxmghc0000gn/T//cc7V9gBu.s 			page 84


DEFINED SYMBOLS
                            *ABS*:0000000000000000 stm32_isr.c
/var/folders/vd/czx34qs52cd_f3nb04sxmghc0000gn/T//cc7V9gBu.s:16     .text.irqInit:0000000000000000 $t
/var/folders/vd/czx34qs52cd_f3nb04sxmghc0000gn/T//cc7V9gBu.s:24     .text.irqInit:0000000000000000 irqInit
/var/folders/vd/czx34qs52cd_f3nb04sxmghc0000gn/T//cc7V9gBu.s:82     .text.irqDeinit:0000000000000000 $t
/var/folders/vd/czx34qs52cd_f3nb04sxmghc0000gn/T//cc7V9gBu.s:90     .text.irqDeinit:0000000000000000 irqDeinit

UNDEFINED SYMBOLS
nvicEnableVector
nvicDisableVector
