ARM GAS  /var/folders/vd/czx34qs52cd_f3nb04sxmghc0000gn/T//ccrUkQoJ.s 			page 1


   1              		.cpu cortex-m4
   2              		.eabi_attribute 20, 1
   3              		.eabi_attribute 21, 1
   4              		.eabi_attribute 23, 3
   5              		.eabi_attribute 24, 1
   6              		.eabi_attribute 25, 1
   7              		.eabi_attribute 26, 1
   8              		.eabi_attribute 30, 2
   9              		.eabi_attribute 34, 1
  10              		.eabi_attribute 18, 4
  11              		.file	"syscalls_cpp.cpp"
  12              		.text
  13              	.Ltext0:
  14              		.cfi_sections	.debug_frame
  15              		.section	.text._exit,"ax",%progbits
  16              		.align	1
  17              		.p2align 4,,15
  18              		.global	_exit
  19              		.syntax unified
  20              		.thumb
  21              		.thumb_func
  22              		.fpu softvfp
  23              		.type	_exit, %function
  24              	_exit:
  25              	.LFB314:
  26              		.file 1 "../os/various/cpp_wrappers/syscalls_cpp.cpp"
  27              		.loc 1 12 0
  28              		.cfi_startproc
  29              		@ Volatile: function does not return.
  30              		@ args = 0, pretend = 0, frame = 0
  31              		@ frame_needed = 0, uses_anonymous_args = 0
  32              	.LVL0:
  33 0000 08B5     		push	{r3, lr}
  34              		.cfi_def_cfa_offset 8
  35              		.cfi_offset 3, -8
  36              		.cfi_offset 14, -4
  37              	.LBB6:
  38              	.LBB7:
  39              		.file 2 "../os/hal/osal/rt/osal.h"
  40              		.loc 2 480 0
  41 0002 0248     		ldr	r0, .L5
  42              	.LVL1:
  43 0004 FFF7FEFF 		bl	chSysHalt
  44              	.LVL2:
  45              	.L2:
  46 0008 FEE7     		b	.L2
  47              	.L6:
  48 000a 00BF     		.align	2
  49              	.L5:
  50 000c 00000000 		.word	.LC0
  51              	.LBE7:
  52              	.LBE6:
  53              		.cfi_endproc
  54              	.LFE314:
  55              		.size	_exit, .-_exit
  56              		.section	.text._getpid,"ax",%progbits
  57              		.align	1
ARM GAS  /var/folders/vd/czx34qs52cd_f3nb04sxmghc0000gn/T//ccrUkQoJ.s 			page 2


  58              		.p2align 4,,15
  59              		.global	_getpid
  60              		.syntax unified
  61              		.thumb
  62              		.thumb_func
  63              		.fpu softvfp
  64              		.type	_getpid, %function
  65              	_getpid:
  66              	.LFB315:
  67              		.loc 1 18 0
  68              		.cfi_startproc
  69              		@ args = 0, pretend = 0, frame = 0
  70              		@ frame_needed = 0, uses_anonymous_args = 0
  71              		@ link register save eliminated.
  72              		.loc 1 20 0
  73 0000 0120     		movs	r0, #1
  74 0002 7047     		bx	lr
  75              		.cfi_endproc
  76              	.LFE315:
  77              		.size	_getpid, .-_getpid
  78              		.section	.text._kill,"ax",%progbits
  79              		.align	1
  80              		.p2align 4,,15
  81              		.global	_kill
  82              		.syntax unified
  83              		.thumb
  84              		.thumb_func
  85              		.fpu softvfp
  86              		.type	_kill, %function
  87              	_kill:
  88              	.LFB316:
  89              		.loc 1 24 0
  90              		.cfi_startproc
  91              		@ args = 0, pretend = 0, frame = 0
  92              		@ frame_needed = 0, uses_anonymous_args = 0
  93              		@ link register save eliminated.
  94              	.LVL3:
  95              		.loc 1 27 0
  96 0000 024B     		ldr	r3, .L9
  97 0002 1622     		movs	r2, #22
  98 0004 1A60     		str	r2, [r3]
  99              		.loc 1 29 0
 100 0006 4FF0FF30 		mov	r0, #-1
 101              	.LVL4:
 102 000a 7047     		bx	lr
 103              	.L10:
 104              		.align	2
 105              	.L9:
 106 000c 00000000 		.word	errno
 107              		.cfi_endproc
 108              	.LFE316:
 109              		.size	_kill, .-_kill
 110              		.section	.text._open_r,"ax",%progbits
 111              		.align	1
 112              		.p2align 4,,15
 113              		.global	_open_r
 114              		.syntax unified
ARM GAS  /var/folders/vd/czx34qs52cd_f3nb04sxmghc0000gn/T//ccrUkQoJ.s 			page 3


 115              		.thumb
 116              		.thumb_func
 117              		.fpu softvfp
 118              		.type	_open_r, %function
 119              	_open_r:
 120              	.LFB317:
 121              		.loc 1 31 0
 122              		.cfi_startproc
 123              		@ args = 0, pretend = 0, frame = 0
 124              		@ frame_needed = 0, uses_anonymous_args = 0
 125              		@ link register save eliminated.
 126              		.loc 1 33 0
 127 0000 7047     		bx	lr
 128              		.cfi_endproc
 129              	.LFE317:
 130              		.size	_open_r, .-_open_r
 131 0002 00BF     		.section	.text.__cxa_pure_virtual,"ax",%progbits
 132              		.align	1
 133              		.p2align 4,,15
 134              		.global	__cxa_pure_virtual
 135              		.syntax unified
 136              		.thumb
 137              		.thumb_func
 138              		.fpu softvfp
 139              		.type	__cxa_pure_virtual, %function
 140              	__cxa_pure_virtual:
 141              	.LFB318:
 142              		.loc 1 35 0
 143              		.cfi_startproc
 144              		@ args = 0, pretend = 0, frame = 0
 145              		@ frame_needed = 0, uses_anonymous_args = 0
 146              		@ link register save eliminated.
 147              	.LVL5:
 148              	.LBB8:
 149              	.LBB9:
 150              		.loc 2 480 0
 151 0000 0148     		ldr	r0, .L13
 152 0002 FFF7FEBF 		b	chSysHalt
 153              	.LVL6:
 154              	.L14:
 155 0006 00BF     		.align	2
 156              	.L13:
 157 0008 00000000 		.word	.LC1
 158              	.LBE9:
 159              	.LBE8:
 160              		.cfi_endproc
 161              	.LFE318:
 162              		.size	__cxa_pure_virtual, .-__cxa_pure_virtual
 163              		.global	__dso_handle
 164              		.section	.bss.__dso_handle,"aw",%nobits
 165              		.align	2
 166              		.type	__dso_handle, %object
 167              		.size	__dso_handle, 4
 168              	__dso_handle:
 169 0000 00000000 		.space	4
 170              		.section	.rodata.__cxa_pure_virtual.str1.4,"aMS",%progbits,1
 171              		.align	2
ARM GAS  /var/folders/vd/czx34qs52cd_f3nb04sxmghc0000gn/T//ccrUkQoJ.s 			page 4


 172              	.LC1:
 173 0000 50757265 		.ascii	"Pure virtual function call.\000"
 173      20766972 
 173      7475616C 
 173      2066756E 
 173      6374696F 
 174              		.section	.rodata._exit.str1.4,"aMS",%progbits,1
 175              		.align	2
 176              	.LC0:
 177 0000 556E7265 		.ascii	"Unrealized\000"
 177      616C697A 
 177      656400
 178              		.text
 179              	.Letext0:
 180              		.file 3 "/usr/local/Cellar/gcc-arm-none-eabi/20171218/arm-none-eabi/include/machine/_default_types
 181              		.file 4 "/usr/local/Cellar/gcc-arm-none-eabi/20171218/lib/gcc/arm-none-eabi/7.2.1/include/stddef.h
 182              		.file 5 "/usr/local/Cellar/gcc-arm-none-eabi/20171218/arm-none-eabi/include/sys/lock.h"
 183              		.file 6 "/usr/local/Cellar/gcc-arm-none-eabi/20171218/arm-none-eabi/include/sys/_types.h"
 184              		.file 7 "/usr/local/Cellar/gcc-arm-none-eabi/20171218/arm-none-eabi/include/sys/reent.h"
 185              		.file 8 "/usr/local/Cellar/gcc-arm-none-eabi/20171218/arm-none-eabi/include/sys/_stdint.h"
 186              		.file 9 "/usr/local/Cellar/gcc-arm-none-eabi/20171218/arm-none-eabi/include/sys/types.h"
 187              		.file 10 "/usr/local/Cellar/gcc-arm-none-eabi/20171218/arm-none-eabi/include/sys/errno.h"
 188              		.file 11 "../os/common/ports/ARMCMx/compilers/GCC/chtypes.h"
 189              		.file 12 "../os/rt/include/chsystypes.h"
 190              		.file 13 "../os/rt/include/chschd.h"
 191              		.file 14 "../os/rt/include/chtime.h"
 192              		.file 15 "../os/common/ext/ARM/CMSIS/Core/Include/core_cm4.h"
 193              		.file 16 "../os/common/ext/ST/STM32F4xx/system_stm32f4xx.h"
 194              		.file 17 "../os/common/ext/ST/STM32F4xx/stm32f4xx.h"
 195              		.file 18 "../os/common/ports/ARMCMx/chcore.h"
 196              		.file 19 "../os/common/ports/ARMCMx/chcore_v7m.h"
 197              		.file 20 "../os/rt/include/chtm.h"
 198              		.file 21 "../os/rt/include/chsem.h"
 199              		.file 22 "../os/rt/include/chmtx.h"
 200              		.file 23 "../os/rt/include/chsys.h"
 201              		.file 24 "../os/rt/include/chregistry.h"
 202              		.file 25 "../os/common/oslib/include/chmemcore.h"
 203              		.file 26 "../os/common/oslib/include/chmempools.h"
 204              		.file 27 "../os/common/oslib/include/chfactory.h"
 205              		.file 28 "../os/various/cpp_wrappers/syscalls_cpp.hpp"
 206              		.file 29 "../os/rt/include/ch.h"
 207              		.section	.debug_info,"",%progbits
 208              	.Ldebug_info0:
 209 0000 91130000 		.4byte	0x1391
 210 0004 0400     		.2byte	0x4
 211 0006 00000000 		.4byte	.Ldebug_abbrev0
 212 000a 04       		.byte	0x4
 213 000b 01       		.uleb128 0x1
 214 000c 240B0000 		.4byte	.LASF279
 215 0010 04       		.byte	0x4
 216 0011 84070000 		.4byte	.LASF280
 217 0015 4B0A0000 		.4byte	.LASF281
 218 0019 00000000 		.4byte	.Ldebug_ranges0+0
 219 001d 00000000 		.4byte	0
 220 0021 00000000 		.4byte	.Ldebug_line0
 221 0025 02       		.uleb128 0x2
 222 0026 01       		.byte	0x1
ARM GAS  /var/folders/vd/czx34qs52cd_f3nb04sxmghc0000gn/T//ccrUkQoJ.s 			page 5


 223 0027 06       		.byte	0x6
 224 0028 2F020000 		.4byte	.LASF0
 225 002c 03       		.uleb128 0x3
 226 002d 52010000 		.4byte	.LASF3
 227 0031 03       		.byte	0x3
 228 0032 2B       		.byte	0x2b
 229 0033 37000000 		.4byte	0x37
 230 0037 02       		.uleb128 0x2
 231 0038 01       		.byte	0x1
 232 0039 08       		.byte	0x8
 233 003a 5C020000 		.4byte	.LASF1
 234 003e 02       		.uleb128 0x2
 235 003f 02       		.byte	0x2
 236 0040 05       		.byte	0x5
 237 0041 26090000 		.4byte	.LASF2
 238 0045 03       		.uleb128 0x3
 239 0046 03030000 		.4byte	.LASF4
 240 004a 03       		.byte	0x3
 241 004b 39       		.byte	0x39
 242 004c 50000000 		.4byte	0x50
 243 0050 02       		.uleb128 0x2
 244 0051 02       		.byte	0x2
 245 0052 07       		.byte	0x7
 246 0053 9B0A0000 		.4byte	.LASF5
 247 0057 03       		.uleb128 0x3
 248 0058 ED0A0000 		.4byte	.LASF6
 249 005c 03       		.byte	0x3
 250 005d 4D       		.byte	0x4d
 251 005e 62000000 		.4byte	0x62
 252 0062 02       		.uleb128 0x2
 253 0063 04       		.byte	0x4
 254 0064 05       		.byte	0x5
 255 0065 8E010000 		.4byte	.LASF7
 256 0069 03       		.uleb128 0x3
 257 006a 21050000 		.4byte	.LASF8
 258 006e 03       		.byte	0x3
 259 006f 4F       		.byte	0x4f
 260 0070 74000000 		.4byte	0x74
 261 0074 02       		.uleb128 0x2
 262 0075 04       		.byte	0x4
 263 0076 07       		.byte	0x7
 264 0077 D3030000 		.4byte	.LASF9
 265 007b 02       		.uleb128 0x2
 266 007c 08       		.byte	0x8
 267 007d 05       		.byte	0x5
 268 007e 3F050000 		.4byte	.LASF10
 269 0082 03       		.uleb128 0x3
 270 0083 B9030000 		.4byte	.LASF11
 271 0087 03       		.byte	0x3
 272 0088 69       		.byte	0x69
 273 0089 8D000000 		.4byte	0x8d
 274 008d 02       		.uleb128 0x2
 275 008e 08       		.byte	0x8
 276 008f 07       		.byte	0x7
 277 0090 C5070000 		.4byte	.LASF12
 278 0094 04       		.uleb128 0x4
 279 0095 04       		.byte	0x4
ARM GAS  /var/folders/vd/czx34qs52cd_f3nb04sxmghc0000gn/T//ccrUkQoJ.s 			page 6


 280 0096 05       		.byte	0x5
 281 0097 696E7400 		.ascii	"int\000"
 282 009b 02       		.uleb128 0x2
 283 009c 04       		.byte	0x4
 284 009d 07       		.byte	0x7
 285 009e D4050000 		.4byte	.LASF13
 286 00a2 03       		.uleb128 0x3
 287 00a3 08000000 		.4byte	.LASF14
 288 00a7 04       		.byte	0x4
 289 00a8 D8       		.byte	0xd8
 290 00a9 9B000000 		.4byte	0x9b
 291 00ad 02       		.uleb128 0x2
 292 00ae 08       		.byte	0x8
 293 00af 04       		.byte	0x4
 294 00b0 B8060000 		.4byte	.LASF15
 295 00b4 05       		.uleb128 0x5
 296 00b5 2B030000 		.4byte	.LASF282
 297 00b9 06       		.uleb128 0x6
 298 00ba 04       		.byte	0x4
 299 00bb 03       		.uleb128 0x3
 300 00bc E0090000 		.4byte	.LASF16
 301 00c0 05       		.byte	0x5
 302 00c1 22       		.byte	0x22
 303 00c2 C6000000 		.4byte	0xc6
 304 00c6 07       		.uleb128 0x7
 305 00c7 04       		.byte	0x4
 306 00c8 CC000000 		.4byte	0xcc
 307 00cc 08       		.uleb128 0x8
 308 00cd 87030000 		.4byte	.LASF124
 309 00d1 03       		.uleb128 0x3
 310 00d2 880A0000 		.4byte	.LASF17
 311 00d6 06       		.byte	0x6
 312 00d7 2C       		.byte	0x2c
 313 00d8 62000000 		.4byte	0x62
 314 00dc 03       		.uleb128 0x3
 315 00dd FF060000 		.4byte	.LASF18
 316 00e1 06       		.byte	0x6
 317 00e2 32       		.byte	0x32
 318 00e3 94000000 		.4byte	0x94
 319 00e7 03       		.uleb128 0x3
 320 00e8 35070000 		.4byte	.LASF19
 321 00ec 06       		.byte	0x6
 322 00ed 72       		.byte	0x72
 323 00ee 62000000 		.4byte	0x62
 324 00f2 09       		.uleb128 0x9
 325 00f3 BB080000 		.4byte	.LASF20
 326 00f7 04       		.byte	0x4
 327 00f8 6501     		.2byte	0x165
 328 00fa 9B000000 		.4byte	0x9b
 329 00fe 0A       		.uleb128 0xa
 330 00ff 08       		.byte	0x8
 331 0100 06       		.byte	0x6
 332 0101 A4       		.byte	0xa4
 333 0102 AD010000 		.4byte	.LASF217
 334 0106 42010000 		.4byte	0x142
 335 010a 0B       		.uleb128 0xb
 336 010b 04       		.byte	0x4
ARM GAS  /var/folders/vd/czx34qs52cd_f3nb04sxmghc0000gn/T//ccrUkQoJ.s 			page 7


 337 010c 06       		.byte	0x6
 338 010d A7       		.byte	0xa7
 339 010e 29010000 		.4byte	0x129
 340 0112 0C       		.uleb128 0xc
 341 0113 3B010000 		.4byte	.LASF21
 342 0117 06       		.byte	0x6
 343 0118 A8       		.byte	0xa8
 344 0119 F2000000 		.4byte	0xf2
 345 011d 0C       		.uleb128 0xc
 346 011e 3D070000 		.4byte	.LASF22
 347 0122 06       		.byte	0x6
 348 0123 A9       		.byte	0xa9
 349 0124 42010000 		.4byte	0x142
 350 0128 00       		.byte	0
 351 0129 0D       		.uleb128 0xd
 352 012a 83060000 		.4byte	.LASF23
 353 012e 06       		.byte	0x6
 354 012f A5       		.byte	0xa5
 355 0130 94000000 		.4byte	0x94
 356 0134 00       		.byte	0
 357 0135 0D       		.uleb128 0xd
 358 0136 2A000000 		.4byte	.LASF24
 359 013a 06       		.byte	0x6
 360 013b AA       		.byte	0xaa
 361 013c 0A010000 		.4byte	0x10a
 362 0140 04       		.byte	0x4
 363 0141 00       		.byte	0
 364 0142 0E       		.uleb128 0xe
 365 0143 37000000 		.4byte	0x37
 366 0147 52010000 		.4byte	0x152
 367 014b 0F       		.uleb128 0xf
 368 014c 9B000000 		.4byte	0x9b
 369 0150 03       		.byte	0x3
 370 0151 00       		.byte	0
 371 0152 03       		.uleb128 0x3
 372 0153 A4080000 		.4byte	.LASF25
 373 0157 06       		.byte	0x6
 374 0158 AB       		.byte	0xab
 375 0159 FE000000 		.4byte	0xfe
 376 015d 03       		.uleb128 0x3
 377 015e 86080000 		.4byte	.LASF26
 378 0162 06       		.byte	0x6
 379 0163 AF       		.byte	0xaf
 380 0164 BB000000 		.4byte	0xbb
 381 0168 03       		.uleb128 0x3
 382 0169 340A0000 		.4byte	.LASF27
 383 016d 07       		.byte	0x7
 384 016e 16       		.byte	0x16
 385 016f 74000000 		.4byte	0x74
 386 0173 10       		.uleb128 0x10
 387 0174 CF040000 		.4byte	.LASF32
 388 0178 18       		.byte	0x18
 389 0179 07       		.byte	0x7
 390 017a 2F       		.byte	0x2f
 391 017b C6010000 		.4byte	0x1c6
 392 017f 0D       		.uleb128 0xd
 393 0180 D0080000 		.4byte	.LASF28
ARM GAS  /var/folders/vd/czx34qs52cd_f3nb04sxmghc0000gn/T//ccrUkQoJ.s 			page 8


 394 0184 07       		.byte	0x7
 395 0185 31       		.byte	0x31
 396 0186 C6010000 		.4byte	0x1c6
 397 018a 00       		.byte	0
 398 018b 11       		.uleb128 0x11
 399 018c 5F6B00   		.ascii	"_k\000"
 400 018f 07       		.byte	0x7
 401 0190 32       		.byte	0x32
 402 0191 94000000 		.4byte	0x94
 403 0195 04       		.byte	0x4
 404 0196 0D       		.uleb128 0xd
 405 0197 E7040000 		.4byte	.LASF29
 406 019b 07       		.byte	0x7
 407 019c 32       		.byte	0x32
 408 019d 94000000 		.4byte	0x94
 409 01a1 08       		.byte	0x8
 410 01a2 0D       		.uleb128 0xd
 411 01a3 BE050000 		.4byte	.LASF30
 412 01a7 07       		.byte	0x7
 413 01a8 32       		.byte	0x32
 414 01a9 94000000 		.4byte	0x94
 415 01ad 0C       		.byte	0xc
 416 01ae 0D       		.uleb128 0xd
 417 01af 74030000 		.4byte	.LASF31
 418 01b3 07       		.byte	0x7
 419 01b4 32       		.byte	0x32
 420 01b5 94000000 		.4byte	0x94
 421 01b9 10       		.byte	0x10
 422 01ba 11       		.uleb128 0x11
 423 01bb 5F7800   		.ascii	"_x\000"
 424 01be 07       		.byte	0x7
 425 01bf 33       		.byte	0x33
 426 01c0 CC010000 		.4byte	0x1cc
 427 01c4 14       		.byte	0x14
 428 01c5 00       		.byte	0
 429 01c6 07       		.uleb128 0x7
 430 01c7 04       		.byte	0x4
 431 01c8 73010000 		.4byte	0x173
 432 01cc 0E       		.uleb128 0xe
 433 01cd 68010000 		.4byte	0x168
 434 01d1 DC010000 		.4byte	0x1dc
 435 01d5 0F       		.uleb128 0xf
 436 01d6 9B000000 		.4byte	0x9b
 437 01da 00       		.byte	0
 438 01db 00       		.byte	0
 439 01dc 10       		.uleb128 0x10
 440 01dd CD000000 		.4byte	.LASF33
 441 01e1 24       		.byte	0x24
 442 01e2 07       		.byte	0x7
 443 01e3 37       		.byte	0x37
 444 01e4 55020000 		.4byte	0x255
 445 01e8 0D       		.uleb128 0xd
 446 01e9 E9000000 		.4byte	.LASF34
 447 01ed 07       		.byte	0x7
 448 01ee 39       		.byte	0x39
 449 01ef 94000000 		.4byte	0x94
 450 01f3 00       		.byte	0
ARM GAS  /var/folders/vd/czx34qs52cd_f3nb04sxmghc0000gn/T//ccrUkQoJ.s 			page 9


 451 01f4 0D       		.uleb128 0xd
 452 01f5 270C0000 		.4byte	.LASF35
 453 01f9 07       		.byte	0x7
 454 01fa 3A       		.byte	0x3a
 455 01fb 94000000 		.4byte	0x94
 456 01ff 04       		.byte	0x4
 457 0200 0D       		.uleb128 0xd
 458 0201 AE0A0000 		.4byte	.LASF36
 459 0205 07       		.byte	0x7
 460 0206 3B       		.byte	0x3b
 461 0207 94000000 		.4byte	0x94
 462 020b 08       		.byte	0x8
 463 020c 0D       		.uleb128 0xd
 464 020d 13060000 		.4byte	.LASF37
 465 0211 07       		.byte	0x7
 466 0212 3C       		.byte	0x3c
 467 0213 94000000 		.4byte	0x94
 468 0217 0C       		.byte	0xc
 469 0218 0D       		.uleb128 0xd
 470 0219 06020000 		.4byte	.LASF38
 471 021d 07       		.byte	0x7
 472 021e 3D       		.byte	0x3d
 473 021f 94000000 		.4byte	0x94
 474 0223 10       		.byte	0x10
 475 0224 0D       		.uleb128 0xd
 476 0225 81090000 		.4byte	.LASF39
 477 0229 07       		.byte	0x7
 478 022a 3E       		.byte	0x3e
 479 022b 94000000 		.4byte	0x94
 480 022f 14       		.byte	0x14
 481 0230 0D       		.uleb128 0xd
 482 0231 9D060000 		.4byte	.LASF40
 483 0235 07       		.byte	0x7
 484 0236 3F       		.byte	0x3f
 485 0237 94000000 		.4byte	0x94
 486 023b 18       		.byte	0x18
 487 023c 0D       		.uleb128 0xd
 488 023d C4060000 		.4byte	.LASF41
 489 0241 07       		.byte	0x7
 490 0242 40       		.byte	0x40
 491 0243 94000000 		.4byte	0x94
 492 0247 1C       		.byte	0x1c
 493 0248 0D       		.uleb128 0xd
 494 0249 140B0000 		.4byte	.LASF42
 495 024d 07       		.byte	0x7
 496 024e 41       		.byte	0x41
 497 024f 94000000 		.4byte	0x94
 498 0253 20       		.byte	0x20
 499 0254 00       		.byte	0
 500 0255 12       		.uleb128 0x12
 501 0256 62010000 		.4byte	.LASF43
 502 025a 0801     		.2byte	0x108
 503 025c 07       		.byte	0x7
 504 025d 4A       		.byte	0x4a
 505 025e 95020000 		.4byte	0x295
 506 0262 0D       		.uleb128 0xd
 507 0263 0C0B0000 		.4byte	.LASF44
ARM GAS  /var/folders/vd/czx34qs52cd_f3nb04sxmghc0000gn/T//ccrUkQoJ.s 			page 10


 508 0267 07       		.byte	0x7
 509 0268 4B       		.byte	0x4b
 510 0269 95020000 		.4byte	0x295
 511 026d 00       		.byte	0
 512 026e 0D       		.uleb128 0xd
 513 026f EE070000 		.4byte	.LASF45
 514 0273 07       		.byte	0x7
 515 0274 4C       		.byte	0x4c
 516 0275 95020000 		.4byte	0x295
 517 0279 80       		.byte	0x80
 518 027a 13       		.uleb128 0x13
 519 027b 50090000 		.4byte	.LASF46
 520 027f 07       		.byte	0x7
 521 0280 4E       		.byte	0x4e
 522 0281 68010000 		.4byte	0x168
 523 0285 0001     		.2byte	0x100
 524 0287 13       		.uleb128 0x13
 525 0288 D8090000 		.4byte	.LASF47
 526 028c 07       		.byte	0x7
 527 028d 51       		.byte	0x51
 528 028e 68010000 		.4byte	0x168
 529 0292 0401     		.2byte	0x104
 530 0294 00       		.byte	0
 531 0295 0E       		.uleb128 0xe
 532 0296 B9000000 		.4byte	0xb9
 533 029a A5020000 		.4byte	0x2a5
 534 029e 0F       		.uleb128 0xf
 535 029f 9B000000 		.4byte	0x9b
 536 02a3 1F       		.byte	0x1f
 537 02a4 00       		.byte	0
 538 02a5 12       		.uleb128 0x12
 539 02a6 7B060000 		.4byte	.LASF48
 540 02aa 9001     		.2byte	0x190
 541 02ac 07       		.byte	0x7
 542 02ad 5D       		.byte	0x5d
 543 02ae E3020000 		.4byte	0x2e3
 544 02b2 0D       		.uleb128 0xd
 545 02b3 D0080000 		.4byte	.LASF28
 546 02b7 07       		.byte	0x7
 547 02b8 5E       		.byte	0x5e
 548 02b9 E3020000 		.4byte	0x2e3
 549 02bd 00       		.byte	0
 550 02be 0D       		.uleb128 0xd
 551 02bf AC090000 		.4byte	.LASF49
 552 02c3 07       		.byte	0x7
 553 02c4 5F       		.byte	0x5f
 554 02c5 94000000 		.4byte	0x94
 555 02c9 04       		.byte	0x4
 556 02ca 0D       		.uleb128 0xd
 557 02cb EE020000 		.4byte	.LASF50
 558 02cf 07       		.byte	0x7
 559 02d0 61       		.byte	0x61
 560 02d1 E9020000 		.4byte	0x2e9
 561 02d5 08       		.byte	0x8
 562 02d6 0D       		.uleb128 0xd
 563 02d7 62010000 		.4byte	.LASF43
 564 02db 07       		.byte	0x7
ARM GAS  /var/folders/vd/czx34qs52cd_f3nb04sxmghc0000gn/T//ccrUkQoJ.s 			page 11


 565 02dc 62       		.byte	0x62
 566 02dd 55020000 		.4byte	0x255
 567 02e1 88       		.byte	0x88
 568 02e2 00       		.byte	0
 569 02e3 07       		.uleb128 0x7
 570 02e4 04       		.byte	0x4
 571 02e5 A5020000 		.4byte	0x2a5
 572 02e9 0E       		.uleb128 0xe
 573 02ea F9020000 		.4byte	0x2f9
 574 02ee F9020000 		.4byte	0x2f9
 575 02f2 0F       		.uleb128 0xf
 576 02f3 9B000000 		.4byte	0x9b
 577 02f7 1F       		.byte	0x1f
 578 02f8 00       		.byte	0
 579 02f9 07       		.uleb128 0x7
 580 02fa 04       		.byte	0x4
 581 02fb FF020000 		.4byte	0x2ff
 582 02ff 14       		.uleb128 0x14
 583 0300 10       		.uleb128 0x10
 584 0301 C3090000 		.4byte	.LASF51
 585 0305 08       		.byte	0x8
 586 0306 07       		.byte	0x7
 587 0307 75       		.byte	0x75
 588 0308 25030000 		.4byte	0x325
 589 030c 0D       		.uleb128 0xd
 590 030d 30080000 		.4byte	.LASF52
 591 0311 07       		.byte	0x7
 592 0312 76       		.byte	0x76
 593 0313 25030000 		.4byte	0x325
 594 0317 00       		.byte	0
 595 0318 0D       		.uleb128 0xd
 596 0319 0B010000 		.4byte	.LASF53
 597 031d 07       		.byte	0x7
 598 031e 77       		.byte	0x77
 599 031f 94000000 		.4byte	0x94
 600 0323 04       		.byte	0x4
 601 0324 00       		.byte	0
 602 0325 07       		.uleb128 0x7
 603 0326 04       		.byte	0x4
 604 0327 37000000 		.4byte	0x37
 605 032b 10       		.uleb128 0x10
 606 032c F6030000 		.4byte	.LASF54
 607 0330 68       		.byte	0x68
 608 0331 07       		.byte	0x7
 609 0332 B5       		.byte	0xb5
 610 0333 55040000 		.4byte	0x455
 611 0337 11       		.uleb128 0x11
 612 0338 5F7000   		.ascii	"_p\000"
 613 033b 07       		.byte	0x7
 614 033c B6       		.byte	0xb6
 615 033d 25030000 		.4byte	0x325
 616 0341 00       		.byte	0
 617 0342 11       		.uleb128 0x11
 618 0343 5F7200   		.ascii	"_r\000"
 619 0346 07       		.byte	0x7
 620 0347 B7       		.byte	0xb7
 621 0348 94000000 		.4byte	0x94
ARM GAS  /var/folders/vd/czx34qs52cd_f3nb04sxmghc0000gn/T//ccrUkQoJ.s 			page 12


 622 034c 04       		.byte	0x4
 623 034d 11       		.uleb128 0x11
 624 034e 5F7700   		.ascii	"_w\000"
 625 0351 07       		.byte	0x7
 626 0352 B8       		.byte	0xb8
 627 0353 94000000 		.4byte	0x94
 628 0357 08       		.byte	0x8
 629 0358 0D       		.uleb128 0xd
 630 0359 5A060000 		.4byte	.LASF55
 631 035d 07       		.byte	0x7
 632 035e B9       		.byte	0xb9
 633 035f 3E000000 		.4byte	0x3e
 634 0363 0C       		.byte	0xc
 635 0364 0D       		.uleb128 0xd
 636 0365 5C010000 		.4byte	.LASF56
 637 0369 07       		.byte	0x7
 638 036a BA       		.byte	0xba
 639 036b 3E000000 		.4byte	0x3e
 640 036f 0E       		.byte	0xe
 641 0370 11       		.uleb128 0x11
 642 0371 5F626600 		.ascii	"_bf\000"
 643 0375 07       		.byte	0x7
 644 0376 BB       		.byte	0xbb
 645 0377 00030000 		.4byte	0x300
 646 037b 10       		.byte	0x10
 647 037c 0D       		.uleb128 0xd
 648 037d 97090000 		.4byte	.LASF57
 649 0381 07       		.byte	0x7
 650 0382 BC       		.byte	0xbc
 651 0383 94000000 		.4byte	0x94
 652 0387 18       		.byte	0x18
 653 0388 0D       		.uleb128 0xd
 654 0389 65030000 		.4byte	.LASF58
 655 038d 07       		.byte	0x7
 656 038e C3       		.byte	0xc3
 657 038f B9000000 		.4byte	0xb9
 658 0393 1C       		.byte	0x1c
 659 0394 0D       		.uleb128 0xd
 660 0395 53000000 		.4byte	.LASF59
 661 0399 07       		.byte	0x7
 662 039a C5       		.byte	0xc5
 663 039b 09070000 		.4byte	0x709
 664 039f 20       		.byte	0x20
 665 03a0 0D       		.uleb128 0xd
 666 03a1 81000000 		.4byte	.LASF60
 667 03a5 07       		.byte	0x7
 668 03a6 C7       		.byte	0xc7
 669 03a7 3D070000 		.4byte	0x73d
 670 03ab 24       		.byte	0x24
 671 03ac 0D       		.uleb128 0xd
 672 03ad 23070000 		.4byte	.LASF61
 673 03b1 07       		.byte	0x7
 674 03b2 CA       		.byte	0xca
 675 03b3 61070000 		.4byte	0x761
 676 03b7 28       		.byte	0x28
 677 03b8 0D       		.uleb128 0xd
 678 03b9 F3020000 		.4byte	.LASF62
ARM GAS  /var/folders/vd/czx34qs52cd_f3nb04sxmghc0000gn/T//ccrUkQoJ.s 			page 13


 679 03bd 07       		.byte	0x7
 680 03be CB       		.byte	0xcb
 681 03bf 7B070000 		.4byte	0x77b
 682 03c3 2C       		.byte	0x2c
 683 03c4 11       		.uleb128 0x11
 684 03c5 5F756200 		.ascii	"_ub\000"
 685 03c9 07       		.byte	0x7
 686 03ca CE       		.byte	0xce
 687 03cb 00030000 		.4byte	0x300
 688 03cf 30       		.byte	0x30
 689 03d0 11       		.uleb128 0x11
 690 03d1 5F757000 		.ascii	"_up\000"
 691 03d5 07       		.byte	0x7
 692 03d6 CF       		.byte	0xcf
 693 03d7 25030000 		.4byte	0x325
 694 03db 38       		.byte	0x38
 695 03dc 11       		.uleb128 0x11
 696 03dd 5F757200 		.ascii	"_ur\000"
 697 03e1 07       		.byte	0x7
 698 03e2 D0       		.byte	0xd0
 699 03e3 94000000 		.4byte	0x94
 700 03e7 3C       		.byte	0x3c
 701 03e8 0D       		.uleb128 0xd
 702 03e9 22060000 		.4byte	.LASF63
 703 03ed 07       		.byte	0x7
 704 03ee D3       		.byte	0xd3
 705 03ef 81070000 		.4byte	0x781
 706 03f3 40       		.byte	0x40
 707 03f4 0D       		.uleb128 0xd
 708 03f5 E3000000 		.4byte	.LASF64
 709 03f9 07       		.byte	0x7
 710 03fa D4       		.byte	0xd4
 711 03fb 91070000 		.4byte	0x791
 712 03ff 43       		.byte	0x43
 713 0400 11       		.uleb128 0x11
 714 0401 5F6C6200 		.ascii	"_lb\000"
 715 0405 07       		.byte	0x7
 716 0406 D7       		.byte	0xd7
 717 0407 00030000 		.4byte	0x300
 718 040b 44       		.byte	0x44
 719 040c 0D       		.uleb128 0xd
 720 040d 27080000 		.4byte	.LASF65
 721 0411 07       		.byte	0x7
 722 0412 DA       		.byte	0xda
 723 0413 94000000 		.4byte	0x94
 724 0417 4C       		.byte	0x4c
 725 0418 0D       		.uleb128 0xd
 726 0419 A1030000 		.4byte	.LASF66
 727 041d 07       		.byte	0x7
 728 041e DB       		.byte	0xdb
 729 041f D1000000 		.4byte	0xd1
 730 0423 50       		.byte	0x50
 731 0424 0D       		.uleb128 0xd
 732 0425 D6080000 		.4byte	.LASF67
 733 0429 07       		.byte	0x7
 734 042a DE       		.byte	0xde
 735 042b 73040000 		.4byte	0x473
ARM GAS  /var/folders/vd/czx34qs52cd_f3nb04sxmghc0000gn/T//ccrUkQoJ.s 			page 14


 736 042f 54       		.byte	0x54
 737 0430 0D       		.uleb128 0xd
 738 0431 17010000 		.4byte	.LASF68
 739 0435 07       		.byte	0x7
 740 0436 E2       		.byte	0xe2
 741 0437 5D010000 		.4byte	0x15d
 742 043b 58       		.byte	0x58
 743 043c 0D       		.uleb128 0xd
 744 043d 3E060000 		.4byte	.LASF69
 745 0441 07       		.byte	0x7
 746 0442 E4       		.byte	0xe4
 747 0443 52010000 		.4byte	0x152
 748 0447 5C       		.byte	0x5c
 749 0448 0D       		.uleb128 0xd
 750 0449 09040000 		.4byte	.LASF70
 751 044d 07       		.byte	0x7
 752 044e E5       		.byte	0xe5
 753 044f 94000000 		.4byte	0x94
 754 0453 64       		.byte	0x64
 755 0454 00       		.byte	0
 756 0455 15       		.uleb128 0x15
 757 0456 94000000 		.4byte	0x94
 758 045a 73040000 		.4byte	0x473
 759 045e 16       		.uleb128 0x16
 760 045f 73040000 		.4byte	0x473
 761 0463 16       		.uleb128 0x16
 762 0464 B9000000 		.4byte	0xb9
 763 0468 16       		.uleb128 0x16
 764 0469 F7060000 		.4byte	0x6f7
 765 046d 16       		.uleb128 0x16
 766 046e 94000000 		.4byte	0x94
 767 0472 00       		.byte	0
 768 0473 07       		.uleb128 0x7
 769 0474 04       		.byte	0x4
 770 0475 7E040000 		.4byte	0x47e
 771 0479 17       		.uleb128 0x17
 772 047a 73040000 		.4byte	0x473
 773 047e 18       		.uleb128 0x18
 774 047f 9E020000 		.4byte	.LASF71
 775 0483 2804     		.2byte	0x428
 776 0485 07       		.byte	0x7
 777 0486 3902     		.2byte	0x239
 778 0488 F7060000 		.4byte	0x6f7
 779 048c 19       		.uleb128 0x19
 780 048d F0       		.byte	0xf0
 781 048e 07       		.byte	0x7
 782 048f 5802     		.2byte	0x258
 783 0491 D3050000 		.4byte	0x5d3
 784 0495 1A       		.uleb128 0x1a
 785 0496 D0       		.byte	0xd0
 786 0497 07       		.byte	0x7
 787 0498 5A02     		.2byte	0x25a
 788 049a 96050000 		.4byte	0x596
 789 049e 1B       		.uleb128 0x1b
 790 049f 18020000 		.4byte	.LASF72
 791 04a3 07       		.byte	0x7
 792 04a4 5B02     		.2byte	0x25b
ARM GAS  /var/folders/vd/czx34qs52cd_f3nb04sxmghc0000gn/T//ccrUkQoJ.s 			page 15


 793 04a6 9B000000 		.4byte	0x9b
 794 04aa 00       		.byte	0
 795 04ab 1B       		.uleb128 0x1b
 796 04ac 4B080000 		.4byte	.LASF73
 797 04b0 07       		.byte	0x7
 798 04b1 5C02     		.2byte	0x25c
 799 04b3 F7060000 		.4byte	0x6f7
 800 04b7 04       		.byte	0x4
 801 04b8 1B       		.uleb128 0x1b
 802 04b9 90000000 		.4byte	.LASF74
 803 04bd 07       		.byte	0x7
 804 04be 5D02     		.2byte	0x25d
 805 04c0 33080000 		.4byte	0x833
 806 04c4 08       		.byte	0x8
 807 04c5 1B       		.uleb128 0x1b
 808 04c6 BF010000 		.4byte	.LASF75
 809 04ca 07       		.byte	0x7
 810 04cb 5E02     		.2byte	0x25e
 811 04cd DC010000 		.4byte	0x1dc
 812 04d1 24       		.byte	0x24
 813 04d2 1B       		.uleb128 0x1b
 814 04d3 86050000 		.4byte	.LASF76
 815 04d7 07       		.byte	0x7
 816 04d8 5F02     		.2byte	0x25f
 817 04da 94000000 		.4byte	0x94
 818 04de 48       		.byte	0x48
 819 04df 1B       		.uleb128 0x1b
 820 04e0 4F060000 		.4byte	.LASF77
 821 04e4 07       		.byte	0x7
 822 04e5 6002     		.2byte	0x260
 823 04e7 8D000000 		.4byte	0x8d
 824 04eb 50       		.byte	0x50
 825 04ec 1B       		.uleb128 0x1b
 826 04ed AF080000 		.4byte	.LASF78
 827 04f1 07       		.byte	0x7
 828 04f2 6102     		.2byte	0x261
 829 04f4 EE070000 		.4byte	0x7ee
 830 04f8 58       		.byte	0x58
 831 04f9 1B       		.uleb128 0x1b
 832 04fa 19090000 		.4byte	.LASF79
 833 04fe 07       		.byte	0x7
 834 04ff 6202     		.2byte	0x262
 835 0501 52010000 		.4byte	0x152
 836 0505 68       		.byte	0x68
 837 0506 1B       		.uleb128 0x1b
 838 0507 76070000 		.4byte	.LASF80
 839 050b 07       		.byte	0x7
 840 050c 6302     		.2byte	0x263
 841 050e 52010000 		.4byte	0x152
 842 0512 70       		.byte	0x70
 843 0513 1B       		.uleb128 0x1b
 844 0514 30060000 		.4byte	.LASF81
 845 0518 07       		.byte	0x7
 846 0519 6402     		.2byte	0x264
 847 051b 52010000 		.4byte	0x152
 848 051f 78       		.byte	0x78
 849 0520 1B       		.uleb128 0x1b
ARM GAS  /var/folders/vd/czx34qs52cd_f3nb04sxmghc0000gn/T//ccrUkQoJ.s 			page 16


 850 0521 F2000000 		.4byte	.LASF82
 851 0525 07       		.byte	0x7
 852 0526 6502     		.2byte	0x265
 853 0528 43080000 		.4byte	0x843
 854 052c 80       		.byte	0x80
 855 052d 1B       		.uleb128 0x1b
 856 052e 94040000 		.4byte	.LASF83
 857 0532 07       		.byte	0x7
 858 0533 6602     		.2byte	0x266
 859 0535 53080000 		.4byte	0x853
 860 0539 88       		.byte	0x88
 861 053a 1B       		.uleb128 0x1b
 862 053b 470C0000 		.4byte	.LASF84
 863 053f 07       		.byte	0x7
 864 0540 6702     		.2byte	0x267
 865 0542 94000000 		.4byte	0x94
 866 0546 A0       		.byte	0xa0
 867 0547 1B       		.uleb128 0x1b
 868 0548 80010000 		.4byte	.LASF85
 869 054c 07       		.byte	0x7
 870 054d 6802     		.2byte	0x268
 871 054f 52010000 		.4byte	0x152
 872 0553 A4       		.byte	0xa4
 873 0554 1B       		.uleb128 0x1b
 874 0555 63080000 		.4byte	.LASF86
 875 0559 07       		.byte	0x7
 876 055a 6902     		.2byte	0x269
 877 055c 52010000 		.4byte	0x152
 878 0560 AC       		.byte	0xac
 879 0561 1B       		.uleb128 0x1b
 880 0562 CE0A0000 		.4byte	.LASF87
 881 0566 07       		.byte	0x7
 882 0567 6A02     		.2byte	0x26a
 883 0569 52010000 		.4byte	0x152
 884 056d B4       		.byte	0xb4
 885 056e 1B       		.uleb128 0x1b
 886 056f 04060000 		.4byte	.LASF88
 887 0573 07       		.byte	0x7
 888 0574 6B02     		.2byte	0x26b
 889 0576 52010000 		.4byte	0x152
 890 057a BC       		.byte	0xbc
 891 057b 1B       		.uleb128 0x1b
 892 057c D2000000 		.4byte	.LASF89
 893 0580 07       		.byte	0x7
 894 0581 6C02     		.2byte	0x26c
 895 0583 52010000 		.4byte	0x152
 896 0587 C4       		.byte	0xc4
 897 0588 1B       		.uleb128 0x1b
 898 0589 EE050000 		.4byte	.LASF90
 899 058d 07       		.byte	0x7
 900 058e 6D02     		.2byte	0x26d
 901 0590 94000000 		.4byte	0x94
 902 0594 CC       		.byte	0xcc
 903 0595 00       		.byte	0
 904 0596 1A       		.uleb128 0x1a
 905 0597 F0       		.byte	0xf0
 906 0598 07       		.byte	0x7
ARM GAS  /var/folders/vd/czx34qs52cd_f3nb04sxmghc0000gn/T//ccrUkQoJ.s 			page 17


 907 0599 7302     		.2byte	0x273
 908 059b BA050000 		.4byte	0x5ba
 909 059f 1B       		.uleb128 0x1b
 910 05a0 F8090000 		.4byte	.LASF91
 911 05a4 07       		.byte	0x7
 912 05a5 7502     		.2byte	0x275
 913 05a7 63080000 		.4byte	0x863
 914 05ab 00       		.byte	0
 915 05ac 1B       		.uleb128 0x1b
 916 05ad 7D050000 		.4byte	.LASF92
 917 05b1 07       		.byte	0x7
 918 05b2 7602     		.2byte	0x276
 919 05b4 73080000 		.4byte	0x873
 920 05b8 78       		.byte	0x78
 921 05b9 00       		.byte	0
 922 05ba 1C       		.uleb128 0x1c
 923 05bb 9E020000 		.4byte	.LASF71
 924 05bf 07       		.byte	0x7
 925 05c0 6E02     		.2byte	0x26e
 926 05c2 95040000 		.4byte	0x495
 927 05c6 1C       		.uleb128 0x1c
 928 05c7 C5000000 		.4byte	.LASF93
 929 05cb 07       		.byte	0x7
 930 05cc 7702     		.2byte	0x277
 931 05ce 96050000 		.4byte	0x596
 932 05d2 00       		.byte	0
 933 05d3 1B       		.uleb128 0x1b
 934 05d4 60040000 		.4byte	.LASF94
 935 05d8 07       		.byte	0x7
 936 05d9 3B02     		.2byte	0x23b
 937 05db 94000000 		.4byte	0x94
 938 05df 00       		.byte	0
 939 05e0 1B       		.uleb128 0x1b
 940 05e1 15030000 		.4byte	.LASF95
 941 05e5 07       		.byte	0x7
 942 05e6 4002     		.2byte	0x240
 943 05e8 E8070000 		.4byte	0x7e8
 944 05ec 04       		.byte	0x4
 945 05ed 1B       		.uleb128 0x1b
 946 05ee 19080000 		.4byte	.LASF96
 947 05f2 07       		.byte	0x7
 948 05f3 4002     		.2byte	0x240
 949 05f5 E8070000 		.4byte	0x7e8
 950 05f9 08       		.byte	0x8
 951 05fa 1B       		.uleb128 0x1b
 952 05fb 28060000 		.4byte	.LASF97
 953 05ff 07       		.byte	0x7
 954 0600 4002     		.2byte	0x240
 955 0602 E8070000 		.4byte	0x7e8
 956 0606 0C       		.byte	0xc
 957 0607 1B       		.uleb128 0x1b
 958 0608 A7090000 		.4byte	.LASF98
 959 060c 07       		.byte	0x7
 960 060d 4202     		.2byte	0x242
 961 060f 94000000 		.4byte	0x94
 962 0613 10       		.byte	0x10
 963 0614 1B       		.uleb128 0x1b
ARM GAS  /var/folders/vd/czx34qs52cd_f3nb04sxmghc0000gn/T//ccrUkQoJ.s 			page 18


 964 0615 2C050000 		.4byte	.LASF99
 965 0619 07       		.byte	0x7
 966 061a 4302     		.2byte	0x243
 967 061c 83080000 		.4byte	0x883
 968 0620 14       		.byte	0x14
 969 0621 1B       		.uleb128 0x1b
 970 0622 85020000 		.4byte	.LASF100
 971 0626 07       		.byte	0x7
 972 0627 4602     		.2byte	0x246
 973 0629 94000000 		.4byte	0x94
 974 062d 30       		.byte	0x30
 975 062e 1B       		.uleb128 0x1b
 976 062f 2C0A0000 		.4byte	.LASF101
 977 0633 07       		.byte	0x7
 978 0634 4702     		.2byte	0x247
 979 0636 98080000 		.4byte	0x898
 980 063a 34       		.byte	0x34
 981 063b 1B       		.uleb128 0x1b
 982 063c FE030000 		.4byte	.LASF102
 983 0640 07       		.byte	0x7
 984 0641 4902     		.2byte	0x249
 985 0643 94000000 		.4byte	0x94
 986 0647 38       		.byte	0x38
 987 0648 1B       		.uleb128 0x1b
 988 0649 FB040000 		.4byte	.LASF103
 989 064d 07       		.byte	0x7
 990 064e 4B02     		.2byte	0x24b
 991 0650 A9080000 		.4byte	0x8a9
 992 0654 3C       		.byte	0x3c
 993 0655 1B       		.uleb128 0x1b
 994 0656 750A0000 		.4byte	.LASF104
 995 065a 07       		.byte	0x7
 996 065b 4E02     		.2byte	0x24e
 997 065d C6010000 		.4byte	0x1c6
 998 0661 40       		.byte	0x40
 999 0662 1B       		.uleb128 0x1b
 1000 0663 A3010000 		.4byte	.LASF105
 1001 0667 07       		.byte	0x7
 1002 0668 4F02     		.2byte	0x24f
 1003 066a 94000000 		.4byte	0x94
 1004 066e 44       		.byte	0x44
 1005 066f 1B       		.uleb128 0x1b
 1006 0670 CE030000 		.4byte	.LASF106
 1007 0674 07       		.byte	0x7
 1008 0675 5002     		.2byte	0x250
 1009 0677 C6010000 		.4byte	0x1c6
 1010 067b 48       		.byte	0x48
 1011 067c 1B       		.uleb128 0x1b
 1012 067d 95050000 		.4byte	.LASF107
 1013 0681 07       		.byte	0x7
 1014 0682 5102     		.2byte	0x251
 1015 0684 AF080000 		.4byte	0x8af
 1016 0688 4C       		.byte	0x4c
 1017 0689 1B       		.uleb128 0x1b
 1018 068a 9D000000 		.4byte	.LASF108
 1019 068e 07       		.byte	0x7
 1020 068f 5402     		.2byte	0x254
ARM GAS  /var/folders/vd/czx34qs52cd_f3nb04sxmghc0000gn/T//ccrUkQoJ.s 			page 19


 1021 0691 94000000 		.4byte	0x94
 1022 0695 50       		.byte	0x50
 1023 0696 1B       		.uleb128 0x1b
 1024 0697 A9030000 		.4byte	.LASF109
 1025 069b 07       		.byte	0x7
 1026 069c 5502     		.2byte	0x255
 1027 069e F7060000 		.4byte	0x6f7
 1028 06a2 54       		.byte	0x54
 1029 06a3 1B       		.uleb128 0x1b
 1030 06a4 1D060000 		.4byte	.LASF110
 1031 06a8 07       		.byte	0x7
 1032 06a9 7802     		.2byte	0x278
 1033 06ab 8C040000 		.4byte	0x48c
 1034 06af 58       		.byte	0x58
 1035 06b0 1D       		.uleb128 0x1d
 1036 06b1 7B060000 		.4byte	.LASF48
 1037 06b5 07       		.byte	0x7
 1038 06b6 7C02     		.2byte	0x27c
 1039 06b8 E3020000 		.4byte	0x2e3
 1040 06bc 4801     		.2byte	0x148
 1041 06be 1D       		.uleb128 0x1d
 1042 06bf 05050000 		.4byte	.LASF111
 1043 06c3 07       		.byte	0x7
 1044 06c4 7D02     		.2byte	0x27d
 1045 06c6 A5020000 		.4byte	0x2a5
 1046 06ca 4C01     		.2byte	0x14c
 1047 06cc 1D       		.uleb128 0x1d
 1048 06cd 8E030000 		.4byte	.LASF112
 1049 06d1 07       		.byte	0x7
 1050 06d2 8102     		.2byte	0x281
 1051 06d4 C0080000 		.4byte	0x8c0
 1052 06d8 DC02     		.2byte	0x2dc
 1053 06da 1D       		.uleb128 0x1d
 1054 06db 75050000 		.4byte	.LASF113
 1055 06df 07       		.byte	0x7
 1056 06e0 8602     		.2byte	0x286
 1057 06e2 AD070000 		.4byte	0x7ad
 1058 06e6 E002     		.2byte	0x2e0
 1059 06e8 1D       		.uleb128 0x1d
 1060 06e9 48000000 		.4byte	.LASF114
 1061 06ed 07       		.byte	0x7
 1062 06ee 8802     		.2byte	0x288
 1063 06f0 CC080000 		.4byte	0x8cc
 1064 06f4 EC02     		.2byte	0x2ec
 1065 06f6 00       		.byte	0
 1066 06f7 07       		.uleb128 0x7
 1067 06f8 04       		.byte	0x4
 1068 06f9 FD060000 		.4byte	0x6fd
 1069 06fd 02       		.uleb128 0x2
 1070 06fe 01       		.byte	0x1
 1071 06ff 08       		.byte	0x8
 1072 0700 E9020000 		.4byte	.LASF115
 1073 0704 17       		.uleb128 0x17
 1074 0705 FD060000 		.4byte	0x6fd
 1075 0709 07       		.uleb128 0x7
 1076 070a 04       		.byte	0x4
 1077 070b 55040000 		.4byte	0x455
ARM GAS  /var/folders/vd/czx34qs52cd_f3nb04sxmghc0000gn/T//ccrUkQoJ.s 			page 20


 1078 070f 15       		.uleb128 0x15
 1079 0710 94000000 		.4byte	0x94
 1080 0714 2D070000 		.4byte	0x72d
 1081 0718 16       		.uleb128 0x16
 1082 0719 73040000 		.4byte	0x473
 1083 071d 16       		.uleb128 0x16
 1084 071e B9000000 		.4byte	0xb9
 1085 0722 16       		.uleb128 0x16
 1086 0723 2D070000 		.4byte	0x72d
 1087 0727 16       		.uleb128 0x16
 1088 0728 94000000 		.4byte	0x94
 1089 072c 00       		.byte	0
 1090 072d 07       		.uleb128 0x7
 1091 072e 04       		.byte	0x4
 1092 072f 04070000 		.4byte	0x704
 1093 0733 17       		.uleb128 0x17
 1094 0734 2D070000 		.4byte	0x72d
 1095 0738 1E       		.uleb128 0x1e
 1096 0739 2D070000 		.4byte	0x72d
 1097 073d 07       		.uleb128 0x7
 1098 073e 04       		.byte	0x4
 1099 073f 0F070000 		.4byte	0x70f
 1100 0743 15       		.uleb128 0x15
 1101 0744 E7000000 		.4byte	0xe7
 1102 0748 61070000 		.4byte	0x761
 1103 074c 16       		.uleb128 0x16
 1104 074d 73040000 		.4byte	0x473
 1105 0751 16       		.uleb128 0x16
 1106 0752 B9000000 		.4byte	0xb9
 1107 0756 16       		.uleb128 0x16
 1108 0757 E7000000 		.4byte	0xe7
 1109 075b 16       		.uleb128 0x16
 1110 075c 94000000 		.4byte	0x94
 1111 0760 00       		.byte	0
 1112 0761 07       		.uleb128 0x7
 1113 0762 04       		.byte	0x4
 1114 0763 43070000 		.4byte	0x743
 1115 0767 15       		.uleb128 0x15
 1116 0768 94000000 		.4byte	0x94
 1117 076c 7B070000 		.4byte	0x77b
 1118 0770 16       		.uleb128 0x16
 1119 0771 73040000 		.4byte	0x473
 1120 0775 16       		.uleb128 0x16
 1121 0776 B9000000 		.4byte	0xb9
 1122 077a 00       		.byte	0
 1123 077b 07       		.uleb128 0x7
 1124 077c 04       		.byte	0x4
 1125 077d 67070000 		.4byte	0x767
 1126 0781 0E       		.uleb128 0xe
 1127 0782 37000000 		.4byte	0x37
 1128 0786 91070000 		.4byte	0x791
 1129 078a 0F       		.uleb128 0xf
 1130 078b 9B000000 		.4byte	0x9b
 1131 078f 02       		.byte	0x2
 1132 0790 00       		.byte	0
 1133 0791 0E       		.uleb128 0xe
 1134 0792 37000000 		.4byte	0x37
ARM GAS  /var/folders/vd/czx34qs52cd_f3nb04sxmghc0000gn/T//ccrUkQoJ.s 			page 21


 1135 0796 A1070000 		.4byte	0x7a1
 1136 079a 0F       		.uleb128 0xf
 1137 079b 9B000000 		.4byte	0x9b
 1138 079f 00       		.byte	0
 1139 07a0 00       		.byte	0
 1140 07a1 09       		.uleb128 0x9
 1141 07a2 97080000 		.4byte	.LASF116
 1142 07a6 07       		.byte	0x7
 1143 07a7 1F01     		.2byte	0x11f
 1144 07a9 2B030000 		.4byte	0x32b
 1145 07ad 1F       		.uleb128 0x1f
 1146 07ae AB050000 		.4byte	.LASF117
 1147 07b2 0C       		.byte	0xc
 1148 07b3 07       		.byte	0x7
 1149 07b4 2301     		.2byte	0x123
 1150 07b6 E2070000 		.4byte	0x7e2
 1151 07ba 1B       		.uleb128 0x1b
 1152 07bb D0080000 		.4byte	.LASF28
 1153 07bf 07       		.byte	0x7
 1154 07c0 2501     		.2byte	0x125
 1155 07c2 E2070000 		.4byte	0x7e2
 1156 07c6 00       		.byte	0
 1157 07c7 1B       		.uleb128 0x1b
 1158 07c8 5B050000 		.4byte	.LASF118
 1159 07cc 07       		.byte	0x7
 1160 07cd 2601     		.2byte	0x126
 1161 07cf 94000000 		.4byte	0x94
 1162 07d3 04       		.byte	0x4
 1163 07d4 1B       		.uleb128 0x1b
 1164 07d5 9F050000 		.4byte	.LASF119
 1165 07d9 07       		.byte	0x7
 1166 07da 2701     		.2byte	0x127
 1167 07dc E8070000 		.4byte	0x7e8
 1168 07e0 08       		.byte	0x8
 1169 07e1 00       		.byte	0
 1170 07e2 07       		.uleb128 0x7
 1171 07e3 04       		.byte	0x4
 1172 07e4 AD070000 		.4byte	0x7ad
 1173 07e8 07       		.uleb128 0x7
 1174 07e9 04       		.byte	0x4
 1175 07ea A1070000 		.4byte	0x7a1
 1176 07ee 1F       		.uleb128 0x1f
 1177 07ef 11080000 		.4byte	.LASF120
 1178 07f3 0E       		.byte	0xe
 1179 07f4 07       		.byte	0x7
 1180 07f5 3F01     		.2byte	0x13f
 1181 07f7 23080000 		.4byte	0x823
 1182 07fb 1B       		.uleb128 0x1b
 1183 07fc 0D070000 		.4byte	.LASF121
 1184 0800 07       		.byte	0x7
 1185 0801 4001     		.2byte	0x140
 1186 0803 23080000 		.4byte	0x823
 1187 0807 00       		.byte	0
 1188 0808 1B       		.uleb128 0x1b
 1189 0809 1D010000 		.4byte	.LASF122
 1190 080d 07       		.byte	0x7
 1191 080e 4101     		.2byte	0x141
ARM GAS  /var/folders/vd/czx34qs52cd_f3nb04sxmghc0000gn/T//ccrUkQoJ.s 			page 22


 1192 0810 23080000 		.4byte	0x823
 1193 0814 06       		.byte	0x6
 1194 0815 1B       		.uleb128 0x1b
 1195 0816 960A0000 		.4byte	.LASF123
 1196 081a 07       		.byte	0x7
 1197 081b 4201     		.2byte	0x142
 1198 081d 50000000 		.4byte	0x50
 1199 0821 0C       		.byte	0xc
 1200 0822 00       		.byte	0
 1201 0823 0E       		.uleb128 0xe
 1202 0824 50000000 		.4byte	0x50
 1203 0828 33080000 		.4byte	0x833
 1204 082c 0F       		.uleb128 0xf
 1205 082d 9B000000 		.4byte	0x9b
 1206 0831 02       		.byte	0x2
 1207 0832 00       		.byte	0
 1208 0833 0E       		.uleb128 0xe
 1209 0834 FD060000 		.4byte	0x6fd
 1210 0838 43080000 		.4byte	0x843
 1211 083c 0F       		.uleb128 0xf
 1212 083d 9B000000 		.4byte	0x9b
 1213 0841 19       		.byte	0x19
 1214 0842 00       		.byte	0
 1215 0843 0E       		.uleb128 0xe
 1216 0844 FD060000 		.4byte	0x6fd
 1217 0848 53080000 		.4byte	0x853
 1218 084c 0F       		.uleb128 0xf
 1219 084d 9B000000 		.4byte	0x9b
 1220 0851 07       		.byte	0x7
 1221 0852 00       		.byte	0
 1222 0853 0E       		.uleb128 0xe
 1223 0854 FD060000 		.4byte	0x6fd
 1224 0858 63080000 		.4byte	0x863
 1225 085c 0F       		.uleb128 0xf
 1226 085d 9B000000 		.4byte	0x9b
 1227 0861 17       		.byte	0x17
 1228 0862 00       		.byte	0
 1229 0863 0E       		.uleb128 0xe
 1230 0864 25030000 		.4byte	0x325
 1231 0868 73080000 		.4byte	0x873
 1232 086c 0F       		.uleb128 0xf
 1233 086d 9B000000 		.4byte	0x9b
 1234 0871 1D       		.byte	0x1d
 1235 0872 00       		.byte	0
 1236 0873 0E       		.uleb128 0xe
 1237 0874 9B000000 		.4byte	0x9b
 1238 0878 83080000 		.4byte	0x883
 1239 087c 0F       		.uleb128 0xf
 1240 087d 9B000000 		.4byte	0x9b
 1241 0881 1D       		.byte	0x1d
 1242 0882 00       		.byte	0
 1243 0883 0E       		.uleb128 0xe
 1244 0884 FD060000 		.4byte	0x6fd
 1245 0888 93080000 		.4byte	0x893
 1246 088c 0F       		.uleb128 0xf
 1247 088d 9B000000 		.4byte	0x9b
 1248 0891 18       		.byte	0x18
ARM GAS  /var/folders/vd/czx34qs52cd_f3nb04sxmghc0000gn/T//ccrUkQoJ.s 			page 23


 1249 0892 00       		.byte	0
 1250 0893 08       		.uleb128 0x8
 1251 0894 1F000000 		.4byte	.LASF125
 1252 0898 07       		.uleb128 0x7
 1253 0899 04       		.byte	0x4
 1254 089a 93080000 		.4byte	0x893
 1255 089e 20       		.uleb128 0x20
 1256 089f A9080000 		.4byte	0x8a9
 1257 08a3 16       		.uleb128 0x16
 1258 08a4 73040000 		.4byte	0x473
 1259 08a8 00       		.byte	0
 1260 08a9 07       		.uleb128 0x7
 1261 08aa 04       		.byte	0x4
 1262 08ab 9E080000 		.4byte	0x89e
 1263 08af 07       		.uleb128 0x7
 1264 08b0 04       		.byte	0x4
 1265 08b1 C6010000 		.4byte	0x1c6
 1266 08b5 20       		.uleb128 0x20
 1267 08b6 C0080000 		.4byte	0x8c0
 1268 08ba 16       		.uleb128 0x16
 1269 08bb 94000000 		.4byte	0x94
 1270 08bf 00       		.byte	0
 1271 08c0 07       		.uleb128 0x7
 1272 08c1 04       		.byte	0x4
 1273 08c2 C6080000 		.4byte	0x8c6
 1274 08c6 07       		.uleb128 0x7
 1275 08c7 04       		.byte	0x4
 1276 08c8 B5080000 		.4byte	0x8b5
 1277 08cc 0E       		.uleb128 0xe
 1278 08cd A1070000 		.4byte	0x7a1
 1279 08d1 DC080000 		.4byte	0x8dc
 1280 08d5 0F       		.uleb128 0xf
 1281 08d6 9B000000 		.4byte	0x9b
 1282 08da 02       		.byte	0x2
 1283 08db 00       		.byte	0
 1284 08dc 21       		.uleb128 0x21
 1285 08dd 97010000 		.4byte	.LASF126
 1286 08e1 07       		.byte	0x7
 1287 08e2 0703     		.2byte	0x307
 1288 08e4 73040000 		.4byte	0x473
 1289 08e8 21       		.uleb128 0x21
 1290 08e9 B7020000 		.4byte	.LASF127
 1291 08ed 07       		.byte	0x7
 1292 08ee 0803     		.2byte	0x308
 1293 08f0 79040000 		.4byte	0x479
 1294 08f4 03       		.uleb128 0x3
 1295 08f5 42020000 		.4byte	.LASF128
 1296 08f9 08       		.byte	0x8
 1297 08fa 18       		.byte	0x18
 1298 08fb 2C000000 		.4byte	0x2c
 1299 08ff 17       		.uleb128 0x17
 1300 0900 F4080000 		.4byte	0x8f4
 1301 0904 03       		.uleb128 0x3
 1302 0905 DC070000 		.4byte	.LASF129
 1303 0909 08       		.byte	0x8
 1304 090a 24       		.byte	0x24
 1305 090b 45000000 		.4byte	0x45
ARM GAS  /var/folders/vd/czx34qs52cd_f3nb04sxmghc0000gn/T//ccrUkQoJ.s 			page 24


 1306 090f 03       		.uleb128 0x3
 1307 0910 88000000 		.4byte	.LASF130
 1308 0914 08       		.byte	0x8
 1309 0915 2C       		.byte	0x2c
 1310 0916 57000000 		.4byte	0x57
 1311 091a 1E       		.uleb128 0x1e
 1312 091b 0F090000 		.4byte	0x90f
 1313 091f 03       		.uleb128 0x3
 1314 0920 420A0000 		.4byte	.LASF131
 1315 0924 08       		.byte	0x8
 1316 0925 30       		.byte	0x30
 1317 0926 69000000 		.4byte	0x69
 1318 092a 03       		.uleb128 0x3
 1319 092b 30090000 		.4byte	.LASF132
 1320 092f 08       		.byte	0x8
 1321 0930 3C       		.byte	0x3c
 1322 0931 82000000 		.4byte	0x82
 1323 0935 03       		.uleb128 0x3
 1324 0936 F0030000 		.4byte	.LASF133
 1325 093a 09       		.byte	0x9
 1326 093b BE       		.byte	0xbe
 1327 093c DC000000 		.4byte	0xdc
 1328 0940 0E       		.uleb128 0xe
 1329 0941 33070000 		.4byte	0x733
 1330 0945 4B090000 		.4byte	0x94b
 1331 0949 22       		.uleb128 0x22
 1332 094a 00       		.byte	0
 1333 094b 23       		.uleb128 0x23
 1334 094c 69090000 		.4byte	.LASF134
 1335 0950 0A       		.byte	0xa
 1336 0951 14       		.byte	0x14
 1337 0952 40090000 		.4byte	0x940
 1338 0956 23       		.uleb128 0x23
 1339 0957 70010000 		.4byte	.LASF135
 1340 095b 0A       		.byte	0xa
 1341 095c 15       		.byte	0x15
 1342 095d 94000000 		.4byte	0x94
 1343 0961 03       		.uleb128 0x3
 1344 0962 E1050000 		.4byte	.LASF136
 1345 0966 0B       		.byte	0xb
 1346 0967 39       		.byte	0x39
 1347 0968 1F090000 		.4byte	0x91f
 1348 096c 03       		.uleb128 0x3
 1349 096d ED080000 		.4byte	.LASF137
 1350 0971 0B       		.byte	0xb
 1351 0972 3C       		.byte	0x3c
 1352 0973 F4080000 		.4byte	0x8f4
 1353 0977 03       		.uleb128 0x3
 1354 0978 CE010000 		.4byte	.LASF138
 1355 097c 0B       		.byte	0xb
 1356 097d 3D       		.byte	0x3d
 1357 097e F4080000 		.4byte	0x8f4
 1358 0982 03       		.uleb128 0x3
 1359 0983 F0090000 		.4byte	.LASF139
 1360 0987 0B       		.byte	0xb
 1361 0988 3E       		.byte	0x3e
 1362 0989 F4080000 		.4byte	0x8f4
ARM GAS  /var/folders/vd/czx34qs52cd_f3nb04sxmghc0000gn/T//ccrUkQoJ.s 			page 25


 1363 098d 03       		.uleb128 0x3
 1364 098e 59000000 		.4byte	.LASF140
 1365 0992 0B       		.byte	0xb
 1366 0993 40       		.byte	0x40
 1367 0994 1F090000 		.4byte	0x91f
 1368 0998 03       		.uleb128 0x3
 1369 0999 FA070000 		.4byte	.LASF141
 1370 099d 0B       		.byte	0xb
 1371 099e 41       		.byte	0x41
 1372 099f 0F090000 		.4byte	0x90f
 1373 09a3 03       		.uleb128 0x3
 1374 09a4 4A020000 		.4byte	.LASF142
 1375 09a8 0B       		.byte	0xb
 1376 09a9 43       		.byte	0x43
 1377 09aa 1F090000 		.4byte	0x91f
 1378 09ae 03       		.uleb128 0x3
 1379 09af 5F030000 		.4byte	.LASF143
 1380 09b3 0B       		.byte	0xb
 1381 09b4 45       		.byte	0x45
 1382 09b5 0F090000 		.4byte	0x90f
 1383 09b9 03       		.uleb128 0x3
 1384 09ba A9040000 		.4byte	.LASF144
 1385 09be 0B       		.byte	0xb
 1386 09bf 46       		.byte	0x46
 1387 09c0 1F090000 		.4byte	0x91f
 1388 09c4 03       		.uleb128 0x3
 1389 09c5 AF060000 		.4byte	.LASF145
 1390 09c9 0C       		.byte	0xc
 1391 09ca 34       		.byte	0x34
 1392 09cb CF090000 		.4byte	0x9cf
 1393 09cf 10       		.uleb128 0x10
 1394 09d0 2E040000 		.4byte	.LASF146
 1395 09d4 44       		.byte	0x44
 1396 09d5 0D       		.byte	0xd
 1397 09d6 8E       		.byte	0x8e
 1398 09d7 0F0B0000 		.4byte	0xb0f
 1399 09db 0B       		.uleb128 0xb
 1400 09dc 04       		.byte	0x4
 1401 09dd 0D       		.byte	0xd
 1402 09de C6       		.byte	0xc6
 1403 09df 3D0A0000 		.4byte	0xa3d
 1404 09e3 0C       		.uleb128 0xc
 1405 09e4 8F0A0000 		.4byte	.LASF147
 1406 09e8 0D       		.byte	0xd
 1407 09e9 CD       		.byte	0xcd
 1408 09ea 98090000 		.4byte	0x998
 1409 09ee 0C       		.uleb128 0xc
 1410 09ef 41010000 		.4byte	.LASF148
 1411 09f3 0D       		.byte	0xd
 1412 09f4 D4       		.byte	0xd4
 1413 09f5 98090000 		.4byte	0x998
 1414 09f9 0C       		.uleb128 0xc
 1415 09fa 0E030000 		.4byte	.LASF149
 1416 09fe 0D       		.byte	0xd
 1417 09ff DB       		.byte	0xdb
 1418 0a00 B9000000 		.4byte	0xb9
 1419 0a04 0C       		.uleb128 0xc
ARM GAS  /var/folders/vd/czx34qs52cd_f3nb04sxmghc0000gn/T//ccrUkQoJ.s 			page 26


 1420 0a05 56020000 		.4byte	.LASF150
 1421 0a09 0D       		.byte	0xd
 1422 0a0a E2       		.byte	0xe2
 1423 0a0b D90E0000 		.4byte	0xed9
 1424 0a0f 0C       		.uleb128 0xc
 1425 0a10 D9060000 		.4byte	.LASF151
 1426 0a14 0D       		.byte	0xd
 1427 0a15 E7       		.byte	0xe7
 1428 0a16 98090000 		.4byte	0x998
 1429 0a1a 0C       		.uleb128 0xc
 1430 0a1b 540C0000 		.4byte	.LASF152
 1431 0a1f 0D       		.byte	0xd
 1432 0a20 F0       		.byte	0xf0
 1433 0a21 040F0000 		.4byte	0xf04
 1434 0a25 0C       		.uleb128 0xc
 1435 0a26 6D030000 		.4byte	.LASF153
 1436 0a2a 0D       		.byte	0xd
 1437 0a2b F9       		.byte	0xf9
 1438 0a2c 3B0F0000 		.4byte	0xf3b
 1439 0a30 1C       		.uleb128 0x1c
 1440 0a31 3B020000 		.4byte	.LASF154
 1441 0a35 0D       		.byte	0xd
 1442 0a36 0101     		.2byte	0x101
 1443 0a38 A3090000 		.4byte	0x9a3
 1444 0a3c 00       		.byte	0
 1445 0a3d 0D       		.uleb128 0xd
 1446 0a3e 3E080000 		.4byte	.LASF155
 1447 0a42 0D       		.byte	0xd
 1448 0a43 8F       		.byte	0x8f
 1449 0a44 440B0000 		.4byte	0xb44
 1450 0a48 00       		.byte	0
 1451 0a49 0D       		.uleb128 0xd
 1452 0a4a 36010000 		.4byte	.LASF156
 1453 0a4e 0D       		.byte	0xd
 1454 0a4f 90       		.byte	0x90
 1455 0a50 8D090000 		.4byte	0x98d
 1456 0a54 08       		.byte	0x8
 1457 0a55 11       		.uleb128 0x11
 1458 0a56 63747800 		.ascii	"ctx\000"
 1459 0a5a 0D       		.byte	0xd
 1460 0a5b 91       		.byte	0x91
 1461 0a5c 1B0E0000 		.4byte	0xe1b
 1462 0a60 0C       		.byte	0xc
 1463 0a61 0D       		.uleb128 0xd
 1464 0a62 3C0A0000 		.4byte	.LASF157
 1465 0a66 0D       		.byte	0xd
 1466 0a67 93       		.byte	0x93
 1467 0a68 1A0B0000 		.4byte	0xb1a
 1468 0a6c 10       		.byte	0x10
 1469 0a6d 0D       		.uleb128 0xd
 1470 0a6e 8E040000 		.4byte	.LASF158
 1471 0a72 0D       		.byte	0xd
 1472 0a73 94       		.byte	0x94
 1473 0a74 1A0B0000 		.4byte	0xb1a
 1474 0a78 14       		.byte	0x14
 1475 0a79 0D       		.uleb128 0xd
 1476 0a7a 06090000 		.4byte	.LASF159
ARM GAS  /var/folders/vd/czx34qs52cd_f3nb04sxmghc0000gn/T//ccrUkQoJ.s 			page 27


 1477 0a7e 0D       		.byte	0xd
 1478 0a7f 9B       		.byte	0x9b
 1479 0a80 2D070000 		.4byte	0x72d
 1480 0a84 18       		.byte	0x18
 1481 0a85 0D       		.uleb128 0xd
 1482 0a86 B4080000 		.4byte	.LASF160
 1483 0a8a 0D       		.byte	0xd
 1484 0a8b A4       		.byte	0xa4
 1485 0a8c 410F0000 		.4byte	0xf41
 1486 0a90 1C       		.byte	0x1c
 1487 0a91 0D       		.uleb128 0xd
 1488 0a92 11010000 		.4byte	.LASF161
 1489 0a96 0D       		.byte	0xd
 1490 0a97 A9       		.byte	0xa9
 1491 0a98 77090000 		.4byte	0x977
 1492 0a9c 20       		.byte	0x20
 1493 0a9d 0D       		.uleb128 0xd
 1494 0a9e 25030000 		.4byte	.LASF162
 1495 0aa2 0D       		.byte	0xd
 1496 0aa3 AD       		.byte	0xad
 1497 0aa4 6C090000 		.4byte	0x96c
 1498 0aa8 21       		.byte	0x21
 1499 0aa9 0D       		.uleb128 0xd
 1500 0aaa E9050000 		.4byte	.LASF163
 1501 0aae 0D       		.byte	0xd
 1502 0aaf B2       		.byte	0xb2
 1503 0ab0 82090000 		.4byte	0x982
 1504 0ab4 22       		.byte	0x22
 1505 0ab5 24       		.uleb128 0x24
 1506 0ab6 7500     		.ascii	"u\000"
 1507 0ab8 0D       		.byte	0xd
 1508 0ab9 0301     		.2byte	0x103
 1509 0abb DB090000 		.4byte	0x9db
 1510 0abf 24       		.byte	0x24
 1511 0ac0 1B       		.uleb128 0x1b
 1512 0ac1 B1090000 		.4byte	.LASF164
 1513 0ac5 0D       		.byte	0xd
 1514 0ac6 0801     		.2byte	0x108
 1515 0ac8 200B0000 		.4byte	0xb20
 1516 0acc 28       		.byte	0x28
 1517 0acd 1B       		.uleb128 0x1b
 1518 0ace 47090000 		.4byte	.LASF165
 1519 0ad2 0D       		.byte	0xd
 1520 0ad3 0E01     		.2byte	0x10e
 1521 0ad5 440B0000 		.4byte	0xb44
 1522 0ad9 2C       		.byte	0x2c
 1523 0ada 1B       		.uleb128 0x1b
 1524 0adb D7010000 		.4byte	.LASF166
 1525 0adf 0D       		.byte	0xd
 1526 0ae0 1401     		.2byte	0x114
 1527 0ae2 A3090000 		.4byte	0x9a3
 1528 0ae6 34       		.byte	0x34
 1529 0ae7 1B       		.uleb128 0x1b
 1530 0ae8 37050000 		.4byte	.LASF167
 1531 0aec 0D       		.byte	0xd
 1532 0aed 1B01     		.2byte	0x11b
 1533 0aef 3B0F0000 		.4byte	0xf3b
ARM GAS  /var/folders/vd/czx34qs52cd_f3nb04sxmghc0000gn/T//ccrUkQoJ.s 			page 28


 1534 0af3 38       		.byte	0x38
 1535 0af4 1B       		.uleb128 0x1b
 1536 0af5 A0040000 		.4byte	.LASF168
 1537 0af9 0D       		.byte	0xd
 1538 0afa 1F01     		.2byte	0x11f
 1539 0afc 8D090000 		.4byte	0x98d
 1540 0b00 3C       		.byte	0x3c
 1541 0b01 1B       		.uleb128 0x1b
 1542 0b02 48030000 		.4byte	.LASF169
 1543 0b06 0D       		.byte	0xd
 1544 0b07 2601     		.2byte	0x126
 1545 0b09 B9000000 		.4byte	0xb9
 1546 0b0d 40       		.byte	0x40
 1547 0b0e 00       		.byte	0
 1548 0b0f 03       		.uleb128 0x3
 1549 0b10 68060000 		.4byte	.LASF170
 1550 0b14 0C       		.byte	0xc
 1551 0b15 39       		.byte	0x39
 1552 0b16 1A0B0000 		.4byte	0xb1a
 1553 0b1a 07       		.uleb128 0x7
 1554 0b1b 04       		.byte	0x4
 1555 0b1c C4090000 		.4byte	0x9c4
 1556 0b20 03       		.uleb128 0x3
 1557 0b21 0C0A0000 		.4byte	.LASF171
 1558 0b25 0C       		.byte	0xc
 1559 0b26 3E       		.byte	0x3e
 1560 0b27 2B0B0000 		.4byte	0xb2b
 1561 0b2b 10       		.uleb128 0x10
 1562 0b2c D7040000 		.4byte	.LASF172
 1563 0b30 04       		.byte	0x4
 1564 0b31 0D       		.byte	0xd
 1565 0b32 7C       		.byte	0x7c
 1566 0b33 440B0000 		.4byte	0xb44
 1567 0b37 0D       		.uleb128 0xd
 1568 0b38 1F0B0000 		.4byte	.LASF173
 1569 0b3c 0D       		.byte	0xd
 1570 0b3d 7D       		.byte	0x7d
 1571 0b3e 1A0B0000 		.4byte	0xb1a
 1572 0b42 00       		.byte	0
 1573 0b43 00       		.byte	0
 1574 0b44 03       		.uleb128 0x3
 1575 0b45 E0010000 		.4byte	.LASF174
 1576 0b49 0C       		.byte	0xc
 1577 0b4a 45       		.byte	0x45
 1578 0b4b 4F0B0000 		.4byte	0xb4f
 1579 0b4f 10       		.uleb128 0x10
 1580 0b50 00080000 		.4byte	.LASF175
 1581 0b54 08       		.byte	0x8
 1582 0b55 0D       		.byte	0xd
 1583 0b56 83       		.byte	0x83
 1584 0b57 740B0000 		.4byte	0xb74
 1585 0b5b 0D       		.uleb128 0xd
 1586 0b5c 1F0B0000 		.4byte	.LASF173
 1587 0b60 0D       		.byte	0xd
 1588 0b61 84       		.byte	0x84
 1589 0b62 1A0B0000 		.4byte	0xb1a
 1590 0b66 00       		.byte	0
ARM GAS  /var/folders/vd/czx34qs52cd_f3nb04sxmghc0000gn/T//ccrUkQoJ.s 			page 29


 1591 0b67 0D       		.uleb128 0xd
 1592 0b68 DF0A0000 		.4byte	.LASF176
 1593 0b6c 0D       		.byte	0xd
 1594 0b6d 85       		.byte	0x85
 1595 0b6e 1A0B0000 		.4byte	0xb1a
 1596 0b72 04       		.byte	0x4
 1597 0b73 00       		.byte	0
 1598 0b74 03       		.uleb128 0x3
 1599 0b75 81040000 		.4byte	.LASF177
 1600 0b79 0C       		.byte	0xc
 1601 0b7a 4C       		.byte	0x4c
 1602 0b7b 7F0B0000 		.4byte	0xb7f
 1603 0b7f 1F       		.uleb128 0x1f
 1604 0b80 79030000 		.4byte	.LASF178
 1605 0b84 1C       		.byte	0x1c
 1606 0b85 0D       		.byte	0xd
 1607 0b86 5E01     		.2byte	0x15e
 1608 0b88 DB0B0000 		.4byte	0xbdb
 1609 0b8c 1B       		.uleb128 0x1b
 1610 0b8d 3E080000 		.4byte	.LASF155
 1611 0b91 0D       		.byte	0xd
 1612 0b92 5F01     		.2byte	0x15f
 1613 0b94 440B0000 		.4byte	0xb44
 1614 0b98 00       		.byte	0
 1615 0b99 1B       		.uleb128 0x1b
 1616 0b9a 36010000 		.4byte	.LASF156
 1617 0b9e 0D       		.byte	0xd
 1618 0b9f 6001     		.2byte	0x160
 1619 0ba1 8D090000 		.4byte	0x98d
 1620 0ba5 08       		.byte	0x8
 1621 0ba6 24       		.uleb128 0x24
 1622 0ba7 63747800 		.ascii	"ctx\000"
 1623 0bab 0D       		.byte	0xd
 1624 0bac 6201     		.2byte	0x162
 1625 0bae 1B0E0000 		.4byte	0xe1b
 1626 0bb2 0C       		.byte	0xc
 1627 0bb3 1B       		.uleb128 0x1b
 1628 0bb4 3C0A0000 		.4byte	.LASF157
 1629 0bb8 0D       		.byte	0xd
 1630 0bb9 6501     		.2byte	0x165
 1631 0bbb 1A0B0000 		.4byte	0xb1a
 1632 0bbf 10       		.byte	0x10
 1633 0bc0 1B       		.uleb128 0x1b
 1634 0bc1 8E040000 		.4byte	.LASF158
 1635 0bc5 0D       		.byte	0xd
 1636 0bc6 6601     		.2byte	0x166
 1637 0bc8 1A0B0000 		.4byte	0xb1a
 1638 0bcc 14       		.byte	0x14
 1639 0bcd 1B       		.uleb128 0x1b
 1640 0bce 47060000 		.4byte	.LASF179
 1641 0bd2 0D       		.byte	0xd
 1642 0bd3 6901     		.2byte	0x169
 1643 0bd5 1A0B0000 		.4byte	0xb1a
 1644 0bd9 18       		.byte	0x18
 1645 0bda 00       		.byte	0
 1646 0bdb 03       		.uleb128 0x3
 1647 0bdc A5000000 		.4byte	.LASF180
ARM GAS  /var/folders/vd/czx34qs52cd_f3nb04sxmghc0000gn/T//ccrUkQoJ.s 			page 30


 1648 0be0 0C       		.byte	0xc
 1649 0be1 51       		.byte	0x51
 1650 0be2 E60B0000 		.4byte	0xbe6
 1651 0be6 07       		.uleb128 0x7
 1652 0be7 04       		.byte	0x4
 1653 0be8 EC0B0000 		.4byte	0xbec
 1654 0bec 20       		.uleb128 0x20
 1655 0bed F70B0000 		.4byte	0xbf7
 1656 0bf1 16       		.uleb128 0x16
 1657 0bf2 B9000000 		.4byte	0xb9
 1658 0bf6 00       		.byte	0
 1659 0bf7 03       		.uleb128 0x3
 1660 0bf8 71040000 		.4byte	.LASF181
 1661 0bfc 0C       		.byte	0xc
 1662 0bfd 56       		.byte	0x56
 1663 0bfe 020C0000 		.4byte	0xc02
 1664 0c02 1F       		.uleb128 0x1f
 1665 0c03 52070000 		.4byte	.LASF182
 1666 0c07 14       		.byte	0x14
 1667 0c08 0D       		.byte	0xd
 1668 0c09 3901     		.2byte	0x139
 1669 0c0b 510C0000 		.4byte	0xc51
 1670 0c0f 1B       		.uleb128 0x1b
 1671 0c10 1F0B0000 		.4byte	.LASF173
 1672 0c14 0D       		.byte	0xd
 1673 0c15 3A01     		.2byte	0x13a
 1674 0c17 470F0000 		.4byte	0xf47
 1675 0c1b 00       		.byte	0
 1676 0c1c 1B       		.uleb128 0x1b
 1677 0c1d DF0A0000 		.4byte	.LASF176
 1678 0c21 0D       		.byte	0xd
 1679 0c22 3B01     		.2byte	0x13b
 1680 0c24 470F0000 		.4byte	0xf47
 1681 0c28 04       		.byte	0x4
 1682 0c29 1B       		.uleb128 0x1b
 1683 0c2a 21080000 		.4byte	.LASF183
 1684 0c2e 0D       		.byte	0xd
 1685 0c2f 3C01     		.2byte	0x13c
 1686 0c31 280D0000 		.4byte	0xd28
 1687 0c35 08       		.byte	0x8
 1688 0c36 1B       		.uleb128 0x1b
 1689 0c37 39090000 		.4byte	.LASF184
 1690 0c3b 0D       		.byte	0xd
 1691 0c3c 3D01     		.2byte	0x13d
 1692 0c3e DB0B0000 		.4byte	0xbdb
 1693 0c42 0C       		.byte	0xc
 1694 0c43 24       		.uleb128 0x24
 1695 0c44 70617200 		.ascii	"par\000"
 1696 0c48 0D       		.byte	0xd
 1697 0c49 3F01     		.2byte	0x13f
 1698 0c4b B9000000 		.4byte	0xb9
 1699 0c4f 10       		.byte	0x10
 1700 0c50 00       		.byte	0
 1701 0c51 03       		.uleb128 0x3
 1702 0c52 38040000 		.4byte	.LASF185
 1703 0c56 0C       		.byte	0xc
 1704 0c57 5B       		.byte	0x5b
ARM GAS  /var/folders/vd/czx34qs52cd_f3nb04sxmghc0000gn/T//ccrUkQoJ.s 			page 31


 1705 0c58 5C0C0000 		.4byte	0xc5c
 1706 0c5c 1F       		.uleb128 0x1f
 1707 0c5d AE000000 		.4byte	.LASF186
 1708 0c61 10       		.byte	0x10
 1709 0c62 0D       		.byte	0xd
 1710 0c63 4901     		.2byte	0x149
 1711 0c65 9E0C0000 		.4byte	0xc9e
 1712 0c69 1B       		.uleb128 0x1b
 1713 0c6a 1F0B0000 		.4byte	.LASF173
 1714 0c6e 0D       		.byte	0xd
 1715 0c6f 4A01     		.2byte	0x14a
 1716 0c71 470F0000 		.4byte	0xf47
 1717 0c75 00       		.byte	0
 1718 0c76 1B       		.uleb128 0x1b
 1719 0c77 DF0A0000 		.4byte	.LASF176
 1720 0c7b 0D       		.byte	0xd
 1721 0c7c 4C01     		.2byte	0x14c
 1722 0c7e 470F0000 		.4byte	0xf47
 1723 0c82 04       		.byte	0x4
 1724 0c83 1B       		.uleb128 0x1b
 1725 0c84 21080000 		.4byte	.LASF183
 1726 0c88 0D       		.byte	0xd
 1727 0c89 4E01     		.2byte	0x14e
 1728 0c8b 280D0000 		.4byte	0xd28
 1729 0c8f 08       		.byte	0x8
 1730 0c90 1B       		.uleb128 0x1b
 1731 0c91 6A020000 		.4byte	.LASF187
 1732 0c95 0D       		.byte	0xd
 1733 0c96 5601     		.2byte	0x156
 1734 0c98 1D0D0000 		.4byte	0xd1d
 1735 0c9c 0C       		.byte	0xc
 1736 0c9d 00       		.byte	0
 1737 0c9e 03       		.uleb128 0x3
 1738 0c9f CA020000 		.4byte	.LASF188
 1739 0ca3 0C       		.byte	0xc
 1740 0ca4 60       		.byte	0x60
 1741 0ca5 A90C0000 		.4byte	0xca9
 1742 0ca9 1F       		.uleb128 0x1f
 1743 0caa 59090000 		.4byte	.LASF189
 1744 0cae 04       		.byte	0x4
 1745 0caf 0D       		.byte	0xd
 1746 0cb0 7001     		.2byte	0x170
 1747 0cb2 C40C0000 		.4byte	0xcc4
 1748 0cb6 1B       		.uleb128 0x1b
 1749 0cb7 7B020000 		.4byte	.LASF190
 1750 0cbb 0D       		.byte	0xd
 1751 0cbc 7801     		.2byte	0x178
 1752 0cbe 38070000 		.4byte	0x738
 1753 0cc2 00       		.byte	0
 1754 0cc3 00       		.byte	0
 1755 0cc4 03       		.uleb128 0x3
 1756 0cc5 B80A0000 		.4byte	.LASF191
 1757 0cc9 0C       		.byte	0xc
 1758 0cca 65       		.byte	0x65
 1759 0ccb CF0C0000 		.4byte	0xccf
 1760 0ccf 1F       		.uleb128 0x1f
 1761 0cd0 220A0000 		.4byte	.LASF192
ARM GAS  /var/folders/vd/czx34qs52cd_f3nb04sxmghc0000gn/T//ccrUkQoJ.s 			page 32


 1762 0cd4 78       		.byte	0x78
 1763 0cd5 0D       		.byte	0xd
 1764 0cd6 9001     		.2byte	0x190
 1765 0cd8 1D0D0000 		.4byte	0xd1d
 1766 0cdc 1B       		.uleb128 0x1b
 1767 0cdd E7080000 		.4byte	.LASF193
 1768 0ce1 0D       		.byte	0xd
 1769 0ce2 9401     		.2byte	0x194
 1770 0ce4 740B0000 		.4byte	0xb74
 1771 0ce8 00       		.byte	0
 1772 0ce9 1B       		.uleb128 0x1b
 1773 0cea A0090000 		.4byte	.LASF194
 1774 0cee 0D       		.byte	0xd
 1775 0cef 9801     		.2byte	0x198
 1776 0cf1 510C0000 		.4byte	0xc51
 1777 0cf5 1C       		.byte	0x1c
 1778 0cf6 24       		.uleb128 0x24
 1779 0cf7 64626700 		.ascii	"dbg\000"
 1780 0cfb 0D       		.byte	0xd
 1781 0cfc 9C01     		.2byte	0x19c
 1782 0cfe 9E0C0000 		.4byte	0xc9e
 1783 0d02 2C       		.byte	0x2c
 1784 0d03 1B       		.uleb128 0x1b
 1785 0d04 7B080000 		.4byte	.LASF195
 1786 0d08 0D       		.byte	0xd
 1787 0d09 A001     		.2byte	0x1a0
 1788 0d0b C4090000 		.4byte	0x9c4
 1789 0d0f 30       		.byte	0x30
 1790 0d10 24       		.uleb128 0x24
 1791 0d11 746D00   		.ascii	"tm\000"
 1792 0d14 0D       		.byte	0xd
 1793 0d15 A501     		.2byte	0x1a5
 1794 0d17 CE0E0000 		.4byte	0xece
 1795 0d1b 74       		.byte	0x74
 1796 0d1c 00       		.byte	0
 1797 0d1d 03       		.uleb128 0x3
 1798 0d1e 32000000 		.4byte	.LASF196
 1799 0d22 0E       		.byte	0xe
 1800 0d23 8C       		.byte	0x8c
 1801 0d24 1F090000 		.4byte	0x91f
 1802 0d28 03       		.uleb128 0x3
 1803 0d29 4D050000 		.4byte	.LASF197
 1804 0d2d 0E       		.byte	0xe
 1805 0d2e 98       		.byte	0x98
 1806 0d2f 1F090000 		.4byte	0x91f
 1807 0d33 21       		.uleb128 0x21
 1808 0d34 B1050000 		.4byte	.LASF198
 1809 0d38 0F       		.byte	0xf
 1810 0d39 F407     		.2byte	0x7f4
 1811 0d3b 1A090000 		.4byte	0x91a
 1812 0d3f 23       		.uleb128 0x23
 1813 0d40 11040000 		.4byte	.LASF199
 1814 0d44 10       		.byte	0x10
 1815 0d45 4C       		.byte	0x4c
 1816 0d46 1F090000 		.4byte	0x91f
 1817 0d4a 0E       		.uleb128 0xe
 1818 0d4b FF080000 		.4byte	0x8ff
ARM GAS  /var/folders/vd/czx34qs52cd_f3nb04sxmghc0000gn/T//ccrUkQoJ.s 			page 33


 1819 0d4f 5A0D0000 		.4byte	0xd5a
 1820 0d53 0F       		.uleb128 0xf
 1821 0d54 9B000000 		.4byte	0x9b
 1822 0d58 0F       		.byte	0xf
 1823 0d59 00       		.byte	0
 1824 0d5a 17       		.uleb128 0x17
 1825 0d5b 4A0D0000 		.4byte	0xd4a
 1826 0d5f 23       		.uleb128 0x23
 1827 0d60 44070000 		.4byte	.LASF200
 1828 0d64 10       		.byte	0x10
 1829 0d65 4E       		.byte	0x4e
 1830 0d66 5A0D0000 		.4byte	0xd5a
 1831 0d6a 0E       		.uleb128 0xe
 1832 0d6b FF080000 		.4byte	0x8ff
 1833 0d6f 7A0D0000 		.4byte	0xd7a
 1834 0d73 0F       		.uleb128 0xf
 1835 0d74 9B000000 		.4byte	0x9b
 1836 0d78 07       		.byte	0x7
 1837 0d79 00       		.byte	0
 1838 0d7a 17       		.uleb128 0x17
 1839 0d7b 6A0D0000 		.4byte	0xd6a
 1840 0d7f 23       		.uleb128 0x23
 1841 0d80 0B090000 		.4byte	.LASF201
 1842 0d84 10       		.byte	0x10
 1843 0d85 4F       		.byte	0x4f
 1844 0d86 7A0D0000 		.4byte	0xd7a
 1845 0d8a 25       		.uleb128 0x25
 1846 0d8b 07       		.byte	0x7
 1847 0d8c 01       		.byte	0x1
 1848 0d8d 37000000 		.4byte	0x37
 1849 0d91 11       		.byte	0x11
 1850 0d92 CC       		.byte	0xcc
 1851 0d93 F9010000 		.4byte	.LASF204
 1852 0d97 A80D0000 		.4byte	0xda8
 1853 0d9b 26       		.uleb128 0x26
 1854 0d9c 9E080000 		.4byte	.LASF202
 1855 0da0 00       		.byte	0
 1856 0da1 27       		.uleb128 0x27
 1857 0da2 53455400 		.ascii	"SET\000"
 1858 0da6 01       		.byte	0x1
 1859 0da7 00       		.byte	0
 1860 0da8 03       		.uleb128 0x3
 1861 0da9 DC080000 		.4byte	.LASF203
 1862 0dad 11       		.byte	0x11
 1863 0dae CF       		.byte	0xcf
 1864 0daf 8A0D0000 		.4byte	0xd8a
 1865 0db3 25       		.uleb128 0x25
 1866 0db4 07       		.byte	0x7
 1867 0db5 01       		.byte	0x1
 1868 0db6 37000000 		.4byte	0x37
 1869 0dba 11       		.byte	0x11
 1870 0dbb D2       		.byte	0xd2
 1871 0dbc A5020000 		.4byte	.LASF205
 1872 0dc0 D10D0000 		.4byte	0xdd1
 1873 0dc4 26       		.uleb128 0x26
 1874 0dc5 A7060000 		.4byte	.LASF206
 1875 0dc9 00       		.byte	0
ARM GAS  /var/folders/vd/czx34qs52cd_f3nb04sxmghc0000gn/T//ccrUkQoJ.s 			page 34


 1876 0dca 26       		.uleb128 0x26
 1877 0dcb 13070000 		.4byte	.LASF207
 1878 0dcf 01       		.byte	0x1
 1879 0dd0 00       		.byte	0
 1880 0dd1 03       		.uleb128 0x3
 1881 0dd2 B0070000 		.4byte	.LASF208
 1882 0dd6 11       		.byte	0x11
 1883 0dd7 D5       		.byte	0xd5
 1884 0dd8 B30D0000 		.4byte	0xdb3
 1885 0ddc 25       		.uleb128 0x25
 1886 0ddd 07       		.byte	0x7
 1887 0dde 01       		.byte	0x1
 1888 0ddf 37000000 		.4byte	0x37
 1889 0de3 11       		.byte	0x11
 1890 0de4 D9       		.byte	0xd9
 1891 0de5 6A000000 		.4byte	.LASF209
 1892 0de9 FA0D0000 		.4byte	0xdfa
 1893 0ded 26       		.uleb128 0x26
 1894 0dee B0040000 		.4byte	.LASF210
 1895 0df2 00       		.byte	0
 1896 0df3 26       		.uleb128 0x26
 1897 0df4 36080000 		.4byte	.LASF211
 1898 0df8 01       		.byte	0x1
 1899 0df9 00       		.byte	0
 1900 0dfa 03       		.uleb128 0x3
 1901 0dfb 29070000 		.4byte	.LASF212
 1902 0dff 11       		.byte	0x11
 1903 0e00 DC       		.byte	0xdc
 1904 0e01 DC0D0000 		.4byte	0xddc
 1905 0e05 03       		.uleb128 0x3
 1906 0e06 F0010000 		.4byte	.LASF213
 1907 0e0a 12       		.byte	0x12
 1908 0e0b 65       		.byte	0x65
 1909 0e0c B9000000 		.4byte	0xb9
 1910 0e10 03       		.uleb128 0x3
 1911 0e11 3D030000 		.4byte	.LASF214
 1912 0e15 12       		.byte	0x12
 1913 0e16 6D       		.byte	0x6d
 1914 0e17 2A090000 		.4byte	0x92a
 1915 0e1b 10       		.uleb128 0x10
 1916 0e1c FF090000 		.4byte	.LASF215
 1917 0e20 04       		.byte	0x4
 1918 0e21 12       		.byte	0x12
 1919 0e22 89       		.byte	0x89
 1920 0e23 330E0000 		.4byte	0xe33
 1921 0e27 11       		.uleb128 0x11
 1922 0e28 737000   		.ascii	"sp\000"
 1923 0e2b 12       		.byte	0x12
 1924 0e2c 8A       		.byte	0x8a
 1925 0e2d AF0E0000 		.4byte	0xeaf
 1926 0e31 00       		.byte	0
 1927 0e32 00       		.byte	0
 1928 0e33 1F       		.uleb128 0x1f
 1929 0e34 E1060000 		.4byte	.LASF216
 1930 0e38 24       		.byte	0x24
 1931 0e39 13       		.byte	0x13
 1932 0e3a 5901     		.2byte	0x159
ARM GAS  /var/folders/vd/czx34qs52cd_f3nb04sxmghc0000gn/T//ccrUkQoJ.s 			page 35


 1933 0e3c AF0E0000 		.4byte	0xeaf
 1934 0e40 24       		.uleb128 0x24
 1935 0e41 723400   		.ascii	"r4\000"
 1936 0e44 13       		.byte	0x13
 1937 0e45 6C01     		.2byte	0x16c
 1938 0e47 050E0000 		.4byte	0xe05
 1939 0e4b 00       		.byte	0
 1940 0e4c 24       		.uleb128 0x24
 1941 0e4d 723500   		.ascii	"r5\000"
 1942 0e50 13       		.byte	0x13
 1943 0e51 6D01     		.2byte	0x16d
 1944 0e53 050E0000 		.4byte	0xe05
 1945 0e57 04       		.byte	0x4
 1946 0e58 24       		.uleb128 0x24
 1947 0e59 723600   		.ascii	"r6\000"
 1948 0e5c 13       		.byte	0x13
 1949 0e5d 6E01     		.2byte	0x16e
 1950 0e5f 050E0000 		.4byte	0xe05
 1951 0e63 08       		.byte	0x8
 1952 0e64 24       		.uleb128 0x24
 1953 0e65 723700   		.ascii	"r7\000"
 1954 0e68 13       		.byte	0x13
 1955 0e69 6F01     		.2byte	0x16f
 1956 0e6b 050E0000 		.4byte	0xe05
 1957 0e6f 0C       		.byte	0xc
 1958 0e70 24       		.uleb128 0x24
 1959 0e71 723800   		.ascii	"r8\000"
 1960 0e74 13       		.byte	0x13
 1961 0e75 7001     		.2byte	0x170
 1962 0e77 050E0000 		.4byte	0xe05
 1963 0e7b 10       		.byte	0x10
 1964 0e7c 24       		.uleb128 0x24
 1965 0e7d 723900   		.ascii	"r9\000"
 1966 0e80 13       		.byte	0x13
 1967 0e81 7101     		.2byte	0x171
 1968 0e83 050E0000 		.4byte	0xe05
 1969 0e87 14       		.byte	0x14
 1970 0e88 24       		.uleb128 0x24
 1971 0e89 72313000 		.ascii	"r10\000"
 1972 0e8d 13       		.byte	0x13
 1973 0e8e 7201     		.2byte	0x172
 1974 0e90 050E0000 		.4byte	0xe05
 1975 0e94 18       		.byte	0x18
 1976 0e95 24       		.uleb128 0x24
 1977 0e96 72313100 		.ascii	"r11\000"
 1978 0e9a 13       		.byte	0x13
 1979 0e9b 7301     		.2byte	0x173
 1980 0e9d 050E0000 		.4byte	0xe05
 1981 0ea1 1C       		.byte	0x1c
 1982 0ea2 24       		.uleb128 0x24
 1983 0ea3 6C7200   		.ascii	"lr\000"
 1984 0ea6 13       		.byte	0x13
 1985 0ea7 7401     		.2byte	0x174
 1986 0ea9 050E0000 		.4byte	0xe05
 1987 0ead 20       		.byte	0x20
 1988 0eae 00       		.byte	0
 1989 0eaf 07       		.uleb128 0x7
ARM GAS  /var/folders/vd/czx34qs52cd_f3nb04sxmghc0000gn/T//ccrUkQoJ.s 			page 36


 1990 0eb0 04       		.byte	0x4
 1991 0eb1 330E0000 		.4byte	0xe33
 1992 0eb5 0A       		.uleb128 0xa
 1993 0eb6 04       		.byte	0x4
 1994 0eb7 14       		.byte	0x14
 1995 0eb8 38       		.byte	0x38
 1996 0eb9 63070000 		.4byte	.LASF218
 1997 0ebd CE0E0000 		.4byte	0xece
 1998 0ec1 0D       		.uleb128 0xd
 1999 0ec2 61060000 		.4byte	.LASF219
 2000 0ec6 14       		.byte	0x14
 2001 0ec7 3C       		.byte	0x3c
 2002 0ec8 61090000 		.4byte	0x961
 2003 0ecc 00       		.byte	0
 2004 0ecd 00       		.byte	0
 2005 0ece 03       		.uleb128 0x3
 2006 0ecf F5080000 		.4byte	.LASF220
 2007 0ed3 14       		.byte	0x14
 2008 0ed4 3D       		.byte	0x3d
 2009 0ed5 B50E0000 		.4byte	0xeb5
 2010 0ed9 07       		.uleb128 0x7
 2011 0eda 04       		.byte	0x4
 2012 0edb 0F0B0000 		.4byte	0xb0f
 2013 0edf 10       		.uleb128 0x10
 2014 0ee0 21040000 		.4byte	.LASF221
 2015 0ee4 0C       		.byte	0xc
 2016 0ee5 15       		.byte	0x15
 2017 0ee6 34       		.byte	0x34
 2018 0ee7 040F0000 		.4byte	0xf04
 2019 0eeb 0D       		.uleb128 0xd
 2020 0eec 3E080000 		.4byte	.LASF155
 2021 0ef0 15       		.byte	0x15
 2022 0ef1 35       		.byte	0x35
 2023 0ef2 440B0000 		.4byte	0xb44
 2024 0ef6 00       		.byte	0
 2025 0ef7 11       		.uleb128 0x11
 2026 0ef8 636E7400 		.ascii	"cnt\000"
 2027 0efc 15       		.byte	0x15
 2028 0efd 37       		.byte	0x37
 2029 0efe AE090000 		.4byte	0x9ae
 2030 0f02 08       		.byte	0x8
 2031 0f03 00       		.byte	0
 2032 0f04 07       		.uleb128 0x7
 2033 0f05 04       		.byte	0x4
 2034 0f06 DF0E0000 		.4byte	0xedf
 2035 0f0a 10       		.uleb128 0x10
 2036 0f0b 3E090000 		.4byte	.LASF222
 2037 0f0f 10       		.byte	0x10
 2038 0f10 16       		.byte	0x16
 2039 0f11 39       		.byte	0x39
 2040 0f12 3B0F0000 		.4byte	0xf3b
 2041 0f16 0D       		.uleb128 0xd
 2042 0f17 3E080000 		.4byte	.LASF155
 2043 0f1b 16       		.byte	0x16
 2044 0f1c 3A       		.byte	0x3a
 2045 0f1d 440B0000 		.4byte	0xb44
 2046 0f21 00       		.byte	0
ARM GAS  /var/folders/vd/czx34qs52cd_f3nb04sxmghc0000gn/T//ccrUkQoJ.s 			page 37


 2047 0f22 0D       		.uleb128 0xd
 2048 0f23 4D000000 		.4byte	.LASF223
 2049 0f27 16       		.byte	0x16
 2050 0f28 3C       		.byte	0x3c
 2051 0f29 1A0B0000 		.4byte	0xb1a
 2052 0f2d 08       		.byte	0x8
 2053 0f2e 0D       		.uleb128 0xd
 2054 0f2f 1F0B0000 		.4byte	.LASF173
 2055 0f33 16       		.byte	0x16
 2056 0f34 3E       		.byte	0x3e
 2057 0f35 8A100000 		.4byte	0x108a
 2058 0f39 0C       		.byte	0xc
 2059 0f3a 00       		.byte	0
 2060 0f3b 07       		.uleb128 0x7
 2061 0f3c 04       		.byte	0x4
 2062 0f3d 0A0F0000 		.4byte	0xf0a
 2063 0f41 07       		.uleb128 0x7
 2064 0f42 04       		.byte	0x4
 2065 0f43 100E0000 		.4byte	0xe10
 2066 0f47 07       		.uleb128 0x7
 2067 0f48 04       		.byte	0x4
 2068 0f49 F70B0000 		.4byte	0xbf7
 2069 0f4d 28       		.uleb128 0x28
 2070 0f4e 636800   		.ascii	"ch\000"
 2071 0f51 0D       		.byte	0xd
 2072 0f52 C701     		.2byte	0x1c7
 2073 0f54 C40C0000 		.4byte	0xcc4
 2074 0f58 0E       		.uleb128 0xe
 2075 0f59 100E0000 		.4byte	0xe10
 2076 0f5d 630F0000 		.4byte	0xf63
 2077 0f61 22       		.uleb128 0x22
 2078 0f62 00       		.byte	0
 2079 0f63 21       		.uleb128 0x21
 2080 0f64 4E040000 		.4byte	.LASF224
 2081 0f68 17       		.byte	0x17
 2082 0f69 1701     		.2byte	0x117
 2083 0f6b 580F0000 		.4byte	0xf58
 2084 0f6f 0A       		.uleb128 0xa
 2085 0f70 16       		.byte	0x16
 2086 0f71 18       		.byte	0x18
 2087 0f72 34       		.byte	0x34
 2088 0f73 CE060000 		.4byte	.LASF225
 2089 0f77 54100000 		.4byte	0x1054
 2090 0f7b 0D       		.uleb128 0xd
 2091 0f7c 3C0C0000 		.4byte	.LASF226
 2092 0f80 18       		.byte	0x18
 2093 0f81 35       		.byte	0x35
 2094 0f82 54100000 		.4byte	0x1054
 2095 0f86 00       		.byte	0
 2096 0f87 0D       		.uleb128 0xd
 2097 0f88 BA010000 		.4byte	.LASF227
 2098 0f8c 18       		.byte	0x18
 2099 0f8d 36       		.byte	0x36
 2100 0f8e F4080000 		.4byte	0x8f4
 2101 0f92 04       		.byte	0x4
 2102 0f93 0D       		.uleb128 0xd
 2103 0f94 C0070000 		.4byte	.LASF228
ARM GAS  /var/folders/vd/czx34qs52cd_f3nb04sxmghc0000gn/T//ccrUkQoJ.s 			page 38


 2104 0f98 18       		.byte	0x18
 2105 0f99 37       		.byte	0x37
 2106 0f9a F4080000 		.4byte	0x8f4
 2107 0f9e 05       		.byte	0x5
 2108 0f9f 0D       		.uleb128 0xd
 2109 0fa0 8F080000 		.4byte	.LASF229
 2110 0fa4 18       		.byte	0x18
 2111 0fa5 38       		.byte	0x38
 2112 0fa6 04090000 		.4byte	0x904
 2113 0faa 06       		.byte	0x6
 2114 0fab 0D       		.uleb128 0xd
 2115 0fac 4E030000 		.4byte	.LASF230
 2116 0fb0 18       		.byte	0x18
 2117 0fb1 39       		.byte	0x39
 2118 0fb2 F4080000 		.4byte	0x8f4
 2119 0fb6 08       		.byte	0x8
 2120 0fb7 0D       		.uleb128 0xd
 2121 0fb8 E40A0000 		.4byte	.LASF231
 2122 0fbc 18       		.byte	0x18
 2123 0fbd 3A       		.byte	0x3a
 2124 0fbe F4080000 		.4byte	0x8f4
 2125 0fc2 09       		.byte	0x9
 2126 0fc3 0D       		.uleb128 0xd
 2127 0fc4 E5030000 		.4byte	.LASF232
 2128 0fc8 18       		.byte	0x18
 2129 0fc9 3B       		.byte	0x3b
 2130 0fca F4080000 		.4byte	0x8f4
 2131 0fce 0A       		.byte	0xa
 2132 0fcf 0D       		.uleb128 0xd
 2133 0fd0 0F000000 		.4byte	.LASF233
 2134 0fd4 18       		.byte	0x18
 2135 0fd5 3C       		.byte	0x3c
 2136 0fd6 F4080000 		.4byte	0x8f4
 2137 0fda 0B       		.byte	0xb
 2138 0fdb 0D       		.uleb128 0xd
 2139 0fdc 00000000 		.4byte	.LASF234
 2140 0fe0 18       		.byte	0x18
 2141 0fe1 3D       		.byte	0x3d
 2142 0fe2 F4080000 		.4byte	0x8f4
 2143 0fe6 0C       		.byte	0xc
 2144 0fe7 0D       		.uleb128 0xd
 2145 0fe8 CA050000 		.4byte	.LASF235
 2146 0fec 18       		.byte	0x18
 2147 0fed 3E       		.byte	0x3e
 2148 0fee F4080000 		.4byte	0x8f4
 2149 0ff2 0D       		.byte	0xd
 2150 0ff3 0D       		.uleb128 0xd
 2151 0ff4 2C010000 		.4byte	.LASF236
 2152 0ff8 18       		.byte	0x18
 2153 0ff9 3F       		.byte	0x3f
 2154 0ffa F4080000 		.4byte	0x8f4
 2155 0ffe 0E       		.byte	0xe
 2156 0fff 0D       		.uleb128 0xd
 2157 1000 E5070000 		.4byte	.LASF237
 2158 1004 18       		.byte	0x18
 2159 1005 40       		.byte	0x40
 2160 1006 F4080000 		.4byte	0x8f4
ARM GAS  /var/folders/vd/czx34qs52cd_f3nb04sxmghc0000gn/T//ccrUkQoJ.s 			page 39


 2161 100a 0F       		.byte	0xf
 2162 100b 0D       		.uleb128 0xd
 2163 100c B6040000 		.4byte	.LASF238
 2164 1010 18       		.byte	0x18
 2165 1011 41       		.byte	0x41
 2166 1012 F4080000 		.4byte	0x8f4
 2167 1016 10       		.byte	0x10
 2168 1017 0D       		.uleb128 0xd
 2169 1018 C4030000 		.4byte	.LASF239
 2170 101c 18       		.byte	0x18
 2171 101d 42       		.byte	0x42
 2172 101e F4080000 		.4byte	0x8f4
 2173 1022 11       		.byte	0x11
 2174 1023 0D       		.uleb128 0xd
 2175 1024 020B0000 		.4byte	.LASF240
 2176 1028 18       		.byte	0x18
 2177 1029 43       		.byte	0x43
 2178 102a F4080000 		.4byte	0x8f4
 2179 102e 12       		.byte	0x12
 2180 102f 0D       		.uleb128 0xd
 2181 1030 1C030000 		.4byte	.LASF241
 2182 1034 18       		.byte	0x18
 2183 1035 44       		.byte	0x44
 2184 1036 F4080000 		.4byte	0x8f4
 2185 103a 13       		.byte	0x13
 2186 103b 0D       		.uleb128 0xd
 2187 103c 3C000000 		.4byte	.LASF242
 2188 1040 18       		.byte	0x18
 2189 1041 45       		.byte	0x45
 2190 1042 F4080000 		.4byte	0x8f4
 2191 1046 14       		.byte	0x14
 2192 1047 0D       		.uleb128 0xd
 2193 1048 56030000 		.4byte	.LASF243
 2194 104c 18       		.byte	0x18
 2195 104d 46       		.byte	0x46
 2196 104e F4080000 		.4byte	0x8f4
 2197 1052 15       		.byte	0x15
 2198 1053 00       		.byte	0
 2199 1054 0E       		.uleb128 0xe
 2200 1055 FD060000 		.4byte	0x6fd
 2201 1059 64100000 		.4byte	0x1064
 2202 105d 0F       		.uleb128 0xf
 2203 105e 9B000000 		.4byte	0x9b
 2204 1062 03       		.byte	0x3
 2205 1063 00       		.byte	0
 2206 1064 03       		.uleb128 0x3
 2207 1065 C40A0000 		.4byte	.LASF244
 2208 1069 18       		.byte	0x18
 2209 106a 47       		.byte	0x47
 2210 106b 6F0F0000 		.4byte	0xf6f
 2211 106f 17       		.uleb128 0x17
 2212 1070 64100000 		.4byte	0x1064
 2213 1074 23       		.uleb128 0x23
 2214 1075 61000000 		.4byte	.LASF245
 2215 1079 18       		.byte	0x18
 2216 107a 6C       		.byte	0x6c
 2217 107b 6F100000 		.4byte	0x106f
ARM GAS  /var/folders/vd/czx34qs52cd_f3nb04sxmghc0000gn/T//ccrUkQoJ.s 			page 40


 2218 107f 03       		.uleb128 0x3
 2219 1080 E8090000 		.4byte	.LASF246
 2220 1084 16       		.byte	0x16
 2221 1085 34       		.byte	0x34
 2222 1086 0A0F0000 		.4byte	0xf0a
 2223 108a 07       		.uleb128 0x7
 2224 108b 04       		.byte	0x4
 2225 108c 7F100000 		.4byte	0x107f
 2226 1090 02       		.uleb128 0x2
 2227 1091 01       		.byte	0x1
 2228 1092 02       		.byte	0x2
 2229 1093 8B060000 		.4byte	.LASF247
 2230 1097 03       		.uleb128 0x3
 2231 1098 90060000 		.4byte	.LASF248
 2232 109c 19       		.byte	0x19
 2233 109d 4B       		.byte	0x4b
 2234 109e A2100000 		.4byte	0x10a2
 2235 10a2 07       		.uleb128 0x7
 2236 10a3 04       		.byte	0x4
 2237 10a4 A8100000 		.4byte	0x10a8
 2238 10a8 15       		.uleb128 0x15
 2239 10a9 B9000000 		.4byte	0xb9
 2240 10ad BC100000 		.4byte	0x10bc
 2241 10b1 16       		.uleb128 0x16
 2242 10b2 A2000000 		.4byte	0xa2
 2243 10b6 16       		.uleb128 0x16
 2244 10b7 9B000000 		.4byte	0x9b
 2245 10bb 00       		.byte	0
 2246 10bc 0A       		.uleb128 0xa
 2247 10bd 08       		.byte	0x8
 2248 10be 19       		.byte	0x19
 2249 10bf 55       		.byte	0x55
 2250 10c0 7D0A0000 		.4byte	.LASF249
 2251 10c4 E1100000 		.4byte	0x10e1
 2252 10c8 0D       		.uleb128 0xd
 2253 10c9 B1030000 		.4byte	.LASF250
 2254 10cd 19       		.byte	0x19
 2255 10ce 59       		.byte	0x59
 2256 10cf E1100000 		.4byte	0x10e1
 2257 10d3 00       		.byte	0
 2258 10d4 0D       		.uleb128 0xd
 2259 10d5 18000000 		.4byte	.LASF251
 2260 10d9 19       		.byte	0x19
 2261 10da 5D       		.byte	0x5d
 2262 10db E1100000 		.4byte	0x10e1
 2263 10df 04       		.byte	0x4
 2264 10e0 00       		.byte	0
 2265 10e1 07       		.uleb128 0x7
 2266 10e2 04       		.byte	0x4
 2267 10e3 F4080000 		.4byte	0x8f4
 2268 10e7 03       		.uleb128 0x3
 2269 10e8 25020000 		.4byte	.LASF252
 2270 10ec 19       		.byte	0x19
 2271 10ed 5E       		.byte	0x5e
 2272 10ee BC100000 		.4byte	0x10bc
 2273 10f2 23       		.uleb128 0x23
 2274 10f3 F70A0000 		.4byte	.LASF253
ARM GAS  /var/folders/vd/czx34qs52cd_f3nb04sxmghc0000gn/T//ccrUkQoJ.s 			page 41


 2275 10f7 19       		.byte	0x19
 2276 10f8 69       		.byte	0x69
 2277 10f9 E7100000 		.4byte	0x10e7
 2278 10fd 10       		.uleb128 0x10
 2279 10fe C3040000 		.4byte	.LASF254
 2280 1102 04       		.byte	0x4
 2281 1103 1A       		.byte	0x1a
 2282 1104 3C       		.byte	0x3c
 2283 1105 16110000 		.4byte	0x1116
 2284 1109 0D       		.uleb128 0xd
 2285 110a 1F0B0000 		.4byte	.LASF173
 2286 110e 1A       		.byte	0x1a
 2287 110f 3D       		.byte	0x3d
 2288 1110 16110000 		.4byte	0x1116
 2289 1114 00       		.byte	0
 2290 1115 00       		.byte	0
 2291 1116 07       		.uleb128 0x7
 2292 1117 04       		.byte	0x4
 2293 1118 FD100000 		.4byte	0x10fd
 2294 111c 0A       		.uleb128 0xa
 2295 111d 10       		.byte	0x10
 2296 111e 1A       		.byte	0x1a
 2297 111f 44       		.byte	0x44
 2298 1120 D9020000 		.4byte	.LASF255
 2299 1124 59110000 		.4byte	0x1159
 2300 1128 0D       		.uleb128 0xd
 2301 1129 1F0B0000 		.4byte	.LASF173
 2302 112d 1A       		.byte	0x1a
 2303 112e 45       		.byte	0x45
 2304 112f 16110000 		.4byte	0x1116
 2305 1133 00       		.byte	0
 2306 1134 0D       		.uleb128 0xd
 2307 1135 8B090000 		.4byte	.LASF256
 2308 1139 1A       		.byte	0x1a
 2309 113a 46       		.byte	0x46
 2310 113b A2000000 		.4byte	0xa2
 2311 113f 04       		.byte	0x4
 2312 1140 0D       		.uleb128 0xd
 2313 1141 A5050000 		.4byte	.LASF257
 2314 1145 1A       		.byte	0x1a
 2315 1146 48       		.byte	0x48
 2316 1147 9B000000 		.4byte	0x9b
 2317 114b 08       		.byte	0x8
 2318 114c 0D       		.uleb128 0xd
 2319 114d 78000000 		.4byte	.LASF258
 2320 1151 1A       		.byte	0x1a
 2321 1152 49       		.byte	0x49
 2322 1153 97100000 		.4byte	0x1097
 2323 1157 0C       		.byte	0xc
 2324 1158 00       		.byte	0
 2325 1159 03       		.uleb128 0x3
 2326 115a C2080000 		.4byte	.LASF259
 2327 115e 1A       		.byte	0x1a
 2328 115f 4B       		.byte	0x4b
 2329 1160 1C110000 		.4byte	0x111c
 2330 1164 10       		.uleb128 0x10
 2331 1165 FC000000 		.4byte	.LASF260
ARM GAS  /var/folders/vd/czx34qs52cd_f3nb04sxmghc0000gn/T//ccrUkQoJ.s 			page 42


 2332 1169 10       		.byte	0x10
 2333 116a 1B       		.byte	0x1b
 2334 116b 97       		.byte	0x97
 2335 116c 95110000 		.4byte	0x1195
 2336 1170 0D       		.uleb128 0xd
 2337 1171 1F0B0000 		.4byte	.LASF173
 2338 1175 1B       		.byte	0x1b
 2339 1176 9B       		.byte	0x9b
 2340 1177 95110000 		.4byte	0x1195
 2341 117b 00       		.byte	0
 2342 117c 0D       		.uleb128 0xd
 2343 117d E9050000 		.4byte	.LASF163
 2344 1181 1B       		.byte	0x1b
 2345 1182 9F       		.byte	0x9f
 2346 1183 B9090000 		.4byte	0x9b9
 2347 1187 04       		.byte	0x4
 2348 1188 0D       		.uleb128 0xd
 2349 1189 06090000 		.4byte	.LASF159
 2350 118d 1B       		.byte	0x1b
 2351 118e A1       		.byte	0xa1
 2352 118f 43080000 		.4byte	0x843
 2353 1193 08       		.byte	0x8
 2354 1194 00       		.byte	0
 2355 1195 07       		.uleb128 0x7
 2356 1196 04       		.byte	0x4
 2357 1197 64110000 		.4byte	0x1164
 2358 119b 03       		.uleb128 0x3
 2359 119c CA090000 		.4byte	.LASF261
 2360 11a0 1B       		.byte	0x1b
 2361 11a1 A5       		.byte	0xa5
 2362 11a2 64110000 		.4byte	0x1164
 2363 11a6 10       		.uleb128 0x10
 2364 11a7 300C0000 		.4byte	.LASF262
 2365 11ab 04       		.byte	0x4
 2366 11ac 1B       		.byte	0x1b
 2367 11ad AA       		.byte	0xaa
 2368 11ae BF110000 		.4byte	0x11bf
 2369 11b2 0D       		.uleb128 0xd
 2370 11b3 1F0B0000 		.4byte	.LASF173
 2371 11b7 1B       		.byte	0x1b
 2372 11b8 AB       		.byte	0xab
 2373 11b9 BF110000 		.4byte	0x11bf
 2374 11bd 00       		.byte	0
 2375 11be 00       		.byte	0
 2376 11bf 07       		.uleb128 0x7
 2377 11c0 04       		.byte	0x4
 2378 11c1 9B110000 		.4byte	0x119b
 2379 11c5 03       		.uleb128 0x3
 2380 11c6 76090000 		.4byte	.LASF263
 2381 11ca 1B       		.byte	0x1b
 2382 11cb AC       		.byte	0xac
 2383 11cc A6110000 		.4byte	0x11a6
 2384 11d0 1F       		.uleb128 0x1f
 2385 11d1 62050000 		.4byte	.LASF264
 2386 11d5 44       		.byte	0x44
 2387 11d6 1B       		.byte	0x1b
 2388 11d7 1501     		.2byte	0x115
ARM GAS  /var/folders/vd/czx34qs52cd_f3nb04sxmghc0000gn/T//ccrUkQoJ.s 			page 43


 2389 11d9 46120000 		.4byte	0x1246
 2390 11dd 24       		.uleb128 0x24
 2391 11de 6D747800 		.ascii	"mtx\000"
 2392 11e2 1B       		.byte	0x1b
 2393 11e3 1A01     		.2byte	0x11a
 2394 11e5 7F100000 		.4byte	0x107f
 2395 11e9 00       		.byte	0
 2396 11ea 1B       		.uleb128 0x1b
 2397 11eb 23010000 		.4byte	.LASF265
 2398 11ef 1B       		.byte	0x1b
 2399 11f0 2101     		.2byte	0x121
 2400 11f2 C5110000 		.4byte	0x11c5
 2401 11f6 10       		.byte	0x10
 2402 11f7 1B       		.uleb128 0x1b
 2403 11f8 0F020000 		.4byte	.LASF266
 2404 11fc 1B       		.byte	0x1b
 2405 11fd 2501     		.2byte	0x125
 2406 11ff 59110000 		.4byte	0x1159
 2407 1203 14       		.byte	0x14
 2408 1204 1B       		.uleb128 0x1b
 2409 1205 1A070000 		.4byte	.LASF267
 2410 1209 1B       		.byte	0x1b
 2411 120a 2A01     		.2byte	0x12a
 2412 120c C5110000 		.4byte	0x11c5
 2413 1210 24       		.byte	0x24
 2414 1211 1B       		.uleb128 0x1b
 2415 1212 FA020000 		.4byte	.LASF268
 2416 1216 1B       		.byte	0x1b
 2417 1217 3001     		.2byte	0x130
 2418 1219 C5110000 		.4byte	0x11c5
 2419 121d 28       		.byte	0x28
 2420 121e 1B       		.uleb128 0x1b
 2421 121f 98030000 		.4byte	.LASF269
 2422 1223 1B       		.byte	0x1b
 2423 1224 3401     		.2byte	0x134
 2424 1226 59110000 		.4byte	0x1159
 2425 122a 2C       		.byte	0x2c
 2426 122b 1B       		.uleb128 0x1b
 2427 122c 72080000 		.4byte	.LASF270
 2428 1230 1B       		.byte	0x1b
 2429 1231 3A01     		.2byte	0x13a
 2430 1233 C5110000 		.4byte	0x11c5
 2431 1237 3C       		.byte	0x3c
 2432 1238 1B       		.uleb128 0x1b
 2433 1239 67040000 		.4byte	.LASF271
 2434 123d 1B       		.byte	0x1b
 2435 123e 4001     		.2byte	0x140
 2436 1240 C5110000 		.4byte	0x11c5
 2437 1244 40       		.byte	0x40
 2438 1245 00       		.byte	0
 2439 1246 09       		.uleb128 0x9
 2440 1247 ED060000 		.4byte	.LASF272
 2441 124b 1B       		.byte	0x1b
 2442 124c 4201     		.2byte	0x142
 2443 124e D0110000 		.4byte	0x11d0
 2444 1252 21       		.uleb128 0x21
 2445 1253 58080000 		.4byte	.LASF273
ARM GAS  /var/folders/vd/czx34qs52cd_f3nb04sxmghc0000gn/T//ccrUkQoJ.s 			page 44


 2446 1257 1B       		.byte	0x1b
 2447 1258 4D01     		.2byte	0x14d
 2448 125a 46120000 		.4byte	0x1246
 2449 125e 29       		.uleb128 0x29
 2450 125f F7050000 		.4byte	.LASF274
 2451 1263 1C       		.byte	0x1c
 2452 1264 0B       		.byte	0xb
 2453 1265 B9000000 		.4byte	0xb9
 2454 1269 05       		.uleb128 0x5
 2455 126a 03       		.byte	0x3
 2456 126b 00000000 		.4byte	__dso_handle
 2457 126f 23       		.uleb128 0x23
 2458 1270 7A010000 		.4byte	.LASF275
 2459 1274 01       		.byte	0x1
 2460 1275 17       		.byte	0x17
 2461 1276 94000000 		.4byte	0x94
 2462 127a 2A       		.uleb128 0x2a
 2463 127b 0E050000 		.4byte	.LASF283
 2464 127f 01       		.byte	0x1
 2465 1280 23       		.byte	0x23
 2466 1281 00000000 		.4byte	.LFB318
 2467 1285 0C000000 		.4byte	.LFE318-.LFB318
 2468 1289 01       		.uleb128 0x1
 2469 128a 9C       		.byte	0x9c
 2470 128b BF120000 		.4byte	0x12bf
 2471 128f 2B       		.uleb128 0x2b
 2472 1290 6F130000 		.4byte	0x136f
 2473 1294 00000000 		.4byte	.LBB8
 2474 1298 0C000000 		.4byte	.LBE8-.LBB8
 2475 129c 01       		.byte	0x1
 2476 129d 24       		.byte	0x24
 2477 129e 2C       		.uleb128 0x2c
 2478 129f 7C130000 		.4byte	0x137c
 2479 12a3 06       		.uleb128 0x6
 2480 12a4 03       		.byte	0x3
 2481 12a5 00000000 		.4byte	.LC1
 2482 12a9 9F       		.byte	0x9f
 2483 12aa 2D       		.uleb128 0x2d
 2484 12ab 06000000 		.4byte	.LVL6
 2485 12af 89130000 		.4byte	0x1389
 2486 12b3 2E       		.uleb128 0x2e
 2487 12b4 01       		.uleb128 0x1
 2488 12b5 50       		.byte	0x50
 2489 12b6 05       		.uleb128 0x5
 2490 12b7 03       		.byte	0x3
 2491 12b8 00000000 		.4byte	.LC1
 2492 12bc 00       		.byte	0
 2493 12bd 00       		.byte	0
 2494 12be 00       		.byte	0
 2495 12bf 2F       		.uleb128 0x2f
 2496 12c0 4A010000 		.4byte	.LASF284
 2497 12c4 01       		.byte	0x1
 2498 12c5 1F       		.byte	0x1f
 2499 12c6 00000000 		.4byte	.LFB317
 2500 12ca 02000000 		.4byte	.LFE317-.LFB317
 2501 12ce 01       		.uleb128 0x1
 2502 12cf 9C       		.byte	0x9c
ARM GAS  /var/folders/vd/czx34qs52cd_f3nb04sxmghc0000gn/T//ccrUkQoJ.s 			page 45


 2503 12d0 30       		.uleb128 0x30
 2504 12d1 07070000 		.4byte	.LASF276
 2505 12d5 01       		.byte	0x1
 2506 12d6 18       		.byte	0x18
 2507 12d7 94000000 		.4byte	0x94
 2508 12db 00000000 		.4byte	.LFB316
 2509 12df 10000000 		.4byte	.LFE316-.LFB316
 2510 12e3 01       		.uleb128 0x1
 2511 12e4 9C       		.byte	0x9c
 2512 12e5 06130000 		.4byte	0x1306
 2513 12e9 31       		.uleb128 0x31
 2514 12ea 70696400 		.ascii	"pid\000"
 2515 12ee 01       		.byte	0x1
 2516 12ef 18       		.byte	0x18
 2517 12f0 94000000 		.4byte	0x94
 2518 12f4 00000000 		.4byte	.LLST1
 2519 12f8 32       		.uleb128 0x32
 2520 12f9 73696700 		.ascii	"sig\000"
 2521 12fd 01       		.byte	0x1
 2522 12fe 18       		.byte	0x18
 2523 12ff 94000000 		.4byte	0x94
 2524 1303 01       		.uleb128 0x1
 2525 1304 51       		.byte	0x51
 2526 1305 00       		.byte	0
 2527 1306 33       		.uleb128 0x33
 2528 1307 73020000 		.4byte	.LASF285
 2529 130b 01       		.byte	0x1
 2530 130c 12       		.byte	0x12
 2531 130d 35090000 		.4byte	0x935
 2532 1311 00000000 		.4byte	.LFB315
 2533 1315 04000000 		.4byte	.LFE315-.LFB315
 2534 1319 01       		.uleb128 0x1
 2535 131a 9C       		.byte	0x9c
 2536 131b 34       		.uleb128 0x34
 2537 131c C4050000 		.4byte	.LASF277
 2538 1320 01       		.byte	0x1
 2539 1321 0C       		.byte	0xc
 2540 1322 00000000 		.4byte	.LFB314
 2541 1326 10000000 		.4byte	.LFE314-.LFB314
 2542 132a 01       		.uleb128 0x1
 2543 132b 9C       		.byte	0x9c
 2544 132c 6F130000 		.4byte	0x136f
 2545 1330 35       		.uleb128 0x35
 2546 1331 1B0A0000 		.4byte	.LASF278
 2547 1335 01       		.byte	0x1
 2548 1336 0C       		.byte	0xc
 2549 1337 94000000 		.4byte	0x94
 2550 133b 21000000 		.4byte	.LLST0
 2551 133f 2B       		.uleb128 0x2b
 2552 1340 6F130000 		.4byte	0x136f
 2553 1344 02000000 		.4byte	.LBB6
 2554 1348 0E000000 		.4byte	.LBE6-.LBB6
 2555 134c 01       		.byte	0x1
 2556 134d 0E       		.byte	0xe
 2557 134e 2C       		.uleb128 0x2c
 2558 134f 7C130000 		.4byte	0x137c
 2559 1353 06       		.uleb128 0x6
ARM GAS  /var/folders/vd/czx34qs52cd_f3nb04sxmghc0000gn/T//ccrUkQoJ.s 			page 46


 2560 1354 03       		.byte	0x3
 2561 1355 00000000 		.4byte	.LC0
 2562 1359 9F       		.byte	0x9f
 2563 135a 36       		.uleb128 0x36
 2564 135b 08000000 		.4byte	.LVL2
 2565 135f 89130000 		.4byte	0x1389
 2566 1363 2E       		.uleb128 0x2e
 2567 1364 01       		.uleb128 0x1
 2568 1365 50       		.byte	0x50
 2569 1366 05       		.uleb128 0x5
 2570 1367 03       		.byte	0x3
 2571 1368 00000000 		.4byte	.LC0
 2572 136c 00       		.byte	0
 2573 136d 00       		.byte	0
 2574 136e 00       		.byte	0
 2575 136f 37       		.uleb128 0x37
 2576 1370 EF040000 		.4byte	.LASF286
 2577 1374 02       		.byte	0x2
 2578 1375 DE01     		.2byte	0x1de
 2579 1377 03       		.byte	0x3
 2580 1378 89130000 		.4byte	0x1389
 2581 137c 38       		.uleb128 0x38
 2582 137d 44080000 		.4byte	.LASF287
 2583 1381 02       		.byte	0x2
 2584 1382 DE01     		.2byte	0x1de
 2585 1384 2D070000 		.4byte	0x72d
 2586 1388 00       		.byte	0
 2587 1389 39       		.uleb128 0x39
 2588 138a B9090000 		.4byte	.LASF288
 2589 138e B9090000 		.4byte	.LASF288
 2590 1392 1D       		.byte	0x1d
 2591 1393 63       		.byte	0x63
 2592 1394 00       		.byte	0
 2593              		.section	.debug_abbrev,"",%progbits
 2594              	.Ldebug_abbrev0:
 2595 0000 01       		.uleb128 0x1
 2596 0001 11       		.uleb128 0x11
 2597 0002 01       		.byte	0x1
 2598 0003 25       		.uleb128 0x25
 2599 0004 0E       		.uleb128 0xe
 2600 0005 13       		.uleb128 0x13
 2601 0006 0B       		.uleb128 0xb
 2602 0007 03       		.uleb128 0x3
 2603 0008 0E       		.uleb128 0xe
 2604 0009 1B       		.uleb128 0x1b
 2605 000a 0E       		.uleb128 0xe
 2606 000b 55       		.uleb128 0x55
 2607 000c 17       		.uleb128 0x17
 2608 000d 11       		.uleb128 0x11
 2609 000e 01       		.uleb128 0x1
 2610 000f 10       		.uleb128 0x10
 2611 0010 17       		.uleb128 0x17
 2612 0011 00       		.byte	0
 2613 0012 00       		.byte	0
 2614 0013 02       		.uleb128 0x2
 2615 0014 24       		.uleb128 0x24
 2616 0015 00       		.byte	0
ARM GAS  /var/folders/vd/czx34qs52cd_f3nb04sxmghc0000gn/T//ccrUkQoJ.s 			page 47


 2617 0016 0B       		.uleb128 0xb
 2618 0017 0B       		.uleb128 0xb
 2619 0018 3E       		.uleb128 0x3e
 2620 0019 0B       		.uleb128 0xb
 2621 001a 03       		.uleb128 0x3
 2622 001b 0E       		.uleb128 0xe
 2623 001c 00       		.byte	0
 2624 001d 00       		.byte	0
 2625 001e 03       		.uleb128 0x3
 2626 001f 16       		.uleb128 0x16
 2627 0020 00       		.byte	0
 2628 0021 03       		.uleb128 0x3
 2629 0022 0E       		.uleb128 0xe
 2630 0023 3A       		.uleb128 0x3a
 2631 0024 0B       		.uleb128 0xb
 2632 0025 3B       		.uleb128 0x3b
 2633 0026 0B       		.uleb128 0xb
 2634 0027 49       		.uleb128 0x49
 2635 0028 13       		.uleb128 0x13
 2636 0029 00       		.byte	0
 2637 002a 00       		.byte	0
 2638 002b 04       		.uleb128 0x4
 2639 002c 24       		.uleb128 0x24
 2640 002d 00       		.byte	0
 2641 002e 0B       		.uleb128 0xb
 2642 002f 0B       		.uleb128 0xb
 2643 0030 3E       		.uleb128 0x3e
 2644 0031 0B       		.uleb128 0xb
 2645 0032 03       		.uleb128 0x3
 2646 0033 08       		.uleb128 0x8
 2647 0034 00       		.byte	0
 2648 0035 00       		.byte	0
 2649 0036 05       		.uleb128 0x5
 2650 0037 3B       		.uleb128 0x3b
 2651 0038 00       		.byte	0
 2652 0039 03       		.uleb128 0x3
 2653 003a 0E       		.uleb128 0xe
 2654 003b 00       		.byte	0
 2655 003c 00       		.byte	0
 2656 003d 06       		.uleb128 0x6
 2657 003e 0F       		.uleb128 0xf
 2658 003f 00       		.byte	0
 2659 0040 0B       		.uleb128 0xb
 2660 0041 0B       		.uleb128 0xb
 2661 0042 00       		.byte	0
 2662 0043 00       		.byte	0
 2663 0044 07       		.uleb128 0x7
 2664 0045 0F       		.uleb128 0xf
 2665 0046 00       		.byte	0
 2666 0047 0B       		.uleb128 0xb
 2667 0048 0B       		.uleb128 0xb
 2668 0049 49       		.uleb128 0x49
 2669 004a 13       		.uleb128 0x13
 2670 004b 00       		.byte	0
 2671 004c 00       		.byte	0
 2672 004d 08       		.uleb128 0x8
 2673 004e 13       		.uleb128 0x13
ARM GAS  /var/folders/vd/czx34qs52cd_f3nb04sxmghc0000gn/T//ccrUkQoJ.s 			page 48


 2674 004f 00       		.byte	0
 2675 0050 03       		.uleb128 0x3
 2676 0051 0E       		.uleb128 0xe
 2677 0052 3C       		.uleb128 0x3c
 2678 0053 19       		.uleb128 0x19
 2679 0054 00       		.byte	0
 2680 0055 00       		.byte	0
 2681 0056 09       		.uleb128 0x9
 2682 0057 16       		.uleb128 0x16
 2683 0058 00       		.byte	0
 2684 0059 03       		.uleb128 0x3
 2685 005a 0E       		.uleb128 0xe
 2686 005b 3A       		.uleb128 0x3a
 2687 005c 0B       		.uleb128 0xb
 2688 005d 3B       		.uleb128 0x3b
 2689 005e 05       		.uleb128 0x5
 2690 005f 49       		.uleb128 0x49
 2691 0060 13       		.uleb128 0x13
 2692 0061 00       		.byte	0
 2693 0062 00       		.byte	0
 2694 0063 0A       		.uleb128 0xa
 2695 0064 13       		.uleb128 0x13
 2696 0065 01       		.byte	0x1
 2697 0066 0B       		.uleb128 0xb
 2698 0067 0B       		.uleb128 0xb
 2699 0068 3A       		.uleb128 0x3a
 2700 0069 0B       		.uleb128 0xb
 2701 006a 3B       		.uleb128 0x3b
 2702 006b 0B       		.uleb128 0xb
 2703 006c 6E       		.uleb128 0x6e
 2704 006d 0E       		.uleb128 0xe
 2705 006e 01       		.uleb128 0x1
 2706 006f 13       		.uleb128 0x13
 2707 0070 00       		.byte	0
 2708 0071 00       		.byte	0
 2709 0072 0B       		.uleb128 0xb
 2710 0073 17       		.uleb128 0x17
 2711 0074 01       		.byte	0x1
 2712 0075 0B       		.uleb128 0xb
 2713 0076 0B       		.uleb128 0xb
 2714 0077 3A       		.uleb128 0x3a
 2715 0078 0B       		.uleb128 0xb
 2716 0079 3B       		.uleb128 0x3b
 2717 007a 0B       		.uleb128 0xb
 2718 007b 01       		.uleb128 0x1
 2719 007c 13       		.uleb128 0x13
 2720 007d 00       		.byte	0
 2721 007e 00       		.byte	0
 2722 007f 0C       		.uleb128 0xc
 2723 0080 0D       		.uleb128 0xd
 2724 0081 00       		.byte	0
 2725 0082 03       		.uleb128 0x3
 2726 0083 0E       		.uleb128 0xe
 2727 0084 3A       		.uleb128 0x3a
 2728 0085 0B       		.uleb128 0xb
 2729 0086 3B       		.uleb128 0x3b
 2730 0087 0B       		.uleb128 0xb
ARM GAS  /var/folders/vd/czx34qs52cd_f3nb04sxmghc0000gn/T//ccrUkQoJ.s 			page 49


 2731 0088 49       		.uleb128 0x49
 2732 0089 13       		.uleb128 0x13
 2733 008a 00       		.byte	0
 2734 008b 00       		.byte	0
 2735 008c 0D       		.uleb128 0xd
 2736 008d 0D       		.uleb128 0xd
 2737 008e 00       		.byte	0
 2738 008f 03       		.uleb128 0x3
 2739 0090 0E       		.uleb128 0xe
 2740 0091 3A       		.uleb128 0x3a
 2741 0092 0B       		.uleb128 0xb
 2742 0093 3B       		.uleb128 0x3b
 2743 0094 0B       		.uleb128 0xb
 2744 0095 49       		.uleb128 0x49
 2745 0096 13       		.uleb128 0x13
 2746 0097 38       		.uleb128 0x38
 2747 0098 0B       		.uleb128 0xb
 2748 0099 00       		.byte	0
 2749 009a 00       		.byte	0
 2750 009b 0E       		.uleb128 0xe
 2751 009c 01       		.uleb128 0x1
 2752 009d 01       		.byte	0x1
 2753 009e 49       		.uleb128 0x49
 2754 009f 13       		.uleb128 0x13
 2755 00a0 01       		.uleb128 0x1
 2756 00a1 13       		.uleb128 0x13
 2757 00a2 00       		.byte	0
 2758 00a3 00       		.byte	0
 2759 00a4 0F       		.uleb128 0xf
 2760 00a5 21       		.uleb128 0x21
 2761 00a6 00       		.byte	0
 2762 00a7 49       		.uleb128 0x49
 2763 00a8 13       		.uleb128 0x13
 2764 00a9 2F       		.uleb128 0x2f
 2765 00aa 0B       		.uleb128 0xb
 2766 00ab 00       		.byte	0
 2767 00ac 00       		.byte	0
 2768 00ad 10       		.uleb128 0x10
 2769 00ae 13       		.uleb128 0x13
 2770 00af 01       		.byte	0x1
 2771 00b0 03       		.uleb128 0x3
 2772 00b1 0E       		.uleb128 0xe
 2773 00b2 0B       		.uleb128 0xb
 2774 00b3 0B       		.uleb128 0xb
 2775 00b4 3A       		.uleb128 0x3a
 2776 00b5 0B       		.uleb128 0xb
 2777 00b6 3B       		.uleb128 0x3b
 2778 00b7 0B       		.uleb128 0xb
 2779 00b8 01       		.uleb128 0x1
 2780 00b9 13       		.uleb128 0x13
 2781 00ba 00       		.byte	0
 2782 00bb 00       		.byte	0
 2783 00bc 11       		.uleb128 0x11
 2784 00bd 0D       		.uleb128 0xd
 2785 00be 00       		.byte	0
 2786 00bf 03       		.uleb128 0x3
 2787 00c0 08       		.uleb128 0x8
ARM GAS  /var/folders/vd/czx34qs52cd_f3nb04sxmghc0000gn/T//ccrUkQoJ.s 			page 50


 2788 00c1 3A       		.uleb128 0x3a
 2789 00c2 0B       		.uleb128 0xb
 2790 00c3 3B       		.uleb128 0x3b
 2791 00c4 0B       		.uleb128 0xb
 2792 00c5 49       		.uleb128 0x49
 2793 00c6 13       		.uleb128 0x13
 2794 00c7 38       		.uleb128 0x38
 2795 00c8 0B       		.uleb128 0xb
 2796 00c9 00       		.byte	0
 2797 00ca 00       		.byte	0
 2798 00cb 12       		.uleb128 0x12
 2799 00cc 13       		.uleb128 0x13
 2800 00cd 01       		.byte	0x1
 2801 00ce 03       		.uleb128 0x3
 2802 00cf 0E       		.uleb128 0xe
 2803 00d0 0B       		.uleb128 0xb
 2804 00d1 05       		.uleb128 0x5
 2805 00d2 3A       		.uleb128 0x3a
 2806 00d3 0B       		.uleb128 0xb
 2807 00d4 3B       		.uleb128 0x3b
 2808 00d5 0B       		.uleb128 0xb
 2809 00d6 01       		.uleb128 0x1
 2810 00d7 13       		.uleb128 0x13
 2811 00d8 00       		.byte	0
 2812 00d9 00       		.byte	0
 2813 00da 13       		.uleb128 0x13
 2814 00db 0D       		.uleb128 0xd
 2815 00dc 00       		.byte	0
 2816 00dd 03       		.uleb128 0x3
 2817 00de 0E       		.uleb128 0xe
 2818 00df 3A       		.uleb128 0x3a
 2819 00e0 0B       		.uleb128 0xb
 2820 00e1 3B       		.uleb128 0x3b
 2821 00e2 0B       		.uleb128 0xb
 2822 00e3 49       		.uleb128 0x49
 2823 00e4 13       		.uleb128 0x13
 2824 00e5 38       		.uleb128 0x38
 2825 00e6 05       		.uleb128 0x5
 2826 00e7 00       		.byte	0
 2827 00e8 00       		.byte	0
 2828 00e9 14       		.uleb128 0x14
 2829 00ea 15       		.uleb128 0x15
 2830 00eb 00       		.byte	0
 2831 00ec 00       		.byte	0
 2832 00ed 00       		.byte	0
 2833 00ee 15       		.uleb128 0x15
 2834 00ef 15       		.uleb128 0x15
 2835 00f0 01       		.byte	0x1
 2836 00f1 49       		.uleb128 0x49
 2837 00f2 13       		.uleb128 0x13
 2838 00f3 01       		.uleb128 0x1
 2839 00f4 13       		.uleb128 0x13
 2840 00f5 00       		.byte	0
 2841 00f6 00       		.byte	0
 2842 00f7 16       		.uleb128 0x16
 2843 00f8 05       		.uleb128 0x5
 2844 00f9 00       		.byte	0
ARM GAS  /var/folders/vd/czx34qs52cd_f3nb04sxmghc0000gn/T//ccrUkQoJ.s 			page 51


 2845 00fa 49       		.uleb128 0x49
 2846 00fb 13       		.uleb128 0x13
 2847 00fc 00       		.byte	0
 2848 00fd 00       		.byte	0
 2849 00fe 17       		.uleb128 0x17
 2850 00ff 26       		.uleb128 0x26
 2851 0100 00       		.byte	0
 2852 0101 49       		.uleb128 0x49
 2853 0102 13       		.uleb128 0x13
 2854 0103 00       		.byte	0
 2855 0104 00       		.byte	0
 2856 0105 18       		.uleb128 0x18
 2857 0106 13       		.uleb128 0x13
 2858 0107 01       		.byte	0x1
 2859 0108 03       		.uleb128 0x3
 2860 0109 0E       		.uleb128 0xe
 2861 010a 0B       		.uleb128 0xb
 2862 010b 05       		.uleb128 0x5
 2863 010c 3A       		.uleb128 0x3a
 2864 010d 0B       		.uleb128 0xb
 2865 010e 3B       		.uleb128 0x3b
 2866 010f 05       		.uleb128 0x5
 2867 0110 01       		.uleb128 0x1
 2868 0111 13       		.uleb128 0x13
 2869 0112 00       		.byte	0
 2870 0113 00       		.byte	0
 2871 0114 19       		.uleb128 0x19
 2872 0115 17       		.uleb128 0x17
 2873 0116 01       		.byte	0x1
 2874 0117 0B       		.uleb128 0xb
 2875 0118 0B       		.uleb128 0xb
 2876 0119 3A       		.uleb128 0x3a
 2877 011a 0B       		.uleb128 0xb
 2878 011b 3B       		.uleb128 0x3b
 2879 011c 05       		.uleb128 0x5
 2880 011d 01       		.uleb128 0x1
 2881 011e 13       		.uleb128 0x13
 2882 011f 00       		.byte	0
 2883 0120 00       		.byte	0
 2884 0121 1A       		.uleb128 0x1a
 2885 0122 13       		.uleb128 0x13
 2886 0123 01       		.byte	0x1
 2887 0124 0B       		.uleb128 0xb
 2888 0125 0B       		.uleb128 0xb
 2889 0126 3A       		.uleb128 0x3a
 2890 0127 0B       		.uleb128 0xb
 2891 0128 3B       		.uleb128 0x3b
 2892 0129 05       		.uleb128 0x5
 2893 012a 01       		.uleb128 0x1
 2894 012b 13       		.uleb128 0x13
 2895 012c 00       		.byte	0
 2896 012d 00       		.byte	0
 2897 012e 1B       		.uleb128 0x1b
 2898 012f 0D       		.uleb128 0xd
 2899 0130 00       		.byte	0
 2900 0131 03       		.uleb128 0x3
 2901 0132 0E       		.uleb128 0xe
ARM GAS  /var/folders/vd/czx34qs52cd_f3nb04sxmghc0000gn/T//ccrUkQoJ.s 			page 52


 2902 0133 3A       		.uleb128 0x3a
 2903 0134 0B       		.uleb128 0xb
 2904 0135 3B       		.uleb128 0x3b
 2905 0136 05       		.uleb128 0x5
 2906 0137 49       		.uleb128 0x49
 2907 0138 13       		.uleb128 0x13
 2908 0139 38       		.uleb128 0x38
 2909 013a 0B       		.uleb128 0xb
 2910 013b 00       		.byte	0
 2911 013c 00       		.byte	0
 2912 013d 1C       		.uleb128 0x1c
 2913 013e 0D       		.uleb128 0xd
 2914 013f 00       		.byte	0
 2915 0140 03       		.uleb128 0x3
 2916 0141 0E       		.uleb128 0xe
 2917 0142 3A       		.uleb128 0x3a
 2918 0143 0B       		.uleb128 0xb
 2919 0144 3B       		.uleb128 0x3b
 2920 0145 05       		.uleb128 0x5
 2921 0146 49       		.uleb128 0x49
 2922 0147 13       		.uleb128 0x13
 2923 0148 00       		.byte	0
 2924 0149 00       		.byte	0
 2925 014a 1D       		.uleb128 0x1d
 2926 014b 0D       		.uleb128 0xd
 2927 014c 00       		.byte	0
 2928 014d 03       		.uleb128 0x3
 2929 014e 0E       		.uleb128 0xe
 2930 014f 3A       		.uleb128 0x3a
 2931 0150 0B       		.uleb128 0xb
 2932 0151 3B       		.uleb128 0x3b
 2933 0152 05       		.uleb128 0x5
 2934 0153 49       		.uleb128 0x49
 2935 0154 13       		.uleb128 0x13
 2936 0155 38       		.uleb128 0x38
 2937 0156 05       		.uleb128 0x5
 2938 0157 00       		.byte	0
 2939 0158 00       		.byte	0
 2940 0159 1E       		.uleb128 0x1e
 2941 015a 35       		.uleb128 0x35
 2942 015b 00       		.byte	0
 2943 015c 49       		.uleb128 0x49
 2944 015d 13       		.uleb128 0x13
 2945 015e 00       		.byte	0
 2946 015f 00       		.byte	0
 2947 0160 1F       		.uleb128 0x1f
 2948 0161 13       		.uleb128 0x13
 2949 0162 01       		.byte	0x1
 2950 0163 03       		.uleb128 0x3
 2951 0164 0E       		.uleb128 0xe
 2952 0165 0B       		.uleb128 0xb
 2953 0166 0B       		.uleb128 0xb
 2954 0167 3A       		.uleb128 0x3a
 2955 0168 0B       		.uleb128 0xb
 2956 0169 3B       		.uleb128 0x3b
 2957 016a 05       		.uleb128 0x5
 2958 016b 01       		.uleb128 0x1
ARM GAS  /var/folders/vd/czx34qs52cd_f3nb04sxmghc0000gn/T//ccrUkQoJ.s 			page 53


 2959 016c 13       		.uleb128 0x13
 2960 016d 00       		.byte	0
 2961 016e 00       		.byte	0
 2962 016f 20       		.uleb128 0x20
 2963 0170 15       		.uleb128 0x15
 2964 0171 01       		.byte	0x1
 2965 0172 01       		.uleb128 0x1
 2966 0173 13       		.uleb128 0x13
 2967 0174 00       		.byte	0
 2968 0175 00       		.byte	0
 2969 0176 21       		.uleb128 0x21
 2970 0177 34       		.uleb128 0x34
 2971 0178 00       		.byte	0
 2972 0179 03       		.uleb128 0x3
 2973 017a 0E       		.uleb128 0xe
 2974 017b 3A       		.uleb128 0x3a
 2975 017c 0B       		.uleb128 0xb
 2976 017d 3B       		.uleb128 0x3b
 2977 017e 05       		.uleb128 0x5
 2978 017f 49       		.uleb128 0x49
 2979 0180 13       		.uleb128 0x13
 2980 0181 3F       		.uleb128 0x3f
 2981 0182 19       		.uleb128 0x19
 2982 0183 3C       		.uleb128 0x3c
 2983 0184 19       		.uleb128 0x19
 2984 0185 00       		.byte	0
 2985 0186 00       		.byte	0
 2986 0187 22       		.uleb128 0x22
 2987 0188 21       		.uleb128 0x21
 2988 0189 00       		.byte	0
 2989 018a 00       		.byte	0
 2990 018b 00       		.byte	0
 2991 018c 23       		.uleb128 0x23
 2992 018d 34       		.uleb128 0x34
 2993 018e 00       		.byte	0
 2994 018f 03       		.uleb128 0x3
 2995 0190 0E       		.uleb128 0xe
 2996 0191 3A       		.uleb128 0x3a
 2997 0192 0B       		.uleb128 0xb
 2998 0193 3B       		.uleb128 0x3b
 2999 0194 0B       		.uleb128 0xb
 3000 0195 49       		.uleb128 0x49
 3001 0196 13       		.uleb128 0x13
 3002 0197 3F       		.uleb128 0x3f
 3003 0198 19       		.uleb128 0x19
 3004 0199 3C       		.uleb128 0x3c
 3005 019a 19       		.uleb128 0x19
 3006 019b 00       		.byte	0
 3007 019c 00       		.byte	0
 3008 019d 24       		.uleb128 0x24
 3009 019e 0D       		.uleb128 0xd
 3010 019f 00       		.byte	0
 3011 01a0 03       		.uleb128 0x3
 3012 01a1 08       		.uleb128 0x8
 3013 01a2 3A       		.uleb128 0x3a
 3014 01a3 0B       		.uleb128 0xb
 3015 01a4 3B       		.uleb128 0x3b
ARM GAS  /var/folders/vd/czx34qs52cd_f3nb04sxmghc0000gn/T//ccrUkQoJ.s 			page 54


 3016 01a5 05       		.uleb128 0x5
 3017 01a6 49       		.uleb128 0x49
 3018 01a7 13       		.uleb128 0x13
 3019 01a8 38       		.uleb128 0x38
 3020 01a9 0B       		.uleb128 0xb
 3021 01aa 00       		.byte	0
 3022 01ab 00       		.byte	0
 3023 01ac 25       		.uleb128 0x25
 3024 01ad 04       		.uleb128 0x4
 3025 01ae 01       		.byte	0x1
 3026 01af 3E       		.uleb128 0x3e
 3027 01b0 0B       		.uleb128 0xb
 3028 01b1 0B       		.uleb128 0xb
 3029 01b2 0B       		.uleb128 0xb
 3030 01b3 49       		.uleb128 0x49
 3031 01b4 13       		.uleb128 0x13
 3032 01b5 3A       		.uleb128 0x3a
 3033 01b6 0B       		.uleb128 0xb
 3034 01b7 3B       		.uleb128 0x3b
 3035 01b8 0B       		.uleb128 0xb
 3036 01b9 6E       		.uleb128 0x6e
 3037 01ba 0E       		.uleb128 0xe
 3038 01bb 01       		.uleb128 0x1
 3039 01bc 13       		.uleb128 0x13
 3040 01bd 00       		.byte	0
 3041 01be 00       		.byte	0
 3042 01bf 26       		.uleb128 0x26
 3043 01c0 28       		.uleb128 0x28
 3044 01c1 00       		.byte	0
 3045 01c2 03       		.uleb128 0x3
 3046 01c3 0E       		.uleb128 0xe
 3047 01c4 1C       		.uleb128 0x1c
 3048 01c5 0B       		.uleb128 0xb
 3049 01c6 00       		.byte	0
 3050 01c7 00       		.byte	0
 3051 01c8 27       		.uleb128 0x27
 3052 01c9 28       		.uleb128 0x28
 3053 01ca 00       		.byte	0
 3054 01cb 03       		.uleb128 0x3
 3055 01cc 08       		.uleb128 0x8
 3056 01cd 1C       		.uleb128 0x1c
 3057 01ce 0B       		.uleb128 0xb
 3058 01cf 00       		.byte	0
 3059 01d0 00       		.byte	0
 3060 01d1 28       		.uleb128 0x28
 3061 01d2 34       		.uleb128 0x34
 3062 01d3 00       		.byte	0
 3063 01d4 03       		.uleb128 0x3
 3064 01d5 08       		.uleb128 0x8
 3065 01d6 3A       		.uleb128 0x3a
 3066 01d7 0B       		.uleb128 0xb
 3067 01d8 3B       		.uleb128 0x3b
 3068 01d9 05       		.uleb128 0x5
 3069 01da 49       		.uleb128 0x49
 3070 01db 13       		.uleb128 0x13
 3071 01dc 3F       		.uleb128 0x3f
 3072 01dd 19       		.uleb128 0x19
ARM GAS  /var/folders/vd/czx34qs52cd_f3nb04sxmghc0000gn/T//ccrUkQoJ.s 			page 55


 3073 01de 3C       		.uleb128 0x3c
 3074 01df 19       		.uleb128 0x19
 3075 01e0 00       		.byte	0
 3076 01e1 00       		.byte	0
 3077 01e2 29       		.uleb128 0x29
 3078 01e3 34       		.uleb128 0x34
 3079 01e4 00       		.byte	0
 3080 01e5 03       		.uleb128 0x3
 3081 01e6 0E       		.uleb128 0xe
 3082 01e7 3A       		.uleb128 0x3a
 3083 01e8 0B       		.uleb128 0xb
 3084 01e9 3B       		.uleb128 0x3b
 3085 01ea 0B       		.uleb128 0xb
 3086 01eb 49       		.uleb128 0x49
 3087 01ec 13       		.uleb128 0x13
 3088 01ed 3F       		.uleb128 0x3f
 3089 01ee 19       		.uleb128 0x19
 3090 01ef 02       		.uleb128 0x2
 3091 01f0 18       		.uleb128 0x18
 3092 01f1 00       		.byte	0
 3093 01f2 00       		.byte	0
 3094 01f3 2A       		.uleb128 0x2a
 3095 01f4 2E       		.uleb128 0x2e
 3096 01f5 01       		.byte	0x1
 3097 01f6 3F       		.uleb128 0x3f
 3098 01f7 19       		.uleb128 0x19
 3099 01f8 03       		.uleb128 0x3
 3100 01f9 0E       		.uleb128 0xe
 3101 01fa 3A       		.uleb128 0x3a
 3102 01fb 0B       		.uleb128 0xb
 3103 01fc 3B       		.uleb128 0x3b
 3104 01fd 0B       		.uleb128 0xb
 3105 01fe 11       		.uleb128 0x11
 3106 01ff 01       		.uleb128 0x1
 3107 0200 12       		.uleb128 0x12
 3108 0201 06       		.uleb128 0x6
 3109 0202 40       		.uleb128 0x40
 3110 0203 18       		.uleb128 0x18
 3111 0204 9742     		.uleb128 0x2117
 3112 0206 19       		.uleb128 0x19
 3113 0207 01       		.uleb128 0x1
 3114 0208 13       		.uleb128 0x13
 3115 0209 00       		.byte	0
 3116 020a 00       		.byte	0
 3117 020b 2B       		.uleb128 0x2b
 3118 020c 1D       		.uleb128 0x1d
 3119 020d 01       		.byte	0x1
 3120 020e 31       		.uleb128 0x31
 3121 020f 13       		.uleb128 0x13
 3122 0210 11       		.uleb128 0x11
 3123 0211 01       		.uleb128 0x1
 3124 0212 12       		.uleb128 0x12
 3125 0213 06       		.uleb128 0x6
 3126 0214 58       		.uleb128 0x58
 3127 0215 0B       		.uleb128 0xb
 3128 0216 59       		.uleb128 0x59
 3129 0217 0B       		.uleb128 0xb
ARM GAS  /var/folders/vd/czx34qs52cd_f3nb04sxmghc0000gn/T//ccrUkQoJ.s 			page 56


 3130 0218 00       		.byte	0
 3131 0219 00       		.byte	0
 3132 021a 2C       		.uleb128 0x2c
 3133 021b 05       		.uleb128 0x5
 3134 021c 00       		.byte	0
 3135 021d 31       		.uleb128 0x31
 3136 021e 13       		.uleb128 0x13
 3137 021f 02       		.uleb128 0x2
 3138 0220 18       		.uleb128 0x18
 3139 0221 00       		.byte	0
 3140 0222 00       		.byte	0
 3141 0223 2D       		.uleb128 0x2d
 3142 0224 898201   		.uleb128 0x4109
 3143 0227 01       		.byte	0x1
 3144 0228 11       		.uleb128 0x11
 3145 0229 01       		.uleb128 0x1
 3146 022a 9542     		.uleb128 0x2115
 3147 022c 19       		.uleb128 0x19
 3148 022d 31       		.uleb128 0x31
 3149 022e 13       		.uleb128 0x13
 3150 022f 00       		.byte	0
 3151 0230 00       		.byte	0
 3152 0231 2E       		.uleb128 0x2e
 3153 0232 8A8201   		.uleb128 0x410a
 3154 0235 00       		.byte	0
 3155 0236 02       		.uleb128 0x2
 3156 0237 18       		.uleb128 0x18
 3157 0238 9142     		.uleb128 0x2111
 3158 023a 18       		.uleb128 0x18
 3159 023b 00       		.byte	0
 3160 023c 00       		.byte	0
 3161 023d 2F       		.uleb128 0x2f
 3162 023e 2E       		.uleb128 0x2e
 3163 023f 00       		.byte	0
 3164 0240 3F       		.uleb128 0x3f
 3165 0241 19       		.uleb128 0x19
 3166 0242 03       		.uleb128 0x3
 3167 0243 0E       		.uleb128 0xe
 3168 0244 3A       		.uleb128 0x3a
 3169 0245 0B       		.uleb128 0xb
 3170 0246 3B       		.uleb128 0x3b
 3171 0247 0B       		.uleb128 0xb
 3172 0248 11       		.uleb128 0x11
 3173 0249 01       		.uleb128 0x1
 3174 024a 12       		.uleb128 0x12
 3175 024b 06       		.uleb128 0x6
 3176 024c 40       		.uleb128 0x40
 3177 024d 18       		.uleb128 0x18
 3178 024e 9742     		.uleb128 0x2117
 3179 0250 19       		.uleb128 0x19
 3180 0251 00       		.byte	0
 3181 0252 00       		.byte	0
 3182 0253 30       		.uleb128 0x30
 3183 0254 2E       		.uleb128 0x2e
 3184 0255 01       		.byte	0x1
 3185 0256 3F       		.uleb128 0x3f
 3186 0257 19       		.uleb128 0x19
ARM GAS  /var/folders/vd/czx34qs52cd_f3nb04sxmghc0000gn/T//ccrUkQoJ.s 			page 57


 3187 0258 03       		.uleb128 0x3
 3188 0259 0E       		.uleb128 0xe
 3189 025a 3A       		.uleb128 0x3a
 3190 025b 0B       		.uleb128 0xb
 3191 025c 3B       		.uleb128 0x3b
 3192 025d 0B       		.uleb128 0xb
 3193 025e 49       		.uleb128 0x49
 3194 025f 13       		.uleb128 0x13
 3195 0260 11       		.uleb128 0x11
 3196 0261 01       		.uleb128 0x1
 3197 0262 12       		.uleb128 0x12
 3198 0263 06       		.uleb128 0x6
 3199 0264 40       		.uleb128 0x40
 3200 0265 18       		.uleb128 0x18
 3201 0266 9742     		.uleb128 0x2117
 3202 0268 19       		.uleb128 0x19
 3203 0269 01       		.uleb128 0x1
 3204 026a 13       		.uleb128 0x13
 3205 026b 00       		.byte	0
 3206 026c 00       		.byte	0
 3207 026d 31       		.uleb128 0x31
 3208 026e 05       		.uleb128 0x5
 3209 026f 00       		.byte	0
 3210 0270 03       		.uleb128 0x3
 3211 0271 08       		.uleb128 0x8
 3212 0272 3A       		.uleb128 0x3a
 3213 0273 0B       		.uleb128 0xb
 3214 0274 3B       		.uleb128 0x3b
 3215 0275 0B       		.uleb128 0xb
 3216 0276 49       		.uleb128 0x49
 3217 0277 13       		.uleb128 0x13
 3218 0278 02       		.uleb128 0x2
 3219 0279 17       		.uleb128 0x17
 3220 027a 00       		.byte	0
 3221 027b 00       		.byte	0
 3222 027c 32       		.uleb128 0x32
 3223 027d 05       		.uleb128 0x5
 3224 027e 00       		.byte	0
 3225 027f 03       		.uleb128 0x3
 3226 0280 08       		.uleb128 0x8
 3227 0281 3A       		.uleb128 0x3a
 3228 0282 0B       		.uleb128 0xb
 3229 0283 3B       		.uleb128 0x3b
 3230 0284 0B       		.uleb128 0xb
 3231 0285 49       		.uleb128 0x49
 3232 0286 13       		.uleb128 0x13
 3233 0287 02       		.uleb128 0x2
 3234 0288 18       		.uleb128 0x18
 3235 0289 00       		.byte	0
 3236 028a 00       		.byte	0
 3237 028b 33       		.uleb128 0x33
 3238 028c 2E       		.uleb128 0x2e
 3239 028d 00       		.byte	0
 3240 028e 3F       		.uleb128 0x3f
 3241 028f 19       		.uleb128 0x19
 3242 0290 03       		.uleb128 0x3
 3243 0291 0E       		.uleb128 0xe
ARM GAS  /var/folders/vd/czx34qs52cd_f3nb04sxmghc0000gn/T//ccrUkQoJ.s 			page 58


 3244 0292 3A       		.uleb128 0x3a
 3245 0293 0B       		.uleb128 0xb
 3246 0294 3B       		.uleb128 0x3b
 3247 0295 0B       		.uleb128 0xb
 3248 0296 49       		.uleb128 0x49
 3249 0297 13       		.uleb128 0x13
 3250 0298 11       		.uleb128 0x11
 3251 0299 01       		.uleb128 0x1
 3252 029a 12       		.uleb128 0x12
 3253 029b 06       		.uleb128 0x6
 3254 029c 40       		.uleb128 0x40
 3255 029d 18       		.uleb128 0x18
 3256 029e 9742     		.uleb128 0x2117
 3257 02a0 19       		.uleb128 0x19
 3258 02a1 00       		.byte	0
 3259 02a2 00       		.byte	0
 3260 02a3 34       		.uleb128 0x34
 3261 02a4 2E       		.uleb128 0x2e
 3262 02a5 01       		.byte	0x1
 3263 02a6 3F       		.uleb128 0x3f
 3264 02a7 19       		.uleb128 0x19
 3265 02a8 03       		.uleb128 0x3
 3266 02a9 0E       		.uleb128 0xe
 3267 02aa 3A       		.uleb128 0x3a
 3268 02ab 0B       		.uleb128 0xb
 3269 02ac 3B       		.uleb128 0x3b
 3270 02ad 0B       		.uleb128 0xb
 3271 02ae 8701     		.uleb128 0x87
 3272 02b0 19       		.uleb128 0x19
 3273 02b1 11       		.uleb128 0x11
 3274 02b2 01       		.uleb128 0x1
 3275 02b3 12       		.uleb128 0x12
 3276 02b4 06       		.uleb128 0x6
 3277 02b5 40       		.uleb128 0x40
 3278 02b6 18       		.uleb128 0x18
 3279 02b7 9742     		.uleb128 0x2117
 3280 02b9 19       		.uleb128 0x19
 3281 02ba 01       		.uleb128 0x1
 3282 02bb 13       		.uleb128 0x13
 3283 02bc 00       		.byte	0
 3284 02bd 00       		.byte	0
 3285 02be 35       		.uleb128 0x35
 3286 02bf 05       		.uleb128 0x5
 3287 02c0 00       		.byte	0
 3288 02c1 03       		.uleb128 0x3
 3289 02c2 0E       		.uleb128 0xe
 3290 02c3 3A       		.uleb128 0x3a
 3291 02c4 0B       		.uleb128 0xb
 3292 02c5 3B       		.uleb128 0x3b
 3293 02c6 0B       		.uleb128 0xb
 3294 02c7 49       		.uleb128 0x49
 3295 02c8 13       		.uleb128 0x13
 3296 02c9 02       		.uleb128 0x2
 3297 02ca 17       		.uleb128 0x17
 3298 02cb 00       		.byte	0
 3299 02cc 00       		.byte	0
 3300 02cd 36       		.uleb128 0x36
ARM GAS  /var/folders/vd/czx34qs52cd_f3nb04sxmghc0000gn/T//ccrUkQoJ.s 			page 59


 3301 02ce 898201   		.uleb128 0x4109
 3302 02d1 01       		.byte	0x1
 3303 02d2 11       		.uleb128 0x11
 3304 02d3 01       		.uleb128 0x1
 3305 02d4 31       		.uleb128 0x31
 3306 02d5 13       		.uleb128 0x13
 3307 02d6 00       		.byte	0
 3308 02d7 00       		.byte	0
 3309 02d8 37       		.uleb128 0x37
 3310 02d9 2E       		.uleb128 0x2e
 3311 02da 01       		.byte	0x1
 3312 02db 03       		.uleb128 0x3
 3313 02dc 0E       		.uleb128 0xe
 3314 02dd 3A       		.uleb128 0x3a
 3315 02de 0B       		.uleb128 0xb
 3316 02df 3B       		.uleb128 0x3b
 3317 02e0 05       		.uleb128 0x5
 3318 02e1 20       		.uleb128 0x20
 3319 02e2 0B       		.uleb128 0xb
 3320 02e3 01       		.uleb128 0x1
 3321 02e4 13       		.uleb128 0x13
 3322 02e5 00       		.byte	0
 3323 02e6 00       		.byte	0
 3324 02e7 38       		.uleb128 0x38
 3325 02e8 05       		.uleb128 0x5
 3326 02e9 00       		.byte	0
 3327 02ea 03       		.uleb128 0x3
 3328 02eb 0E       		.uleb128 0xe
 3329 02ec 3A       		.uleb128 0x3a
 3330 02ed 0B       		.uleb128 0xb
 3331 02ee 3B       		.uleb128 0x3b
 3332 02ef 05       		.uleb128 0x5
 3333 02f0 49       		.uleb128 0x49
 3334 02f1 13       		.uleb128 0x13
 3335 02f2 00       		.byte	0
 3336 02f3 00       		.byte	0
 3337 02f4 39       		.uleb128 0x39
 3338 02f5 2E       		.uleb128 0x2e
 3339 02f6 00       		.byte	0
 3340 02f7 3F       		.uleb128 0x3f
 3341 02f8 19       		.uleb128 0x19
 3342 02f9 3C       		.uleb128 0x3c
 3343 02fa 19       		.uleb128 0x19
 3344 02fb 6E       		.uleb128 0x6e
 3345 02fc 0E       		.uleb128 0xe
 3346 02fd 03       		.uleb128 0x3
 3347 02fe 0E       		.uleb128 0xe
 3348 02ff 3A       		.uleb128 0x3a
 3349 0300 0B       		.uleb128 0xb
 3350 0301 3B       		.uleb128 0x3b
 3351 0302 0B       		.uleb128 0xb
 3352 0303 00       		.byte	0
 3353 0304 00       		.byte	0
 3354 0305 00       		.byte	0
 3355              		.section	.debug_loc,"",%progbits
 3356              	.Ldebug_loc0:
 3357              	.LLST1:
ARM GAS  /var/folders/vd/czx34qs52cd_f3nb04sxmghc0000gn/T//ccrUkQoJ.s 			page 60


 3358 0000 00000000 		.4byte	.LVL3
 3359 0004 0A000000 		.4byte	.LVL4
 3360 0008 0100     		.2byte	0x1
 3361 000a 50       		.byte	0x50
 3362 000b 0A000000 		.4byte	.LVL4
 3363 000f 10000000 		.4byte	.LFE316
 3364 0013 0400     		.2byte	0x4
 3365 0015 F3       		.byte	0xf3
 3366 0016 01       		.uleb128 0x1
 3367 0017 50       		.byte	0x50
 3368 0018 9F       		.byte	0x9f
 3369 0019 00000000 		.4byte	0
 3370 001d 00000000 		.4byte	0
 3371              	.LLST0:
 3372 0021 00000000 		.4byte	.LVL0
 3373 0025 04000000 		.4byte	.LVL1
 3374 0029 0100     		.2byte	0x1
 3375 002b 50       		.byte	0x50
 3376 002c 04000000 		.4byte	.LVL1
 3377 0030 10000000 		.4byte	.LFE314
 3378 0034 0400     		.2byte	0x4
 3379 0036 F3       		.byte	0xf3
 3380 0037 01       		.uleb128 0x1
 3381 0038 50       		.byte	0x50
 3382 0039 9F       		.byte	0x9f
 3383 003a 00000000 		.4byte	0
 3384 003e 00000000 		.4byte	0
 3385              		.section	.debug_aranges,"",%progbits
 3386 0000 3C000000 		.4byte	0x3c
 3387 0004 0200     		.2byte	0x2
 3388 0006 00000000 		.4byte	.Ldebug_info0
 3389 000a 04       		.byte	0x4
 3390 000b 00       		.byte	0
 3391 000c 0000     		.2byte	0
 3392 000e 0000     		.2byte	0
 3393 0010 00000000 		.4byte	.LFB314
 3394 0014 10000000 		.4byte	.LFE314-.LFB314
 3395 0018 00000000 		.4byte	.LFB315
 3396 001c 04000000 		.4byte	.LFE315-.LFB315
 3397 0020 00000000 		.4byte	.LFB316
 3398 0024 10000000 		.4byte	.LFE316-.LFB316
 3399 0028 00000000 		.4byte	.LFB317
 3400 002c 02000000 		.4byte	.LFE317-.LFB317
 3401 0030 00000000 		.4byte	.LFB318
 3402 0034 0C000000 		.4byte	.LFE318-.LFB318
 3403 0038 00000000 		.4byte	0
 3404 003c 00000000 		.4byte	0
 3405              		.section	.debug_ranges,"",%progbits
 3406              	.Ldebug_ranges0:
 3407 0000 00000000 		.4byte	.LFB314
 3408 0004 10000000 		.4byte	.LFE314
 3409 0008 00000000 		.4byte	.LFB315
 3410 000c 04000000 		.4byte	.LFE315
 3411 0010 00000000 		.4byte	.LFB316
 3412 0014 10000000 		.4byte	.LFE316
 3413 0018 00000000 		.4byte	.LFB317
 3414 001c 02000000 		.4byte	.LFE317
ARM GAS  /var/folders/vd/czx34qs52cd_f3nb04sxmghc0000gn/T//ccrUkQoJ.s 			page 61


 3415 0020 00000000 		.4byte	.LFB318
 3416 0024 0C000000 		.4byte	.LFE318
 3417 0028 00000000 		.4byte	0
 3418 002c 00000000 		.4byte	0
 3419              		.section	.debug_line,"",%progbits
 3420              	.Ldebug_line0:
 3421 0000 C3030000 		.section	.debug_str,"MS",%progbits,1
 3421      02006203 
 3421      00000201 
 3421      FB0E0D00 
 3421      01010101 
 3422              	.LASF234:
 3423 0000 6F66665F 		.ascii	"off_ctx\000"
 3423      63747800 
 3424              	.LASF14:
 3425 0008 73697A65 		.ascii	"size_t\000"
 3425      5F7400
 3426              	.LASF233:
 3427 000f 6F66665F 		.ascii	"off_prio\000"
 3427      7072696F 
 3427      00
 3428              	.LASF251:
 3429 0018 656E646D 		.ascii	"endmem\000"
 3429      656D00
 3430              	.LASF125:
 3431 001f 5F5F6C6F 		.ascii	"__locale_t\000"
 3431      63616C65 
 3431      5F7400
 3432              	.LASF24:
 3433 002a 5F5F7661 		.ascii	"__value\000"
 3433      6C756500 
 3434              	.LASF196:
 3435 0032 73797374 		.ascii	"systime_t\000"
 3435      696D655F 
 3435      7400
 3436              	.LASF242:
 3437 003c 6F66665F 		.ascii	"off_preempt\000"
 3437      70726565 
 3437      6D707400 
 3438              	.LASF114:
 3439 0048 5F5F7366 		.ascii	"__sf\000"
 3439      00
 3440              	.LASF223:
 3441 004d 6F776E65 		.ascii	"owner\000"
 3441      7200
 3442              	.LASF59:
 3443 0053 5F726561 		.ascii	"_read\000"
 3443      6400
 3444              	.LASF140:
 3445 0059 74707269 		.ascii	"tprio_t\000"
 3445      6F5F7400 
 3446              	.LASF245:
 3447 0061 63685F64 		.ascii	"ch_debug\000"
 3447      65627567 
 3447      00
 3448              	.LASF209:
 3449 006a 31314572 		.ascii	"11ErrorStatus\000"
ARM GAS  /var/folders/vd/czx34qs52cd_f3nb04sxmghc0000gn/T//ccrUkQoJ.s 			page 62


 3449      726F7253 
 3449      74617475 
 3449      7300
 3450              	.LASF258:
 3451 0078 70726F76 		.ascii	"provider\000"
 3451      69646572 
 3451      00
 3452              	.LASF60:
 3453 0081 5F777269 		.ascii	"_write\000"
 3453      746500
 3454              	.LASF130:
 3455 0088 696E7433 		.ascii	"int32_t\000"
 3455      325F7400 
 3456              	.LASF74:
 3457 0090 5F617363 		.ascii	"_asctime_buf\000"
 3457      74696D65 
 3457      5F627566 
 3457      00
 3458              	.LASF108:
 3459 009d 5F637674 		.ascii	"_cvtlen\000"
 3459      6C656E00 
 3460              	.LASF180:
 3461 00a5 76746675 		.ascii	"vtfunc_t\000"
 3461      6E635F74 
 3461      00
 3462              	.LASF186:
 3463 00ae 63685F76 		.ascii	"ch_virtual_timers_list\000"
 3463      69727475 
 3463      616C5F74 
 3463      696D6572 
 3463      735F6C69 
 3464              	.LASF93:
 3465 00c5 5F756E75 		.ascii	"_unused\000"
 3465      73656400 
 3466              	.LASF33:
 3467 00cd 5F5F746D 		.ascii	"__tm\000"
 3467      00
 3468              	.LASF89:
 3469 00d2 5F776373 		.ascii	"_wcsrtombs_state\000"
 3469      72746F6D 
 3469      62735F73 
 3469      74617465 
 3469      00
 3470              	.LASF64:
 3471 00e3 5F6E6275 		.ascii	"_nbuf\000"
 3471      6600
 3472              	.LASF34:
 3473 00e9 5F5F746D 		.ascii	"__tm_sec\000"
 3473      5F736563 
 3473      00
 3474              	.LASF82:
 3475 00f2 5F6C3634 		.ascii	"_l64a_buf\000"
 3475      615F6275 
 3475      6600
 3476              	.LASF260:
 3477 00fc 63685F64 		.ascii	"ch_dyn_element\000"
 3477      796E5F65 
ARM GAS  /var/folders/vd/czx34qs52cd_f3nb04sxmghc0000gn/T//ccrUkQoJ.s 			page 63


 3477      6C656D65 
 3477      6E7400
 3478              	.LASF53:
 3479 010b 5F73697A 		.ascii	"_size\000"
 3479      6500
 3480              	.LASF161:
 3481 0111 73746174 		.ascii	"state\000"
 3481      6500
 3482              	.LASF68:
 3483 0117 5F6C6F63 		.ascii	"_lock\000"
 3483      6B00
 3484              	.LASF122:
 3485 011d 5F6D756C 		.ascii	"_mult\000"
 3485      7400
 3486              	.LASF265:
 3487 0123 6F626A5F 		.ascii	"obj_list\000"
 3487      6C697374 
 3487      00
 3488              	.LASF236:
 3489 012c 6F66665F 		.ascii	"off_older\000"
 3489      6F6C6465 
 3489      7200
 3490              	.LASF156:
 3491 0136 7072696F 		.ascii	"prio\000"
 3491      00
 3492              	.LASF21:
 3493 013b 5F5F7763 		.ascii	"__wch\000"
 3493      6800
 3494              	.LASF148:
 3495 0141 65786974 		.ascii	"exitcode\000"
 3495      636F6465 
 3495      00
 3496              	.LASF284:
 3497 014a 5F6F7065 		.ascii	"_open_r\000"
 3497      6E5F7200 
 3498              	.LASF3:
 3499 0152 5F5F7569 		.ascii	"__uint8_t\000"
 3499      6E74385F 
 3499      7400
 3500              	.LASF56:
 3501 015c 5F66696C 		.ascii	"_file\000"
 3501      6500
 3502              	.LASF43:
 3503 0162 5F6F6E5F 		.ascii	"_on_exit_args\000"
 3503      65786974 
 3503      5F617267 
 3503      7300
 3504              	.LASF135:
 3505 0170 5F737973 		.ascii	"_sys_nerr\000"
 3505      5F6E6572 
 3505      7200
 3506              	.LASF275:
 3507 017a 6572726E 		.ascii	"errno\000"
 3507      6F00
 3508              	.LASF85:
 3509 0180 5F6D6272 		.ascii	"_mbrlen_state\000"
 3509      6C656E5F 
ARM GAS  /var/folders/vd/czx34qs52cd_f3nb04sxmghc0000gn/T//ccrUkQoJ.s 			page 64


 3509      73746174 
 3509      6500
 3510              	.LASF7:
 3511 018e 6C6F6E67 		.ascii	"long int\000"
 3511      20696E74 
 3511      00
 3512              	.LASF126:
 3513 0197 5F696D70 		.ascii	"_impure_ptr\000"
 3513      7572655F 
 3513      70747200 
 3514              	.LASF105:
 3515 01a3 5F726573 		.ascii	"_result_k\000"
 3515      756C745F 
 3515      6B00
 3516              	.LASF217:
 3517 01ad 31305F6D 		.ascii	"10_mbstate_t\000"
 3517      62737461 
 3517      74655F74 
 3517      00
 3518              	.LASF227:
 3519 01ba 7A65726F 		.ascii	"zero\000"
 3519      00
 3520              	.LASF75:
 3521 01bf 5F6C6F63 		.ascii	"_localtime_buf\000"
 3521      616C7469 
 3521      6D655F62 
 3521      756600
 3522              	.LASF138:
 3523 01ce 74737461 		.ascii	"tstate_t\000"
 3523      74655F74 
 3523      00
 3524              	.LASF166:
 3525 01d7 6570656E 		.ascii	"epending\000"
 3525      64696E67 
 3525      00
 3526              	.LASF174:
 3527 01e0 74687265 		.ascii	"threads_queue_t\000"
 3527      6164735F 
 3527      71756575 
 3527      655F7400 
 3528              	.LASF213:
 3529 01f0 72656761 		.ascii	"regarm_t\000"
 3529      726D5F74 
 3529      00
 3530              	.LASF204:
 3531 01f9 3130466C 		.ascii	"10FlagStatus\000"
 3531      61675374 
 3531      61747573 
 3531      00
 3532              	.LASF38:
 3533 0206 5F5F746D 		.ascii	"__tm_mon\000"
 3533      5F6D6F6E 
 3533      00
 3534              	.LASF266:
 3535 020f 6F626A5F 		.ascii	"obj_pool\000"
 3535      706F6F6C 
 3535      00
ARM GAS  /var/folders/vd/czx34qs52cd_f3nb04sxmghc0000gn/T//ccrUkQoJ.s 			page 65


 3536              	.LASF72:
 3537 0218 5F756E75 		.ascii	"_unused_rand\000"
 3537      7365645F 
 3537      72616E64 
 3537      00
 3538              	.LASF252:
 3539 0225 6D656D63 		.ascii	"memcore_t\000"
 3539      6F72655F 
 3539      7400
 3540              	.LASF0:
 3541 022f 7369676E 		.ascii	"signed char\000"
 3541      65642063 
 3541      68617200 
 3542              	.LASF154:
 3543 023b 65776D61 		.ascii	"ewmask\000"
 3543      736B00
 3544              	.LASF128:
 3545 0242 75696E74 		.ascii	"uint8_t\000"
 3545      385F7400 
 3546              	.LASF142:
 3547 024a 6576656E 		.ascii	"eventmask_t\000"
 3547      746D6173 
 3547      6B5F7400 
 3548              	.LASF150:
 3549 0256 77747472 		.ascii	"wttrp\000"
 3549      7000
 3550              	.LASF1:
 3551 025c 756E7369 		.ascii	"unsigned char\000"
 3551      676E6564 
 3551      20636861 
 3551      7200
 3552              	.LASF187:
 3553 026a 6C617374 		.ascii	"lasttime\000"
 3553      74696D65 
 3553      00
 3554              	.LASF285:
 3555 0273 5F676574 		.ascii	"_getpid\000"
 3555      70696400 
 3556              	.LASF190:
 3557 027b 70616E69 		.ascii	"panic_msg\000"
 3557      635F6D73 
 3557      6700
 3558              	.LASF100:
 3559 0285 5F756E73 		.ascii	"_unspecified_locale_info\000"
 3559      70656369 
 3559      66696564 
 3559      5F6C6F63 
 3559      616C655F 
 3560              	.LASF71:
 3561 029e 5F726565 		.ascii	"_reent\000"
 3561      6E7400
 3562              	.LASF205:
 3563 02a5 31354675 		.ascii	"15FunctionalState\000"
 3563      6E637469 
 3563      6F6E616C 
 3563      53746174 
 3563      6500
ARM GAS  /var/folders/vd/czx34qs52cd_f3nb04sxmghc0000gn/T//ccrUkQoJ.s 			page 66


 3564              	.LASF127:
 3565 02b7 5F676C6F 		.ascii	"_global_impure_ptr\000"
 3565      62616C5F 
 3565      696D7075 
 3565      72655F70 
 3565      747200
 3566              	.LASF188:
 3567 02ca 73797374 		.ascii	"system_debug_t\000"
 3567      656D5F64 
 3567      65627567 
 3567      5F7400
 3568              	.LASF255:
 3569 02d9 31336D65 		.ascii	"13memory_pool_t\000"
 3569      6D6F7279 
 3569      5F706F6F 
 3569      6C5F7400 
 3570              	.LASF115:
 3571 02e9 63686172 		.ascii	"char\000"
 3571      00
 3572              	.LASF50:
 3573 02ee 5F666E73 		.ascii	"_fns\000"
 3573      00
 3574              	.LASF62:
 3575 02f3 5F636C6F 		.ascii	"_close\000"
 3575      736500
 3576              	.LASF268:
 3577 02fa 73656D5F 		.ascii	"sem_list\000"
 3577      6C697374 
 3577      00
 3578              	.LASF4:
 3579 0303 5F5F7569 		.ascii	"__uint16_t\000"
 3579      6E743136 
 3579      5F7400
 3580              	.LASF149:
 3581 030e 77746F62 		.ascii	"wtobjp\000"
 3581      6A7000
 3582              	.LASF95:
 3583 0315 5F737464 		.ascii	"_stdin\000"
 3583      696E00
 3584              	.LASF241:
 3585 031c 6F66665F 		.ascii	"off_refs\000"
 3585      72656673 
 3585      00
 3586              	.LASF162:
 3587 0325 666C6167 		.ascii	"flags\000"
 3587      7300
 3588              	.LASF282:
 3589 032b 6465636C 		.ascii	"decltype(nullptr)\000"
 3589      74797065 
 3589      286E756C 
 3589      6C707472 
 3589      2900
 3590              	.LASF214:
 3591 033d 73746B61 		.ascii	"stkalign_t\000"
 3591      6C69676E 
 3591      5F7400
 3592              	.LASF169:
ARM GAS  /var/folders/vd/czx34qs52cd_f3nb04sxmghc0000gn/T//ccrUkQoJ.s 			page 67


 3593 0348 6D706F6F 		.ascii	"mpool\000"
 3593      6C00
 3594              	.LASF230:
 3595 034e 70747273 		.ascii	"ptrsize\000"
 3595      697A6500 
 3596              	.LASF243:
 3597 0356 6F66665F 		.ascii	"off_time\000"
 3597      74696D65 
 3597      00
 3598              	.LASF143:
 3599 035f 636E745F 		.ascii	"cnt_t\000"
 3599      7400
 3600              	.LASF58:
 3601 0365 5F636F6F 		.ascii	"_cookie\000"
 3601      6B696500 
 3602              	.LASF153:
 3603 036d 77746D74 		.ascii	"wtmtxp\000"
 3603      787000
 3604              	.LASF31:
 3605 0374 5F776473 		.ascii	"_wds\000"
 3605      00
 3606              	.LASF178:
 3607 0379 63685F72 		.ascii	"ch_ready_list\000"
 3607      65616479 
 3607      5F6C6973 
 3607      7400
 3608              	.LASF124:
 3609 0387 5F5F6C6F 		.ascii	"__lock\000"
 3609      636B00
 3610              	.LASF112:
 3611 038e 5F736967 		.ascii	"_sig_func\000"
 3611      5F66756E 
 3611      6300
 3612              	.LASF269:
 3613 0398 73656D5F 		.ascii	"sem_pool\000"
 3613      706F6F6C 
 3613      00
 3614              	.LASF66:
 3615 03a1 5F6F6666 		.ascii	"_offset\000"
 3615      73657400 
 3616              	.LASF109:
 3617 03a9 5F637674 		.ascii	"_cvtbuf\000"
 3617      62756600 
 3618              	.LASF250:
 3619 03b1 6E657874 		.ascii	"nextmem\000"
 3619      6D656D00 
 3620              	.LASF11:
 3621 03b9 5F5F7569 		.ascii	"__uint64_t\000"
 3621      6E743634 
 3621      5F7400
 3622              	.LASF239:
 3623 03c4 6F66665F 		.ascii	"off_state\000"
 3623      73746174 
 3623      6500
 3624              	.LASF106:
 3625 03ce 5F703573 		.ascii	"_p5s\000"
 3625      00
ARM GAS  /var/folders/vd/czx34qs52cd_f3nb04sxmghc0000gn/T//ccrUkQoJ.s 			page 68


 3626              	.LASF9:
 3627 03d3 6C6F6E67 		.ascii	"long unsigned int\000"
 3627      20756E73 
 3627      69676E65 
 3627      6420696E 
 3627      7400
 3628              	.LASF232:
 3629 03e5 74687265 		.ascii	"threadsize\000"
 3629      61647369 
 3629      7A6500
 3630              	.LASF133:
 3631 03f0 7069645F 		.ascii	"pid_t\000"
 3631      7400
 3632              	.LASF54:
 3633 03f6 5F5F7346 		.ascii	"__sFILE\000"
 3633      494C4500 
 3634              	.LASF102:
 3635 03fe 5F5F7364 		.ascii	"__sdidinit\000"
 3635      6964696E 
 3635      697400
 3636              	.LASF70:
 3637 0409 5F666C61 		.ascii	"_flags2\000"
 3637      67733200 
 3638              	.LASF199:
 3639 0411 53797374 		.ascii	"SystemCoreClock\000"
 3639      656D436F 
 3639      7265436C 
 3639      6F636B00 
 3640              	.LASF221:
 3641 0421 63685F73 		.ascii	"ch_semaphore\000"
 3641      656D6170 
 3641      686F7265 
 3641      00
 3642              	.LASF146:
 3643 042e 63685F74 		.ascii	"ch_thread\000"
 3643      68726561 
 3643      6400
 3644              	.LASF185:
 3645 0438 76697274 		.ascii	"virtual_timers_list_t\000"
 3645      75616C5F 
 3645      74696D65 
 3645      72735F6C 
 3645      6973745F 
 3646              	.LASF224:
 3647 044e 63685F69 		.ascii	"ch_idle_thread_wa\000"
 3647      646C655F 
 3647      74687265 
 3647      61645F77 
 3647      6100
 3648              	.LASF94:
 3649 0460 5F657272 		.ascii	"_errno\000"
 3649      6E6F00
 3650              	.LASF271:
 3651 0467 6669666F 		.ascii	"fifo_list\000"
 3651      5F6C6973 
 3651      7400
 3652              	.LASF181:
ARM GAS  /var/folders/vd/czx34qs52cd_f3nb04sxmghc0000gn/T//ccrUkQoJ.s 			page 69


 3653 0471 76697274 		.ascii	"virtual_timer_t\000"
 3653      75616C5F 
 3653      74696D65 
 3653      725F7400 
 3654              	.LASF177:
 3655 0481 72656164 		.ascii	"ready_list_t\000"
 3655      795F6C69 
 3655      73745F74 
 3655      00
 3656              	.LASF158:
 3657 048e 6F6C6465 		.ascii	"older\000"
 3657      7200
 3658              	.LASF83:
 3659 0494 5F736967 		.ascii	"_signal_buf\000"
 3659      6E616C5F 
 3659      62756600 
 3660              	.LASF168:
 3661 04a0 7265616C 		.ascii	"realprio\000"
 3661      7072696F 
 3661      00
 3662              	.LASF144:
 3663 04a9 75636E74 		.ascii	"ucnt_t\000"
 3663      5F7400
 3664              	.LASF210:
 3665 04b0 4552524F 		.ascii	"ERROR\000"
 3665      5200
 3666              	.LASF238:
 3667 04b6 6F66665F 		.ascii	"off_stklimit\000"
 3667      73746B6C 
 3667      696D6974 
 3667      00
 3668              	.LASF254:
 3669 04c3 706F6F6C 		.ascii	"pool_header\000"
 3669      5F686561 
 3669      64657200 
 3670              	.LASF32:
 3671 04cf 5F426967 		.ascii	"_Bigint\000"
 3671      696E7400 
 3672              	.LASF172:
 3673 04d7 63685F74 		.ascii	"ch_threads_list\000"
 3673      68726561 
 3673      64735F6C 
 3673      69737400 
 3674              	.LASF29:
 3675 04e7 5F6D6178 		.ascii	"_maxwds\000"
 3675      77647300 
 3676              	.LASF286:
 3677 04ef 6F73616C 		.ascii	"osalSysHalt\000"
 3677      53797348 
 3677      616C7400 
 3678              	.LASF103:
 3679 04fb 5F5F636C 		.ascii	"__cleanup\000"
 3679      65616E75 
 3679      7000
 3680              	.LASF111:
 3681 0505 5F617465 		.ascii	"_atexit0\000"
 3681      78697430 
ARM GAS  /var/folders/vd/czx34qs52cd_f3nb04sxmghc0000gn/T//ccrUkQoJ.s 			page 70


 3681      00
 3682              	.LASF283:
 3683 050e 5F5F6378 		.ascii	"__cxa_pure_virtual\000"
 3683      615F7075 
 3683      72655F76 
 3683      69727475 
 3683      616C00
 3684              	.LASF8:
 3685 0521 5F5F7569 		.ascii	"__uint32_t\000"
 3685      6E743332 
 3685      5F7400
 3686              	.LASF99:
 3687 052c 5F656D65 		.ascii	"_emergency\000"
 3687      7267656E 
 3687      637900
 3688              	.LASF167:
 3689 0537 6D74786C 		.ascii	"mtxlist\000"
 3689      69737400 
 3690              	.LASF10:
 3691 053f 6C6F6E67 		.ascii	"long long int\000"
 3691      206C6F6E 
 3691      6720696E 
 3691      7400
 3692              	.LASF197:
 3693 054d 73797369 		.ascii	"sysinterval_t\000"
 3693      6E746572 
 3693      76616C5F 
 3693      7400
 3694              	.LASF118:
 3695 055b 5F6E696F 		.ascii	"_niobs\000"
 3695      627300
 3696              	.LASF264:
 3697 0562 63685F6F 		.ascii	"ch_objects_factory\000"
 3697      626A6563 
 3697      74735F66 
 3697      6163746F 
 3697      727900
 3698              	.LASF113:
 3699 0575 5F5F7367 		.ascii	"__sglue\000"
 3699      6C756500 
 3700              	.LASF92:
 3701 057d 5F6E6D61 		.ascii	"_nmalloc\000"
 3701      6C6C6F63 
 3701      00
 3702              	.LASF76:
 3703 0586 5F67616D 		.ascii	"_gamma_signgam\000"
 3703      6D615F73 
 3703      69676E67 
 3703      616D00
 3704              	.LASF107:
 3705 0595 5F667265 		.ascii	"_freelist\000"
 3705      656C6973 
 3705      7400
 3706              	.LASF119:
 3707 059f 5F696F62 		.ascii	"_iobs\000"
 3707      7300
 3708              	.LASF257:
ARM GAS  /var/folders/vd/czx34qs52cd_f3nb04sxmghc0000gn/T//ccrUkQoJ.s 			page 71


 3709 05a5 616C6967 		.ascii	"align\000"
 3709      6E00
 3710              	.LASF117:
 3711 05ab 5F676C75 		.ascii	"_glue\000"
 3711      6500
 3712              	.LASF198:
 3713 05b1 49544D5F 		.ascii	"ITM_RxBuffer\000"
 3713      52784275 
 3713      66666572 
 3713      00
 3714              	.LASF30:
 3715 05be 5F736967 		.ascii	"_sign\000"
 3715      6E00
 3716              	.LASF277:
 3717 05c4 5F657869 		.ascii	"_exit\000"
 3717      7400
 3718              	.LASF235:
 3719 05ca 6F66665F 		.ascii	"off_newer\000"
 3719      6E657765 
 3719      7200
 3720              	.LASF13:
 3721 05d4 756E7369 		.ascii	"unsigned int\000"
 3721      676E6564 
 3721      20696E74 
 3721      00
 3722              	.LASF136:
 3723 05e1 7274636E 		.ascii	"rtcnt_t\000"
 3723      745F7400 
 3724              	.LASF163:
 3725 05e9 72656673 		.ascii	"refs\000"
 3725      00
 3726              	.LASF90:
 3727 05ee 5F685F65 		.ascii	"_h_errno\000"
 3727      72726E6F 
 3727      00
 3728              	.LASF274:
 3729 05f7 5F5F6473 		.ascii	"__dso_handle\000"
 3729      6F5F6861 
 3729      6E646C65 
 3729      00
 3730              	.LASF88:
 3731 0604 5F776372 		.ascii	"_wcrtomb_state\000"
 3731      746F6D62 
 3731      5F737461 
 3731      746500
 3732              	.LASF37:
 3733 0613 5F5F746D 		.ascii	"__tm_mday\000"
 3733      5F6D6461 
 3733      7900
 3734              	.LASF110:
 3735 061d 5F6E6577 		.ascii	"_new\000"
 3735      00
 3736              	.LASF63:
 3737 0622 5F756275 		.ascii	"_ubuf\000"
 3737      6600
 3738              	.LASF97:
 3739 0628 5F737464 		.ascii	"_stderr\000"
ARM GAS  /var/folders/vd/czx34qs52cd_f3nb04sxmghc0000gn/T//ccrUkQoJ.s 			page 72


 3739      65727200 
 3740              	.LASF81:
 3741 0630 5F776374 		.ascii	"_wctomb_state\000"
 3741      6F6D625F 
 3741      73746174 
 3741      6500
 3742              	.LASF69:
 3743 063e 5F6D6273 		.ascii	"_mbstate\000"
 3743      74617465 
 3743      00
 3744              	.LASF179:
 3745 0647 63757272 		.ascii	"current\000"
 3745      656E7400 
 3746              	.LASF77:
 3747 064f 5F72616E 		.ascii	"_rand_next\000"
 3747      645F6E65 
 3747      787400
 3748              	.LASF55:
 3749 065a 5F666C61 		.ascii	"_flags\000"
 3749      677300
 3750              	.LASF219:
 3751 0661 6F666673 		.ascii	"offset\000"
 3751      657400
 3752              	.LASF170:
 3753 0668 74687265 		.ascii	"thread_reference_t\000"
 3753      61645F72 
 3753      65666572 
 3753      656E6365 
 3753      5F7400
 3754              	.LASF48:
 3755 067b 5F617465 		.ascii	"_atexit\000"
 3755      78697400 
 3756              	.LASF23:
 3757 0683 5F5F636F 		.ascii	"__count\000"
 3757      756E7400 
 3758              	.LASF247:
 3759 068b 626F6F6C 		.ascii	"bool\000"
 3759      00
 3760              	.LASF248:
 3761 0690 6D656D67 		.ascii	"memgetfunc_t\000"
 3761      65746675 
 3761      6E635F74 
 3761      00
 3762              	.LASF40:
 3763 069d 5F5F746D 		.ascii	"__tm_wday\000"
 3763      5F776461 
 3763      7900
 3764              	.LASF206:
 3765 06a7 44495341 		.ascii	"DISABLE\000"
 3765      424C4500 
 3766              	.LASF145:
 3767 06af 74687265 		.ascii	"thread_t\000"
 3767      61645F74 
 3767      00
 3768              	.LASF15:
 3769 06b8 6C6F6E67 		.ascii	"long double\000"
 3769      20646F75 
ARM GAS  /var/folders/vd/czx34qs52cd_f3nb04sxmghc0000gn/T//ccrUkQoJ.s 			page 73


 3769      626C6500 
 3770              	.LASF41:
 3771 06c4 5F5F746D 		.ascii	"__tm_yday\000"
 3771      5F796461 
 3771      7900
 3772              	.LASF225:
 3773 06ce 39636864 		.ascii	"9chdebug_t\000"
 3773      65627567 
 3773      5F7400
 3774              	.LASF151:
 3775 06d9 73656E74 		.ascii	"sentmsg\000"
 3775      6D736700 
 3776              	.LASF216:
 3777 06e1 706F7274 		.ascii	"port_intctx\000"
 3777      5F696E74 
 3777      63747800 
 3778              	.LASF272:
 3779 06ed 6F626A65 		.ascii	"objects_factory_t\000"
 3779      6374735F 
 3779      66616374 
 3779      6F72795F 
 3779      7400
 3780              	.LASF18:
 3781 06ff 5F5F7069 		.ascii	"__pid_t\000"
 3781      645F7400 
 3782              	.LASF276:
 3783 0707 5F6B696C 		.ascii	"_kill\000"
 3783      6C00
 3784              	.LASF121:
 3785 070d 5F736565 		.ascii	"_seed\000"
 3785      6400
 3786              	.LASF207:
 3787 0713 454E4142 		.ascii	"ENABLE\000"
 3787      4C4500
 3788              	.LASF267:
 3789 071a 6275665F 		.ascii	"buf_list\000"
 3789      6C697374 
 3789      00
 3790              	.LASF61:
 3791 0723 5F736565 		.ascii	"_seek\000"
 3791      6B00
 3792              	.LASF212:
 3793 0729 4572726F 		.ascii	"ErrorStatus\000"
 3793      72537461 
 3793      74757300 
 3794              	.LASF19:
 3795 0735 5F66706F 		.ascii	"_fpos_t\000"
 3795      735F7400 
 3796              	.LASF22:
 3797 073d 5F5F7763 		.ascii	"__wchb\000"
 3797      686200
 3798              	.LASF200:
 3799 0744 41484250 		.ascii	"AHBPrescTable\000"
 3799      72657363 
 3799      5461626C 
 3799      6500
 3800              	.LASF182:
ARM GAS  /var/folders/vd/czx34qs52cd_f3nb04sxmghc0000gn/T//ccrUkQoJ.s 			page 74


 3801 0752 63685F76 		.ascii	"ch_virtual_timer\000"
 3801      69727475 
 3801      616C5F74 
 3801      696D6572 
 3801      00
 3802              	.LASF218:
 3803 0763 3136746D 		.ascii	"16tm_calibration_t\000"
 3803      5F63616C 
 3803      69627261 
 3803      74696F6E 
 3803      5F7400
 3804              	.LASF80:
 3805 0776 5F6D6274 		.ascii	"_mbtowc_state\000"
 3805      6F77635F 
 3805      73746174 
 3805      6500
 3806              	.LASF280:
 3807 0784 2E2E2F6F 		.ascii	"../os/various/cpp_wrappers/syscalls_cpp.cpp\000"
 3807      732F7661 
 3807      72696F75 
 3807      732F6370 
 3807      705F7772 
 3808              	.LASF208:
 3809 07b0 46756E63 		.ascii	"FunctionalState\000"
 3809      74696F6E 
 3809      616C5374 
 3809      61746500 
 3810              	.LASF228:
 3811 07c0 73697A65 		.ascii	"size\000"
 3811      00
 3812              	.LASF12:
 3813 07c5 6C6F6E67 		.ascii	"long long unsigned int\000"
 3813      206C6F6E 
 3813      6720756E 
 3813      7369676E 
 3813      65642069 
 3814              	.LASF129:
 3815 07dc 75696E74 		.ascii	"uint16_t\000"
 3815      31365F74 
 3815      00
 3816              	.LASF237:
 3817 07e5 6F66665F 		.ascii	"off_name\000"
 3817      6E616D65 
 3817      00
 3818              	.LASF45:
 3819 07ee 5F64736F 		.ascii	"_dso_handle\000"
 3819      5F68616E 
 3819      646C6500 
 3820              	.LASF141:
 3821 07fa 6D73675F 		.ascii	"msg_t\000"
 3821      7400
 3822              	.LASF175:
 3823 0800 63685F74 		.ascii	"ch_threads_queue\000"
 3823      68726561 
 3823      64735F71 
 3823      75657565 
 3823      00
ARM GAS  /var/folders/vd/czx34qs52cd_f3nb04sxmghc0000gn/T//ccrUkQoJ.s 			page 75


 3824              	.LASF120:
 3825 0811 5F72616E 		.ascii	"_rand48\000"
 3825      64343800 
 3826              	.LASF96:
 3827 0819 5F737464 		.ascii	"_stdout\000"
 3827      6F757400 
 3828              	.LASF183:
 3829 0821 64656C74 		.ascii	"delta\000"
 3829      6100
 3830              	.LASF65:
 3831 0827 5F626C6B 		.ascii	"_blksize\000"
 3831      73697A65 
 3831      00
 3832              	.LASF52:
 3833 0830 5F626173 		.ascii	"_base\000"
 3833      6500
 3834              	.LASF211:
 3835 0836 53554343 		.ascii	"SUCCESS\000"
 3835      45535300 
 3836              	.LASF155:
 3837 083e 71756575 		.ascii	"queue\000"
 3837      6500
 3838              	.LASF287:
 3839 0844 72656173 		.ascii	"reason\000"
 3839      6F6E00
 3840              	.LASF73:
 3841 084b 5F737472 		.ascii	"_strtok_last\000"
 3841      746F6B5F 
 3841      6C617374 
 3841      00
 3842              	.LASF273:
 3843 0858 63685F66 		.ascii	"ch_factory\000"
 3843      6163746F 
 3843      727900
 3844              	.LASF86:
 3845 0863 5F6D6272 		.ascii	"_mbrtowc_state\000"
 3845      746F7763 
 3845      5F737461 
 3845      746500
 3846              	.LASF270:
 3847 0872 6D62785F 		.ascii	"mbx_list\000"
 3847      6C697374 
 3847      00
 3848              	.LASF195:
 3849 087b 6D61696E 		.ascii	"mainthread\000"
 3849      74687265 
 3849      616400
 3850              	.LASF26:
 3851 0886 5F666C6F 		.ascii	"_flock_t\000"
 3851      636B5F74 
 3851      00
 3852              	.LASF229:
 3853 088f 76657273 		.ascii	"version\000"
 3853      696F6E00 
 3854              	.LASF116:
 3855 0897 5F5F4649 		.ascii	"__FILE\000"
 3855      4C4500
ARM GAS  /var/folders/vd/czx34qs52cd_f3nb04sxmghc0000gn/T//ccrUkQoJ.s 			page 76


 3856              	.LASF202:
 3857 089e 52455345 		.ascii	"RESET\000"
 3857      5400
 3858              	.LASF25:
 3859 08a4 5F6D6273 		.ascii	"_mbstate_t\000"
 3859      74617465 
 3859      5F7400
 3860              	.LASF78:
 3861 08af 5F723438 		.ascii	"_r48\000"
 3861      00
 3862              	.LASF160:
 3863 08b4 77616261 		.ascii	"wabase\000"
 3863      736500
 3864              	.LASF20:
 3865 08bb 77696E74 		.ascii	"wint_t\000"
 3865      5F7400
 3866              	.LASF259:
 3867 08c2 6D656D6F 		.ascii	"memory_pool_t\000"
 3867      72795F70 
 3867      6F6F6C5F 
 3867      7400
 3868              	.LASF28:
 3869 08d0 5F6E6578 		.ascii	"_next\000"
 3869      7400
 3870              	.LASF67:
 3871 08d6 5F646174 		.ascii	"_data\000"
 3871      6100
 3872              	.LASF203:
 3873 08dc 466C6167 		.ascii	"FlagStatus\000"
 3873      53746174 
 3873      757300
 3874              	.LASF193:
 3875 08e7 726C6973 		.ascii	"rlist\000"
 3875      7400
 3876              	.LASF137:
 3877 08ed 746D6F64 		.ascii	"tmode_t\000"
 3877      655F7400 
 3878              	.LASF220:
 3879 08f5 746D5F63 		.ascii	"tm_calibration_t\000"
 3879      616C6962 
 3879      72617469 
 3879      6F6E5F74 
 3879      00
 3880              	.LASF159:
 3881 0906 6E616D65 		.ascii	"name\000"
 3881      00
 3882              	.LASF201:
 3883 090b 41504250 		.ascii	"APBPrescTable\000"
 3883      72657363 
 3883      5461626C 
 3883      6500
 3884              	.LASF79:
 3885 0919 5F6D626C 		.ascii	"_mblen_state\000"
 3885      656E5F73 
 3885      74617465 
 3885      00
 3886              	.LASF2:
ARM GAS  /var/folders/vd/czx34qs52cd_f3nb04sxmghc0000gn/T//ccrUkQoJ.s 			page 77


 3887 0926 73686F72 		.ascii	"short int\000"
 3887      7420696E 
 3887      7400
 3888              	.LASF132:
 3889 0930 75696E74 		.ascii	"uint64_t\000"
 3889      36345F74 
 3889      00
 3890              	.LASF184:
 3891 0939 66756E63 		.ascii	"func\000"
 3891      00
 3892              	.LASF222:
 3893 093e 63685F6D 		.ascii	"ch_mutex\000"
 3893      75746578 
 3893      00
 3894              	.LASF165:
 3895 0947 6D736771 		.ascii	"msgqueue\000"
 3895      75657565 
 3895      00
 3896              	.LASF46:
 3897 0950 5F666E74 		.ascii	"_fntypes\000"
 3897      79706573 
 3897      00
 3898              	.LASF189:
 3899 0959 63685F73 		.ascii	"ch_system_debug\000"
 3899      79737465 
 3899      6D5F6465 
 3899      62756700 
 3900              	.LASF134:
 3901 0969 5F737973 		.ascii	"_sys_errlist\000"
 3901      5F657272 
 3901      6C697374 
 3901      00
 3902              	.LASF263:
 3903 0976 64796E5F 		.ascii	"dyn_list_t\000"
 3903      6C697374 
 3903      5F7400
 3904              	.LASF39:
 3905 0981 5F5F746D 		.ascii	"__tm_year\000"
 3905      5F796561 
 3905      7200
 3906              	.LASF256:
 3907 098b 6F626A65 		.ascii	"object_size\000"
 3907      63745F73 
 3907      697A6500 
 3908              	.LASF57:
 3909 0997 5F6C6266 		.ascii	"_lbfsize\000"
 3909      73697A65 
 3909      00
 3910              	.LASF194:
 3911 09a0 76746C69 		.ascii	"vtlist\000"
 3911      737400
 3912              	.LASF98:
 3913 09a7 5F696E63 		.ascii	"_inc\000"
 3913      00
 3914              	.LASF49:
 3915 09ac 5F696E64 		.ascii	"_ind\000"
 3915      00
ARM GAS  /var/folders/vd/czx34qs52cd_f3nb04sxmghc0000gn/T//ccrUkQoJ.s 			page 78


 3916              	.LASF164:
 3917 09b1 77616974 		.ascii	"waiting\000"
 3917      696E6700 
 3918              	.LASF288:
 3919 09b9 63685379 		.ascii	"chSysHalt\000"
 3919      7348616C 
 3919      7400
 3920              	.LASF51:
 3921 09c3 5F5F7362 		.ascii	"__sbuf\000"
 3921      756600
 3922              	.LASF261:
 3923 09ca 64796E5F 		.ascii	"dyn_element_t\000"
 3923      656C656D 
 3923      656E745F 
 3923      7400
 3924              	.LASF47:
 3925 09d8 5F69735F 		.ascii	"_is_cxa\000"
 3925      63786100 
 3926              	.LASF16:
 3927 09e0 5F4C4F43 		.ascii	"_LOCK_T\000"
 3927      4B5F5400 
 3928              	.LASF246:
 3929 09e8 6D757465 		.ascii	"mutex_t\000"
 3929      785F7400 
 3930              	.LASF139:
 3931 09f0 74726566 		.ascii	"trefs_t\000"
 3931      735F7400 
 3932              	.LASF91:
 3933 09f8 5F6E6578 		.ascii	"_nextf\000"
 3933      746600
 3934              	.LASF215:
 3935 09ff 706F7274 		.ascii	"port_context\000"
 3935      5F636F6E 
 3935      74657874 
 3935      00
 3936              	.LASF171:
 3937 0a0c 74687265 		.ascii	"threads_list_t\000"
 3937      6164735F 
 3937      6C697374 
 3937      5F7400
 3938              	.LASF278:
 3939 0a1b 73746174 		.ascii	"status\000"
 3939      757300
 3940              	.LASF192:
 3941 0a22 63685F73 		.ascii	"ch_system\000"
 3941      79737465 
 3941      6D00
 3942              	.LASF101:
 3943 0a2c 5F6C6F63 		.ascii	"_locale\000"
 3943      616C6500 
 3944              	.LASF27:
 3945 0a34 5F5F554C 		.ascii	"__ULong\000"
 3945      6F6E6700 
 3946              	.LASF157:
 3947 0a3c 6E657765 		.ascii	"newer\000"
 3947      7200
 3948              	.LASF131:
ARM GAS  /var/folders/vd/czx34qs52cd_f3nb04sxmghc0000gn/T//ccrUkQoJ.s 			page 79


 3949 0a42 75696E74 		.ascii	"uint32_t\000"
 3949      33325F74 
 3949      00
 3950              	.LASF281:
 3951 0a4b 2F557365 		.ascii	"/Users/lantian/Projects/stm32f407vet6/dev\000"
 3951      72732F6C 
 3951      616E7469 
 3951      616E2F50 
 3951      726F6A65 
 3952              	.LASF104:
 3953 0a75 5F726573 		.ascii	"_result\000"
 3953      756C7400 
 3954              	.LASF249:
 3955 0a7d 396D656D 		.ascii	"9memcore_t\000"
 3955      636F7265 
 3955      5F7400
 3956              	.LASF17:
 3957 0a88 5F6F6666 		.ascii	"_off_t\000"
 3957      5F7400
 3958              	.LASF147:
 3959 0a8f 7264796D 		.ascii	"rdymsg\000"
 3959      736700
 3960              	.LASF123:
 3961 0a96 5F616464 		.ascii	"_add\000"
 3961      00
 3962              	.LASF5:
 3963 0a9b 73686F72 		.ascii	"short unsigned int\000"
 3963      7420756E 
 3963      7369676E 
 3963      65642069 
 3963      6E7400
 3964              	.LASF36:
 3965 0aae 5F5F746D 		.ascii	"__tm_hour\000"
 3965      5F686F75 
 3965      7200
 3966              	.LASF191:
 3967 0ab8 63685F73 		.ascii	"ch_system_t\000"
 3967      79737465 
 3967      6D5F7400 
 3968              	.LASF244:
 3969 0ac4 63686465 		.ascii	"chdebug_t\000"
 3969      6275675F 
 3969      7400
 3970              	.LASF87:
 3971 0ace 5F6D6273 		.ascii	"_mbsrtowcs_state\000"
 3971      72746F77 
 3971      63735F73 
 3971      74617465 
 3971      00
 3972              	.LASF176:
 3973 0adf 70726576 		.ascii	"prev\000"
 3973      00
 3974              	.LASF231:
 3975 0ae4 74696D65 		.ascii	"timesize\000"
 3975      73697A65 
 3975      00
 3976              	.LASF6:
ARM GAS  /var/folders/vd/czx34qs52cd_f3nb04sxmghc0000gn/T//ccrUkQoJ.s 			page 80


 3977 0aed 5F5F696E 		.ascii	"__int32_t\000"
 3977      7433325F 
 3977      7400
 3978              	.LASF253:
 3979 0af7 63685F6D 		.ascii	"ch_memcore\000"
 3979      656D636F 
 3979      726500
 3980              	.LASF240:
 3981 0b02 6F66665F 		.ascii	"off_flags\000"
 3981      666C6167 
 3981      7300
 3982              	.LASF44:
 3983 0b0c 5F666E61 		.ascii	"_fnargs\000"
 3983      72677300 
 3984              	.LASF42:
 3985 0b14 5F5F746D 		.ascii	"__tm_isdst\000"
 3985      5F697364 
 3985      737400
 3986              	.LASF173:
 3987 0b1f 6E657874 		.ascii	"next\000"
 3987      00
 3988              	.LASF279:
 3989 0b24 474E5520 		.ascii	"GNU C++11 7.2.1 20170904 (release) [ARM/embedded-7-"
 3989      432B2B31 
 3989      3120372E 
 3989      322E3120 
 3989      32303137 
 3990 0b57 6272616E 		.ascii	"branch revision 255204] -mcpu=cortex-m4 -mno-thumb-"
 3990      63682072 
 3990      65766973 
 3990      696F6E20 
 3990      32353532 
 3991 0b8a 696E7465 		.ascii	"interwork -mthumb -ggdb -O2 -std=gnu++11 -fomit-fra"
 3991      72776F72 
 3991      6B202D6D 
 3991      7468756D 
 3991      62202D67 
 3992 0bbd 6D652D70 		.ascii	"me-pointer -falign-functions=16 -ffunction-sections"
 3992      6F696E74 
 3992      6572202D 
 3992      66616C69 
 3992      676E2D66 
 3993 0bf0 202D6664 		.ascii	" -fdata-sections -fno-common -fno-exceptions -fno-r"
 3993      6174612D 
 3993      73656374 
 3993      696F6E73 
 3993      202D666E 
 3994 0c23 74746900 		.ascii	"tti\000"
 3995              	.LASF35:
 3996 0c27 5F5F746D 		.ascii	"__tm_min\000"
 3996      5F6D696E 
 3996      00
 3997              	.LASF262:
 3998 0c30 63685F64 		.ascii	"ch_dyn_list\000"
 3998      796E5F6C 
 3998      69737400 
 3999              	.LASF226:
ARM GAS  /var/folders/vd/czx34qs52cd_f3nb04sxmghc0000gn/T//ccrUkQoJ.s 			page 81


 4000 0c3c 6964656E 		.ascii	"identifier\000"
 4000      74696669 
 4000      657200
 4001              	.LASF84:
 4002 0c47 5F676574 		.ascii	"_getdate_err\000"
 4002      64617465 
 4002      5F657272 
 4002      00
 4003              	.LASF152:
 4004 0c54 77747365 		.ascii	"wtsemp\000"
 4004      6D7000
 4005              		.ident	"GCC: (GNU Tools for Arm Embedded Processors 7-2017-q4-major) 7.2.1 20170904 (release) [ARM
ARM GAS  /var/folders/vd/czx34qs52cd_f3nb04sxmghc0000gn/T//ccrUkQoJ.s 			page 82


DEFINED SYMBOLS
                            *ABS*:0000000000000000 syscalls_cpp.cpp
/var/folders/vd/czx34qs52cd_f3nb04sxmghc0000gn/T//ccrUkQoJ.s:16     .text._exit:0000000000000000 $t
/var/folders/vd/czx34qs52cd_f3nb04sxmghc0000gn/T//ccrUkQoJ.s:24     .text._exit:0000000000000000 _exit
/var/folders/vd/czx34qs52cd_f3nb04sxmghc0000gn/T//ccrUkQoJ.s:50     .text._exit:000000000000000c $d
/var/folders/vd/czx34qs52cd_f3nb04sxmghc0000gn/T//ccrUkQoJ.s:57     .text._getpid:0000000000000000 $t
/var/folders/vd/czx34qs52cd_f3nb04sxmghc0000gn/T//ccrUkQoJ.s:65     .text._getpid:0000000000000000 _getpid
/var/folders/vd/czx34qs52cd_f3nb04sxmghc0000gn/T//ccrUkQoJ.s:79     .text._kill:0000000000000000 $t
/var/folders/vd/czx34qs52cd_f3nb04sxmghc0000gn/T//ccrUkQoJ.s:87     .text._kill:0000000000000000 _kill
/var/folders/vd/czx34qs52cd_f3nb04sxmghc0000gn/T//ccrUkQoJ.s:106    .text._kill:000000000000000c $d
/var/folders/vd/czx34qs52cd_f3nb04sxmghc0000gn/T//ccrUkQoJ.s:111    .text._open_r:0000000000000000 $t
/var/folders/vd/czx34qs52cd_f3nb04sxmghc0000gn/T//ccrUkQoJ.s:119    .text._open_r:0000000000000000 _open_r
/var/folders/vd/czx34qs52cd_f3nb04sxmghc0000gn/T//ccrUkQoJ.s:132    .text.__cxa_pure_virtual:0000000000000000 $t
/var/folders/vd/czx34qs52cd_f3nb04sxmghc0000gn/T//ccrUkQoJ.s:140    .text.__cxa_pure_virtual:0000000000000000 __cxa_pure_virtual
/var/folders/vd/czx34qs52cd_f3nb04sxmghc0000gn/T//ccrUkQoJ.s:157    .text.__cxa_pure_virtual:0000000000000008 $d
/var/folders/vd/czx34qs52cd_f3nb04sxmghc0000gn/T//ccrUkQoJ.s:168    .bss.__dso_handle:0000000000000000 __dso_handle
/var/folders/vd/czx34qs52cd_f3nb04sxmghc0000gn/T//ccrUkQoJ.s:165    .bss.__dso_handle:0000000000000000 $d
/var/folders/vd/czx34qs52cd_f3nb04sxmghc0000gn/T//ccrUkQoJ.s:171    .rodata.__cxa_pure_virtual.str1.4:0000000000000000 $d
/var/folders/vd/czx34qs52cd_f3nb04sxmghc0000gn/T//ccrUkQoJ.s:175    .rodata._exit.str1.4:0000000000000000 $d

UNDEFINED SYMBOLS
chSysHalt
errno
