ARM GAS  /var/folders/vd/czx34qs52cd_f3nb04sxmghc0000gn/T//ccrUkQoJ.s 			page 1


   1              		.cpu cortex-m4
   2              		.eabi_attribute 20, 1
   3              		.eabi_attribute 21, 1
   4              		.eabi_attribute 23, 3
   5              		.eabi_attribute 24, 1
   6              		.eabi_attribute 25, 1
   7              		.eabi_attribute 26, 1
   8              		.eabi_attribute 30, 2
   9              		.eabi_attribute 34, 1
  10              		.eabi_attribute 18, 4
  11              		.file	"syscalls_cpp.cpp"
  12              		.text
  13              	.Ltext0:
  14              		.cfi_sections	.debug_frame
  15              		.section	.text._exit,"ax",%progbits
  16              		.align	1
  17              		.p2align 4,,15
  18              		.global	_exit
  19              		.syntax unified
  20              		.thumb
  21              		.thumb_func
  22              		.fpu softvfp
  23              		.type	_exit, %function
  24              	_exit:
  25              	.LFB314:
  26              		.file 1 "../os/various/cpp_wrappers/syscalls_cpp.cpp"
  27              		.loc 1 12 0
  28              		.cfi_startproc
  29              		@ Volatile: function does not return.
  30              		@ args = 0, pretend = 0, frame = 0
  31              		@ frame_needed = 0, uses_anonymous_args = 0
  32              	.LVL0:
  33 0000 08B5     		push	{r3, lr}
  34              		.cfi_def_cfa_offset 8
  35              		.cfi_offset 3, -8
  36              		.cfi_offset 14, -4
  37              	.LBB6:
  38              	.LBB7:
  39              		.file 2 "../os/hal/osal/rt/osal.h"
  40              		.loc 2 480 0
  41 0002 0248     		ldr	r0, .L5
  42              	.LVL1:
  43 0004 FFF7FEFF 		bl	chSysHalt
  44              	.LVL2:
  45              	.L2:
  46 0008 FEE7     		b	.L2
  47              	.L6:
  48 000a 00BF     		.align	2
  49              	.L5:
  50 000c 00000000 		.word	.LC0
  51              	.LBE7:
  52              	.LBE6:
  53              		.cfi_endproc
  54              	.LFE314:
  55              		.size	_exit, .-_exit
  56              		.section	.text._getpid,"ax",%progbits
  57              		.align	1
ARM GAS  /var/folders/vd/czx34qs52cd_f3nb04sxmghc0000gn/T//ccrUkQoJ.s 			page 2


  58              		.p2align 4,,15
  59              		.global	_getpid
  60              		.syntax unified
  61              		.thumb
  62              		.thumb_func
  63              		.fpu softvfp
  64              		.type	_getpid, %function
  65              	_getpid:
  66              	.LFB315:
  67              		.loc 1 18 0
  68              		.cfi_startproc
  69              		@ args = 0, pretend = 0, frame = 0
  70              		@ frame_needed = 0, uses_anonymous_args = 0
  71              		@ link register save eliminated.
  72              		.loc 1 20 0
  73 0000 0120     		movs	r0, #1
  74 0002 7047     		bx	lr
  75              		.cfi_endproc
  76              	.LFE315:
  77              		.size	_getpid, .-_getpid
  78              		.section	.text._kill,"ax",%progbits
  79              		.align	1
  80              		.p2align 4,,15
  81              		.global	_kill
  82              		.syntax unified
  83              		.thumb
  84              		.thumb_func
  85              		.fpu softvfp
  86              		.type	_kill, %function
  87              	_kill:
  88              	.LFB316:
  89              		.loc 1 24 0
  90              		.cfi_startproc
  91              		@ args = 0, pretend = 0, frame = 0
  92              		@ frame_needed = 0, uses_anonymous_args = 0
  93              		@ link register save eliminated.
  94              	.LVL3:
  95              		.loc 1 27 0
  96 0000 024B     		ldr	r3, .L9
  97 0002 1622     		movs	r2, #22
  98 0004 1A60     		str	r2, [r3]
  99              		.loc 1 29 0
 100 0006 4FF0FF30 		mov	r0, #-1
 101              	.LVL4:
 102 000a 7047     		bx	lr
 103              	.L10:
 104              		.align	2
 105              	.L9:
 106 000c 00000000 		.word	errno
 107              		.cfi_endproc
 108              	.LFE316:
 109              		.size	_kill, .-_kill
 110              		.section	.text._open_r,"ax",%progbits
 111              		.align	1
 112              		.p2align 4,,15
 113              		.global	_open_r
 114              		.syntax unified
ARM GAS  /var/folders/vd/czx34qs52cd_f3nb04sxmghc0000gn/T//ccrUkQoJ.s 			page 3


 115              		.thumb
 116              		.thumb_func
 117              		.fpu softvfp
 118              		.type	_open_r, %function
 119              	_open_r:
 120              	.LFB317:
 121              		.loc 1 31 0
 122              		.cfi_startproc
 123              		@ args = 0, pretend = 0, frame = 0
 124              		@ frame_needed = 0, uses_anonymous_args = 0
 125              		@ link register save eliminated.
 126              		.loc 1 33 0
 127 0000 7047     		bx	lr
 128              		.cfi_endproc
 129              	.LFE317:
 130              		.size	_open_r, .-_open_r
 131 0002 00BF     		.section	.text.__cxa_pure_virtual,"ax",%progbits
 132              		.align	1
 133              		.p2align 4,,15
 134              		.global	__cxa_pure_virtual
 135              		.syntax unified
 136              		.thumb
 137              		.thumb_func
 138              		.fpu softvfp
 139              		.type	__cxa_pure_virtual, %function
 140              	__cxa_pure_virtual:
 141              	.LFB318:
 142              		.loc 1 35 0
 143              		.cfi_startproc
 144              		@ args = 0, pretend = 0, frame = 0
 145              		@ frame_needed = 0, uses_anonymous_args = 0
 146              		@ link register save eliminated.
 147              	.LVL5:
 148              	.LBB8:
 149              	.LBB9:
 150              		.loc 2 480 0
 151 0000 0148     		ldr	r0, .L13
 152 0002 FFF7FEBF 		b	chSysHalt
 153              	.LVL6:
 154              	.L14:
 155 0006 00BF     		.align	2
 156              	.L13:
 157 0008 00000000 		.word	.LC1
 158              	.LBE9:
 159              	.LBE8:
 160              		.cfi_endproc
 161              	.LFE318:
 162              		.size	__cxa_pure_virtual, .-__cxa_pure_virtual
 163              		.global	__dso_handle
 164              		.section	.bss.__dso_handle,"aw",%nobits
 165              		.align	2
 166              		.type	__dso_handle, %object
 167              		.size	__dso_handle, 4
 168              	__dso_handle:
 169 0000 00000000 		.space	4
 170              		.section	.rodata.__cxa_pure_virtual.str1.4,"aMS",%progbits,1
 171              		.align	2
ARM GAS  /var/folders/vd/czx34qs52cd_f3nb04sxmghc0000gn/T//ccrUkQoJ.s 			page 4


 172              	.LC1:
 173 0000 50757265 		.ascii	"Pure virtual function call.\000"
 173      20766972 
 173      7475616C 
 173      2066756E 
 173      6374696F 
 174              		.section	.rodata._exit.str1.4,"aMS",%progbits,1
 175              		.align	2
 176              	.LC0:
 177 0000 556E7265 		.ascii	"Unrealized\000"
 177      616C697A 
 177      656400
 178              		.text
 179              	.Letext0:
 180              		.file 3 "/usr/local/Cellar/gcc-arm-none-eabi/20171218/arm-none-eabi/include/machine/_default_types
 181              		.file 4 "/usr/local/Cellar/gcc-arm-none-eabi/20171218/lib/gcc/arm-none-eabi/7.2.1/include/stddef.h
 182              		.file 5 "/usr/local/Cellar/gcc-arm-none-eabi/20171218/arm-none-eabi/include/sys/lock.h"
 183              		.file 6 "/usr/local/Cellar/gcc-arm-none-eabi/20171218/arm-none-eabi/include/sys/_types.h"
 184              		.file 7 "/usr/local/Cellar/gcc-arm-none-eabi/20171218/arm-none-eabi/include/sys/reent.h"
 185              		.file 8 "/usr/local/Cellar/gcc-arm-none-eabi/20171218/arm-none-eabi/include/sys/_stdint.h"
 186              		.file 9 "/usr/local/Cellar/gcc-arm-none-eabi/20171218/arm-none-eabi/include/sys/types.h"
 187              		.file 10 "/usr/local/Cellar/gcc-arm-none-eabi/20171218/arm-none-eabi/include/sys/errno.h"
 188              		.file 11 "../os/common/ports/ARMCMx/compilers/GCC/chtypes.h"
 189              		.file 12 "../os/rt/include/chsystypes.h"
 190              		.file 13 "../os/rt/include/chschd.h"
 191              		.file 14 "../os/rt/include/chtime.h"
 192              		.file 15 "../os/common/ext/ARM/CMSIS/Core/Include/core_cm4.h"
 193              		.file 16 "../os/common/ext/ST/STM32F4xx/system_stm32f4xx.h"
 194              		.file 17 "../os/common/ext/ST/STM32F4xx/stm32f4xx.h"
 195              		.file 18 "../os/common/ports/ARMCMx/chcore.h"
 196              		.file 19 "../os/common/ports/ARMCMx/chcore_v7m.h"
 197              		.file 20 "../os/rt/include/chtm.h"
 198              		.file 21 "../os/rt/include/chsem.h"
 199              		.file 22 "../os/rt/include/chmtx.h"
 200              		.file 23 "../os/rt/include/chsys.h"
 201              		.file 24 "../os/rt/include/chregistry.h"
 202              		.file 25 "../os/common/oslib/include/chmemcore.h"
 203              		.file 26 "../os/common/oslib/include/chmempools.h"
 204              		.file 27 "../os/common/oslib/include/chfactory.h"
 205              		.file 28 "../os/various/cpp_wrappers/syscalls_cpp.hpp"
 206              		.file 29 "../os/rt/include/ch.h"